
statemate：     文件格式 elf64-littleaarch64


Disassembly of section .init:

0000000000400498 <_init>:
  400498:	d503201f 	nop
  40049c:	a9bf7bfd 	stp	x29, x30, [sp, #-16]!
  4004a0:	910003fd 	mov	x29, sp
  4004a4:	94000028 	bl	400544 <call_weak_fn>
  4004a8:	a8c17bfd 	ldp	x29, x30, [sp], #16
  4004ac:	d65f03c0 	ret

Disassembly of section .plt:

00000000004004b0 <.plt>:
  4004b0:	a9bf7bf0 	stp	x16, x30, [sp, #-16]!
  4004b4:	f00000f0 	adrp	x16, 41f000 <__FRAME_END__+0x1ba20>
  4004b8:	f947fe11 	ldr	x17, [x16, #4088]
  4004bc:	913fe210 	add	x16, x16, #0xff8
  4004c0:	d61f0220 	br	x17
  4004c4:	d503201f 	nop
  4004c8:	d503201f 	nop
  4004cc:	d503201f 	nop

00000000004004d0 <__libc_start_main@plt>:
  4004d0:	90000110 	adrp	x16, 420000 <__libc_start_main@GLIBC_2.34>
  4004d4:	f9400211 	ldr	x17, [x16]
  4004d8:	91000210 	add	x16, x16, #0x0
  4004dc:	d61f0220 	br	x17

00000000004004e0 <__gmon_start__@plt>:
  4004e0:	90000110 	adrp	x16, 420000 <__libc_start_main@GLIBC_2.34>
  4004e4:	f9400611 	ldr	x17, [x16, #8]
  4004e8:	91002210 	add	x16, x16, #0x8
  4004ec:	d61f0220 	br	x17

00000000004004f0 <abort@plt>:
  4004f0:	90000110 	adrp	x16, 420000 <__libc_start_main@GLIBC_2.34>
  4004f4:	f9400a11 	ldr	x17, [x16, #16]
  4004f8:	91004210 	add	x16, x16, #0x10
  4004fc:	d61f0220 	br	x17

Disassembly of section .text:

0000000000400500 <_start>:
  400500:	d503201f 	nop
  400504:	d280001d 	mov	x29, #0x0                   	// #0
  400508:	d280001e 	mov	x30, #0x0                   	// #0
  40050c:	aa0003e5 	mov	x5, x0
  400510:	f94003e1 	ldr	x1, [sp]
  400514:	910023e2 	add	x2, sp, #0x8
  400518:	910003e6 	mov	x6, sp
  40051c:	90000000 	adrp	x0, 400000 <__abi_tag-0x278>
  400520:	9114d000 	add	x0, x0, #0x534
  400524:	d2800003 	mov	x3, #0x0                   	// #0
  400528:	d2800004 	mov	x4, #0x0                   	// #0
  40052c:	97ffffe9 	bl	4004d0 <__libc_start_main@plt>
  400530:	97fffff0 	bl	4004f0 <abort@plt>

0000000000400534 <__wrap_main>:
  400534:	d503201f 	nop
  400538:	14000ba3 	b	4033c4 <main>
  40053c:	d503201f 	nop

0000000000400540 <_dl_relocate_static_pie>:
  400540:	d65f03c0 	ret

0000000000400544 <call_weak_fn>:
  400544:	f00000e0 	adrp	x0, 41f000 <__FRAME_END__+0x1ba20>
  400548:	f947ec00 	ldr	x0, [x0, #4056]
  40054c:	b4000040 	cbz	x0, 400554 <call_weak_fn+0x10>
  400550:	17ffffe4 	b	4004e0 <__gmon_start__@plt>
  400554:	d65f03c0 	ret
  400558:	d503201f 	nop
  40055c:	d503201f 	nop

0000000000400560 <deregister_tm_clones>:
  400560:	90000100 	adrp	x0, 420000 <__libc_start_main@GLIBC_2.34>
  400564:	9100a000 	add	x0, x0, #0x28
  400568:	90000101 	adrp	x1, 420000 <__libc_start_main@GLIBC_2.34>
  40056c:	9100a021 	add	x1, x1, #0x28
  400570:	eb00003f 	cmp	x1, x0
  400574:	540000c0 	b.eq	40058c <deregister_tm_clones+0x2c>  // b.none
  400578:	f00000e1 	adrp	x1, 41f000 <__FRAME_END__+0x1ba20>
  40057c:	f947e821 	ldr	x1, [x1, #4048]
  400580:	b4000061 	cbz	x1, 40058c <deregister_tm_clones+0x2c>
  400584:	aa0103f0 	mov	x16, x1
  400588:	d61f0200 	br	x16
  40058c:	d65f03c0 	ret

0000000000400590 <register_tm_clones>:
  400590:	90000100 	adrp	x0, 420000 <__libc_start_main@GLIBC_2.34>
  400594:	9100a000 	add	x0, x0, #0x28
  400598:	90000101 	adrp	x1, 420000 <__libc_start_main@GLIBC_2.34>
  40059c:	9100a021 	add	x1, x1, #0x28
  4005a0:	cb000021 	sub	x1, x1, x0
  4005a4:	d37ffc22 	lsr	x2, x1, #63
  4005a8:	8b810c41 	add	x1, x2, x1, asr #3
  4005ac:	9341fc21 	asr	x1, x1, #1
  4005b0:	b40000c1 	cbz	x1, 4005c8 <register_tm_clones+0x38>
  4005b4:	f00000e2 	adrp	x2, 41f000 <__FRAME_END__+0x1ba20>
  4005b8:	f947f042 	ldr	x2, [x2, #4064]
  4005bc:	b4000062 	cbz	x2, 4005c8 <register_tm_clones+0x38>
  4005c0:	aa0203f0 	mov	x16, x2
  4005c4:	d61f0200 	br	x16
  4005c8:	d65f03c0 	ret
  4005cc:	d503201f 	nop

00000000004005d0 <__do_global_dtors_aux>:
  4005d0:	a9be7bfd 	stp	x29, x30, [sp, #-32]!
  4005d4:	910003fd 	mov	x29, sp
  4005d8:	f9000bf3 	str	x19, [sp, #16]
  4005dc:	90000113 	adrp	x19, 420000 <__libc_start_main@GLIBC_2.34>
  4005e0:	3940a260 	ldrb	w0, [x19, #40]
  4005e4:	35000080 	cbnz	w0, 4005f4 <__do_global_dtors_aux+0x24>
  4005e8:	97ffffde 	bl	400560 <deregister_tm_clones>
  4005ec:	52800020 	mov	w0, #0x1                   	// #1
  4005f0:	3900a260 	strb	w0, [x19, #40]
  4005f4:	f9400bf3 	ldr	x19, [sp, #16]
  4005f8:	a8c27bfd 	ldp	x29, x30, [sp], #32
  4005fc:	d65f03c0 	ret

0000000000400600 <frame_dummy>:
  400600:	17ffffe4 	b	400590 <register_tm_clones>

0000000000400604 <interface>:
  400604:	90000100 	adrp	x0, 420000 <__libc_start_main@GLIBC_2.34>
  400608:	91046000 	add	x0, x0, #0x118
  40060c:	39401000 	ldrb	w0, [x0, #4]
  400610:	7100001f 	cmp	w0, #0x0
  400614:	540000e0 	b.eq	400630 <interface+0x2c>  // b.none
  400618:	90000100 	adrp	x0, 420000 <__libc_start_main@GLIBC_2.34>
  40061c:	9103e000 	add	x0, x0, #0xf8
  400620:	f9400001 	ldr	x1, [x0]
  400624:	90000100 	adrp	x0, 420000 <__libc_start_main@GLIBC_2.34>
  400628:	91010000 	add	x0, x0, #0x40
  40062c:	f9000001 	str	x1, [x0]
  400630:	90000100 	adrp	x0, 420000 <__libc_start_main@GLIBC_2.34>
  400634:	91046000 	add	x0, x0, #0x118
  400638:	39401000 	ldrb	w0, [x0, #4]
  40063c:	7100001f 	cmp	w0, #0x0
  400640:	540000c1 	b.ne	400658 <interface+0x54>  // b.any
  400644:	90000100 	adrp	x0, 420000 <__libc_start_main@GLIBC_2.34>
  400648:	91046000 	add	x0, x0, #0x118
  40064c:	39401800 	ldrb	w0, [x0, #6]
  400650:	7100001f 	cmp	w0, #0x0
  400654:	540000e0 	b.eq	400670 <interface+0x6c>  // b.none
  400658:	90000100 	adrp	x0, 420000 <__libc_start_main@GLIBC_2.34>
  40065c:	9103e000 	add	x0, x0, #0xf8
  400660:	f9400001 	ldr	x1, [x0]
  400664:	90000100 	adrp	x0, 420000 <__libc_start_main@GLIBC_2.34>
  400668:	9100e000 	add	x0, x0, #0x38
  40066c:	f9000001 	str	x1, [x0]
  400670:	90000100 	adrp	x0, 420000 <__libc_start_main@GLIBC_2.34>
  400674:	91012000 	add	x0, x0, #0x48
  400678:	f9400000 	ldr	x0, [x0]
  40067c:	f100001f 	cmp	x0, #0x0
  400680:	54000280 	b.eq	4006d0 <interface+0xcc>  // b.none
  400684:	90000100 	adrp	x0, 420000 <__libc_start_main@GLIBC_2.34>
  400688:	9103e000 	add	x0, x0, #0xf8
  40068c:	f9400001 	ldr	x1, [x0]
  400690:	90000100 	adrp	x0, 420000 <__libc_start_main@GLIBC_2.34>
  400694:	91012000 	add	x0, x0, #0x48
  400698:	f9400000 	ldr	x0, [x0]
  40069c:	cb000020 	sub	x0, x1, x0
  4006a0:	9e670000 	fmov	d0, x0
  4006a4:	7e61d801 	ucvtf	d1, d0
  4006a8:	1e6c1000 	fmov	d0, #5.000000000000000000e-01
  4006ac:	1e602030 	fcmpe	d1, d0
  4006b0:	5400004a 	b.ge	4006b8 <interface+0xb4>  // b.tcont
  4006b4:	14000007 	b	4006d0 <interface+0xcc>
  4006b8:	90000100 	adrp	x0, 420000 <__libc_start_main@GLIBC_2.34>
  4006bc:	91034000 	add	x0, x0, #0xd0
  4006c0:	3900001f 	strb	wzr, [x0]
  4006c4:	90000100 	adrp	x0, 420000 <__libc_start_main@GLIBC_2.34>
  4006c8:	91012000 	add	x0, x0, #0x48
  4006cc:	f900001f 	str	xzr, [x0]
  4006d0:	90000100 	adrp	x0, 420000 <__libc_start_main@GLIBC_2.34>
  4006d4:	91014000 	add	x0, x0, #0x50
  4006d8:	f9400000 	ldr	x0, [x0]
  4006dc:	f100001f 	cmp	x0, #0x0
  4006e0:	54000280 	b.eq	400730 <interface+0x12c>  // b.none
  4006e4:	90000100 	adrp	x0, 420000 <__libc_start_main@GLIBC_2.34>
  4006e8:	9103e000 	add	x0, x0, #0xf8
  4006ec:	f9400001 	ldr	x1, [x0]
  4006f0:	90000100 	adrp	x0, 420000 <__libc_start_main@GLIBC_2.34>
  4006f4:	91014000 	add	x0, x0, #0x50
  4006f8:	f9400000 	ldr	x0, [x0]
  4006fc:	cb000020 	sub	x0, x1, x0
  400700:	9e670000 	fmov	d0, x0
  400704:	7e61d801 	ucvtf	d1, d0
  400708:	1e6c1000 	fmov	d0, #5.000000000000000000e-01
  40070c:	1e602030 	fcmpe	d1, d0
  400710:	5400004a 	b.ge	400718 <interface+0x114>  // b.tcont
  400714:	14000007 	b	400730 <interface+0x12c>
  400718:	90000100 	adrp	x0, 420000 <__libc_start_main@GLIBC_2.34>
  40071c:	91033400 	add	x0, x0, #0xcd
  400720:	3900001f 	strb	wzr, [x0]
  400724:	90000100 	adrp	x0, 420000 <__libc_start_main@GLIBC_2.34>
  400728:	91014000 	add	x0, x0, #0x50
  40072c:	f900001f 	str	xzr, [x0]
  400730:	90000100 	adrp	x0, 420000 <__libc_start_main@GLIBC_2.34>
  400734:	91016000 	add	x0, x0, #0x58
  400738:	f9400000 	ldr	x0, [x0]
  40073c:	f100001f 	cmp	x0, #0x0
  400740:	54000280 	b.eq	400790 <interface+0x18c>  // b.none
  400744:	90000100 	adrp	x0, 420000 <__libc_start_main@GLIBC_2.34>
  400748:	9103e000 	add	x0, x0, #0xf8
  40074c:	f9400001 	ldr	x1, [x0]
  400750:	90000100 	adrp	x0, 420000 <__libc_start_main@GLIBC_2.34>
  400754:	91016000 	add	x0, x0, #0x58
  400758:	f9400000 	ldr	x0, [x0]
  40075c:	cb000020 	sub	x0, x1, x0
  400760:	9e670000 	fmov	d0, x0
  400764:	7e61d801 	ucvtf	d1, d0
  400768:	1e6c1000 	fmov	d0, #5.000000000000000000e-01
  40076c:	1e602030 	fcmpe	d1, d0
  400770:	5400004a 	b.ge	400778 <interface+0x174>  // b.tcont
  400774:	14000007 	b	400790 <interface+0x18c>
  400778:	90000100 	adrp	x0, 420000 <__libc_start_main@GLIBC_2.34>
  40077c:	91033400 	add	x0, x0, #0xcd
  400780:	3900001f 	strb	wzr, [x0]
  400784:	90000100 	adrp	x0, 420000 <__libc_start_main@GLIBC_2.34>
  400788:	91016000 	add	x0, x0, #0x58
  40078c:	f900001f 	str	xzr, [x0]
  400790:	90000100 	adrp	x0, 420000 <__libc_start_main@GLIBC_2.34>
  400794:	9101c000 	add	x0, x0, #0x70
  400798:	f9400000 	ldr	x0, [x0]
  40079c:	f100001f 	cmp	x0, #0x0
  4007a0:	54000220 	b.eq	4007e4 <interface+0x1e0>  // b.none
  4007a4:	90000100 	adrp	x0, 420000 <__libc_start_main@GLIBC_2.34>
  4007a8:	9103e000 	add	x0, x0, #0xf8
  4007ac:	f9400001 	ldr	x1, [x0]
  4007b0:	90000100 	adrp	x0, 420000 <__libc_start_main@GLIBC_2.34>
  4007b4:	9101c000 	add	x0, x0, #0x70
  4007b8:	f9400000 	ldr	x0, [x0]
  4007bc:	cb000020 	sub	x0, x1, x0
  4007c0:	9e670000 	fmov	d0, x0
  4007c4:	7e61d801 	ucvtf	d1, d0
  4007c8:	1e6c1000 	fmov	d0, #5.000000000000000000e-01
  4007cc:	1e602030 	fcmpe	d1, d0
  4007d0:	5400004a 	b.ge	4007d8 <interface+0x1d4>  // b.tcont
  4007d4:	14000004 	b	4007e4 <interface+0x1e0>
  4007d8:	90000100 	adrp	x0, 420000 <__libc_start_main@GLIBC_2.34>
  4007dc:	9101c000 	add	x0, x0, #0x70
  4007e0:	f900001f 	str	xzr, [x0]
  4007e4:	90000100 	adrp	x0, 420000 <__libc_start_main@GLIBC_2.34>
  4007e8:	9101e000 	add	x0, x0, #0x78
  4007ec:	f9400000 	ldr	x0, [x0]
  4007f0:	f100001f 	cmp	x0, #0x0
  4007f4:	54000220 	b.eq	400838 <interface+0x234>  // b.none
  4007f8:	90000100 	adrp	x0, 420000 <__libc_start_main@GLIBC_2.34>
  4007fc:	9103e000 	add	x0, x0, #0xf8
  400800:	f9400001 	ldr	x1, [x0]
  400804:	90000100 	adrp	x0, 420000 <__libc_start_main@GLIBC_2.34>
  400808:	9101e000 	add	x0, x0, #0x78
  40080c:	f9400000 	ldr	x0, [x0]
  400810:	cb000020 	sub	x0, x1, x0
  400814:	9e670000 	fmov	d0, x0
  400818:	7e61d801 	ucvtf	d1, d0
  40081c:	1e6c1000 	fmov	d0, #5.000000000000000000e-01
  400820:	1e602030 	fcmpe	d1, d0
  400824:	5400004a 	b.ge	40082c <interface+0x228>  // b.tcont
  400828:	14000004 	b	400838 <interface+0x234>
  40082c:	90000100 	adrp	x0, 420000 <__libc_start_main@GLIBC_2.34>
  400830:	9101e000 	add	x0, x0, #0x78
  400834:	f900001f 	str	xzr, [x0]
  400838:	90000100 	adrp	x0, 420000 <__libc_start_main@GLIBC_2.34>
  40083c:	91046000 	add	x0, x0, #0x118
  400840:	39400000 	ldrb	w0, [x0]
  400844:	7100001f 	cmp	w0, #0x0
  400848:	54000121 	b.ne	40086c <interface+0x268>  // b.any
  40084c:	90000100 	adrp	x0, 420000 <__libc_start_main@GLIBC_2.34>
  400850:	9102a000 	add	x0, x0, #0xa8
  400854:	b9400001 	ldr	w1, [x0]
  400858:	90000100 	adrp	x0, 420000 <__libc_start_main@GLIBC_2.34>
  40085c:	9102c000 	add	x0, x0, #0xb0
  400860:	b9400000 	ldr	w0, [x0]
  400864:	6b00003f 	cmp	w1, w0
  400868:	540000e0 	b.eq	400884 <interface+0x280>  // b.none
  40086c:	90000100 	adrp	x0, 420000 <__libc_start_main@GLIBC_2.34>
  400870:	9103e000 	add	x0, x0, #0xf8
  400874:	f9400001 	ldr	x1, [x0]
  400878:	90000100 	adrp	x0, 420000 <__libc_start_main@GLIBC_2.34>
  40087c:	9100c000 	add	x0, x0, #0x30
  400880:	f9000001 	str	x1, [x0]
  400884:	d503201f 	nop
  400888:	d65f03c0 	ret

000000000040088c <init>:
  40088c:	90000100 	adrp	x0, 420000 <__libc_start_main@GLIBC_2.34>
  400890:	9100c000 	add	x0, x0, #0x30
  400894:	f900001f 	str	xzr, [x0]
  400898:	90000100 	adrp	x0, 420000 <__libc_start_main@GLIBC_2.34>
  40089c:	9100e000 	add	x0, x0, #0x38
  4008a0:	f900001f 	str	xzr, [x0]
  4008a4:	90000100 	adrp	x0, 420000 <__libc_start_main@GLIBC_2.34>
  4008a8:	91010000 	add	x0, x0, #0x40
  4008ac:	f900001f 	str	xzr, [x0]
  4008b0:	90000100 	adrp	x0, 420000 <__libc_start_main@GLIBC_2.34>
  4008b4:	91040800 	add	x0, x0, #0x102
  4008b8:	3900001f 	strb	wzr, [x0]
  4008bc:	90000100 	adrp	x0, 420000 <__libc_start_main@GLIBC_2.34>
  4008c0:	91040c00 	add	x0, x0, #0x103
  4008c4:	3900001f 	strb	wzr, [x0]
  4008c8:	90000100 	adrp	x0, 420000 <__libc_start_main@GLIBC_2.34>
  4008cc:	91041000 	add	x0, x0, #0x104
  4008d0:	3900001f 	strb	wzr, [x0]
  4008d4:	90000100 	adrp	x0, 420000 <__libc_start_main@GLIBC_2.34>
  4008d8:	91041400 	add	x0, x0, #0x105
  4008dc:	3900001f 	strb	wzr, [x0]
  4008e0:	90000100 	adrp	x0, 420000 <__libc_start_main@GLIBC_2.34>
  4008e4:	91041800 	add	x0, x0, #0x106
  4008e8:	3900001f 	strb	wzr, [x0]
  4008ec:	90000100 	adrp	x0, 420000 <__libc_start_main@GLIBC_2.34>
  4008f0:	91041c00 	add	x0, x0, #0x107
  4008f4:	3900001f 	strb	wzr, [x0]
  4008f8:	90000100 	adrp	x0, 420000 <__libc_start_main@GLIBC_2.34>
  4008fc:	91042000 	add	x0, x0, #0x108
  400900:	3900001f 	strb	wzr, [x0]
  400904:	90000100 	adrp	x0, 420000 <__libc_start_main@GLIBC_2.34>
  400908:	91042400 	add	x0, x0, #0x109
  40090c:	3900001f 	strb	wzr, [x0]
  400910:	90000100 	adrp	x0, 420000 <__libc_start_main@GLIBC_2.34>
  400914:	91042800 	add	x0, x0, #0x10a
  400918:	3900001f 	strb	wzr, [x0]
  40091c:	90000100 	adrp	x0, 420000 <__libc_start_main@GLIBC_2.34>
  400920:	91042c00 	add	x0, x0, #0x10b
  400924:	3900001f 	strb	wzr, [x0]
  400928:	90000100 	adrp	x0, 420000 <__libc_start_main@GLIBC_2.34>
  40092c:	91043000 	add	x0, x0, #0x10c
  400930:	3900001f 	strb	wzr, [x0]
  400934:	90000100 	adrp	x0, 420000 <__libc_start_main@GLIBC_2.34>
  400938:	91043400 	add	x0, x0, #0x10d
  40093c:	3900001f 	strb	wzr, [x0]
  400940:	90000100 	adrp	x0, 420000 <__libc_start_main@GLIBC_2.34>
  400944:	91043800 	add	x0, x0, #0x10e
  400948:	3900001f 	strb	wzr, [x0]
  40094c:	90000100 	adrp	x0, 420000 <__libc_start_main@GLIBC_2.34>
  400950:	91043c00 	add	x0, x0, #0x10f
  400954:	3900001f 	strb	wzr, [x0]
  400958:	90000100 	adrp	x0, 420000 <__libc_start_main@GLIBC_2.34>
  40095c:	91044000 	add	x0, x0, #0x110
  400960:	3900001f 	strb	wzr, [x0]
  400964:	90000100 	adrp	x0, 420000 <__libc_start_main@GLIBC_2.34>
  400968:	91044400 	add	x0, x0, #0x111
  40096c:	3900001f 	strb	wzr, [x0]
  400970:	d503201f 	nop
  400974:	d65f03c0 	ret

0000000000400978 <generic_KINDERSICHERUNG_CTRL>:
  400978:	90000100 	adrp	x0, 420000 <__libc_start_main@GLIBC_2.34>
  40097c:	91046000 	add	x0, x0, #0x118
  400980:	39402800 	ldrb	w0, [x0, #10]
  400984:	7100001f 	cmp	w0, #0x0
  400988:	54003640 	b.eq	401050 <generic_KINDERSICHERUNG_CTRL+0x6d8>  // b.none
  40098c:	90000100 	adrp	x0, 420000 <__libc_start_main@GLIBC_2.34>
  400990:	91041400 	add	x0, x0, #0x105
  400994:	39400000 	ldrb	w0, [x0]
  400998:	71000c1f 	cmp	w0, #0x3
  40099c:	54002000 	b.eq	400d9c <generic_KINDERSICHERUNG_CTRL+0x424>  // b.none
  4009a0:	71000c1f 	cmp	w0, #0x3
  4009a4:	5400346c 	b.gt	401030 <generic_KINDERSICHERUNG_CTRL+0x6b8>
  4009a8:	7100041f 	cmp	w0, #0x1
  4009ac:	54000080 	b.eq	4009bc <generic_KINDERSICHERUNG_CTRL+0x44>  // b.none
  4009b0:	7100081f 	cmp	w0, #0x2
  4009b4:	54000fc0 	b.eq	400bac <generic_KINDERSICHERUNG_CTRL+0x234>  // b.none
  4009b8:	1400019e 	b	401030 <generic_KINDERSICHERUNG_CTRL+0x6b8>
  4009bc:	90000100 	adrp	x0, 420000 <__libc_start_main@GLIBC_2.34>
  4009c0:	9102f400 	add	x0, x0, #0xbd
  4009c4:	39400000 	ldrb	w0, [x0]
  4009c8:	7100001f 	cmp	w0, #0x0
  4009cc:	540002e1 	b.ne	400a28 <generic_KINDERSICHERUNG_CTRL+0xb0>  // b.any
  4009d0:	90000100 	adrp	x0, 420000 <__libc_start_main@GLIBC_2.34>
  4009d4:	9102e400 	add	x0, x0, #0xb9
  4009d8:	39400000 	ldrb	w0, [x0]
  4009dc:	7100001f 	cmp	w0, #0x0
  4009e0:	54000241 	b.ne	400a28 <generic_KINDERSICHERUNG_CTRL+0xb0>  // b.any
  4009e4:	90000100 	adrp	x0, 420000 <__libc_start_main@GLIBC_2.34>
  4009e8:	91040000 	add	x0, x0, #0x100
  4009ec:	3900001f 	strb	wzr, [x0]
  4009f0:	90000100 	adrp	x0, 420000 <__libc_start_main@GLIBC_2.34>
  4009f4:	91031c00 	add	x0, x0, #0xc7
  4009f8:	3900001f 	strb	wzr, [x0]
  4009fc:	90000100 	adrp	x0, 420000 <__libc_start_main@GLIBC_2.34>
  400a00:	91032800 	add	x0, x0, #0xca
  400a04:	3900001f 	strb	wzr, [x0]
  400a08:	90000100 	adrp	x0, 420000 <__libc_start_main@GLIBC_2.34>
  400a0c:	91041400 	add	x0, x0, #0x105
  400a10:	52800061 	mov	w1, #0x3                   	// #3
  400a14:	39000001 	strb	w1, [x0]
  400a18:	90000100 	adrp	x0, 420000 <__libc_start_main@GLIBC_2.34>
  400a1c:	91040c00 	add	x0, x0, #0x103
  400a20:	3900001f 	strb	wzr, [x0]
  400a24:	1400018e 	b	40105c <generic_KINDERSICHERUNG_CTRL+0x6e4>
  400a28:	90000100 	adrp	x0, 420000 <__libc_start_main@GLIBC_2.34>
  400a2c:	91040c00 	add	x0, x0, #0x103
  400a30:	39400000 	ldrb	w0, [x0]
  400a34:	7100041f 	cmp	w0, #0x1
  400a38:	54000ae1 	b.ne	400b94 <generic_KINDERSICHERUNG_CTRL+0x21c>  // b.any
  400a3c:	90000100 	adrp	x0, 420000 <__libc_start_main@GLIBC_2.34>
  400a40:	9102f400 	add	x0, x0, #0xbd
  400a44:	39400000 	ldrb	w0, [x0]
  400a48:	7100001f 	cmp	w0, #0x0
  400a4c:	54000240 	b.eq	400a94 <generic_KINDERSICHERUNG_CTRL+0x11c>  // b.none
  400a50:	90000100 	adrp	x0, 420000 <__libc_start_main@GLIBC_2.34>
  400a54:	9102f800 	add	x0, x0, #0xbe
  400a58:	39400000 	ldrb	w0, [x0]
  400a5c:	7100001f 	cmp	w0, #0x0
  400a60:	540001a1 	b.ne	400a94 <generic_KINDERSICHERUNG_CTRL+0x11c>  // b.any
  400a64:	90000100 	adrp	x0, 420000 <__libc_start_main@GLIBC_2.34>
  400a68:	91040000 	add	x0, x0, #0x100
  400a6c:	3900001f 	strb	wzr, [x0]
  400a70:	90000100 	adrp	x0, 420000 <__libc_start_main@GLIBC_2.34>
  400a74:	91032800 	add	x0, x0, #0xca
  400a78:	52800021 	mov	w1, #0x1                   	// #1
  400a7c:	39000001 	strb	w1, [x0]
  400a80:	90000100 	adrp	x0, 420000 <__libc_start_main@GLIBC_2.34>
  400a84:	91040c00 	add	x0, x0, #0x103
  400a88:	52800021 	mov	w1, #0x1                   	// #1
  400a8c:	39000001 	strb	w1, [x0]
  400a90:	14000046 	b	400ba8 <generic_KINDERSICHERUNG_CTRL+0x230>
  400a94:	90000100 	adrp	x0, 420000 <__libc_start_main@GLIBC_2.34>
  400a98:	9102e400 	add	x0, x0, #0xb9
  400a9c:	39400000 	ldrb	w0, [x0]
  400aa0:	7100001f 	cmp	w0, #0x0
  400aa4:	54000240 	b.eq	400aec <generic_KINDERSICHERUNG_CTRL+0x174>  // b.none
  400aa8:	90000100 	adrp	x0, 420000 <__libc_start_main@GLIBC_2.34>
  400aac:	9102e800 	add	x0, x0, #0xba
  400ab0:	39400000 	ldrb	w0, [x0]
  400ab4:	7100001f 	cmp	w0, #0x0
  400ab8:	540001a1 	b.ne	400aec <generic_KINDERSICHERUNG_CTRL+0x174>  // b.any
  400abc:	90000100 	adrp	x0, 420000 <__libc_start_main@GLIBC_2.34>
  400ac0:	91040000 	add	x0, x0, #0x100
  400ac4:	3900001f 	strb	wzr, [x0]
  400ac8:	90000100 	adrp	x0, 420000 <__libc_start_main@GLIBC_2.34>
  400acc:	91031c00 	add	x0, x0, #0xc7
  400ad0:	52800021 	mov	w1, #0x1                   	// #1
  400ad4:	39000001 	strb	w1, [x0]
  400ad8:	90000100 	adrp	x0, 420000 <__libc_start_main@GLIBC_2.34>
  400adc:	91040c00 	add	x0, x0, #0x103
  400ae0:	52800021 	mov	w1, #0x1                   	// #1
  400ae4:	39000001 	strb	w1, [x0]
  400ae8:	14000030 	b	400ba8 <generic_KINDERSICHERUNG_CTRL+0x230>
  400aec:	90000100 	adrp	x0, 420000 <__libc_start_main@GLIBC_2.34>
  400af0:	9102f400 	add	x0, x0, #0xbd
  400af4:	39400000 	ldrb	w0, [x0]
  400af8:	7100001f 	cmp	w0, #0x0
  400afc:	54000221 	b.ne	400b40 <generic_KINDERSICHERUNG_CTRL+0x1c8>  // b.any
  400b00:	90000100 	adrp	x0, 420000 <__libc_start_main@GLIBC_2.34>
  400b04:	9102f800 	add	x0, x0, #0xbe
  400b08:	39400000 	ldrb	w0, [x0]
  400b0c:	7100001f 	cmp	w0, #0x0
  400b10:	54000180 	b.eq	400b40 <generic_KINDERSICHERUNG_CTRL+0x1c8>  // b.none
  400b14:	90000100 	adrp	x0, 420000 <__libc_start_main@GLIBC_2.34>
  400b18:	91040000 	add	x0, x0, #0x100
  400b1c:	3900001f 	strb	wzr, [x0]
  400b20:	90000100 	adrp	x0, 420000 <__libc_start_main@GLIBC_2.34>
  400b24:	91032800 	add	x0, x0, #0xca
  400b28:	3900001f 	strb	wzr, [x0]
  400b2c:	90000100 	adrp	x0, 420000 <__libc_start_main@GLIBC_2.34>
  400b30:	91040c00 	add	x0, x0, #0x103
  400b34:	52800021 	mov	w1, #0x1                   	// #1
  400b38:	39000001 	strb	w1, [x0]
  400b3c:	1400001b 	b	400ba8 <generic_KINDERSICHERUNG_CTRL+0x230>
  400b40:	90000100 	adrp	x0, 420000 <__libc_start_main@GLIBC_2.34>
  400b44:	9102e400 	add	x0, x0, #0xb9
  400b48:	39400000 	ldrb	w0, [x0]
  400b4c:	7100001f 	cmp	w0, #0x0
  400b50:	540002a1 	b.ne	400ba4 <generic_KINDERSICHERUNG_CTRL+0x22c>  // b.any
  400b54:	90000100 	adrp	x0, 420000 <__libc_start_main@GLIBC_2.34>
  400b58:	9102e800 	add	x0, x0, #0xba
  400b5c:	39400000 	ldrb	w0, [x0]
  400b60:	7100001f 	cmp	w0, #0x0
  400b64:	54000200 	b.eq	400ba4 <generic_KINDERSICHERUNG_CTRL+0x22c>  // b.none
  400b68:	90000100 	adrp	x0, 420000 <__libc_start_main@GLIBC_2.34>
  400b6c:	91040000 	add	x0, x0, #0x100
  400b70:	3900001f 	strb	wzr, [x0]
  400b74:	90000100 	adrp	x0, 420000 <__libc_start_main@GLIBC_2.34>
  400b78:	91031c00 	add	x0, x0, #0xc7
  400b7c:	3900001f 	strb	wzr, [x0]
  400b80:	90000100 	adrp	x0, 420000 <__libc_start_main@GLIBC_2.34>
  400b84:	91040c00 	add	x0, x0, #0x103
  400b88:	52800021 	mov	w1, #0x1                   	// #1
  400b8c:	39000001 	strb	w1, [x0]
  400b90:	14000006 	b	400ba8 <generic_KINDERSICHERUNG_CTRL+0x230>
  400b94:	90000100 	adrp	x0, 420000 <__libc_start_main@GLIBC_2.34>
  400b98:	91040000 	add	x0, x0, #0x100
  400b9c:	3900001f 	strb	wzr, [x0]
  400ba0:	14000002 	b	400ba8 <generic_KINDERSICHERUNG_CTRL+0x230>
  400ba4:	d503201f 	nop
  400ba8:	1400012d 	b	40105c <generic_KINDERSICHERUNG_CTRL+0x6e4>
  400bac:	90000100 	adrp	x0, 420000 <__libc_start_main@GLIBC_2.34>
  400bb0:	9102fc00 	add	x0, x0, #0xbf
  400bb4:	39400000 	ldrb	w0, [x0]
  400bb8:	7100001f 	cmp	w0, #0x0
  400bbc:	540002e1 	b.ne	400c18 <generic_KINDERSICHERUNG_CTRL+0x2a0>  // b.any
  400bc0:	90000100 	adrp	x0, 420000 <__libc_start_main@GLIBC_2.34>
  400bc4:	9102ec00 	add	x0, x0, #0xbb
  400bc8:	39400000 	ldrb	w0, [x0]
  400bcc:	7100001f 	cmp	w0, #0x0
  400bd0:	54000241 	b.ne	400c18 <generic_KINDERSICHERUNG_CTRL+0x2a0>  // b.any
  400bd4:	90000100 	adrp	x0, 420000 <__libc_start_main@GLIBC_2.34>
  400bd8:	91040000 	add	x0, x0, #0x100
  400bdc:	3900001f 	strb	wzr, [x0]
  400be0:	90000100 	adrp	x0, 420000 <__libc_start_main@GLIBC_2.34>
  400be4:	91031c00 	add	x0, x0, #0xc7
  400be8:	3900001f 	strb	wzr, [x0]
  400bec:	90000100 	adrp	x0, 420000 <__libc_start_main@GLIBC_2.34>
  400bf0:	91032800 	add	x0, x0, #0xca
  400bf4:	3900001f 	strb	wzr, [x0]
  400bf8:	90000100 	adrp	x0, 420000 <__libc_start_main@GLIBC_2.34>
  400bfc:	91041400 	add	x0, x0, #0x105
  400c00:	52800061 	mov	w1, #0x3                   	// #3
  400c04:	39000001 	strb	w1, [x0]
  400c08:	90000100 	adrp	x0, 420000 <__libc_start_main@GLIBC_2.34>
  400c0c:	91041000 	add	x0, x0, #0x104
  400c10:	3900001f 	strb	wzr, [x0]
  400c14:	14000112 	b	40105c <generic_KINDERSICHERUNG_CTRL+0x6e4>
  400c18:	90000100 	adrp	x0, 420000 <__libc_start_main@GLIBC_2.34>
  400c1c:	91041000 	add	x0, x0, #0x104
  400c20:	39400000 	ldrb	w0, [x0]
  400c24:	7100041f 	cmp	w0, #0x1
  400c28:	54000ae1 	b.ne	400d84 <generic_KINDERSICHERUNG_CTRL+0x40c>  // b.any
  400c2c:	90000100 	adrp	x0, 420000 <__libc_start_main@GLIBC_2.34>
  400c30:	9102fc00 	add	x0, x0, #0xbf
  400c34:	39400000 	ldrb	w0, [x0]
  400c38:	7100001f 	cmp	w0, #0x0
  400c3c:	54000240 	b.eq	400c84 <generic_KINDERSICHERUNG_CTRL+0x30c>  // b.none
  400c40:	90000100 	adrp	x0, 420000 <__libc_start_main@GLIBC_2.34>
  400c44:	91030000 	add	x0, x0, #0xc0
  400c48:	39400000 	ldrb	w0, [x0]
  400c4c:	7100001f 	cmp	w0, #0x0
  400c50:	540001a1 	b.ne	400c84 <generic_KINDERSICHERUNG_CTRL+0x30c>  // b.any
  400c54:	90000100 	adrp	x0, 420000 <__libc_start_main@GLIBC_2.34>
  400c58:	91040000 	add	x0, x0, #0x100
  400c5c:	3900001f 	strb	wzr, [x0]
  400c60:	90000100 	adrp	x0, 420000 <__libc_start_main@GLIBC_2.34>
  400c64:	91032800 	add	x0, x0, #0xca
  400c68:	52800021 	mov	w1, #0x1                   	// #1
  400c6c:	39000001 	strb	w1, [x0]
  400c70:	90000100 	adrp	x0, 420000 <__libc_start_main@GLIBC_2.34>
  400c74:	91041000 	add	x0, x0, #0x104
  400c78:	52800021 	mov	w1, #0x1                   	// #1
  400c7c:	39000001 	strb	w1, [x0]
  400c80:	14000046 	b	400d98 <generic_KINDERSICHERUNG_CTRL+0x420>
  400c84:	90000100 	adrp	x0, 420000 <__libc_start_main@GLIBC_2.34>
  400c88:	9102ec00 	add	x0, x0, #0xbb
  400c8c:	39400000 	ldrb	w0, [x0]
  400c90:	7100001f 	cmp	w0, #0x0
  400c94:	54000240 	b.eq	400cdc <generic_KINDERSICHERUNG_CTRL+0x364>  // b.none
  400c98:	90000100 	adrp	x0, 420000 <__libc_start_main@GLIBC_2.34>
  400c9c:	9102f000 	add	x0, x0, #0xbc
  400ca0:	39400000 	ldrb	w0, [x0]
  400ca4:	7100001f 	cmp	w0, #0x0
  400ca8:	540001a1 	b.ne	400cdc <generic_KINDERSICHERUNG_CTRL+0x364>  // b.any
  400cac:	90000100 	adrp	x0, 420000 <__libc_start_main@GLIBC_2.34>
  400cb0:	91040000 	add	x0, x0, #0x100
  400cb4:	3900001f 	strb	wzr, [x0]
  400cb8:	90000100 	adrp	x0, 420000 <__libc_start_main@GLIBC_2.34>
  400cbc:	91031c00 	add	x0, x0, #0xc7
  400cc0:	52800021 	mov	w1, #0x1                   	// #1
  400cc4:	39000001 	strb	w1, [x0]
  400cc8:	90000100 	adrp	x0, 420000 <__libc_start_main@GLIBC_2.34>
  400ccc:	91041000 	add	x0, x0, #0x104
  400cd0:	52800021 	mov	w1, #0x1                   	// #1
  400cd4:	39000001 	strb	w1, [x0]
  400cd8:	14000030 	b	400d98 <generic_KINDERSICHERUNG_CTRL+0x420>
  400cdc:	90000100 	adrp	x0, 420000 <__libc_start_main@GLIBC_2.34>
  400ce0:	9102fc00 	add	x0, x0, #0xbf
  400ce4:	39400000 	ldrb	w0, [x0]
  400ce8:	7100001f 	cmp	w0, #0x0
  400cec:	54000221 	b.ne	400d30 <generic_KINDERSICHERUNG_CTRL+0x3b8>  // b.any
  400cf0:	90000100 	adrp	x0, 420000 <__libc_start_main@GLIBC_2.34>
  400cf4:	91030000 	add	x0, x0, #0xc0
  400cf8:	39400000 	ldrb	w0, [x0]
  400cfc:	7100001f 	cmp	w0, #0x0
  400d00:	54000180 	b.eq	400d30 <generic_KINDERSICHERUNG_CTRL+0x3b8>  // b.none
  400d04:	90000100 	adrp	x0, 420000 <__libc_start_main@GLIBC_2.34>
  400d08:	91040000 	add	x0, x0, #0x100
  400d0c:	3900001f 	strb	wzr, [x0]
  400d10:	90000100 	adrp	x0, 420000 <__libc_start_main@GLIBC_2.34>
  400d14:	91032800 	add	x0, x0, #0xca
  400d18:	3900001f 	strb	wzr, [x0]
  400d1c:	90000100 	adrp	x0, 420000 <__libc_start_main@GLIBC_2.34>
  400d20:	91041000 	add	x0, x0, #0x104
  400d24:	52800021 	mov	w1, #0x1                   	// #1
  400d28:	39000001 	strb	w1, [x0]
  400d2c:	1400001b 	b	400d98 <generic_KINDERSICHERUNG_CTRL+0x420>
  400d30:	90000100 	adrp	x0, 420000 <__libc_start_main@GLIBC_2.34>
  400d34:	9102ec00 	add	x0, x0, #0xbb
  400d38:	39400000 	ldrb	w0, [x0]
  400d3c:	7100001f 	cmp	w0, #0x0
  400d40:	540002a1 	b.ne	400d94 <generic_KINDERSICHERUNG_CTRL+0x41c>  // b.any
  400d44:	90000100 	adrp	x0, 420000 <__libc_start_main@GLIBC_2.34>
  400d48:	9102f000 	add	x0, x0, #0xbc
  400d4c:	39400000 	ldrb	w0, [x0]
  400d50:	7100001f 	cmp	w0, #0x0
  400d54:	54000200 	b.eq	400d94 <generic_KINDERSICHERUNG_CTRL+0x41c>  // b.none
  400d58:	90000100 	adrp	x0, 420000 <__libc_start_main@GLIBC_2.34>
  400d5c:	91040000 	add	x0, x0, #0x100
  400d60:	3900001f 	strb	wzr, [x0]
  400d64:	90000100 	adrp	x0, 420000 <__libc_start_main@GLIBC_2.34>
  400d68:	91031c00 	add	x0, x0, #0xc7
  400d6c:	3900001f 	strb	wzr, [x0]
  400d70:	90000100 	adrp	x0, 420000 <__libc_start_main@GLIBC_2.34>
  400d74:	91041000 	add	x0, x0, #0x104
  400d78:	52800021 	mov	w1, #0x1                   	// #1
  400d7c:	39000001 	strb	w1, [x0]
  400d80:	14000006 	b	400d98 <generic_KINDERSICHERUNG_CTRL+0x420>
  400d84:	90000100 	adrp	x0, 420000 <__libc_start_main@GLIBC_2.34>
  400d88:	91040000 	add	x0, x0, #0x100
  400d8c:	3900001f 	strb	wzr, [x0]
  400d90:	14000002 	b	400d98 <generic_KINDERSICHERUNG_CTRL+0x420>
  400d94:	d503201f 	nop
  400d98:	140000b1 	b	40105c <generic_KINDERSICHERUNG_CTRL+0x6e4>
  400d9c:	90000100 	adrp	x0, 420000 <__libc_start_main@GLIBC_2.34>
  400da0:	91030400 	add	x0, x0, #0xc1
  400da4:	39400000 	ldrb	w0, [x0]
  400da8:	7100001f 	cmp	w0, #0x0
  400dac:	54000361 	b.ne	400e18 <generic_KINDERSICHERUNG_CTRL+0x4a0>  // b.any
  400db0:	90000100 	adrp	x0, 420000 <__libc_start_main@GLIBC_2.34>
  400db4:	9102ec00 	add	x0, x0, #0xbb
  400db8:	39400000 	ldrb	w0, [x0]
  400dbc:	7100001f 	cmp	w0, #0x0
  400dc0:	540002c0 	b.eq	400e18 <generic_KINDERSICHERUNG_CTRL+0x4a0>  // b.none
  400dc4:	90000100 	adrp	x0, 420000 <__libc_start_main@GLIBC_2.34>
  400dc8:	9102fc00 	add	x0, x0, #0xbf
  400dcc:	39400000 	ldrb	w0, [x0]
  400dd0:	7100001f 	cmp	w0, #0x0
  400dd4:	54000220 	b.eq	400e18 <generic_KINDERSICHERUNG_CTRL+0x4a0>  // b.none
  400dd8:	90000100 	adrp	x0, 420000 <__libc_start_main@GLIBC_2.34>
  400ddc:	91040000 	add	x0, x0, #0x100
  400de0:	3900001f 	strb	wzr, [x0]
  400de4:	90000100 	adrp	x0, 420000 <__libc_start_main@GLIBC_2.34>
  400de8:	91031c00 	add	x0, x0, #0xc7
  400dec:	52800021 	mov	w1, #0x1                   	// #1
  400df0:	39000001 	strb	w1, [x0]
  400df4:	90000100 	adrp	x0, 420000 <__libc_start_main@GLIBC_2.34>
  400df8:	91032800 	add	x0, x0, #0xca
  400dfc:	52800021 	mov	w1, #0x1                   	// #1
  400e00:	39000001 	strb	w1, [x0]
  400e04:	90000100 	adrp	x0, 420000 <__libc_start_main@GLIBC_2.34>
  400e08:	91041400 	add	x0, x0, #0x105
  400e0c:	52800041 	mov	w1, #0x2                   	// #2
  400e10:	39000001 	strb	w1, [x0]
  400e14:	14000092 	b	40105c <generic_KINDERSICHERUNG_CTRL+0x6e4>
  400e18:	90000100 	adrp	x0, 420000 <__libc_start_main@GLIBC_2.34>
  400e1c:	91030400 	add	x0, x0, #0xc1
  400e20:	39400000 	ldrb	w0, [x0]
  400e24:	7100001f 	cmp	w0, #0x0
  400e28:	540002e1 	b.ne	400e84 <generic_KINDERSICHERUNG_CTRL+0x50c>  // b.any
  400e2c:	90000100 	adrp	x0, 420000 <__libc_start_main@GLIBC_2.34>
  400e30:	9102ec00 	add	x0, x0, #0xbb
  400e34:	39400000 	ldrb	w0, [x0]
  400e38:	7100001f 	cmp	w0, #0x0
  400e3c:	54000240 	b.eq	400e84 <generic_KINDERSICHERUNG_CTRL+0x50c>  // b.none
  400e40:	90000100 	adrp	x0, 420000 <__libc_start_main@GLIBC_2.34>
  400e44:	9102fc00 	add	x0, x0, #0xbf
  400e48:	39400000 	ldrb	w0, [x0]
  400e4c:	7100001f 	cmp	w0, #0x0
  400e50:	540001a1 	b.ne	400e84 <generic_KINDERSICHERUNG_CTRL+0x50c>  // b.any
  400e54:	90000100 	adrp	x0, 420000 <__libc_start_main@GLIBC_2.34>
  400e58:	91040000 	add	x0, x0, #0x100
  400e5c:	3900001f 	strb	wzr, [x0]
  400e60:	90000100 	adrp	x0, 420000 <__libc_start_main@GLIBC_2.34>
  400e64:	91031c00 	add	x0, x0, #0xc7
  400e68:	52800021 	mov	w1, #0x1                   	// #1
  400e6c:	39000001 	strb	w1, [x0]
  400e70:	90000100 	adrp	x0, 420000 <__libc_start_main@GLIBC_2.34>
  400e74:	91041400 	add	x0, x0, #0x105
  400e78:	52800041 	mov	w1, #0x2                   	// #2
  400e7c:	39000001 	strb	w1, [x0]
  400e80:	14000077 	b	40105c <generic_KINDERSICHERUNG_CTRL+0x6e4>
  400e84:	90000100 	adrp	x0, 420000 <__libc_start_main@GLIBC_2.34>
  400e88:	91030400 	add	x0, x0, #0xc1
  400e8c:	39400000 	ldrb	w0, [x0]
  400e90:	7100001f 	cmp	w0, #0x0
  400e94:	540002e1 	b.ne	400ef0 <generic_KINDERSICHERUNG_CTRL+0x578>  // b.any
  400e98:	90000100 	adrp	x0, 420000 <__libc_start_main@GLIBC_2.34>
  400e9c:	9102ec00 	add	x0, x0, #0xbb
  400ea0:	39400000 	ldrb	w0, [x0]
  400ea4:	7100001f 	cmp	w0, #0x0
  400ea8:	54000241 	b.ne	400ef0 <generic_KINDERSICHERUNG_CTRL+0x578>  // b.any
  400eac:	90000100 	adrp	x0, 420000 <__libc_start_main@GLIBC_2.34>
  400eb0:	9102fc00 	add	x0, x0, #0xbf
  400eb4:	39400000 	ldrb	w0, [x0]
  400eb8:	7100001f 	cmp	w0, #0x0
  400ebc:	540001a0 	b.eq	400ef0 <generic_KINDERSICHERUNG_CTRL+0x578>  // b.none
  400ec0:	90000100 	adrp	x0, 420000 <__libc_start_main@GLIBC_2.34>
  400ec4:	91040000 	add	x0, x0, #0x100
  400ec8:	3900001f 	strb	wzr, [x0]
  400ecc:	90000100 	adrp	x0, 420000 <__libc_start_main@GLIBC_2.34>
  400ed0:	91032800 	add	x0, x0, #0xca
  400ed4:	52800021 	mov	w1, #0x1                   	// #1
  400ed8:	39000001 	strb	w1, [x0]
  400edc:	90000100 	adrp	x0, 420000 <__libc_start_main@GLIBC_2.34>
  400ee0:	91041400 	add	x0, x0, #0x105
  400ee4:	52800041 	mov	w1, #0x2                   	// #2
  400ee8:	39000001 	strb	w1, [x0]
  400eec:	1400005c 	b	40105c <generic_KINDERSICHERUNG_CTRL+0x6e4>
  400ef0:	90000100 	adrp	x0, 420000 <__libc_start_main@GLIBC_2.34>
  400ef4:	9102e400 	add	x0, x0, #0xb9
  400ef8:	39400000 	ldrb	w0, [x0]
  400efc:	7100001f 	cmp	w0, #0x0
  400f00:	540002e1 	b.ne	400f5c <generic_KINDERSICHERUNG_CTRL+0x5e4>  // b.any
  400f04:	90000100 	adrp	x0, 420000 <__libc_start_main@GLIBC_2.34>
  400f08:	9102f400 	add	x0, x0, #0xbd
  400f0c:	39400000 	ldrb	w0, [x0]
  400f10:	7100001f 	cmp	w0, #0x0
  400f14:	54000240 	b.eq	400f5c <generic_KINDERSICHERUNG_CTRL+0x5e4>  // b.none
  400f18:	90000100 	adrp	x0, 420000 <__libc_start_main@GLIBC_2.34>
  400f1c:	91030400 	add	x0, x0, #0xc1
  400f20:	39400000 	ldrb	w0, [x0]
  400f24:	7100001f 	cmp	w0, #0x0
  400f28:	540001a1 	b.ne	400f5c <generic_KINDERSICHERUNG_CTRL+0x5e4>  // b.any
  400f2c:	90000100 	adrp	x0, 420000 <__libc_start_main@GLIBC_2.34>
  400f30:	91040000 	add	x0, x0, #0x100
  400f34:	3900001f 	strb	wzr, [x0]
  400f38:	90000100 	adrp	x0, 420000 <__libc_start_main@GLIBC_2.34>
  400f3c:	91032800 	add	x0, x0, #0xca
  400f40:	52800021 	mov	w1, #0x1                   	// #1
  400f44:	39000001 	strb	w1, [x0]
  400f48:	90000100 	adrp	x0, 420000 <__libc_start_main@GLIBC_2.34>
  400f4c:	91041400 	add	x0, x0, #0x105
  400f50:	52800021 	mov	w1, #0x1                   	// #1
  400f54:	39000001 	strb	w1, [x0]
  400f58:	14000041 	b	40105c <generic_KINDERSICHERUNG_CTRL+0x6e4>
  400f5c:	90000100 	adrp	x0, 420000 <__libc_start_main@GLIBC_2.34>
  400f60:	9102e400 	add	x0, x0, #0xb9
  400f64:	39400000 	ldrb	w0, [x0]
  400f68:	7100001f 	cmp	w0, #0x0
  400f6c:	540002c0 	b.eq	400fc4 <generic_KINDERSICHERUNG_CTRL+0x64c>  // b.none
  400f70:	90000100 	adrp	x0, 420000 <__libc_start_main@GLIBC_2.34>
  400f74:	9102f400 	add	x0, x0, #0xbd
  400f78:	39400000 	ldrb	w0, [x0]
  400f7c:	7100001f 	cmp	w0, #0x0
  400f80:	54000220 	b.eq	400fc4 <generic_KINDERSICHERUNG_CTRL+0x64c>  // b.none
  400f84:	90000100 	adrp	x0, 420000 <__libc_start_main@GLIBC_2.34>
  400f88:	91040000 	add	x0, x0, #0x100
  400f8c:	3900001f 	strb	wzr, [x0]
  400f90:	90000100 	adrp	x0, 420000 <__libc_start_main@GLIBC_2.34>
  400f94:	91032800 	add	x0, x0, #0xca
  400f98:	52800021 	mov	w1, #0x1                   	// #1
  400f9c:	39000001 	strb	w1, [x0]
  400fa0:	90000100 	adrp	x0, 420000 <__libc_start_main@GLIBC_2.34>
  400fa4:	91031c00 	add	x0, x0, #0xc7
  400fa8:	52800021 	mov	w1, #0x1                   	// #1
  400fac:	39000001 	strb	w1, [x0]
  400fb0:	90000100 	adrp	x0, 420000 <__libc_start_main@GLIBC_2.34>
  400fb4:	91041400 	add	x0, x0, #0x105
  400fb8:	52800021 	mov	w1, #0x1                   	// #1
  400fbc:	39000001 	strb	w1, [x0]
  400fc0:	14000027 	b	40105c <generic_KINDERSICHERUNG_CTRL+0x6e4>
  400fc4:	90000100 	adrp	x0, 420000 <__libc_start_main@GLIBC_2.34>
  400fc8:	9102e400 	add	x0, x0, #0xb9
  400fcc:	39400000 	ldrb	w0, [x0]
  400fd0:	7100001f 	cmp	w0, #0x0
  400fd4:	54000420 	b.eq	401058 <generic_KINDERSICHERUNG_CTRL+0x6e0>  // b.none
  400fd8:	90000100 	adrp	x0, 420000 <__libc_start_main@GLIBC_2.34>
  400fdc:	9102f400 	add	x0, x0, #0xbd
  400fe0:	39400000 	ldrb	w0, [x0]
  400fe4:	7100001f 	cmp	w0, #0x0
  400fe8:	54000381 	b.ne	401058 <generic_KINDERSICHERUNG_CTRL+0x6e0>  // b.any
  400fec:	90000100 	adrp	x0, 420000 <__libc_start_main@GLIBC_2.34>
  400ff0:	91030400 	add	x0, x0, #0xc1
  400ff4:	39400000 	ldrb	w0, [x0]
  400ff8:	7100001f 	cmp	w0, #0x0
  400ffc:	540002e1 	b.ne	401058 <generic_KINDERSICHERUNG_CTRL+0x6e0>  // b.any
  401000:	f00000e0 	adrp	x0, 420000 <__libc_start_main@GLIBC_2.34>
  401004:	91040000 	add	x0, x0, #0x100
  401008:	3900001f 	strb	wzr, [x0]
  40100c:	f00000e0 	adrp	x0, 420000 <__libc_start_main@GLIBC_2.34>
  401010:	91031c00 	add	x0, x0, #0xc7
  401014:	52800021 	mov	w1, #0x1                   	// #1
  401018:	39000001 	strb	w1, [x0]
  40101c:	f00000e0 	adrp	x0, 420000 <__libc_start_main@GLIBC_2.34>
  401020:	91041400 	add	x0, x0, #0x105
  401024:	52800021 	mov	w1, #0x1                   	// #1
  401028:	39000001 	strb	w1, [x0]
  40102c:	1400000c 	b	40105c <generic_KINDERSICHERUNG_CTRL+0x6e4>
  401030:	f00000e0 	adrp	x0, 420000 <__libc_start_main@GLIBC_2.34>
  401034:	91040000 	add	x0, x0, #0x100
  401038:	3900001f 	strb	wzr, [x0]
  40103c:	f00000e0 	adrp	x0, 420000 <__libc_start_main@GLIBC_2.34>
  401040:	91041400 	add	x0, x0, #0x105
  401044:	52800061 	mov	w1, #0x3                   	// #3
  401048:	39000001 	strb	w1, [x0]
  40104c:	14000004 	b	40105c <generic_KINDERSICHERUNG_CTRL+0x6e4>
  401050:	d503201f 	nop
  401054:	14000002 	b	40105c <generic_KINDERSICHERUNG_CTRL+0x6e4>
  401058:	d503201f 	nop
  40105c:	d503201f 	nop
  401060:	d65f03c0 	ret

0000000000401064 <generic_FH_TUERMODUL_CTRL>:
  401064:	f00000e0 	adrp	x0, 420000 <__libc_start_main@GLIBC_2.34>
  401068:	91046000 	add	x0, x0, #0x118
  40106c:	39403400 	ldrb	w0, [x0, #13]
  401070:	7100001f 	cmp	w0, #0x0
  401074:	54000221 	b.ne	4010b8 <generic_FH_TUERMODUL_CTRL+0x54>  // b.any
  401078:	f00000e0 	adrp	x0, 420000 <__libc_start_main@GLIBC_2.34>
  40107c:	91046000 	add	x0, x0, #0x118
  401080:	39403c00 	ldrb	w0, [x0, #15]
  401084:	7100001f 	cmp	w0, #0x0
  401088:	54000180 	b.eq	4010b8 <generic_FH_TUERMODUL_CTRL+0x54>  // b.none
  40108c:	f00000e0 	adrp	x0, 420000 <__libc_start_main@GLIBC_2.34>
  401090:	91046000 	add	x0, x0, #0x118
  401094:	39403800 	ldrb	w0, [x0, #14]
  401098:	7100001f 	cmp	w0, #0x0
  40109c:	540000e1 	b.ne	4010b8 <generic_FH_TUERMODUL_CTRL+0x54>  // b.any
  4010a0:	f00000e0 	adrp	x0, 420000 <__libc_start_main@GLIBC_2.34>
  4010a4:	91046000 	add	x0, x0, #0x118
  4010a8:	3900101f 	strb	wzr, [x0, #4]
  4010ac:	f00000e0 	adrp	x0, 420000 <__libc_start_main@GLIBC_2.34>
  4010b0:	91046000 	add	x0, x0, #0x118
  4010b4:	3900181f 	strb	wzr, [x0, #6]
  4010b8:	f00000e0 	adrp	x0, 420000 <__libc_start_main@GLIBC_2.34>
  4010bc:	91046000 	add	x0, x0, #0x118
  4010c0:	39403400 	ldrb	w0, [x0, #13]
  4010c4:	7100001f 	cmp	w0, #0x0
  4010c8:	54007a80 	b.eq	402018 <generic_FH_TUERMODUL_CTRL+0xfb4>  // b.none
  4010cc:	f00000e0 	adrp	x0, 420000 <__libc_start_main@GLIBC_2.34>
  4010d0:	91046000 	add	x0, x0, #0x118
  4010d4:	39402800 	ldrb	w0, [x0, #10]
  4010d8:	7100001f 	cmp	w0, #0x0
  4010dc:	540000a1 	b.ne	4010f0 <generic_FH_TUERMODUL_CTRL+0x8c>  // b.any
  4010e0:	f00000e0 	adrp	x0, 420000 <__libc_start_main@GLIBC_2.34>
  4010e4:	91041400 	add	x0, x0, #0x105
  4010e8:	52800061 	mov	w1, #0x3                   	// #3
  4010ec:	39000001 	strb	w1, [x0]
  4010f0:	f00000e0 	adrp	x0, 420000 <__libc_start_main@GLIBC_2.34>
  4010f4:	91046000 	add	x0, x0, #0x118
  4010f8:	39002c1f 	strb	wzr, [x0, #11]
  4010fc:	f00000e0 	adrp	x0, 420000 <__libc_start_main@GLIBC_2.34>
  401100:	91046000 	add	x0, x0, #0x118
  401104:	39404c00 	ldrb	w0, [x0, #19]
  401108:	7100001f 	cmp	w0, #0x0
  40110c:	54000101 	b.ne	40112c <generic_FH_TUERMODUL_CTRL+0xc8>  // b.any
  401110:	f00000e0 	adrp	x0, 420000 <__libc_start_main@GLIBC_2.34>
  401114:	91046000 	add	x0, x0, #0x118
  401118:	3900001f 	strb	wzr, [x0]
  40111c:	f00000e0 	adrp	x0, 420000 <__libc_start_main@GLIBC_2.34>
  401120:	91044400 	add	x0, x0, #0x111
  401124:	52800021 	mov	w1, #0x1                   	// #1
  401128:	39000001 	strb	w1, [x0]
  40112c:	f00000e0 	adrp	x0, 420000 <__libc_start_main@GLIBC_2.34>
  401130:	91046000 	add	x0, x0, #0x118
  401134:	3900501f 	strb	wzr, [x0, #20]
  401138:	f00000e0 	adrp	x0, 420000 <__libc_start_main@GLIBC_2.34>
  40113c:	91046000 	add	x0, x0, #0x118
  401140:	52800021 	mov	w1, #0x1                   	// #1
  401144:	39002c01 	strb	w1, [x0, #11]
  401148:	f00000e0 	adrp	x0, 420000 <__libc_start_main@GLIBC_2.34>
  40114c:	91046000 	add	x0, x0, #0x118
  401150:	52800021 	mov	w1, #0x1                   	// #1
  401154:	39005001 	strb	w1, [x0, #20]
  401158:	f00000e0 	adrp	x0, 420000 <__libc_start_main@GLIBC_2.34>
  40115c:	91041800 	add	x0, x0, #0x106
  401160:	39400000 	ldrb	w0, [x0]
  401164:	71000c1f 	cmp	w0, #0x3
  401168:	540013c0 	b.eq	4013e0 <generic_FH_TUERMODUL_CTRL+0x37c>  // b.none
  40116c:	71000c1f 	cmp	w0, #0x3
  401170:	5400604c 	b.gt	401d78 <generic_FH_TUERMODUL_CTRL+0xd14>
  401174:	7100041f 	cmp	w0, #0x1
  401178:	54000080 	b.eq	401188 <generic_FH_TUERMODUL_CTRL+0x124>  // b.none
  40117c:	7100081f 	cmp	w0, #0x2
  401180:	54000300 	b.eq	4011e0 <generic_FH_TUERMODUL_CTRL+0x17c>  // b.none
  401184:	140002fd 	b	401d78 <generic_FH_TUERMODUL_CTRL+0xd14>
  401188:	f00000e0 	adrp	x0, 420000 <__libc_start_main@GLIBC_2.34>
  40118c:	91018000 	add	x0, x0, #0x60
  401190:	b9400000 	ldr	w0, [x0]
  401194:	7100ec1f 	cmp	w0, #0x3b
  401198:	54006001 	b.ne	401d98 <generic_FH_TUERMODUL_CTRL+0xd34>  // b.any
  40119c:	f00000e0 	adrp	x0, 420000 <__libc_start_main@GLIBC_2.34>
  4011a0:	9101a000 	add	x0, x0, #0x68
  4011a4:	b9400000 	ldr	w0, [x0]
  4011a8:	7100ec1f 	cmp	w0, #0x3b
  4011ac:	54005f60 	b.eq	401d98 <generic_FH_TUERMODUL_CTRL+0xd34>  // b.none
  4011b0:	f00000e0 	adrp	x0, 420000 <__libc_start_main@GLIBC_2.34>
  4011b4:	91040000 	add	x0, x0, #0x100
  4011b8:	3900001f 	strb	wzr, [x0]
  4011bc:	f00000e0 	adrp	x0, 420000 <__libc_start_main@GLIBC_2.34>
  4011c0:	91041800 	add	x0, x0, #0x106
  4011c4:	52800061 	mov	w1, #0x3                   	// #3
  4011c8:	39000001 	strb	w1, [x0]
  4011cc:	f00000e0 	adrp	x0, 420000 <__libc_start_main@GLIBC_2.34>
  4011d0:	91042400 	add	x0, x0, #0x109
  4011d4:	52800061 	mov	w1, #0x3                   	// #3
  4011d8:	39000001 	strb	w1, [x0]
  4011dc:	140002f0 	b	401d9c <generic_FH_TUERMODUL_CTRL+0xd38>
  4011e0:	f00000e0 	adrp	x0, 420000 <__libc_start_main@GLIBC_2.34>
  4011e4:	91030800 	add	x0, x0, #0xc2
  4011e8:	39400000 	ldrb	w0, [x0]
  4011ec:	7100001f 	cmp	w0, #0x0
  4011f0:	54000400 	b.eq	401270 <generic_FH_TUERMODUL_CTRL+0x20c>  // b.none
  4011f4:	f00000e0 	adrp	x0, 420000 <__libc_start_main@GLIBC_2.34>
  4011f8:	91031000 	add	x0, x0, #0xc4
  4011fc:	39400000 	ldrb	w0, [x0]
  401200:	7100001f 	cmp	w0, #0x0
  401204:	54000361 	b.ne	401270 <generic_FH_TUERMODUL_CTRL+0x20c>  // b.any
  401208:	f00000e0 	adrp	x0, 420000 <__libc_start_main@GLIBC_2.34>
  40120c:	91033000 	add	x0, x0, #0xcc
  401210:	39400000 	ldrb	w0, [x0]
  401214:	7100001f 	cmp	w0, #0x0
  401218:	540002c0 	b.eq	401270 <generic_FH_TUERMODUL_CTRL+0x20c>  // b.none
  40121c:	f00000e0 	adrp	x0, 420000 <__libc_start_main@GLIBC_2.34>
  401220:	91040000 	add	x0, x0, #0x100
  401224:	3900001f 	strb	wzr, [x0]
  401228:	f00000e0 	adrp	x0, 420000 <__libc_start_main@GLIBC_2.34>
  40122c:	91033400 	add	x0, x0, #0xcd
  401230:	3900001f 	strb	wzr, [x0]
  401234:	f00000e0 	adrp	x0, 420000 <__libc_start_main@GLIBC_2.34>
  401238:	9103e000 	add	x0, x0, #0xf8
  40123c:	f9400001 	ldr	x1, [x0]
  401240:	f00000e0 	adrp	x0, 420000 <__libc_start_main@GLIBC_2.34>
  401244:	91016000 	add	x0, x0, #0x58
  401248:	f9000001 	str	x1, [x0]
  40124c:	f00000e0 	adrp	x0, 420000 <__libc_start_main@GLIBC_2.34>
  401250:	91041800 	add	x0, x0, #0x106
  401254:	52800061 	mov	w1, #0x3                   	// #3
  401258:	39000001 	strb	w1, [x0]
  40125c:	f00000e0 	adrp	x0, 420000 <__libc_start_main@GLIBC_2.34>
  401260:	91042400 	add	x0, x0, #0x109
  401264:	52800061 	mov	w1, #0x3                   	// #3
  401268:	39000001 	strb	w1, [x0]
  40126c:	140002cc 	b	401d9c <generic_FH_TUERMODUL_CTRL+0xd38>
  401270:	f00000e0 	adrp	x0, 420000 <__libc_start_main@GLIBC_2.34>
  401274:	91040800 	add	x0, x0, #0x102
  401278:	39400000 	ldrb	w0, [x0]
  40127c:	71000c1f 	cmp	w0, #0x3
  401280:	54000500 	b.eq	401320 <generic_FH_TUERMODUL_CTRL+0x2bc>  // b.none
  401284:	71000c1f 	cmp	w0, #0x3
  401288:	5400090c 	b.gt	4013a8 <generic_FH_TUERMODUL_CTRL+0x344>
  40128c:	7100041f 	cmp	w0, #0x1
  401290:	54000080 	b.eq	4012a0 <generic_FH_TUERMODUL_CTRL+0x23c>  // b.none
  401294:	7100081f 	cmp	w0, #0x2
  401298:	54000240 	b.eq	4012e0 <generic_FH_TUERMODUL_CTRL+0x27c>  // b.none
  40129c:	14000043 	b	4013a8 <generic_FH_TUERMODUL_CTRL+0x344>
  4012a0:	f00000e0 	adrp	x0, 420000 <__libc_start_main@GLIBC_2.34>
  4012a4:	91031800 	add	x0, x0, #0xc6
  4012a8:	39400000 	ldrb	w0, [x0]
  4012ac:	7100001f 	cmp	w0, #0x0
  4012b0:	540008c1 	b.ne	4013c8 <generic_FH_TUERMODUL_CTRL+0x364>  // b.any
  4012b4:	f00000e0 	adrp	x0, 420000 <__libc_start_main@GLIBC_2.34>
  4012b8:	91040000 	add	x0, x0, #0x100
  4012bc:	3900001f 	strb	wzr, [x0]
  4012c0:	f00000e0 	adrp	x0, 420000 <__libc_start_main@GLIBC_2.34>
  4012c4:	91033400 	add	x0, x0, #0xcd
  4012c8:	3900001f 	strb	wzr, [x0]
  4012cc:	f00000e0 	adrp	x0, 420000 <__libc_start_main@GLIBC_2.34>
  4012d0:	91040800 	add	x0, x0, #0x102
  4012d4:	52800061 	mov	w1, #0x3                   	// #3
  4012d8:	39000001 	strb	w1, [x0]
  4012dc:	14000040 	b	4013dc <generic_FH_TUERMODUL_CTRL+0x378>
  4012e0:	f00000e0 	adrp	x0, 420000 <__libc_start_main@GLIBC_2.34>
  4012e4:	91032400 	add	x0, x0, #0xc9
  4012e8:	39400000 	ldrb	w0, [x0]
  4012ec:	7100001f 	cmp	w0, #0x0
  4012f0:	54000701 	b.ne	4013d0 <generic_FH_TUERMODUL_CTRL+0x36c>  // b.any
  4012f4:	f00000e0 	adrp	x0, 420000 <__libc_start_main@GLIBC_2.34>
  4012f8:	91040000 	add	x0, x0, #0x100
  4012fc:	3900001f 	strb	wzr, [x0]
  401300:	f00000e0 	adrp	x0, 420000 <__libc_start_main@GLIBC_2.34>
  401304:	91034000 	add	x0, x0, #0xd0
  401308:	3900001f 	strb	wzr, [x0]
  40130c:	f00000e0 	adrp	x0, 420000 <__libc_start_main@GLIBC_2.34>
  401310:	91040800 	add	x0, x0, #0x102
  401314:	52800061 	mov	w1, #0x3                   	// #3
  401318:	39000001 	strb	w1, [x0]
  40131c:	14000030 	b	4013dc <generic_FH_TUERMODUL_CTRL+0x378>
  401320:	f00000e0 	adrp	x0, 420000 <__libc_start_main@GLIBC_2.34>
  401324:	91032400 	add	x0, x0, #0xc9
  401328:	39400000 	ldrb	w0, [x0]
  40132c:	7100001f 	cmp	w0, #0x0
  401330:	540001a0 	b.eq	401364 <generic_FH_TUERMODUL_CTRL+0x300>  // b.none
  401334:	f00000e0 	adrp	x0, 420000 <__libc_start_main@GLIBC_2.34>
  401338:	91040000 	add	x0, x0, #0x100
  40133c:	3900001f 	strb	wzr, [x0]
  401340:	f00000e0 	adrp	x0, 420000 <__libc_start_main@GLIBC_2.34>
  401344:	91034000 	add	x0, x0, #0xd0
  401348:	52800021 	mov	w1, #0x1                   	// #1
  40134c:	39000001 	strb	w1, [x0]
  401350:	f00000e0 	adrp	x0, 420000 <__libc_start_main@GLIBC_2.34>
  401354:	91040800 	add	x0, x0, #0x102
  401358:	52800041 	mov	w1, #0x2                   	// #2
  40135c:	39000001 	strb	w1, [x0]
  401360:	1400001f 	b	4013dc <generic_FH_TUERMODUL_CTRL+0x378>
  401364:	f00000e0 	adrp	x0, 420000 <__libc_start_main@GLIBC_2.34>
  401368:	91031800 	add	x0, x0, #0xc6
  40136c:	39400000 	ldrb	w0, [x0]
  401370:	7100001f 	cmp	w0, #0x0
  401374:	54000320 	b.eq	4013d8 <generic_FH_TUERMODUL_CTRL+0x374>  // b.none
  401378:	f00000e0 	adrp	x0, 420000 <__libc_start_main@GLIBC_2.34>
  40137c:	91040000 	add	x0, x0, #0x100
  401380:	3900001f 	strb	wzr, [x0]
  401384:	f00000e0 	adrp	x0, 420000 <__libc_start_main@GLIBC_2.34>
  401388:	91033400 	add	x0, x0, #0xcd
  40138c:	52800021 	mov	w1, #0x1                   	// #1
  401390:	39000001 	strb	w1, [x0]
  401394:	f00000e0 	adrp	x0, 420000 <__libc_start_main@GLIBC_2.34>
  401398:	91040800 	add	x0, x0, #0x102
  40139c:	52800021 	mov	w1, #0x1                   	// #1
  4013a0:	39000001 	strb	w1, [x0]
  4013a4:	1400000e 	b	4013dc <generic_FH_TUERMODUL_CTRL+0x378>
  4013a8:	f00000e0 	adrp	x0, 420000 <__libc_start_main@GLIBC_2.34>
  4013ac:	91040000 	add	x0, x0, #0x100
  4013b0:	3900001f 	strb	wzr, [x0]
  4013b4:	f00000e0 	adrp	x0, 420000 <__libc_start_main@GLIBC_2.34>
  4013b8:	91040800 	add	x0, x0, #0x102
  4013bc:	52800061 	mov	w1, #0x3                   	// #3
  4013c0:	39000001 	strb	w1, [x0]
  4013c4:	14000006 	b	4013dc <generic_FH_TUERMODUL_CTRL+0x378>
  4013c8:	d503201f 	nop
  4013cc:	14000274 	b	401d9c <generic_FH_TUERMODUL_CTRL+0xd38>
  4013d0:	d503201f 	nop
  4013d4:	14000272 	b	401d9c <generic_FH_TUERMODUL_CTRL+0xd38>
  4013d8:	d503201f 	nop
  4013dc:	14000270 	b	401d9c <generic_FH_TUERMODUL_CTRL+0xd38>
  4013e0:	f00000e0 	adrp	x0, 420000 <__libc_start_main@GLIBC_2.34>
  4013e4:	91018000 	add	x0, x0, #0x60
  4013e8:	b9400000 	ldr	w0, [x0]
  4013ec:	7100f01f 	cmp	w0, #0x3c
  4013f0:	540003cd 	b.le	401468 <generic_FH_TUERMODUL_CTRL+0x404>
  4013f4:	f00000e0 	adrp	x0, 420000 <__libc_start_main@GLIBC_2.34>
  4013f8:	9101a000 	add	x0, x0, #0x68
  4013fc:	b9400000 	ldr	w0, [x0]
  401400:	7100f01f 	cmp	w0, #0x3c
  401404:	5400032c 	b.gt	401468 <generic_FH_TUERMODUL_CTRL+0x404>
  401408:	f00000e0 	adrp	x0, 420000 <__libc_start_main@GLIBC_2.34>
  40140c:	9102d800 	add	x0, x0, #0xb6
  401410:	39400000 	ldrb	w0, [x0]
  401414:	7100001f 	cmp	w0, #0x0
  401418:	54000281 	b.ne	401468 <generic_FH_TUERMODUL_CTRL+0x404>  // b.any
  40141c:	f00000e0 	adrp	x0, 420000 <__libc_start_main@GLIBC_2.34>
  401420:	9102d000 	add	x0, x0, #0xb4
  401424:	39400000 	ldrb	w0, [x0]
  401428:	7100001f 	cmp	w0, #0x0
  40142c:	540001e1 	b.ne	401468 <generic_FH_TUERMODUL_CTRL+0x404>  // b.any
  401430:	f00000e0 	adrp	x0, 420000 <__libc_start_main@GLIBC_2.34>
  401434:	91040000 	add	x0, x0, #0x100
  401438:	3900001f 	strb	wzr, [x0]
  40143c:	f00000e0 	adrp	x0, 420000 <__libc_start_main@GLIBC_2.34>
  401440:	91033400 	add	x0, x0, #0xcd
  401444:	3900001f 	strb	wzr, [x0]
  401448:	f00000e0 	adrp	x0, 420000 <__libc_start_main@GLIBC_2.34>
  40144c:	91034000 	add	x0, x0, #0xd0
  401450:	3900001f 	strb	wzr, [x0]
  401454:	f00000e0 	adrp	x0, 420000 <__libc_start_main@GLIBC_2.34>
  401458:	91041800 	add	x0, x0, #0x106
  40145c:	52800021 	mov	w1, #0x1                   	// #1
  401460:	39000001 	strb	w1, [x0]
  401464:	1400024e 	b	401d9c <generic_FH_TUERMODUL_CTRL+0xd38>
  401468:	f00000e0 	adrp	x0, 420000 <__libc_start_main@GLIBC_2.34>
  40146c:	91030800 	add	x0, x0, #0xc2
  401470:	39400000 	ldrb	w0, [x0]
  401474:	7100001f 	cmp	w0, #0x0
  401478:	54000400 	b.eq	4014f8 <generic_FH_TUERMODUL_CTRL+0x494>  // b.none
  40147c:	f00000e0 	adrp	x0, 420000 <__libc_start_main@GLIBC_2.34>
  401480:	91031000 	add	x0, x0, #0xc4
  401484:	39400000 	ldrb	w0, [x0]
  401488:	7100001f 	cmp	w0, #0x0
  40148c:	54000361 	b.ne	4014f8 <generic_FH_TUERMODUL_CTRL+0x494>  // b.any
  401490:	f00000e0 	adrp	x0, 420000 <__libc_start_main@GLIBC_2.34>
  401494:	91033c00 	add	x0, x0, #0xcf
  401498:	39400000 	ldrb	w0, [x0]
  40149c:	7100001f 	cmp	w0, #0x0
  4014a0:	540002c0 	b.eq	4014f8 <generic_FH_TUERMODUL_CTRL+0x494>  // b.none
  4014a4:	f00000e0 	adrp	x0, 420000 <__libc_start_main@GLIBC_2.34>
  4014a8:	91040000 	add	x0, x0, #0x100
  4014ac:	3900001f 	strb	wzr, [x0]
  4014b0:	f00000e0 	adrp	x0, 420000 <__libc_start_main@GLIBC_2.34>
  4014b4:	91034000 	add	x0, x0, #0xd0
  4014b8:	3900001f 	strb	wzr, [x0]
  4014bc:	f00000e0 	adrp	x0, 420000 <__libc_start_main@GLIBC_2.34>
  4014c0:	9103e000 	add	x0, x0, #0xf8
  4014c4:	f9400001 	ldr	x1, [x0]
  4014c8:	f00000e0 	adrp	x0, 420000 <__libc_start_main@GLIBC_2.34>
  4014cc:	91012000 	add	x0, x0, #0x48
  4014d0:	f9000001 	str	x1, [x0]
  4014d4:	f00000e0 	adrp	x0, 420000 <__libc_start_main@GLIBC_2.34>
  4014d8:	91041800 	add	x0, x0, #0x106
  4014dc:	52800041 	mov	w1, #0x2                   	// #2
  4014e0:	39000001 	strb	w1, [x0]
  4014e4:	f00000e0 	adrp	x0, 420000 <__libc_start_main@GLIBC_2.34>
  4014e8:	91040800 	add	x0, x0, #0x102
  4014ec:	52800061 	mov	w1, #0x3                   	// #3
  4014f0:	39000001 	strb	w1, [x0]
  4014f4:	1400022a 	b	401d9c <generic_FH_TUERMODUL_CTRL+0xd38>
  4014f8:	f00000e0 	adrp	x0, 420000 <__libc_start_main@GLIBC_2.34>
  4014fc:	91030800 	add	x0, x0, #0xc2
  401500:	39400000 	ldrb	w0, [x0]
  401504:	7100001f 	cmp	w0, #0x0
  401508:	54000400 	b.eq	401588 <generic_FH_TUERMODUL_CTRL+0x524>  // b.none
  40150c:	f00000e0 	adrp	x0, 420000 <__libc_start_main@GLIBC_2.34>
  401510:	91031000 	add	x0, x0, #0xc4
  401514:	39400000 	ldrb	w0, [x0]
  401518:	7100001f 	cmp	w0, #0x0
  40151c:	54000361 	b.ne	401588 <generic_FH_TUERMODUL_CTRL+0x524>  // b.any
  401520:	f00000e0 	adrp	x0, 420000 <__libc_start_main@GLIBC_2.34>
  401524:	91033000 	add	x0, x0, #0xcc
  401528:	39400000 	ldrb	w0, [x0]
  40152c:	7100001f 	cmp	w0, #0x0
  401530:	540002c0 	b.eq	401588 <generic_FH_TUERMODUL_CTRL+0x524>  // b.none
  401534:	f00000e0 	adrp	x0, 420000 <__libc_start_main@GLIBC_2.34>
  401538:	91040000 	add	x0, x0, #0x100
  40153c:	3900001f 	strb	wzr, [x0]
  401540:	f00000e0 	adrp	x0, 420000 <__libc_start_main@GLIBC_2.34>
  401544:	91033400 	add	x0, x0, #0xcd
  401548:	3900001f 	strb	wzr, [x0]
  40154c:	f00000e0 	adrp	x0, 420000 <__libc_start_main@GLIBC_2.34>
  401550:	9103e000 	add	x0, x0, #0xf8
  401554:	f9400001 	ldr	x1, [x0]
  401558:	f00000e0 	adrp	x0, 420000 <__libc_start_main@GLIBC_2.34>
  40155c:	91014000 	add	x0, x0, #0x50
  401560:	f9000001 	str	x1, [x0]
  401564:	f00000e0 	adrp	x0, 420000 <__libc_start_main@GLIBC_2.34>
  401568:	91041800 	add	x0, x0, #0x106
  40156c:	52800041 	mov	w1, #0x2                   	// #2
  401570:	39000001 	strb	w1, [x0]
  401574:	f00000e0 	adrp	x0, 420000 <__libc_start_main@GLIBC_2.34>
  401578:	91040800 	add	x0, x0, #0x102
  40157c:	52800061 	mov	w1, #0x3                   	// #3
  401580:	39000001 	strb	w1, [x0]
  401584:	14000206 	b	401d9c <generic_FH_TUERMODUL_CTRL+0xd38>
  401588:	f00000e0 	adrp	x0, 420000 <__libc_start_main@GLIBC_2.34>
  40158c:	91042400 	add	x0, x0, #0x109
  401590:	39400000 	ldrb	w0, [x0]
  401594:	71000c1f 	cmp	w0, #0x3
  401598:	54003500 	b.eq	401c38 <generic_FH_TUERMODUL_CTRL+0xbd4>  // b.none
  40159c:	71000c1f 	cmp	w0, #0x3
  4015a0:	54003d8c 	b.gt	401d50 <generic_FH_TUERMODUL_CTRL+0xcec>
  4015a4:	7100041f 	cmp	w0, #0x1
  4015a8:	54000080 	b.eq	4015b8 <generic_FH_TUERMODUL_CTRL+0x554>  // b.none
  4015ac:	7100081f 	cmp	w0, #0x2
  4015b0:	54000e40 	b.eq	401778 <generic_FH_TUERMODUL_CTRL+0x714>  // b.none
  4015b4:	140001e7 	b	401d50 <generic_FH_TUERMODUL_CTRL+0xcec>
  4015b8:	f00000e0 	adrp	x0, 420000 <__libc_start_main@GLIBC_2.34>
  4015bc:	91020000 	add	x0, x0, #0x80
  4015c0:	b9400000 	ldr	w0, [x0]
  4015c4:	7106501f 	cmp	w0, #0x194
  4015c8:	5400018d 	b.le	4015f8 <generic_FH_TUERMODUL_CTRL+0x594>
  4015cc:	f00000e0 	adrp	x0, 420000 <__libc_start_main@GLIBC_2.34>
  4015d0:	91040000 	add	x0, x0, #0x100
  4015d4:	3900001f 	strb	wzr, [x0]
  4015d8:	f00000e0 	adrp	x0, 420000 <__libc_start_main@GLIBC_2.34>
  4015dc:	91034000 	add	x0, x0, #0xd0
  4015e0:	3900001f 	strb	wzr, [x0]
  4015e4:	f00000e0 	adrp	x0, 420000 <__libc_start_main@GLIBC_2.34>
  4015e8:	91042400 	add	x0, x0, #0x109
  4015ec:	52800061 	mov	w1, #0x3                   	// #3
  4015f0:	39000001 	strb	w1, [x0]
  4015f4:	140001e0 	b	401d74 <generic_FH_TUERMODUL_CTRL+0xd10>
  4015f8:	f00000e0 	adrp	x0, 420000 <__libc_start_main@GLIBC_2.34>
  4015fc:	91043000 	add	x0, x0, #0x10c
  401600:	39400000 	ldrb	w0, [x0]
  401604:	7100041f 	cmp	w0, #0x1
  401608:	54000080 	b.eq	401618 <generic_FH_TUERMODUL_CTRL+0x5b4>  // b.none
  40160c:	7100081f 	cmp	w0, #0x2
  401610:	54000480 	b.eq	4016a0 <generic_FH_TUERMODUL_CTRL+0x63c>  // b.none
  401614:	1400004d 	b	401748 <generic_FH_TUERMODUL_CTRL+0x6e4>
  401618:	f00000e0 	adrp	x0, 420000 <__libc_start_main@GLIBC_2.34>
  40161c:	91031800 	add	x0, x0, #0xc6
  401620:	39400000 	ldrb	w0, [x0]
  401624:	7100001f 	cmp	w0, #0x0
  401628:	540000c0 	b.eq	401640 <generic_FH_TUERMODUL_CTRL+0x5dc>  // b.none
  40162c:	f00000e0 	adrp	x0, 420000 <__libc_start_main@GLIBC_2.34>
  401630:	91032000 	add	x0, x0, #0xc8
  401634:	39400000 	ldrb	w0, [x0]
  401638:	7100001f 	cmp	w0, #0x0
  40163c:	54000160 	b.eq	401668 <generic_FH_TUERMODUL_CTRL+0x604>  // b.none
  401640:	f00000e0 	adrp	x0, 420000 <__libc_start_main@GLIBC_2.34>
  401644:	91032400 	add	x0, x0, #0xc9
  401648:	39400000 	ldrb	w0, [x0]
  40164c:	7100001f 	cmp	w0, #0x0
  401650:	540008c0 	b.eq	401768 <generic_FH_TUERMODUL_CTRL+0x704>  // b.none
  401654:	f00000e0 	adrp	x0, 420000 <__libc_start_main@GLIBC_2.34>
  401658:	91032c00 	add	x0, x0, #0xcb
  40165c:	39400000 	ldrb	w0, [x0]
  401660:	7100001f 	cmp	w0, #0x0
  401664:	54000821 	b.ne	401768 <generic_FH_TUERMODUL_CTRL+0x704>  // b.any
  401668:	f00000e0 	adrp	x0, 420000 <__libc_start_main@GLIBC_2.34>
  40166c:	91040000 	add	x0, x0, #0x100
  401670:	3900001f 	strb	wzr, [x0]
  401674:	f00000e0 	adrp	x0, 420000 <__libc_start_main@GLIBC_2.34>
  401678:	91034000 	add	x0, x0, #0xd0
  40167c:	3900001f 	strb	wzr, [x0]
  401680:	f00000e0 	adrp	x0, 420000 <__libc_start_main@GLIBC_2.34>
  401684:	91042400 	add	x0, x0, #0x109
  401688:	52800061 	mov	w1, #0x3                   	// #3
  40168c:	39000001 	strb	w1, [x0]
  401690:	f00000e0 	adrp	x0, 420000 <__libc_start_main@GLIBC_2.34>
  401694:	91043000 	add	x0, x0, #0x10c
  401698:	3900001f 	strb	wzr, [x0]
  40169c:	14000036 	b	401774 <generic_FH_TUERMODUL_CTRL+0x710>
  4016a0:	f00000e0 	adrp	x0, 420000 <__libc_start_main@GLIBC_2.34>
  4016a4:	91031800 	add	x0, x0, #0xc6
  4016a8:	39400000 	ldrb	w0, [x0]
  4016ac:	7100001f 	cmp	w0, #0x0
  4016b0:	540001c0 	b.eq	4016e8 <generic_FH_TUERMODUL_CTRL+0x684>  // b.none
  4016b4:	f00000e0 	adrp	x0, 420000 <__libc_start_main@GLIBC_2.34>
  4016b8:	91032000 	add	x0, x0, #0xc8
  4016bc:	39400000 	ldrb	w0, [x0]
  4016c0:	7100001f 	cmp	w0, #0x0
  4016c4:	54000121 	b.ne	4016e8 <generic_FH_TUERMODUL_CTRL+0x684>  // b.any
  4016c8:	f00000e0 	adrp	x0, 420000 <__libc_start_main@GLIBC_2.34>
  4016cc:	91040000 	add	x0, x0, #0x100
  4016d0:	3900001f 	strb	wzr, [x0]
  4016d4:	f00000e0 	adrp	x0, 420000 <__libc_start_main@GLIBC_2.34>
  4016d8:	91043000 	add	x0, x0, #0x10c
  4016dc:	52800021 	mov	w1, #0x1                   	// #1
  4016e0:	39000001 	strb	w1, [x0]
  4016e4:	14000024 	b	401774 <generic_FH_TUERMODUL_CTRL+0x710>
  4016e8:	f00000e0 	adrp	x0, 420000 <__libc_start_main@GLIBC_2.34>
  4016ec:	91032400 	add	x0, x0, #0xc9
  4016f0:	39400000 	ldrb	w0, [x0]
  4016f4:	7100001f 	cmp	w0, #0x0
  4016f8:	540003c1 	b.ne	401770 <generic_FH_TUERMODUL_CTRL+0x70c>  // b.any
  4016fc:	f00000e0 	adrp	x0, 420000 <__libc_start_main@GLIBC_2.34>
  401700:	91032c00 	add	x0, x0, #0xcb
  401704:	39400000 	ldrb	w0, [x0]
  401708:	7100001f 	cmp	w0, #0x0
  40170c:	54000320 	b.eq	401770 <generic_FH_TUERMODUL_CTRL+0x70c>  // b.none
  401710:	f00000e0 	adrp	x0, 420000 <__libc_start_main@GLIBC_2.34>
  401714:	91040000 	add	x0, x0, #0x100
  401718:	3900001f 	strb	wzr, [x0]
  40171c:	f00000e0 	adrp	x0, 420000 <__libc_start_main@GLIBC_2.34>
  401720:	91034000 	add	x0, x0, #0xd0
  401724:	3900001f 	strb	wzr, [x0]
  401728:	f00000e0 	adrp	x0, 420000 <__libc_start_main@GLIBC_2.34>
  40172c:	91042400 	add	x0, x0, #0x109
  401730:	52800061 	mov	w1, #0x3                   	// #3
  401734:	39000001 	strb	w1, [x0]
  401738:	f00000e0 	adrp	x0, 420000 <__libc_start_main@GLIBC_2.34>
  40173c:	91043000 	add	x0, x0, #0x10c
  401740:	3900001f 	strb	wzr, [x0]
  401744:	1400000c 	b	401774 <generic_FH_TUERMODUL_CTRL+0x710>
  401748:	f00000e0 	adrp	x0, 420000 <__libc_start_main@GLIBC_2.34>
  40174c:	91040000 	add	x0, x0, #0x100
  401750:	3900001f 	strb	wzr, [x0]
  401754:	f00000e0 	adrp	x0, 420000 <__libc_start_main@GLIBC_2.34>
  401758:	91043000 	add	x0, x0, #0x10c
  40175c:	52800041 	mov	w1, #0x2                   	// #2
  401760:	39000001 	strb	w1, [x0]
  401764:	14000004 	b	401774 <generic_FH_TUERMODUL_CTRL+0x710>
  401768:	d503201f 	nop
  40176c:	14000182 	b	401d74 <generic_FH_TUERMODUL_CTRL+0xd10>
  401770:	d503201f 	nop
  401774:	14000180 	b	401d74 <generic_FH_TUERMODUL_CTRL+0xd10>
  401778:	f00000e0 	adrp	x0, 420000 <__libc_start_main@GLIBC_2.34>
  40177c:	91020000 	add	x0, x0, #0x80
  401780:	b9400000 	ldr	w0, [x0]
  401784:	7100001f 	cmp	w0, #0x0
  401788:	5400018c 	b.gt	4017b8 <generic_FH_TUERMODUL_CTRL+0x754>
  40178c:	f00000e0 	adrp	x0, 420000 <__libc_start_main@GLIBC_2.34>
  401790:	91040000 	add	x0, x0, #0x100
  401794:	3900001f 	strb	wzr, [x0]
  401798:	f00000e0 	adrp	x0, 420000 <__libc_start_main@GLIBC_2.34>
  40179c:	91033400 	add	x0, x0, #0xcd
  4017a0:	3900001f 	strb	wzr, [x0]
  4017a4:	f00000e0 	adrp	x0, 420000 <__libc_start_main@GLIBC_2.34>
  4017a8:	91042400 	add	x0, x0, #0x109
  4017ac:	52800061 	mov	w1, #0x3                   	// #3
  4017b0:	39000001 	strb	w1, [x0]
  4017b4:	14000170 	b	401d74 <generic_FH_TUERMODUL_CTRL+0xd10>
  4017b8:	f00000e0 	adrp	x0, 420000 <__libc_start_main@GLIBC_2.34>
  4017bc:	91043400 	add	x0, x0, #0x10d
  4017c0:	39400000 	ldrb	w0, [x0]
  4017c4:	7100041f 	cmp	w0, #0x1
  4017c8:	54000080 	b.eq	4017d8 <generic_FH_TUERMODUL_CTRL+0x774>  // b.none
  4017cc:	7100081f 	cmp	w0, #0x2
  4017d0:	54000f80 	b.eq	4019c0 <generic_FH_TUERMODUL_CTRL+0x95c>  // b.none
  4017d4:	14000104 	b	401be4 <generic_FH_TUERMODUL_CTRL+0xb80>
  4017d8:	f00000e0 	adrp	x0, 420000 <__libc_start_main@GLIBC_2.34>
  4017dc:	91032400 	add	x0, x0, #0xc9
  4017e0:	39400000 	ldrb	w0, [x0]
  4017e4:	7100001f 	cmp	w0, #0x0
  4017e8:	540000c0 	b.eq	401800 <generic_FH_TUERMODUL_CTRL+0x79c>  // b.none
  4017ec:	f00000e0 	adrp	x0, 420000 <__libc_start_main@GLIBC_2.34>
  4017f0:	91032c00 	add	x0, x0, #0xcb
  4017f4:	39400000 	ldrb	w0, [x0]
  4017f8:	7100001f 	cmp	w0, #0x0
  4017fc:	54000160 	b.eq	401828 <generic_FH_TUERMODUL_CTRL+0x7c4>  // b.none
  401800:	f00000e0 	adrp	x0, 420000 <__libc_start_main@GLIBC_2.34>
  401804:	91031800 	add	x0, x0, #0xc6
  401808:	39400000 	ldrb	w0, [x0]
  40180c:	7100001f 	cmp	w0, #0x0
  401810:	54000220 	b.eq	401854 <generic_FH_TUERMODUL_CTRL+0x7f0>  // b.none
  401814:	f00000e0 	adrp	x0, 420000 <__libc_start_main@GLIBC_2.34>
  401818:	91032000 	add	x0, x0, #0xc8
  40181c:	39400000 	ldrb	w0, [x0]
  401820:	7100001f 	cmp	w0, #0x0
  401824:	54000181 	b.ne	401854 <generic_FH_TUERMODUL_CTRL+0x7f0>  // b.any
  401828:	f00000e0 	adrp	x0, 420000 <__libc_start_main@GLIBC_2.34>
  40182c:	91040000 	add	x0, x0, #0x100
  401830:	3900001f 	strb	wzr, [x0]
  401834:	f00000e0 	adrp	x0, 420000 <__libc_start_main@GLIBC_2.34>
  401838:	91033400 	add	x0, x0, #0xcd
  40183c:	3900001f 	strb	wzr, [x0]
  401840:	f00000e0 	adrp	x0, 420000 <__libc_start_main@GLIBC_2.34>
  401844:	91042400 	add	x0, x0, #0x109
  401848:	52800061 	mov	w1, #0x3                   	// #3
  40184c:	39000001 	strb	w1, [x0]
  401850:	140000f9 	b	401c34 <generic_FH_TUERMODUL_CTRL+0xbd0>
  401854:	f00000e0 	adrp	x0, 420000 <__libc_start_main@GLIBC_2.34>
  401858:	91042800 	add	x0, x0, #0x10a
  40185c:	39400000 	ldrb	w0, [x0]
  401860:	7100041f 	cmp	w0, #0x1
  401864:	54000080 	b.eq	401874 <generic_FH_TUERMODUL_CTRL+0x810>  // b.none
  401868:	7100081f 	cmp	w0, #0x2
  40186c:	54000400 	b.eq	4018ec <generic_FH_TUERMODUL_CTRL+0x888>  // b.none
  401870:	14000044 	b	401980 <generic_FH_TUERMODUL_CTRL+0x91c>
  401874:	f00000e0 	adrp	x0, 420000 <__libc_start_main@GLIBC_2.34>
  401878:	91046000 	add	x0, x0, #0x118
  40187c:	39005c1f 	strb	wzr, [x0, #23]
  401880:	f00000e0 	adrp	x0, 420000 <__libc_start_main@GLIBC_2.34>
  401884:	91046000 	add	x0, x0, #0x118
  401888:	39405800 	ldrb	w0, [x0, #22]
  40188c:	7100001f 	cmp	w0, #0x0
  401890:	54000900 	b.eq	4019b0 <generic_FH_TUERMODUL_CTRL+0x94c>  // b.none
  401894:	f00000e0 	adrp	x0, 420000 <__libc_start_main@GLIBC_2.34>
  401898:	91040000 	add	x0, x0, #0x100
  40189c:	3900001f 	strb	wzr, [x0]
  4018a0:	f00000e0 	adrp	x0, 420000 <__libc_start_main@GLIBC_2.34>
  4018a4:	91033400 	add	x0, x0, #0xcd
  4018a8:	52800021 	mov	w1, #0x1                   	// #1
  4018ac:	39000001 	strb	w1, [x0]
  4018b0:	f00000e0 	adrp	x0, 420000 <__libc_start_main@GLIBC_2.34>
  4018b4:	9102d400 	add	x0, x0, #0xb5
  4018b8:	3900001f 	strb	wzr, [x0]
  4018bc:	f00000e0 	adrp	x0, 420000 <__libc_start_main@GLIBC_2.34>
  4018c0:	91042800 	add	x0, x0, #0x10a
  4018c4:	52800041 	mov	w1, #0x2                   	// #2
  4018c8:	39000001 	strb	w1, [x0]
  4018cc:	f00000e0 	adrp	x0, 420000 <__libc_start_main@GLIBC_2.34>
  4018d0:	91034000 	add	x0, x0, #0xd0
  4018d4:	3900001f 	strb	wzr, [x0]
  4018d8:	f00000e0 	adrp	x0, 420000 <__libc_start_main@GLIBC_2.34>
  4018dc:	91046000 	add	x0, x0, #0x118
  4018e0:	52800021 	mov	w1, #0x1                   	// #1
  4018e4:	39004401 	strb	w1, [x0, #17]
  4018e8:	14000035 	b	4019bc <generic_FH_TUERMODUL_CTRL+0x958>
  4018ec:	f00000e0 	adrp	x0, 420000 <__libc_start_main@GLIBC_2.34>
  4018f0:	91046000 	add	x0, x0, #0x118
  4018f4:	39406000 	ldrb	w0, [x0, #24]
  4018f8:	7100001f 	cmp	w0, #0x0
  4018fc:	540005e0 	b.eq	4019b8 <generic_FH_TUERMODUL_CTRL+0x954>  // b.none
  401900:	f00000e0 	adrp	x0, 420000 <__libc_start_main@GLIBC_2.34>
  401904:	91040000 	add	x0, x0, #0x100
  401908:	3900001f 	strb	wzr, [x0]
  40190c:	f00000e0 	adrp	x0, 420000 <__libc_start_main@GLIBC_2.34>
  401910:	9102d400 	add	x0, x0, #0xb5
  401914:	52800021 	mov	w1, #0x1                   	// #1
  401918:	39000001 	strb	w1, [x0]
  40191c:	f00000e0 	adrp	x0, 420000 <__libc_start_main@GLIBC_2.34>
  401920:	91046000 	add	x0, x0, #0x118
  401924:	52800021 	mov	w1, #0x1                   	// #1
  401928:	39005c01 	strb	w1, [x0, #23]
  40192c:	f00000e0 	adrp	x0, 420000 <__libc_start_main@GLIBC_2.34>
  401930:	91042800 	add	x0, x0, #0x10a
  401934:	52800021 	mov	w1, #0x1                   	// #1
  401938:	39000001 	strb	w1, [x0]
  40193c:	f00000e0 	adrp	x0, 420000 <__libc_start_main@GLIBC_2.34>
  401940:	91046000 	add	x0, x0, #0x118
  401944:	3900441f 	strb	wzr, [x0, #17]
  401948:	f00000e0 	adrp	x0, 420000 <__libc_start_main@GLIBC_2.34>
  40194c:	91033400 	add	x0, x0, #0xcd
  401950:	3900001f 	strb	wzr, [x0]
  401954:	f00000e0 	adrp	x0, 420000 <__libc_start_main@GLIBC_2.34>
  401958:	9103e000 	add	x0, x0, #0xf8
  40195c:	f9400001 	ldr	x1, [x0]
  401960:	f00000e0 	adrp	x0, 420000 <__libc_start_main@GLIBC_2.34>
  401964:	9101c000 	add	x0, x0, #0x70
  401968:	f9000001 	str	x1, [x0]
  40196c:	f00000e0 	adrp	x0, 420000 <__libc_start_main@GLIBC_2.34>
  401970:	91034000 	add	x0, x0, #0xd0
  401974:	52800021 	mov	w1, #0x1                   	// #1
  401978:	39000001 	strb	w1, [x0]
  40197c:	14000010 	b	4019bc <generic_FH_TUERMODUL_CTRL+0x958>
  401980:	f00000e0 	adrp	x0, 420000 <__libc_start_main@GLIBC_2.34>
  401984:	91040000 	add	x0, x0, #0x100
  401988:	3900001f 	strb	wzr, [x0]
  40198c:	f00000e0 	adrp	x0, 420000 <__libc_start_main@GLIBC_2.34>
  401990:	91042800 	add	x0, x0, #0x10a
  401994:	52800041 	mov	w1, #0x2                   	// #2
  401998:	39000001 	strb	w1, [x0]
  40199c:	f00000e0 	adrp	x0, 420000 <__libc_start_main@GLIBC_2.34>
  4019a0:	91046000 	add	x0, x0, #0x118
  4019a4:	52800021 	mov	w1, #0x1                   	// #1
  4019a8:	39004401 	strb	w1, [x0, #17]
  4019ac:	14000004 	b	4019bc <generic_FH_TUERMODUL_CTRL+0x958>
  4019b0:	d503201f 	nop
  4019b4:	140000a0 	b	401c34 <generic_FH_TUERMODUL_CTRL+0xbd0>
  4019b8:	d503201f 	nop
  4019bc:	1400009e 	b	401c34 <generic_FH_TUERMODUL_CTRL+0xbd0>
  4019c0:	f00000e0 	adrp	x0, 420000 <__libc_start_main@GLIBC_2.34>
  4019c4:	91031800 	add	x0, x0, #0xc6
  4019c8:	39400000 	ldrb	w0, [x0]
  4019cc:	7100001f 	cmp	w0, #0x0
  4019d0:	54000221 	b.ne	401a14 <generic_FH_TUERMODUL_CTRL+0x9b0>  // b.any
  4019d4:	f00000e0 	adrp	x0, 420000 <__libc_start_main@GLIBC_2.34>
  4019d8:	91032000 	add	x0, x0, #0xc8
  4019dc:	39400000 	ldrb	w0, [x0]
  4019e0:	7100001f 	cmp	w0, #0x0
  4019e4:	54000180 	b.eq	401a14 <generic_FH_TUERMODUL_CTRL+0x9b0>  // b.none
  4019e8:	f00000e0 	adrp	x0, 420000 <__libc_start_main@GLIBC_2.34>
  4019ec:	91040000 	add	x0, x0, #0x100
  4019f0:	3900001f 	strb	wzr, [x0]
  4019f4:	f00000e0 	adrp	x0, 420000 <__libc_start_main@GLIBC_2.34>
  4019f8:	91033400 	add	x0, x0, #0xcd
  4019fc:	3900001f 	strb	wzr, [x0]
  401a00:	f00000e0 	adrp	x0, 420000 <__libc_start_main@GLIBC_2.34>
  401a04:	91042400 	add	x0, x0, #0x109
  401a08:	52800061 	mov	w1, #0x3                   	// #3
  401a0c:	39000001 	strb	w1, [x0]
  401a10:	14000089 	b	401c34 <generic_FH_TUERMODUL_CTRL+0xbd0>
  401a14:	f00000e0 	adrp	x0, 420000 <__libc_start_main@GLIBC_2.34>
  401a18:	91042c00 	add	x0, x0, #0x10b
  401a1c:	39400000 	ldrb	w0, [x0]
  401a20:	7100041f 	cmp	w0, #0x1
  401a24:	54000080 	b.eq	401a34 <generic_FH_TUERMODUL_CTRL+0x9d0>  // b.none
  401a28:	7100081f 	cmp	w0, #0x2
  401a2c:	54000400 	b.eq	401aac <generic_FH_TUERMODUL_CTRL+0xa48>  // b.none
  401a30:	14000059 	b	401b94 <generic_FH_TUERMODUL_CTRL+0xb30>
  401a34:	f00000e0 	adrp	x0, 420000 <__libc_start_main@GLIBC_2.34>
  401a38:	91046000 	add	x0, x0, #0x118
  401a3c:	39005c1f 	strb	wzr, [x0, #23]
  401a40:	f00000e0 	adrp	x0, 420000 <__libc_start_main@GLIBC_2.34>
  401a44:	91046000 	add	x0, x0, #0x118
  401a48:	39405800 	ldrb	w0, [x0, #22]
  401a4c:	7100001f 	cmp	w0, #0x0
  401a50:	54000c20 	b.eq	401bd4 <generic_FH_TUERMODUL_CTRL+0xb70>  // b.none
  401a54:	f00000e0 	adrp	x0, 420000 <__libc_start_main@GLIBC_2.34>
  401a58:	91040000 	add	x0, x0, #0x100
  401a5c:	3900001f 	strb	wzr, [x0]
  401a60:	f00000e0 	adrp	x0, 420000 <__libc_start_main@GLIBC_2.34>
  401a64:	9102dc00 	add	x0, x0, #0xb7
  401a68:	3900001f 	strb	wzr, [x0]
  401a6c:	f00000e0 	adrp	x0, 420000 <__libc_start_main@GLIBC_2.34>
  401a70:	91042c00 	add	x0, x0, #0x10b
  401a74:	52800041 	mov	w1, #0x2                   	// #2
  401a78:	39000001 	strb	w1, [x0]
  401a7c:	f00000e0 	adrp	x0, 420000 <__libc_start_main@GLIBC_2.34>
  401a80:	91034000 	add	x0, x0, #0xd0
  401a84:	3900001f 	strb	wzr, [x0]
  401a88:	f00000e0 	adrp	x0, 420000 <__libc_start_main@GLIBC_2.34>
  401a8c:	91046000 	add	x0, x0, #0x118
  401a90:	52800021 	mov	w1, #0x1                   	// #1
  401a94:	39004401 	strb	w1, [x0, #17]
  401a98:	f00000e0 	adrp	x0, 420000 <__libc_start_main@GLIBC_2.34>
  401a9c:	91033400 	add	x0, x0, #0xcd
  401aa0:	52800021 	mov	w1, #0x1                   	// #1
  401aa4:	39000001 	strb	w1, [x0]
  401aa8:	1400004e 	b	401be0 <generic_FH_TUERMODUL_CTRL+0xb7c>
  401aac:	f00000e0 	adrp	x0, 420000 <__libc_start_main@GLIBC_2.34>
  401ab0:	91046000 	add	x0, x0, #0x118
  401ab4:	39406000 	ldrb	w0, [x0, #24]
  401ab8:	7100001f 	cmp	w0, #0x0
  401abc:	54000420 	b.eq	401b40 <generic_FH_TUERMODUL_CTRL+0xadc>  // b.none
  401ac0:	f00000e0 	adrp	x0, 420000 <__libc_start_main@GLIBC_2.34>
  401ac4:	91040000 	add	x0, x0, #0x100
  401ac8:	3900001f 	strb	wzr, [x0]
  401acc:	f00000e0 	adrp	x0, 420000 <__libc_start_main@GLIBC_2.34>
  401ad0:	91033400 	add	x0, x0, #0xcd
  401ad4:	3900001f 	strb	wzr, [x0]
  401ad8:	f00000e0 	adrp	x0, 420000 <__libc_start_main@GLIBC_2.34>
  401adc:	9102dc00 	add	x0, x0, #0xb7
  401ae0:	52800021 	mov	w1, #0x1                   	// #1
  401ae4:	39000001 	strb	w1, [x0]
  401ae8:	f00000e0 	adrp	x0, 420000 <__libc_start_main@GLIBC_2.34>
  401aec:	91046000 	add	x0, x0, #0x118
  401af0:	52800021 	mov	w1, #0x1                   	// #1
  401af4:	39005c01 	strb	w1, [x0, #23]
  401af8:	f00000e0 	adrp	x0, 420000 <__libc_start_main@GLIBC_2.34>
  401afc:	91042c00 	add	x0, x0, #0x10b
  401b00:	52800021 	mov	w1, #0x1                   	// #1
  401b04:	39000001 	strb	w1, [x0]
  401b08:	f00000e0 	adrp	x0, 420000 <__libc_start_main@GLIBC_2.34>
  401b0c:	91046000 	add	x0, x0, #0x118
  401b10:	3900441f 	strb	wzr, [x0, #17]
  401b14:	f00000e0 	adrp	x0, 420000 <__libc_start_main@GLIBC_2.34>
  401b18:	9103e000 	add	x0, x0, #0xf8
  401b1c:	f9400001 	ldr	x1, [x0]
  401b20:	f00000e0 	adrp	x0, 420000 <__libc_start_main@GLIBC_2.34>
  401b24:	9101e000 	add	x0, x0, #0x78
  401b28:	f9000001 	str	x1, [x0]
  401b2c:	f00000e0 	adrp	x0, 420000 <__libc_start_main@GLIBC_2.34>
  401b30:	91034000 	add	x0, x0, #0xd0
  401b34:	52800021 	mov	w1, #0x1                   	// #1
  401b38:	39000001 	strb	w1, [x0]
  401b3c:	14000029 	b	401be0 <generic_FH_TUERMODUL_CTRL+0xb7c>
  401b40:	f00000e0 	adrp	x0, 420000 <__libc_start_main@GLIBC_2.34>
  401b44:	91032400 	add	x0, x0, #0xc9
  401b48:	39400000 	ldrb	w0, [x0]
  401b4c:	7100001f 	cmp	w0, #0x0
  401b50:	54000460 	b.eq	401bdc <generic_FH_TUERMODUL_CTRL+0xb78>  // b.none
  401b54:	f00000e0 	adrp	x0, 420000 <__libc_start_main@GLIBC_2.34>
  401b58:	91032c00 	add	x0, x0, #0xcb
  401b5c:	39400000 	ldrb	w0, [x0]
  401b60:	7100001f 	cmp	w0, #0x0
  401b64:	540003c1 	b.ne	401bdc <generic_FH_TUERMODUL_CTRL+0xb78>  // b.any
  401b68:	f00000e0 	adrp	x0, 420000 <__libc_start_main@GLIBC_2.34>
  401b6c:	91040000 	add	x0, x0, #0x100
  401b70:	3900001f 	strb	wzr, [x0]
  401b74:	f00000e0 	adrp	x0, 420000 <__libc_start_main@GLIBC_2.34>
  401b78:	91043400 	add	x0, x0, #0x10d
  401b7c:	52800021 	mov	w1, #0x1                   	// #1
  401b80:	39000001 	strb	w1, [x0]
  401b84:	f00000e0 	adrp	x0, 420000 <__libc_start_main@GLIBC_2.34>
  401b88:	91042c00 	add	x0, x0, #0x10b
  401b8c:	3900001f 	strb	wzr, [x0]
  401b90:	14000014 	b	401be0 <generic_FH_TUERMODUL_CTRL+0xb7c>
  401b94:	f00000e0 	adrp	x0, 420000 <__libc_start_main@GLIBC_2.34>
  401b98:	91040000 	add	x0, x0, #0x100
  401b9c:	3900001f 	strb	wzr, [x0]
  401ba0:	f00000e0 	adrp	x0, 420000 <__libc_start_main@GLIBC_2.34>
  401ba4:	91042c00 	add	x0, x0, #0x10b
  401ba8:	52800041 	mov	w1, #0x2                   	// #2
  401bac:	39000001 	strb	w1, [x0]
  401bb0:	f00000e0 	adrp	x0, 420000 <__libc_start_main@GLIBC_2.34>
  401bb4:	91046000 	add	x0, x0, #0x118
  401bb8:	52800021 	mov	w1, #0x1                   	// #1
  401bbc:	39004401 	strb	w1, [x0, #17]
  401bc0:	f00000e0 	adrp	x0, 420000 <__libc_start_main@GLIBC_2.34>
  401bc4:	91033400 	add	x0, x0, #0xcd
  401bc8:	52800021 	mov	w1, #0x1                   	// #1
  401bcc:	39000001 	strb	w1, [x0]
  401bd0:	14000004 	b	401be0 <generic_FH_TUERMODUL_CTRL+0xb7c>
  401bd4:	d503201f 	nop
  401bd8:	14000017 	b	401c34 <generic_FH_TUERMODUL_CTRL+0xbd0>
  401bdc:	d503201f 	nop
  401be0:	14000015 	b	401c34 <generic_FH_TUERMODUL_CTRL+0xbd0>
  401be4:	f00000e0 	adrp	x0, 420000 <__libc_start_main@GLIBC_2.34>
  401be8:	91040000 	add	x0, x0, #0x100
  401bec:	3900001f 	strb	wzr, [x0]
  401bf0:	f00000e0 	adrp	x0, 420000 <__libc_start_main@GLIBC_2.34>
  401bf4:	91043400 	add	x0, x0, #0x10d
  401bf8:	52800041 	mov	w1, #0x2                   	// #2
  401bfc:	39000001 	strb	w1, [x0]
  401c00:	f00000e0 	adrp	x0, 420000 <__libc_start_main@GLIBC_2.34>
  401c04:	91042c00 	add	x0, x0, #0x10b
  401c08:	52800041 	mov	w1, #0x2                   	// #2
  401c0c:	39000001 	strb	w1, [x0]
  401c10:	f00000e0 	adrp	x0, 420000 <__libc_start_main@GLIBC_2.34>
  401c14:	91046000 	add	x0, x0, #0x118
  401c18:	52800021 	mov	w1, #0x1                   	// #1
  401c1c:	39004401 	strb	w1, [x0, #17]
  401c20:	f00000e0 	adrp	x0, 420000 <__libc_start_main@GLIBC_2.34>
  401c24:	91033400 	add	x0, x0, #0xcd
  401c28:	52800021 	mov	w1, #0x1                   	// #1
  401c2c:	39000001 	strb	w1, [x0]
  401c30:	d503201f 	nop
  401c34:	14000050 	b	401d74 <generic_FH_TUERMODUL_CTRL+0xd10>
  401c38:	f00000e0 	adrp	x0, 420000 <__libc_start_main@GLIBC_2.34>
  401c3c:	91031800 	add	x0, x0, #0xc6
  401c40:	39400000 	ldrb	w0, [x0]
  401c44:	7100001f 	cmp	w0, #0x0
  401c48:	54000460 	b.eq	401cd4 <generic_FH_TUERMODUL_CTRL+0xc70>  // b.none
  401c4c:	f00000e0 	adrp	x0, 420000 <__libc_start_main@GLIBC_2.34>
  401c50:	91032000 	add	x0, x0, #0xc8
  401c54:	39400000 	ldrb	w0, [x0]
  401c58:	7100001f 	cmp	w0, #0x0
  401c5c:	540003c1 	b.ne	401cd4 <generic_FH_TUERMODUL_CTRL+0xc70>  // b.any
  401c60:	f00000e0 	adrp	x0, 420000 <__libc_start_main@GLIBC_2.34>
  401c64:	91020000 	add	x0, x0, #0x80
  401c68:	b9400000 	ldr	w0, [x0]
  401c6c:	7100001f 	cmp	w0, #0x0
  401c70:	5400032d 	b.le	401cd4 <generic_FH_TUERMODUL_CTRL+0xc70>
  401c74:	f00000e0 	adrp	x0, 420000 <__libc_start_main@GLIBC_2.34>
  401c78:	91040000 	add	x0, x0, #0x100
  401c7c:	3900001f 	strb	wzr, [x0]
  401c80:	f00000e0 	adrp	x0, 420000 <__libc_start_main@GLIBC_2.34>
  401c84:	91042400 	add	x0, x0, #0x109
  401c88:	52800041 	mov	w1, #0x2                   	// #2
  401c8c:	39000001 	strb	w1, [x0]
  401c90:	f00000e0 	adrp	x0, 420000 <__libc_start_main@GLIBC_2.34>
  401c94:	91043400 	add	x0, x0, #0x10d
  401c98:	52800041 	mov	w1, #0x2                   	// #2
  401c9c:	39000001 	strb	w1, [x0]
  401ca0:	f00000e0 	adrp	x0, 420000 <__libc_start_main@GLIBC_2.34>
  401ca4:	91042c00 	add	x0, x0, #0x10b
  401ca8:	52800041 	mov	w1, #0x2                   	// #2
  401cac:	39000001 	strb	w1, [x0]
  401cb0:	f00000e0 	adrp	x0, 420000 <__libc_start_main@GLIBC_2.34>
  401cb4:	91046000 	add	x0, x0, #0x118
  401cb8:	52800021 	mov	w1, #0x1                   	// #1
  401cbc:	39004401 	strb	w1, [x0, #17]
  401cc0:	f00000e0 	adrp	x0, 420000 <__libc_start_main@GLIBC_2.34>
  401cc4:	91033400 	add	x0, x0, #0xcd
  401cc8:	52800021 	mov	w1, #0x1                   	// #1
  401ccc:	39000001 	strb	w1, [x0]
  401cd0:	14000029 	b	401d74 <generic_FH_TUERMODUL_CTRL+0xd10>
  401cd4:	f00000e0 	adrp	x0, 420000 <__libc_start_main@GLIBC_2.34>
  401cd8:	91032400 	add	x0, x0, #0xc9
  401cdc:	39400000 	ldrb	w0, [x0]
  401ce0:	7100001f 	cmp	w0, #0x0
  401ce4:	54000460 	b.eq	401d70 <generic_FH_TUERMODUL_CTRL+0xd0c>  // b.none
  401ce8:	f00000e0 	adrp	x0, 420000 <__libc_start_main@GLIBC_2.34>
  401cec:	91032c00 	add	x0, x0, #0xcb
  401cf0:	39400000 	ldrb	w0, [x0]
  401cf4:	7100001f 	cmp	w0, #0x0
  401cf8:	540003c1 	b.ne	401d70 <generic_FH_TUERMODUL_CTRL+0xd0c>  // b.any
  401cfc:	f00000e0 	adrp	x0, 420000 <__libc_start_main@GLIBC_2.34>
  401d00:	91020000 	add	x0, x0, #0x80
  401d04:	b9400000 	ldr	w0, [x0]
  401d08:	7106501f 	cmp	w0, #0x194
  401d0c:	5400032c 	b.gt	401d70 <generic_FH_TUERMODUL_CTRL+0xd0c>
  401d10:	f00000e0 	adrp	x0, 420000 <__libc_start_main@GLIBC_2.34>
  401d14:	91040000 	add	x0, x0, #0x100
  401d18:	3900001f 	strb	wzr, [x0]
  401d1c:	f00000e0 	adrp	x0, 420000 <__libc_start_main@GLIBC_2.34>
  401d20:	91034000 	add	x0, x0, #0xd0
  401d24:	52800021 	mov	w1, #0x1                   	// #1
  401d28:	39000001 	strb	w1, [x0]
  401d2c:	f00000e0 	adrp	x0, 420000 <__libc_start_main@GLIBC_2.34>
  401d30:	91042400 	add	x0, x0, #0x109
  401d34:	52800021 	mov	w1, #0x1                   	// #1
  401d38:	39000001 	strb	w1, [x0]
  401d3c:	f00000e0 	adrp	x0, 420000 <__libc_start_main@GLIBC_2.34>
  401d40:	91043000 	add	x0, x0, #0x10c
  401d44:	52800041 	mov	w1, #0x2                   	// #2
  401d48:	39000001 	strb	w1, [x0]
  401d4c:	1400000a 	b	401d74 <generic_FH_TUERMODUL_CTRL+0xd10>
  401d50:	f00000e0 	adrp	x0, 420000 <__libc_start_main@GLIBC_2.34>
  401d54:	91040000 	add	x0, x0, #0x100
  401d58:	3900001f 	strb	wzr, [x0]
  401d5c:	f00000e0 	adrp	x0, 420000 <__libc_start_main@GLIBC_2.34>
  401d60:	91042400 	add	x0, x0, #0x109
  401d64:	52800061 	mov	w1, #0x3                   	// #3
  401d68:	39000001 	strb	w1, [x0]
  401d6c:	14000002 	b	401d74 <generic_FH_TUERMODUL_CTRL+0xd10>
  401d70:	d503201f 	nop
  401d74:	1400000a 	b	401d9c <generic_FH_TUERMODUL_CTRL+0xd38>
  401d78:	f00000e0 	adrp	x0, 420000 <__libc_start_main@GLIBC_2.34>
  401d7c:	91040000 	add	x0, x0, #0x100
  401d80:	3900001f 	strb	wzr, [x0]
  401d84:	f00000e0 	adrp	x0, 420000 <__libc_start_main@GLIBC_2.34>
  401d88:	91041800 	add	x0, x0, #0x106
  401d8c:	52800041 	mov	w1, #0x2                   	// #2
  401d90:	39000001 	strb	w1, [x0]
  401d94:	14000002 	b	401d9c <generic_FH_TUERMODUL_CTRL+0xd38>
  401d98:	d503201f 	nop
  401d9c:	f00000e0 	adrp	x0, 420000 <__libc_start_main@GLIBC_2.34>
  401da0:	91041c00 	add	x0, x0, #0x107
  401da4:	39400000 	ldrb	w0, [x0]
  401da8:	7100041f 	cmp	w0, #0x1
  401dac:	54000f81 	b.ne	401f9c <generic_FH_TUERMODUL_CTRL+0xf38>  // b.any
  401db0:	f00000e0 	adrp	x0, 420000 <__libc_start_main@GLIBC_2.34>
  401db4:	91046000 	add	x0, x0, #0x118
  401db8:	3900141f 	strb	wzr, [x0, #5]
  401dbc:	f00000e0 	adrp	x0, 420000 <__libc_start_main@GLIBC_2.34>
  401dc0:	91040400 	add	x0, x0, #0x101
  401dc4:	39400000 	ldrb	w0, [x0]
  401dc8:	7100041f 	cmp	w0, #0x1
  401dcc:	54000601 	b.ne	401e8c <generic_FH_TUERMODUL_CTRL+0xe28>  // b.any
  401dd0:	f00000e0 	adrp	x0, 420000 <__libc_start_main@GLIBC_2.34>
  401dd4:	9100e000 	add	x0, x0, #0x38
  401dd8:	f9400000 	ldr	x0, [x0]
  401ddc:	f100001f 	cmp	x0, #0x0
  401de0:	54000560 	b.eq	401e8c <generic_FH_TUERMODUL_CTRL+0xe28>  // b.none
  401de4:	f00000e0 	adrp	x0, 420000 <__libc_start_main@GLIBC_2.34>
  401de8:	9103e000 	add	x0, x0, #0xf8
  401dec:	f9400001 	ldr	x1, [x0]
  401df0:	f00000e0 	adrp	x0, 420000 <__libc_start_main@GLIBC_2.34>
  401df4:	9100e000 	add	x0, x0, #0x38
  401df8:	f9400000 	ldr	x0, [x0]
  401dfc:	cb000020 	sub	x0, x1, x0
  401e00:	f100041f 	cmp	x0, #0x1
  401e04:	54000441 	b.ne	401e8c <generic_FH_TUERMODUL_CTRL+0xe28>  // b.any
  401e08:	f00000e0 	adrp	x0, 420000 <__libc_start_main@GLIBC_2.34>
  401e0c:	91033000 	add	x0, x0, #0xcc
  401e10:	39400000 	ldrb	w0, [x0]
  401e14:	7100001f 	cmp	w0, #0x0
  401e18:	540000c1 	b.ne	401e30 <generic_FH_TUERMODUL_CTRL+0xdcc>  // b.any
  401e1c:	f00000e0 	adrp	x0, 420000 <__libc_start_main@GLIBC_2.34>
  401e20:	91033c00 	add	x0, x0, #0xcf
  401e24:	39400000 	ldrb	w0, [x0]
  401e28:	7100001f 	cmp	w0, #0x0
  401e2c:	54000300 	b.eq	401e8c <generic_FH_TUERMODUL_CTRL+0xe28>  // b.none
  401e30:	f00000e0 	adrp	x0, 420000 <__libc_start_main@GLIBC_2.34>
  401e34:	91040000 	add	x0, x0, #0x100
  401e38:	3900001f 	strb	wzr, [x0]
  401e3c:	f00000e0 	adrp	x0, 420000 <__libc_start_main@GLIBC_2.34>
  401e40:	91018000 	add	x0, x0, #0x60
  401e44:	b9400000 	ldr	w0, [x0]
  401e48:	11000401 	add	w1, w0, #0x1
  401e4c:	f00000e0 	adrp	x0, 420000 <__libc_start_main@GLIBC_2.34>
  401e50:	91018000 	add	x0, x0, #0x60
  401e54:	b9000001 	str	w1, [x0]
  401e58:	f00000e0 	adrp	x0, 420000 <__libc_start_main@GLIBC_2.34>
  401e5c:	91041c00 	add	x0, x0, #0x107
  401e60:	52800021 	mov	w1, #0x1                   	// #1
  401e64:	39000001 	strb	w1, [x0]
  401e68:	f00000e0 	adrp	x0, 420000 <__libc_start_main@GLIBC_2.34>
  401e6c:	91046000 	add	x0, x0, #0x118
  401e70:	52800021 	mov	w1, #0x1                   	// #1
  401e74:	39001401 	strb	w1, [x0, #5]
  401e78:	f00000e0 	adrp	x0, 420000 <__libc_start_main@GLIBC_2.34>
  401e7c:	91042000 	add	x0, x0, #0x108
  401e80:	52800021 	mov	w1, #0x1                   	// #1
  401e84:	39000001 	strb	w1, [x0]
  401e88:	14000058 	b	401fe8 <generic_FH_TUERMODUL_CTRL+0xf84>
  401e8c:	f00000e0 	adrp	x0, 420000 <__libc_start_main@GLIBC_2.34>
  401e90:	91042000 	add	x0, x0, #0x108
  401e94:	39400000 	ldrb	w0, [x0]
  401e98:	7100041f 	cmp	w0, #0x1
  401e9c:	54000641 	b.ne	401f64 <generic_FH_TUERMODUL_CTRL+0xf00>  // b.any
  401ea0:	f00000e0 	adrp	x0, 420000 <__libc_start_main@GLIBC_2.34>
  401ea4:	91040400 	add	x0, x0, #0x101
  401ea8:	39400000 	ldrb	w0, [x0]
  401eac:	7100041f 	cmp	w0, #0x1
  401eb0:	54000721 	b.ne	401f94 <generic_FH_TUERMODUL_CTRL+0xf30>  // b.any
  401eb4:	f00000e0 	adrp	x0, 420000 <__libc_start_main@GLIBC_2.34>
  401eb8:	91010000 	add	x0, x0, #0x40
  401ebc:	f9400000 	ldr	x0, [x0]
  401ec0:	f100001f 	cmp	x0, #0x0
  401ec4:	54000680 	b.eq	401f94 <generic_FH_TUERMODUL_CTRL+0xf30>  // b.none
  401ec8:	f00000e0 	adrp	x0, 420000 <__libc_start_main@GLIBC_2.34>
  401ecc:	9103e000 	add	x0, x0, #0xf8
  401ed0:	f9400001 	ldr	x1, [x0]
  401ed4:	f00000e0 	adrp	x0, 420000 <__libc_start_main@GLIBC_2.34>
  401ed8:	91010000 	add	x0, x0, #0x40
  401edc:	f9400000 	ldr	x0, [x0]
  401ee0:	cb000020 	sub	x0, x1, x0
  401ee4:	f1000c1f 	cmp	x0, #0x3
  401ee8:	54000561 	b.ne	401f94 <generic_FH_TUERMODUL_CTRL+0xf30>  // b.any
  401eec:	f00000e0 	adrp	x0, 420000 <__libc_start_main@GLIBC_2.34>
  401ef0:	91033000 	add	x0, x0, #0xcc
  401ef4:	39400000 	ldrb	w0, [x0]
  401ef8:	7100001f 	cmp	w0, #0x0
  401efc:	540004c1 	b.ne	401f94 <generic_FH_TUERMODUL_CTRL+0xf30>  // b.any
  401f00:	f00000e0 	adrp	x0, 420000 <__libc_start_main@GLIBC_2.34>
  401f04:	91033c00 	add	x0, x0, #0xcf
  401f08:	39400000 	ldrb	w0, [x0]
  401f0c:	7100001f 	cmp	w0, #0x0
  401f10:	54000421 	b.ne	401f94 <generic_FH_TUERMODUL_CTRL+0xf30>  // b.any
  401f14:	f00000e0 	adrp	x0, 420000 <__libc_start_main@GLIBC_2.34>
  401f18:	91018000 	add	x0, x0, #0x60
  401f1c:	b9400000 	ldr	w0, [x0]
  401f20:	7100001f 	cmp	w0, #0x0
  401f24:	5400038d 	b.le	401f94 <generic_FH_TUERMODUL_CTRL+0xf30>
  401f28:	f00000e0 	adrp	x0, 420000 <__libc_start_main@GLIBC_2.34>
  401f2c:	91040000 	add	x0, x0, #0x100
  401f30:	3900001f 	strb	wzr, [x0]
  401f34:	f00000e0 	adrp	x0, 420000 <__libc_start_main@GLIBC_2.34>
  401f38:	91018000 	add	x0, x0, #0x60
  401f3c:	b9400000 	ldr	w0, [x0]
  401f40:	51000401 	sub	w1, w0, #0x1
  401f44:	f00000e0 	adrp	x0, 420000 <__libc_start_main@GLIBC_2.34>
  401f48:	91018000 	add	x0, x0, #0x60
  401f4c:	b9000001 	str	w1, [x0]
  401f50:	f00000e0 	adrp	x0, 420000 <__libc_start_main@GLIBC_2.34>
  401f54:	91042000 	add	x0, x0, #0x108
  401f58:	52800021 	mov	w1, #0x1                   	// #1
  401f5c:	39000001 	strb	w1, [x0]
  401f60:	1400000e 	b	401f98 <generic_FH_TUERMODUL_CTRL+0xf34>
  401f64:	f00000e0 	adrp	x0, 420000 <__libc_start_main@GLIBC_2.34>
  401f68:	91040000 	add	x0, x0, #0x100
  401f6c:	3900001f 	strb	wzr, [x0]
  401f70:	f00000e0 	adrp	x0, 420000 <__libc_start_main@GLIBC_2.34>
  401f74:	91046000 	add	x0, x0, #0x118
  401f78:	52800021 	mov	w1, #0x1                   	// #1
  401f7c:	39001401 	strb	w1, [x0, #5]
  401f80:	f00000e0 	adrp	x0, 420000 <__libc_start_main@GLIBC_2.34>
  401f84:	91042000 	add	x0, x0, #0x108
  401f88:	52800021 	mov	w1, #0x1                   	// #1
  401f8c:	39000001 	strb	w1, [x0]
  401f90:	14000002 	b	401f98 <generic_FH_TUERMODUL_CTRL+0xf34>
  401f94:	d503201f 	nop
  401f98:	14000014 	b	401fe8 <generic_FH_TUERMODUL_CTRL+0xf84>
  401f9c:	f00000e0 	adrp	x0, 420000 <__libc_start_main@GLIBC_2.34>
  401fa0:	91040000 	add	x0, x0, #0x100
  401fa4:	3900001f 	strb	wzr, [x0]
  401fa8:	f00000e0 	adrp	x0, 420000 <__libc_start_main@GLIBC_2.34>
  401fac:	91018000 	add	x0, x0, #0x60
  401fb0:	b900001f 	str	wzr, [x0]
  401fb4:	f00000e0 	adrp	x0, 420000 <__libc_start_main@GLIBC_2.34>
  401fb8:	91041c00 	add	x0, x0, #0x107
  401fbc:	52800021 	mov	w1, #0x1                   	// #1
  401fc0:	39000001 	strb	w1, [x0]
  401fc4:	f00000e0 	adrp	x0, 420000 <__libc_start_main@GLIBC_2.34>
  401fc8:	91046000 	add	x0, x0, #0x118
  401fcc:	52800021 	mov	w1, #0x1                   	// #1
  401fd0:	39001401 	strb	w1, [x0, #5]
  401fd4:	f00000e0 	adrp	x0, 420000 <__libc_start_main@GLIBC_2.34>
  401fd8:	91042000 	add	x0, x0, #0x108
  401fdc:	52800021 	mov	w1, #0x1                   	// #1
  401fe0:	39000001 	strb	w1, [x0]
  401fe4:	d503201f 	nop
  401fe8:	f00000e0 	adrp	x0, 420000 <__libc_start_main@GLIBC_2.34>
  401fec:	91046000 	add	x0, x0, #0x118
  401ff0:	39401001 	ldrb	w1, [x0, #4]
  401ff4:	f00000e0 	adrp	x0, 420000 <__libc_start_main@GLIBC_2.34>
  401ff8:	91046000 	add	x0, x0, #0x118
  401ffc:	39001401 	strb	w1, [x0, #5]
  402000:	d00000e0 	adrp	x0, 420000 <__libc_start_main@GLIBC_2.34>
  402004:	91046000 	add	x0, x0, #0x118
  402008:	39401801 	ldrb	w1, [x0, #6]
  40200c:	d00000e0 	adrp	x0, 420000 <__libc_start_main@GLIBC_2.34>
  402010:	91046000 	add	x0, x0, #0x118
  402014:	39001c01 	strb	w1, [x0, #7]
  402018:	d503201f 	nop
  40201c:	d65f03c0 	ret

0000000000402020 <generic_EINKLEMMSCHUTZ_CTRL>:
  402020:	d00000e0 	adrp	x0, 420000 <__libc_start_main@GLIBC_2.34>
  402024:	91046000 	add	x0, x0, #0x118
  402028:	39404000 	ldrb	w0, [x0, #16]
  40202c:	7100001f 	cmp	w0, #0x0
  402030:	540008c0 	b.eq	402148 <generic_EINKLEMMSCHUTZ_CTRL+0x128>  // b.none
  402034:	d00000e0 	adrp	x0, 420000 <__libc_start_main@GLIBC_2.34>
  402038:	91043c00 	add	x0, x0, #0x10f
  40203c:	39400000 	ldrb	w0, [x0]
  402040:	7100041f 	cmp	w0, #0x1
  402044:	54000080 	b.eq	402054 <generic_EINKLEMMSCHUTZ_CTRL+0x34>  // b.none
  402048:	7100081f 	cmp	w0, #0x2
  40204c:	54000440 	b.eq	4020d4 <generic_EINKLEMMSCHUTZ_CTRL+0xb4>  // b.none
  402050:	14000036 	b	402128 <generic_EINKLEMMSCHUTZ_CTRL+0x108>
  402054:	d00000e0 	adrp	x0, 420000 <__libc_start_main@GLIBC_2.34>
  402058:	91034800 	add	x0, x0, #0xd2
  40205c:	39400000 	ldrb	w0, [x0]
  402060:	7100001f 	cmp	w0, #0x0
  402064:	54000760 	b.eq	402150 <generic_EINKLEMMSCHUTZ_CTRL+0x130>  // b.none
  402068:	d00000e0 	adrp	x0, 420000 <__libc_start_main@GLIBC_2.34>
  40206c:	91034c00 	add	x0, x0, #0xd3
  402070:	39400000 	ldrb	w0, [x0]
  402074:	7100001f 	cmp	w0, #0x0
  402078:	540006c1 	b.ne	402150 <generic_EINKLEMMSCHUTZ_CTRL+0x130>  // b.any
  40207c:	d00000e0 	adrp	x0, 420000 <__libc_start_main@GLIBC_2.34>
  402080:	91031800 	add	x0, x0, #0xc6
  402084:	39400000 	ldrb	w0, [x0]
  402088:	7100001f 	cmp	w0, #0x0
  40208c:	540000c0 	b.eq	4020a4 <generic_EINKLEMMSCHUTZ_CTRL+0x84>  // b.none
  402090:	d00000e0 	adrp	x0, 420000 <__libc_start_main@GLIBC_2.34>
  402094:	91032400 	add	x0, x0, #0xc9
  402098:	39400000 	ldrb	w0, [x0]
  40209c:	7100001f 	cmp	w0, #0x0
  4020a0:	54000581 	b.ne	402150 <generic_EINKLEMMSCHUTZ_CTRL+0x130>  // b.any
  4020a4:	d00000e0 	adrp	x0, 420000 <__libc_start_main@GLIBC_2.34>
  4020a8:	91040000 	add	x0, x0, #0x100
  4020ac:	3900001f 	strb	wzr, [x0]
  4020b0:	d00000e0 	adrp	x0, 420000 <__libc_start_main@GLIBC_2.34>
  4020b4:	91046000 	add	x0, x0, #0x118
  4020b8:	52800021 	mov	w1, #0x1                   	// #1
  4020bc:	39006001 	strb	w1, [x0, #24]
  4020c0:	d00000e0 	adrp	x0, 420000 <__libc_start_main@GLIBC_2.34>
  4020c4:	91043c00 	add	x0, x0, #0x10f
  4020c8:	52800041 	mov	w1, #0x2                   	// #2
  4020cc:	39000001 	strb	w1, [x0]
  4020d0:	14000023 	b	40215c <generic_EINKLEMMSCHUTZ_CTRL+0x13c>
  4020d4:	d00000e0 	adrp	x0, 420000 <__libc_start_main@GLIBC_2.34>
  4020d8:	91046000 	add	x0, x0, #0x118
  4020dc:	3900601f 	strb	wzr, [x0, #24]
  4020e0:	d00000e0 	adrp	x0, 420000 <__libc_start_main@GLIBC_2.34>
  4020e4:	91034800 	add	x0, x0, #0xd2
  4020e8:	39400000 	ldrb	w0, [x0]
  4020ec:	7100001f 	cmp	w0, #0x0
  4020f0:	54000341 	b.ne	402158 <generic_EINKLEMMSCHUTZ_CTRL+0x138>  // b.any
  4020f4:	d00000e0 	adrp	x0, 420000 <__libc_start_main@GLIBC_2.34>
  4020f8:	91034c00 	add	x0, x0, #0xd3
  4020fc:	39400000 	ldrb	w0, [x0]
  402100:	7100001f 	cmp	w0, #0x0
  402104:	540002a0 	b.eq	402158 <generic_EINKLEMMSCHUTZ_CTRL+0x138>  // b.none
  402108:	d00000e0 	adrp	x0, 420000 <__libc_start_main@GLIBC_2.34>
  40210c:	91040000 	add	x0, x0, #0x100
  402110:	3900001f 	strb	wzr, [x0]
  402114:	d00000e0 	adrp	x0, 420000 <__libc_start_main@GLIBC_2.34>
  402118:	91043c00 	add	x0, x0, #0x10f
  40211c:	52800021 	mov	w1, #0x1                   	// #1
  402120:	39000001 	strb	w1, [x0]
  402124:	1400000e 	b	40215c <generic_EINKLEMMSCHUTZ_CTRL+0x13c>
  402128:	d00000e0 	adrp	x0, 420000 <__libc_start_main@GLIBC_2.34>
  40212c:	91040000 	add	x0, x0, #0x100
  402130:	3900001f 	strb	wzr, [x0]
  402134:	d00000e0 	adrp	x0, 420000 <__libc_start_main@GLIBC_2.34>
  402138:	91043c00 	add	x0, x0, #0x10f
  40213c:	52800021 	mov	w1, #0x1                   	// #1
  402140:	39000001 	strb	w1, [x0]
  402144:	14000006 	b	40215c <generic_EINKLEMMSCHUTZ_CTRL+0x13c>
  402148:	d503201f 	nop
  40214c:	14000004 	b	40215c <generic_EINKLEMMSCHUTZ_CTRL+0x13c>
  402150:	d503201f 	nop
  402154:	14000002 	b	40215c <generic_EINKLEMMSCHUTZ_CTRL+0x13c>
  402158:	d503201f 	nop
  40215c:	d503201f 	nop
  402160:	d65f03c0 	ret

0000000000402164 <generic_BLOCK_ERKENNUNG_CTRL>:
  402164:	d00000e0 	adrp	x0, 420000 <__libc_start_main@GLIBC_2.34>
  402168:	91046000 	add	x0, x0, #0x118
  40216c:	39404c00 	ldrb	w0, [x0, #19]
  402170:	7100001f 	cmp	w0, #0x0
  402174:	540001c1 	b.ne	4021ac <generic_BLOCK_ERKENNUNG_CTRL+0x48>  // b.any
  402178:	d00000e0 	adrp	x0, 420000 <__libc_start_main@GLIBC_2.34>
  40217c:	91046000 	add	x0, x0, #0x118
  402180:	39405400 	ldrb	w0, [x0, #21]
  402184:	7100001f 	cmp	w0, #0x0
  402188:	54000120 	b.eq	4021ac <generic_BLOCK_ERKENNUNG_CTRL+0x48>  // b.none
  40218c:	d00000e0 	adrp	x0, 420000 <__libc_start_main@GLIBC_2.34>
  402190:	91046000 	add	x0, x0, #0x118
  402194:	39405000 	ldrb	w0, [x0, #20]
  402198:	7100001f 	cmp	w0, #0x0
  40219c:	54000081 	b.ne	4021ac <generic_BLOCK_ERKENNUNG_CTRL+0x48>  // b.any
  4021a0:	d00000e0 	adrp	x0, 420000 <__libc_start_main@GLIBC_2.34>
  4021a4:	91046000 	add	x0, x0, #0x118
  4021a8:	3900001f 	strb	wzr, [x0]
  4021ac:	d00000e0 	adrp	x0, 420000 <__libc_start_main@GLIBC_2.34>
  4021b0:	91046000 	add	x0, x0, #0x118
  4021b4:	39404c00 	ldrb	w0, [x0, #19]
  4021b8:	7100001f 	cmp	w0, #0x0
  4021bc:	54001ae0 	b.eq	402518 <generic_BLOCK_ERKENNUNG_CTRL+0x3b4>  // b.none
  4021c0:	d00000e0 	adrp	x0, 420000 <__libc_start_main@GLIBC_2.34>
  4021c4:	91044400 	add	x0, x0, #0x111
  4021c8:	39400000 	ldrb	w0, [x0]
  4021cc:	7100041f 	cmp	w0, #0x1
  4021d0:	54000080 	b.eq	4021e0 <generic_BLOCK_ERKENNUNG_CTRL+0x7c>  // b.none
  4021d4:	7100081f 	cmp	w0, #0x2
  4021d8:	54000520 	b.eq	40227c <generic_BLOCK_ERKENNUNG_CTRL+0x118>  // b.none
  4021dc:	140000c7 	b	4024f8 <generic_BLOCK_ERKENNUNG_CTRL+0x394>
  4021e0:	d00000e0 	adrp	x0, 420000 <__libc_start_main@GLIBC_2.34>
  4021e4:	91021000 	add	x0, x0, #0x84
  4021e8:	b9400001 	ldr	w1, [x0]
  4021ec:	d00000e0 	adrp	x0, 420000 <__libc_start_main@GLIBC_2.34>
  4021f0:	91022000 	add	x0, x0, #0x88
  4021f4:	b9400000 	ldr	w0, [x0]
  4021f8:	6b00003f 	cmp	w1, w0
  4021fc:	54001920 	b.eq	402520 <generic_BLOCK_ERKENNUNG_CTRL+0x3bc>  // b.none
  402200:	d00000e0 	adrp	x0, 420000 <__libc_start_main@GLIBC_2.34>
  402204:	91021000 	add	x0, x0, #0x84
  402208:	b9400000 	ldr	w0, [x0]
  40220c:	7100001f 	cmp	w0, #0x0
  402210:	5400188d 	b.le	402520 <generic_BLOCK_ERKENNUNG_CTRL+0x3bc>
  402214:	d00000e0 	adrp	x0, 420000 <__libc_start_main@GLIBC_2.34>
  402218:	91040000 	add	x0, x0, #0x100
  40221c:	3900001f 	strb	wzr, [x0]
  402220:	d00000e0 	adrp	x0, 420000 <__libc_start_main@GLIBC_2.34>
  402224:	91030c00 	add	x0, x0, #0xc3
  402228:	3900001f 	strb	wzr, [x0]
  40222c:	d00000e0 	adrp	x0, 420000 <__libc_start_main@GLIBC_2.34>
  402230:	91044400 	add	x0, x0, #0x111
  402234:	52800041 	mov	w1, #0x2                   	// #2
  402238:	39000001 	strb	w1, [x0]
  40223c:	d00000e0 	adrp	x0, 420000 <__libc_start_main@GLIBC_2.34>
  402240:	9102a000 	add	x0, x0, #0xa8
  402244:	b900001f 	str	wzr, [x0]
  402248:	d00000e0 	adrp	x0, 420000 <__libc_start_main@GLIBC_2.34>
  40224c:	91028000 	add	x0, x0, #0xa0
  402250:	52800041 	mov	w1, #0x2                   	// #2
  402254:	b9000001 	str	w1, [x0]
  402258:	d00000e0 	adrp	x0, 420000 <__libc_start_main@GLIBC_2.34>
  40225c:	91044000 	add	x0, x0, #0x110
  402260:	52800061 	mov	w1, #0x3                   	// #3
  402264:	39000001 	strb	w1, [x0]
  402268:	d00000e0 	adrp	x0, 420000 <__libc_start_main@GLIBC_2.34>
  40226c:	91046000 	add	x0, x0, #0x118
  402270:	52800021 	mov	w1, #0x1                   	// #1
  402274:	39000001 	strb	w1, [x0]
  402278:	140000ab 	b	402524 <generic_BLOCK_ERKENNUNG_CTRL+0x3c0>
  40227c:	d00000e0 	adrp	x0, 420000 <__libc_start_main@GLIBC_2.34>
  402280:	91033c00 	add	x0, x0, #0xcf
  402284:	39400000 	ldrb	w0, [x0]
  402288:	7100001f 	cmp	w0, #0x0
  40228c:	540000c1 	b.ne	4022a4 <generic_BLOCK_ERKENNUNG_CTRL+0x140>  // b.any
  402290:	d00000e0 	adrp	x0, 420000 <__libc_start_main@GLIBC_2.34>
  402294:	91034400 	add	x0, x0, #0xd1
  402298:	39400000 	ldrb	w0, [x0]
  40229c:	7100001f 	cmp	w0, #0x0
  4022a0:	54000161 	b.ne	4022cc <generic_BLOCK_ERKENNUNG_CTRL+0x168>  // b.any
  4022a4:	d00000e0 	adrp	x0, 420000 <__libc_start_main@GLIBC_2.34>
  4022a8:	91033000 	add	x0, x0, #0xcc
  4022ac:	39400000 	ldrb	w0, [x0]
  4022b0:	7100001f 	cmp	w0, #0x0
  4022b4:	54000221 	b.ne	4022f8 <generic_BLOCK_ERKENNUNG_CTRL+0x194>  // b.any
  4022b8:	d00000e0 	adrp	x0, 420000 <__libc_start_main@GLIBC_2.34>
  4022bc:	91033800 	add	x0, x0, #0xce
  4022c0:	39400000 	ldrb	w0, [x0]
  4022c4:	7100001f 	cmp	w0, #0x0
  4022c8:	54000180 	b.eq	4022f8 <generic_BLOCK_ERKENNUNG_CTRL+0x194>  // b.none
  4022cc:	d00000e0 	adrp	x0, 420000 <__libc_start_main@GLIBC_2.34>
  4022d0:	91040000 	add	x0, x0, #0x100
  4022d4:	3900001f 	strb	wzr, [x0]
  4022d8:	d00000e0 	adrp	x0, 420000 <__libc_start_main@GLIBC_2.34>
  4022dc:	91044400 	add	x0, x0, #0x111
  4022e0:	52800021 	mov	w1, #0x1                   	// #1
  4022e4:	39000001 	strb	w1, [x0]
  4022e8:	d00000e0 	adrp	x0, 420000 <__libc_start_main@GLIBC_2.34>
  4022ec:	91044000 	add	x0, x0, #0x110
  4022f0:	3900001f 	strb	wzr, [x0]
  4022f4:	1400008c 	b	402524 <generic_BLOCK_ERKENNUNG_CTRL+0x3c0>
  4022f8:	d00000e0 	adrp	x0, 420000 <__libc_start_main@GLIBC_2.34>
  4022fc:	91044000 	add	x0, x0, #0x110
  402300:	39400000 	ldrb	w0, [x0]
  402304:	71000c1f 	cmp	w0, #0x3
  402308:	54000380 	b.eq	402378 <generic_BLOCK_ERKENNUNG_CTRL+0x214>  // b.none
  40230c:	71000c1f 	cmp	w0, #0x3
  402310:	54000c2c 	b.gt	402494 <generic_BLOCK_ERKENNUNG_CTRL+0x330>
  402314:	7100041f 	cmp	w0, #0x1
  402318:	54000e40 	b.eq	4024e0 <generic_BLOCK_ERKENNUNG_CTRL+0x37c>  // b.none
  40231c:	7100081f 	cmp	w0, #0x2
  402320:	54000ba1 	b.ne	402494 <generic_BLOCK_ERKENNUNG_CTRL+0x330>  // b.any
  402324:	d00000e0 	adrp	x0, 420000 <__libc_start_main@GLIBC_2.34>
  402328:	91028000 	add	x0, x0, #0xa0
  40232c:	b9400000 	ldr	w0, [x0]
  402330:	51000401 	sub	w1, w0, #0x1
  402334:	d00000e0 	adrp	x0, 420000 <__libc_start_main@GLIBC_2.34>
  402338:	91021000 	add	x0, x0, #0x84
  40233c:	b9400000 	ldr	w0, [x0]
  402340:	6b00003f 	cmp	w1, w0
  402344:	54000d2c 	b.gt	4024e8 <generic_BLOCK_ERKENNUNG_CTRL+0x384>
  402348:	d00000e0 	adrp	x0, 420000 <__libc_start_main@GLIBC_2.34>
  40234c:	91040000 	add	x0, x0, #0x100
  402350:	3900001f 	strb	wzr, [x0]
  402354:	d00000e0 	adrp	x0, 420000 <__libc_start_main@GLIBC_2.34>
  402358:	91030c00 	add	x0, x0, #0xc3
  40235c:	52800021 	mov	w1, #0x1                   	// #1
  402360:	39000001 	strb	w1, [x0]
  402364:	d00000e0 	adrp	x0, 420000 <__libc_start_main@GLIBC_2.34>
  402368:	91044000 	add	x0, x0, #0x110
  40236c:	52800021 	mov	w1, #0x1                   	// #1
  402370:	39000001 	strb	w1, [x0]
  402374:	14000060 	b	4024f4 <generic_BLOCK_ERKENNUNG_CTRL+0x390>
  402378:	d00000e0 	adrp	x0, 420000 <__libc_start_main@GLIBC_2.34>
  40237c:	91046000 	add	x0, x0, #0x118
  402380:	3900001f 	strb	wzr, [x0]
  402384:	d00000e0 	adrp	x0, 420000 <__libc_start_main@GLIBC_2.34>
  402388:	9102a000 	add	x0, x0, #0xa8
  40238c:	b9400000 	ldr	w0, [x0]
  402390:	71002c1f 	cmp	w0, #0xb
  402394:	540001c1 	b.ne	4023cc <generic_BLOCK_ERKENNUNG_CTRL+0x268>  // b.any
  402398:	d00000e0 	adrp	x0, 420000 <__libc_start_main@GLIBC_2.34>
  40239c:	9102c000 	add	x0, x0, #0xb0
  4023a0:	b9400000 	ldr	w0, [x0]
  4023a4:	71002c1f 	cmp	w0, #0xb
  4023a8:	54000120 	b.eq	4023cc <generic_BLOCK_ERKENNUNG_CTRL+0x268>  // b.none
  4023ac:	d00000e0 	adrp	x0, 420000 <__libc_start_main@GLIBC_2.34>
  4023b0:	91040000 	add	x0, x0, #0x100
  4023b4:	3900001f 	strb	wzr, [x0]
  4023b8:	d00000e0 	adrp	x0, 420000 <__libc_start_main@GLIBC_2.34>
  4023bc:	91044000 	add	x0, x0, #0x110
  4023c0:	52800041 	mov	w1, #0x2                   	// #2
  4023c4:	39000001 	strb	w1, [x0]
  4023c8:	1400004b 	b	4024f4 <generic_BLOCK_ERKENNUNG_CTRL+0x390>
  4023cc:	d00000e0 	adrp	x0, 420000 <__libc_start_main@GLIBC_2.34>
  4023d0:	91044000 	add	x0, x0, #0x110
  4023d4:	39400000 	ldrb	w0, [x0]
  4023d8:	71000c1f 	cmp	w0, #0x3
  4023dc:	540008a1 	b.ne	4024f0 <generic_BLOCK_ERKENNUNG_CTRL+0x38c>  // b.any
  4023e0:	d00000e0 	adrp	x0, 420000 <__libc_start_main@GLIBC_2.34>
  4023e4:	91040400 	add	x0, x0, #0x101
  4023e8:	39400000 	ldrb	w0, [x0]
  4023ec:	7100041f 	cmp	w0, #0x1
  4023f0:	54000801 	b.ne	4024f0 <generic_BLOCK_ERKENNUNG_CTRL+0x38c>  // b.any
  4023f4:	d00000e0 	adrp	x0, 420000 <__libc_start_main@GLIBC_2.34>
  4023f8:	9100c000 	add	x0, x0, #0x30
  4023fc:	f9400000 	ldr	x0, [x0]
  402400:	f100001f 	cmp	x0, #0x0
  402404:	54000760 	b.eq	4024f0 <generic_BLOCK_ERKENNUNG_CTRL+0x38c>  // b.none
  402408:	d00000e0 	adrp	x0, 420000 <__libc_start_main@GLIBC_2.34>
  40240c:	9103e000 	add	x0, x0, #0xf8
  402410:	f9400001 	ldr	x1, [x0]
  402414:	d00000e0 	adrp	x0, 420000 <__libc_start_main@GLIBC_2.34>
  402418:	9100c000 	add	x0, x0, #0x30
  40241c:	f9400000 	ldr	x0, [x0]
  402420:	cb000020 	sub	x0, x1, x0
  402424:	9e670000 	fmov	d0, x0
  402428:	7e61d800 	ucvtf	d0, d0
  40242c:	b0000000 	adrp	x0, 403000 <FH_DU+0xad4>
  402430:	fd420001 	ldr	d1, [x0, #1024]
  402434:	1e612000 	fcmp	d0, d1
  402438:	540005c1 	b.ne	4024f0 <generic_BLOCK_ERKENNUNG_CTRL+0x38c>  // b.any
  40243c:	d00000e0 	adrp	x0, 420000 <__libc_start_main@GLIBC_2.34>
  402440:	9102a000 	add	x0, x0, #0xa8
  402444:	b9400000 	ldr	w0, [x0]
  402448:	11000401 	add	w1, w0, #0x1
  40244c:	d00000e0 	adrp	x0, 420000 <__libc_start_main@GLIBC_2.34>
  402450:	9102a000 	add	x0, x0, #0xa8
  402454:	b9000001 	str	w1, [x0]
  402458:	d00000e0 	adrp	x0, 420000 <__libc_start_main@GLIBC_2.34>
  40245c:	91021000 	add	x0, x0, #0x84
  402460:	b9400001 	ldr	w1, [x0]
  402464:	d00000e0 	adrp	x0, 420000 <__libc_start_main@GLIBC_2.34>
  402468:	91028000 	add	x0, x0, #0xa0
  40246c:	b9400000 	ldr	w0, [x0]
  402470:	6b00003f 	cmp	w1, w0
  402474:	540003ed 	b.le	4024f0 <generic_BLOCK_ERKENNUNG_CTRL+0x38c>
  402478:	d00000e0 	adrp	x0, 420000 <__libc_start_main@GLIBC_2.34>
  40247c:	91021000 	add	x0, x0, #0x84
  402480:	b9400001 	ldr	w1, [x0]
  402484:	d00000e0 	adrp	x0, 420000 <__libc_start_main@GLIBC_2.34>
  402488:	91028000 	add	x0, x0, #0xa0
  40248c:	b9000001 	str	w1, [x0]
  402490:	14000018 	b	4024f0 <generic_BLOCK_ERKENNUNG_CTRL+0x38c>
  402494:	d00000e0 	adrp	x0, 420000 <__libc_start_main@GLIBC_2.34>
  402498:	91040000 	add	x0, x0, #0x100
  40249c:	3900001f 	strb	wzr, [x0]
  4024a0:	d00000e0 	adrp	x0, 420000 <__libc_start_main@GLIBC_2.34>
  4024a4:	9102a000 	add	x0, x0, #0xa8
  4024a8:	b900001f 	str	wzr, [x0]
  4024ac:	d00000e0 	adrp	x0, 420000 <__libc_start_main@GLIBC_2.34>
  4024b0:	91028000 	add	x0, x0, #0xa0
  4024b4:	52800041 	mov	w1, #0x2                   	// #2
  4024b8:	b9000001 	str	w1, [x0]
  4024bc:	d00000e0 	adrp	x0, 420000 <__libc_start_main@GLIBC_2.34>
  4024c0:	91044000 	add	x0, x0, #0x110
  4024c4:	52800061 	mov	w1, #0x3                   	// #3
  4024c8:	39000001 	strb	w1, [x0]
  4024cc:	d00000e0 	adrp	x0, 420000 <__libc_start_main@GLIBC_2.34>
  4024d0:	91046000 	add	x0, x0, #0x118
  4024d4:	52800021 	mov	w1, #0x1                   	// #1
  4024d8:	39000001 	strb	w1, [x0]
  4024dc:	14000006 	b	4024f4 <generic_BLOCK_ERKENNUNG_CTRL+0x390>
  4024e0:	d503201f 	nop
  4024e4:	14000010 	b	402524 <generic_BLOCK_ERKENNUNG_CTRL+0x3c0>
  4024e8:	d503201f 	nop
  4024ec:	1400000e 	b	402524 <generic_BLOCK_ERKENNUNG_CTRL+0x3c0>
  4024f0:	d503201f 	nop
  4024f4:	1400000c 	b	402524 <generic_BLOCK_ERKENNUNG_CTRL+0x3c0>
  4024f8:	d00000e0 	adrp	x0, 420000 <__libc_start_main@GLIBC_2.34>
  4024fc:	91040000 	add	x0, x0, #0x100
  402500:	3900001f 	strb	wzr, [x0]
  402504:	d00000e0 	adrp	x0, 420000 <__libc_start_main@GLIBC_2.34>
  402508:	91044400 	add	x0, x0, #0x111
  40250c:	52800021 	mov	w1, #0x1                   	// #1
  402510:	39000001 	strb	w1, [x0]
  402514:	14000004 	b	402524 <generic_BLOCK_ERKENNUNG_CTRL+0x3c0>
  402518:	d503201f 	nop
  40251c:	14000002 	b	402524 <generic_BLOCK_ERKENNUNG_CTRL+0x3c0>
  402520:	d503201f 	nop
  402524:	d503201f 	nop
  402528:	d65f03c0 	ret

000000000040252c <FH_DU>:
  40252c:	a9bf7bfd 	stp	x29, x30, [sp, #-16]!
  402530:	910003fd 	mov	x29, sp
  402534:	d00000e0 	adrp	x0, 420000 <__libc_start_main@GLIBC_2.34>
  402538:	9103e000 	add	x0, x0, #0xf8
  40253c:	d2800021 	mov	x1, #0x1                   	// #1
  402540:	f9000001 	str	x1, [x0]
  402544:	d00000e0 	adrp	x0, 420000 <__libc_start_main@GLIBC_2.34>
  402548:	91040000 	add	x0, x0, #0x100
  40254c:	3900001f 	strb	wzr, [x0]
  402550:	d00000e0 	adrp	x0, 420000 <__libc_start_main@GLIBC_2.34>
  402554:	91040400 	add	x0, x0, #0x101
  402558:	3900001f 	strb	wzr, [x0]
  40255c:	14000391 	b	4033a0 <FH_DU+0xe74>
  402560:	d00000e0 	adrp	x0, 420000 <__libc_start_main@GLIBC_2.34>
  402564:	91040000 	add	x0, x0, #0x100
  402568:	52800021 	mov	w1, #0x1                   	// #1
  40256c:	39000001 	strb	w1, [x0]
  402570:	d00000e0 	adrp	x0, 420000 <__libc_start_main@GLIBC_2.34>
  402574:	91040400 	add	x0, x0, #0x101
  402578:	39400000 	ldrb	w0, [x0]
  40257c:	11000400 	add	w0, w0, #0x1
  402580:	12001c01 	and	w1, w0, #0xff
  402584:	d00000e0 	adrp	x0, 420000 <__libc_start_main@GLIBC_2.34>
  402588:	91040400 	add	x0, x0, #0x101
  40258c:	39000001 	strb	w1, [x0]
  402590:	d00000e0 	adrp	x0, 420000 <__libc_start_main@GLIBC_2.34>
  402594:	91043800 	add	x0, x0, #0x10e
  402598:	39400000 	ldrb	w0, [x0]
  40259c:	71000c1f 	cmp	w0, #0x3
  4025a0:	54000920 	b.eq	4026c4 <FH_DU+0x198>  // b.none
  4025a4:	71000c1f 	cmp	w0, #0x3
  4025a8:	54000b8c 	b.gt	402718 <FH_DU+0x1ec>
  4025ac:	7100041f 	cmp	w0, #0x1
  4025b0:	54000080 	b.eq	4025c0 <FH_DU+0x94>  // b.none
  4025b4:	7100081f 	cmp	w0, #0x2
  4025b8:	540002e0 	b.eq	402614 <FH_DU+0xe8>  // b.none
  4025bc:	14000057 	b	402718 <FH_DU+0x1ec>
  4025c0:	d00000e0 	adrp	x0, 420000 <__libc_start_main@GLIBC_2.34>
  4025c4:	9103b000 	add	x0, x0, #0xec
  4025c8:	39400000 	ldrb	w0, [x0]
  4025cc:	7100001f 	cmp	w0, #0x0
  4025d0:	54000ba1 	b.ne	402744 <FH_DU+0x218>  // b.any
  4025d4:	d00000e0 	adrp	x0, 420000 <__libc_start_main@GLIBC_2.34>
  4025d8:	9103b800 	add	x0, x0, #0xee
  4025dc:	39400000 	ldrb	w0, [x0]
  4025e0:	7100001f 	cmp	w0, #0x0
  4025e4:	54000b00 	b.eq	402744 <FH_DU+0x218>  // b.none
  4025e8:	d00000e0 	adrp	x0, 420000 <__libc_start_main@GLIBC_2.34>
  4025ec:	91040000 	add	x0, x0, #0x100
  4025f0:	3900001f 	strb	wzr, [x0]
  4025f4:	d00000e0 	adrp	x0, 420000 <__libc_start_main@GLIBC_2.34>
  4025f8:	91023000 	add	x0, x0, #0x8c
  4025fc:	b900001f 	str	wzr, [x0]
  402600:	d00000e0 	adrp	x0, 420000 <__libc_start_main@GLIBC_2.34>
  402604:	91043800 	add	x0, x0, #0x10e
  402608:	52800041 	mov	w1, #0x2                   	// #2
  40260c:	39000001 	strb	w1, [x0]
  402610:	14000052 	b	402758 <FH_DU+0x22c>
  402614:	d00000e0 	adrp	x0, 420000 <__libc_start_main@GLIBC_2.34>
  402618:	9103b000 	add	x0, x0, #0xec
  40261c:	39400000 	ldrb	w0, [x0]
  402620:	7100001f 	cmp	w0, #0x0
  402624:	54000240 	b.eq	40266c <FH_DU+0x140>  // b.none
  402628:	d00000e0 	adrp	x0, 420000 <__libc_start_main@GLIBC_2.34>
  40262c:	9103b800 	add	x0, x0, #0xee
  402630:	39400000 	ldrb	w0, [x0]
  402634:	7100001f 	cmp	w0, #0x0
  402638:	540001a1 	b.ne	40266c <FH_DU+0x140>  // b.any
  40263c:	d00000e0 	adrp	x0, 420000 <__libc_start_main@GLIBC_2.34>
  402640:	91040000 	add	x0, x0, #0x100
  402644:	3900001f 	strb	wzr, [x0]
  402648:	d00000e0 	adrp	x0, 420000 <__libc_start_main@GLIBC_2.34>
  40264c:	91023000 	add	x0, x0, #0x8c
  402650:	12800c61 	mov	w1, #0xffffff9c            	// #-100
  402654:	b9000001 	str	w1, [x0]
  402658:	d00000e0 	adrp	x0, 420000 <__libc_start_main@GLIBC_2.34>
  40265c:	91043800 	add	x0, x0, #0x10e
  402660:	52800021 	mov	w1, #0x1                   	// #1
  402664:	39000001 	strb	w1, [x0]
  402668:	1400003c 	b	402758 <FH_DU+0x22c>
  40266c:	d00000e0 	adrp	x0, 420000 <__libc_start_main@GLIBC_2.34>
  402670:	9103bc00 	add	x0, x0, #0xef
  402674:	39400000 	ldrb	w0, [x0]
  402678:	7100001f 	cmp	w0, #0x0
  40267c:	54000680 	b.eq	40274c <FH_DU+0x220>  // b.none
  402680:	d00000e0 	adrp	x0, 420000 <__libc_start_main@GLIBC_2.34>
  402684:	9103c400 	add	x0, x0, #0xf1
  402688:	39400000 	ldrb	w0, [x0]
  40268c:	7100001f 	cmp	w0, #0x0
  402690:	540005e1 	b.ne	40274c <FH_DU+0x220>  // b.any
  402694:	d00000e0 	adrp	x0, 420000 <__libc_start_main@GLIBC_2.34>
  402698:	91040000 	add	x0, x0, #0x100
  40269c:	3900001f 	strb	wzr, [x0]
  4026a0:	d00000e0 	adrp	x0, 420000 <__libc_start_main@GLIBC_2.34>
  4026a4:	91023000 	add	x0, x0, #0x8c
  4026a8:	52800c81 	mov	w1, #0x64                  	// #100
  4026ac:	b9000001 	str	w1, [x0]
  4026b0:	d00000e0 	adrp	x0, 420000 <__libc_start_main@GLIBC_2.34>
  4026b4:	91043800 	add	x0, x0, #0x10e
  4026b8:	52800061 	mov	w1, #0x3                   	// #3
  4026bc:	39000001 	strb	w1, [x0]
  4026c0:	14000026 	b	402758 <FH_DU+0x22c>
  4026c4:	d00000e0 	adrp	x0, 420000 <__libc_start_main@GLIBC_2.34>
  4026c8:	9103bc00 	add	x0, x0, #0xef
  4026cc:	39400000 	ldrb	w0, [x0]
  4026d0:	7100001f 	cmp	w0, #0x0
  4026d4:	54000401 	b.ne	402754 <FH_DU+0x228>  // b.any
  4026d8:	d00000e0 	adrp	x0, 420000 <__libc_start_main@GLIBC_2.34>
  4026dc:	9103c400 	add	x0, x0, #0xf1
  4026e0:	39400000 	ldrb	w0, [x0]
  4026e4:	7100001f 	cmp	w0, #0x0
  4026e8:	54000360 	b.eq	402754 <FH_DU+0x228>  // b.none
  4026ec:	d00000e0 	adrp	x0, 420000 <__libc_start_main@GLIBC_2.34>
  4026f0:	91040000 	add	x0, x0, #0x100
  4026f4:	3900001f 	strb	wzr, [x0]
  4026f8:	d00000e0 	adrp	x0, 420000 <__libc_start_main@GLIBC_2.34>
  4026fc:	91023000 	add	x0, x0, #0x8c
  402700:	b900001f 	str	wzr, [x0]
  402704:	d00000e0 	adrp	x0, 420000 <__libc_start_main@GLIBC_2.34>
  402708:	91043800 	add	x0, x0, #0x10e
  40270c:	52800041 	mov	w1, #0x2                   	// #2
  402710:	39000001 	strb	w1, [x0]
  402714:	14000011 	b	402758 <FH_DU+0x22c>
  402718:	d00000e0 	adrp	x0, 420000 <__libc_start_main@GLIBC_2.34>
  40271c:	91040000 	add	x0, x0, #0x100
  402720:	3900001f 	strb	wzr, [x0]
  402724:	d00000e0 	adrp	x0, 420000 <__libc_start_main@GLIBC_2.34>
  402728:	91023000 	add	x0, x0, #0x8c
  40272c:	b900001f 	str	wzr, [x0]
  402730:	d00000e0 	adrp	x0, 420000 <__libc_start_main@GLIBC_2.34>
  402734:	91043800 	add	x0, x0, #0x10e
  402738:	52800041 	mov	w1, #0x2                   	// #2
  40273c:	39000001 	strb	w1, [x0]
  402740:	14000006 	b	402758 <FH_DU+0x22c>
  402744:	d503201f 	nop
  402748:	14000004 	b	402758 <FH_DU+0x22c>
  40274c:	d503201f 	nop
  402750:	14000002 	b	402758 <FH_DU+0x22c>
  402754:	d503201f 	nop
  402758:	d00000e0 	adrp	x0, 420000 <__libc_start_main@GLIBC_2.34>
  40275c:	91046000 	add	x0, x0, #0x118
  402760:	39402800 	ldrb	w0, [x0, #10]
  402764:	7100001f 	cmp	w0, #0x0
  402768:	540000a1 	b.ne	40277c <FH_DU+0x250>  // b.any
  40276c:	d00000e0 	adrp	x0, 420000 <__libc_start_main@GLIBC_2.34>
  402770:	91041400 	add	x0, x0, #0x105
  402774:	52800061 	mov	w1, #0x3                   	// #3
  402778:	39000001 	strb	w1, [x0]
  40277c:	d00000e0 	adrp	x0, 420000 <__libc_start_main@GLIBC_2.34>
  402780:	91046000 	add	x0, x0, #0x118
  402784:	39002c1f 	strb	wzr, [x0, #11]
  402788:	d00000e0 	adrp	x0, 420000 <__libc_start_main@GLIBC_2.34>
  40278c:	91046000 	add	x0, x0, #0x118
  402790:	39404000 	ldrb	w0, [x0, #16]
  402794:	7100001f 	cmp	w0, #0x0
  402798:	540000a1 	b.ne	4027ac <FH_DU+0x280>  // b.any
  40279c:	d00000e0 	adrp	x0, 420000 <__libc_start_main@GLIBC_2.34>
  4027a0:	91043c00 	add	x0, x0, #0x10f
  4027a4:	52800021 	mov	w1, #0x1                   	// #1
  4027a8:	39000001 	strb	w1, [x0]
  4027ac:	d00000e0 	adrp	x0, 420000 <__libc_start_main@GLIBC_2.34>
  4027b0:	91046000 	add	x0, x0, #0x118
  4027b4:	3900441f 	strb	wzr, [x0, #17]
  4027b8:	d00000e0 	adrp	x0, 420000 <__libc_start_main@GLIBC_2.34>
  4027bc:	91046000 	add	x0, x0, #0x118
  4027c0:	39404c00 	ldrb	w0, [x0, #19]
  4027c4:	7100001f 	cmp	w0, #0x0
  4027c8:	54000101 	b.ne	4027e8 <FH_DU+0x2bc>  // b.any
  4027cc:	d00000e0 	adrp	x0, 420000 <__libc_start_main@GLIBC_2.34>
  4027d0:	91046000 	add	x0, x0, #0x118
  4027d4:	3900001f 	strb	wzr, [x0]
  4027d8:	d00000e0 	adrp	x0, 420000 <__libc_start_main@GLIBC_2.34>
  4027dc:	91044400 	add	x0, x0, #0x111
  4027e0:	52800021 	mov	w1, #0x1                   	// #1
  4027e4:	39000001 	strb	w1, [x0]
  4027e8:	d00000e0 	adrp	x0, 420000 <__libc_start_main@GLIBC_2.34>
  4027ec:	91046000 	add	x0, x0, #0x118
  4027f0:	3900501f 	strb	wzr, [x0, #20]
  4027f4:	d00000e0 	adrp	x0, 420000 <__libc_start_main@GLIBC_2.34>
  4027f8:	91046000 	add	x0, x0, #0x118
  4027fc:	39403400 	ldrb	w0, [x0, #13]
  402800:	7100001f 	cmp	w0, #0x0
  402804:	54000341 	b.ne	40286c <FH_DU+0x340>  // b.any
  402808:	d00000e0 	adrp	x0, 420000 <__libc_start_main@GLIBC_2.34>
  40280c:	91046000 	add	x0, x0, #0x118
  402810:	3900101f 	strb	wzr, [x0, #4]
  402814:	d00000e0 	adrp	x0, 420000 <__libc_start_main@GLIBC_2.34>
  402818:	91046000 	add	x0, x0, #0x118
  40281c:	3900181f 	strb	wzr, [x0, #6]
  402820:	d00000e0 	adrp	x0, 420000 <__libc_start_main@GLIBC_2.34>
  402824:	91041800 	add	x0, x0, #0x106
  402828:	52800041 	mov	w1, #0x2                   	// #2
  40282c:	39000001 	strb	w1, [x0]
  402830:	d00000e0 	adrp	x0, 420000 <__libc_start_main@GLIBC_2.34>
  402834:	91018000 	add	x0, x0, #0x60
  402838:	b900001f 	str	wzr, [x0]
  40283c:	d00000e0 	adrp	x0, 420000 <__libc_start_main@GLIBC_2.34>
  402840:	91041c00 	add	x0, x0, #0x107
  402844:	52800021 	mov	w1, #0x1                   	// #1
  402848:	39000001 	strb	w1, [x0]
  40284c:	d00000e0 	adrp	x0, 420000 <__libc_start_main@GLIBC_2.34>
  402850:	91046000 	add	x0, x0, #0x118
  402854:	52800021 	mov	w1, #0x1                   	// #1
  402858:	39001401 	strb	w1, [x0, #5]
  40285c:	d00000e0 	adrp	x0, 420000 <__libc_start_main@GLIBC_2.34>
  402860:	91042000 	add	x0, x0, #0x108
  402864:	52800021 	mov	w1, #0x1                   	// #1
  402868:	39000001 	strb	w1, [x0]
  40286c:	d00000e0 	adrp	x0, 420000 <__libc_start_main@GLIBC_2.34>
  402870:	91046000 	add	x0, x0, #0x118
  402874:	3900381f 	strb	wzr, [x0, #14]
  402878:	d00000e0 	adrp	x0, 420000 <__libc_start_main@GLIBC_2.34>
  40287c:	91046000 	add	x0, x0, #0x118
  402880:	52800021 	mov	w1, #0x1                   	// #1
  402884:	39002c01 	strb	w1, [x0, #11]
  402888:	d00000e0 	adrp	x0, 420000 <__libc_start_main@GLIBC_2.34>
  40288c:	91046000 	add	x0, x0, #0x118
  402890:	52800021 	mov	w1, #0x1                   	// #1
  402894:	39004401 	strb	w1, [x0, #17]
  402898:	d00000e0 	adrp	x0, 420000 <__libc_start_main@GLIBC_2.34>
  40289c:	91046000 	add	x0, x0, #0x118
  4028a0:	52800021 	mov	w1, #0x1                   	// #1
  4028a4:	39005001 	strb	w1, [x0, #20]
  4028a8:	d00000e0 	adrp	x0, 420000 <__libc_start_main@GLIBC_2.34>
  4028ac:	91046000 	add	x0, x0, #0x118
  4028b0:	52800021 	mov	w1, #0x1                   	// #1
  4028b4:	39003801 	strb	w1, [x0, #14]
  4028b8:	d00000e0 	adrp	x0, 420000 <__libc_start_main@GLIBC_2.34>
  4028bc:	91037c00 	add	x0, x0, #0xdf
  4028c0:	39400001 	ldrb	w1, [x0]
  4028c4:	d00000e0 	adrp	x0, 420000 <__libc_start_main@GLIBC_2.34>
  4028c8:	91038400 	add	x0, x0, #0xe1
  4028cc:	39400000 	ldrb	w0, [x0]
  4028d0:	6b00003f 	cmp	w1, w0
  4028d4:	54000180 	b.eq	402904 <FH_DU+0x3d8>  // b.none
  4028d8:	d00000e0 	adrp	x0, 420000 <__libc_start_main@GLIBC_2.34>
  4028dc:	9103a000 	add	x0, x0, #0xe8
  4028e0:	39400000 	ldrb	w0, [x0]
  4028e4:	7100001f 	cmp	w0, #0x0
  4028e8:	540000e1 	b.ne	402904 <FH_DU+0x3d8>  // b.any
  4028ec:	d00000e0 	adrp	x0, 420000 <__libc_start_main@GLIBC_2.34>
  4028f0:	91037c00 	add	x0, x0, #0xdf
  4028f4:	39400001 	ldrb	w1, [x0]
  4028f8:	d00000e0 	adrp	x0, 420000 <__libc_start_main@GLIBC_2.34>
  4028fc:	91035c00 	add	x0, x0, #0xd7
  402900:	39000001 	strb	w1, [x0]
  402904:	d00000e0 	adrp	x0, 420000 <__libc_start_main@GLIBC_2.34>
  402908:	91038800 	add	x0, x0, #0xe2
  40290c:	39400001 	ldrb	w1, [x0]
  402910:	d00000e0 	adrp	x0, 420000 <__libc_start_main@GLIBC_2.34>
  402914:	91038c00 	add	x0, x0, #0xe3
  402918:	39400000 	ldrb	w0, [x0]
  40291c:	6b00003f 	cmp	w1, w0
  402920:	54000180 	b.eq	402950 <FH_DU+0x424>  // b.none
  402924:	d00000e0 	adrp	x0, 420000 <__libc_start_main@GLIBC_2.34>
  402928:	9103a000 	add	x0, x0, #0xe8
  40292c:	39400000 	ldrb	w0, [x0]
  402930:	7100001f 	cmp	w0, #0x0
  402934:	540000e0 	b.eq	402950 <FH_DU+0x424>  // b.none
  402938:	d00000e0 	adrp	x0, 420000 <__libc_start_main@GLIBC_2.34>
  40293c:	91038800 	add	x0, x0, #0xe2
  402940:	39400001 	ldrb	w1, [x0]
  402944:	d00000e0 	adrp	x0, 420000 <__libc_start_main@GLIBC_2.34>
  402948:	91037c00 	add	x0, x0, #0xdf
  40294c:	39000001 	strb	w1, [x0]
  402950:	d00000e0 	adrp	x0, 420000 <__libc_start_main@GLIBC_2.34>
  402954:	91037000 	add	x0, x0, #0xdc
  402958:	39400001 	ldrb	w1, [x0]
  40295c:	d00000e0 	adrp	x0, 420000 <__libc_start_main@GLIBC_2.34>
  402960:	91037800 	add	x0, x0, #0xde
  402964:	39400000 	ldrb	w0, [x0]
  402968:	6b00003f 	cmp	w1, w0
  40296c:	54000180 	b.eq	40299c <FH_DU+0x470>  // b.none
  402970:	d00000e0 	adrp	x0, 420000 <__libc_start_main@GLIBC_2.34>
  402974:	9103a000 	add	x0, x0, #0xe8
  402978:	39400000 	ldrb	w0, [x0]
  40297c:	7100001f 	cmp	w0, #0x0
  402980:	540000e1 	b.ne	40299c <FH_DU+0x470>  // b.any
  402984:	d00000e0 	adrp	x0, 420000 <__libc_start_main@GLIBC_2.34>
  402988:	91037000 	add	x0, x0, #0xdc
  40298c:	39400001 	ldrb	w1, [x0]
  402990:	d00000e0 	adrp	x0, 420000 <__libc_start_main@GLIBC_2.34>
  402994:	91036000 	add	x0, x0, #0xd8
  402998:	39000001 	strb	w1, [x0]
  40299c:	d00000e0 	adrp	x0, 420000 <__libc_start_main@GLIBC_2.34>
  4029a0:	91039000 	add	x0, x0, #0xe4
  4029a4:	39400001 	ldrb	w1, [x0]
  4029a8:	d00000e0 	adrp	x0, 420000 <__libc_start_main@GLIBC_2.34>
  4029ac:	91039400 	add	x0, x0, #0xe5
  4029b0:	39400000 	ldrb	w0, [x0]
  4029b4:	6b00003f 	cmp	w1, w0
  4029b8:	54000180 	b.eq	4029e8 <FH_DU+0x4bc>  // b.none
  4029bc:	d00000e0 	adrp	x0, 420000 <__libc_start_main@GLIBC_2.34>
  4029c0:	9103a000 	add	x0, x0, #0xe8
  4029c4:	39400000 	ldrb	w0, [x0]
  4029c8:	7100001f 	cmp	w0, #0x0
  4029cc:	540000e0 	b.eq	4029e8 <FH_DU+0x4bc>  // b.none
  4029d0:	d00000e0 	adrp	x0, 420000 <__libc_start_main@GLIBC_2.34>
  4029d4:	91039000 	add	x0, x0, #0xe4
  4029d8:	39400001 	ldrb	w1, [x0]
  4029dc:	d00000e0 	adrp	x0, 420000 <__libc_start_main@GLIBC_2.34>
  4029e0:	91037000 	add	x0, x0, #0xdc
  4029e4:	39000001 	strb	w1, [x0]
  4029e8:	d00000e0 	adrp	x0, 420000 <__libc_start_main@GLIBC_2.34>
  4029ec:	91046000 	add	x0, x0, #0x118
  4029f0:	39403001 	ldrb	w1, [x0, #12]
  4029f4:	d00000e0 	adrp	x0, 420000 <__libc_start_main@GLIBC_2.34>
  4029f8:	91046000 	add	x0, x0, #0x118
  4029fc:	39002801 	strb	w1, [x0, #10]
  402a00:	d00000e0 	adrp	x0, 420000 <__libc_start_main@GLIBC_2.34>
  402a04:	91046000 	add	x0, x0, #0x118
  402a08:	39403c01 	ldrb	w1, [x0, #15]
  402a0c:	d00000e0 	adrp	x0, 420000 <__libc_start_main@GLIBC_2.34>
  402a10:	91046000 	add	x0, x0, #0x118
  402a14:	39003401 	strb	w1, [x0, #13]
  402a18:	d00000e0 	adrp	x0, 420000 <__libc_start_main@GLIBC_2.34>
  402a1c:	91046000 	add	x0, x0, #0x118
  402a20:	39404801 	ldrb	w1, [x0, #18]
  402a24:	d00000e0 	adrp	x0, 420000 <__libc_start_main@GLIBC_2.34>
  402a28:	91046000 	add	x0, x0, #0x118
  402a2c:	39004001 	strb	w1, [x0, #16]
  402a30:	d00000e0 	adrp	x0, 420000 <__libc_start_main@GLIBC_2.34>
  402a34:	91046000 	add	x0, x0, #0x118
  402a38:	39405401 	ldrb	w1, [x0, #21]
  402a3c:	d00000e0 	adrp	x0, 420000 <__libc_start_main@GLIBC_2.34>
  402a40:	91046000 	add	x0, x0, #0x118
  402a44:	39004c01 	strb	w1, [x0, #19]
  402a48:	d00000e0 	adrp	x0, 420000 <__libc_start_main@GLIBC_2.34>
  402a4c:	91039c00 	add	x0, x0, #0xe7
  402a50:	39400001 	ldrb	w1, [x0]
  402a54:	d00000e0 	adrp	x0, 420000 <__libc_start_main@GLIBC_2.34>
  402a58:	9102fc00 	add	x0, x0, #0xbf
  402a5c:	39000001 	strb	w1, [x0]
  402a60:	d00000e0 	adrp	x0, 420000 <__libc_start_main@GLIBC_2.34>
  402a64:	91036000 	add	x0, x0, #0xd8
  402a68:	39400001 	ldrb	w1, [x0]
  402a6c:	d00000e0 	adrp	x0, 420000 <__libc_start_main@GLIBC_2.34>
  402a70:	9102f400 	add	x0, x0, #0xbd
  402a74:	39000001 	strb	w1, [x0]
  402a78:	d00000e0 	adrp	x0, 420000 <__libc_start_main@GLIBC_2.34>
  402a7c:	91039800 	add	x0, x0, #0xe6
  402a80:	39400001 	ldrb	w1, [x0]
  402a84:	d00000e0 	adrp	x0, 420000 <__libc_start_main@GLIBC_2.34>
  402a88:	9102ec00 	add	x0, x0, #0xbb
  402a8c:	39000001 	strb	w1, [x0]
  402a90:	d00000e0 	adrp	x0, 420000 <__libc_start_main@GLIBC_2.34>
  402a94:	91035c00 	add	x0, x0, #0xd7
  402a98:	39400001 	ldrb	w1, [x0]
  402a9c:	d00000e0 	adrp	x0, 420000 <__libc_start_main@GLIBC_2.34>
  402aa0:	9102e400 	add	x0, x0, #0xb9
  402aa4:	39000001 	strb	w1, [x0]
  402aa8:	97fff7b4 	bl	400978 <generic_KINDERSICHERUNG_CTRL>
  402aac:	d00000e0 	adrp	x0, 420000 <__libc_start_main@GLIBC_2.34>
  402ab0:	91033c00 	add	x0, x0, #0xcf
  402ab4:	39400001 	ldrb	w1, [x0]
  402ab8:	d00000e0 	adrp	x0, 420000 <__libc_start_main@GLIBC_2.34>
  402abc:	9103bc00 	add	x0, x0, #0xef
  402ac0:	39000001 	strb	w1, [x0]
  402ac4:	d00000e0 	adrp	x0, 420000 <__libc_start_main@GLIBC_2.34>
  402ac8:	91033000 	add	x0, x0, #0xcc
  402acc:	39400001 	ldrb	w1, [x0]
  402ad0:	d00000e0 	adrp	x0, 420000 <__libc_start_main@GLIBC_2.34>
  402ad4:	9103b000 	add	x0, x0, #0xec
  402ad8:	39000001 	strb	w1, [x0]
  402adc:	d00000e0 	adrp	x0, 420000 <__libc_start_main@GLIBC_2.34>
  402ae0:	91021000 	add	x0, x0, #0x84
  402ae4:	b9400001 	ldr	w1, [x0]
  402ae8:	d00000e0 	adrp	x0, 420000 <__libc_start_main@GLIBC_2.34>
  402aec:	91026000 	add	x0, x0, #0x98
  402af0:	b9000001 	str	w1, [x0]
  402af4:	d00000e0 	adrp	x0, 420000 <__libc_start_main@GLIBC_2.34>
  402af8:	91034800 	add	x0, x0, #0xd2
  402afc:	39400001 	ldrb	w1, [x0]
  402b00:	d00000e0 	adrp	x0, 420000 <__libc_start_main@GLIBC_2.34>
  402b04:	91036800 	add	x0, x0, #0xda
  402b08:	39000001 	strb	w1, [x0]
  402b0c:	d00000e0 	adrp	x0, 420000 <__libc_start_main@GLIBC_2.34>
  402b10:	91020000 	add	x0, x0, #0x80
  402b14:	b9400001 	ldr	w1, [x0]
  402b18:	d00000e0 	adrp	x0, 420000 <__libc_start_main@GLIBC_2.34>
  402b1c:	91025000 	add	x0, x0, #0x94
  402b20:	b9000001 	str	w1, [x0]
  402b24:	d00000e0 	adrp	x0, 420000 <__libc_start_main@GLIBC_2.34>
  402b28:	91031400 	add	x0, x0, #0xc5
  402b2c:	39400001 	ldrb	w1, [x0]
  402b30:	d00000e0 	adrp	x0, 420000 <__libc_start_main@GLIBC_2.34>
  402b34:	91036400 	add	x0, x0, #0xd9
  402b38:	39000001 	strb	w1, [x0]
  402b3c:	d00000e0 	adrp	x0, 420000 <__libc_start_main@GLIBC_2.34>
  402b40:	9102fc00 	add	x0, x0, #0xbf
  402b44:	39400001 	ldrb	w1, [x0]
  402b48:	d00000e0 	adrp	x0, 420000 <__libc_start_main@GLIBC_2.34>
  402b4c:	91039c00 	add	x0, x0, #0xe7
  402b50:	39000001 	strb	w1, [x0]
  402b54:	d00000e0 	adrp	x0, 420000 <__libc_start_main@GLIBC_2.34>
  402b58:	9102f400 	add	x0, x0, #0xbd
  402b5c:	39400001 	ldrb	w1, [x0]
  402b60:	d00000e0 	adrp	x0, 420000 <__libc_start_main@GLIBC_2.34>
  402b64:	91036000 	add	x0, x0, #0xd8
  402b68:	39000001 	strb	w1, [x0]
  402b6c:	d00000e0 	adrp	x0, 420000 <__libc_start_main@GLIBC_2.34>
  402b70:	9102ec00 	add	x0, x0, #0xbb
  402b74:	39400001 	ldrb	w1, [x0]
  402b78:	d00000e0 	adrp	x0, 420000 <__libc_start_main@GLIBC_2.34>
  402b7c:	91039800 	add	x0, x0, #0xe6
  402b80:	39000001 	strb	w1, [x0]
  402b84:	d00000e0 	adrp	x0, 420000 <__libc_start_main@GLIBC_2.34>
  402b88:	9102e400 	add	x0, x0, #0xb9
  402b8c:	39400001 	ldrb	w1, [x0]
  402b90:	d00000e0 	adrp	x0, 420000 <__libc_start_main@GLIBC_2.34>
  402b94:	91035c00 	add	x0, x0, #0xd7
  402b98:	39000001 	strb	w1, [x0]
  402b9c:	d00000e0 	adrp	x0, 420000 <__libc_start_main@GLIBC_2.34>
  402ba0:	91030400 	add	x0, x0, #0xc1
  402ba4:	39400001 	ldrb	w1, [x0]
  402ba8:	d00000e0 	adrp	x0, 420000 <__libc_start_main@GLIBC_2.34>
  402bac:	91035800 	add	x0, x0, #0xd6
  402bb0:	39000001 	strb	w1, [x0]
  402bb4:	d00000e0 	adrp	x0, 420000 <__libc_start_main@GLIBC_2.34>
  402bb8:	91030800 	add	x0, x0, #0xc2
  402bbc:	39400001 	ldrb	w1, [x0]
  402bc0:	d00000e0 	adrp	x0, 420000 <__libc_start_main@GLIBC_2.34>
  402bc4:	9103a400 	add	x0, x0, #0xe9
  402bc8:	39000001 	strb	w1, [x0]
  402bcc:	d00000e0 	adrp	x0, 420000 <__libc_start_main@GLIBC_2.34>
  402bd0:	91039c00 	add	x0, x0, #0xe7
  402bd4:	39400001 	ldrb	w1, [x0]
  402bd8:	d00000e0 	adrp	x0, 420000 <__libc_start_main@GLIBC_2.34>
  402bdc:	9102fc00 	add	x0, x0, #0xbf
  402be0:	39000001 	strb	w1, [x0]
  402be4:	d00000e0 	adrp	x0, 420000 <__libc_start_main@GLIBC_2.34>
  402be8:	91036000 	add	x0, x0, #0xd8
  402bec:	39400001 	ldrb	w1, [x0]
  402bf0:	d00000e0 	adrp	x0, 420000 <__libc_start_main@GLIBC_2.34>
  402bf4:	9102f400 	add	x0, x0, #0xbd
  402bf8:	39000001 	strb	w1, [x0]
  402bfc:	d00000e0 	adrp	x0, 420000 <__libc_start_main@GLIBC_2.34>
  402c00:	91039800 	add	x0, x0, #0xe6
  402c04:	39400001 	ldrb	w1, [x0]
  402c08:	d00000e0 	adrp	x0, 420000 <__libc_start_main@GLIBC_2.34>
  402c0c:	9102ec00 	add	x0, x0, #0xbb
  402c10:	39000001 	strb	w1, [x0]
  402c14:	d00000e0 	adrp	x0, 420000 <__libc_start_main@GLIBC_2.34>
  402c18:	91035c00 	add	x0, x0, #0xd7
  402c1c:	39400001 	ldrb	w1, [x0]
  402c20:	d00000e0 	adrp	x0, 420000 <__libc_start_main@GLIBC_2.34>
  402c24:	9102e400 	add	x0, x0, #0xb9
  402c28:	39000001 	strb	w1, [x0]
  402c2c:	97fff90e 	bl	401064 <generic_FH_TUERMODUL_CTRL>
  402c30:	d00000e0 	adrp	x0, 420000 <__libc_start_main@GLIBC_2.34>
  402c34:	91033c00 	add	x0, x0, #0xcf
  402c38:	39400001 	ldrb	w1, [x0]
  402c3c:	d00000e0 	adrp	x0, 420000 <__libc_start_main@GLIBC_2.34>
  402c40:	9103bc00 	add	x0, x0, #0xef
  402c44:	39000001 	strb	w1, [x0]
  402c48:	d00000e0 	adrp	x0, 420000 <__libc_start_main@GLIBC_2.34>
  402c4c:	91033000 	add	x0, x0, #0xcc
  402c50:	39400001 	ldrb	w1, [x0]
  402c54:	d00000e0 	adrp	x0, 420000 <__libc_start_main@GLIBC_2.34>
  402c58:	9103b000 	add	x0, x0, #0xec
  402c5c:	39000001 	strb	w1, [x0]
  402c60:	d00000e0 	adrp	x0, 420000 <__libc_start_main@GLIBC_2.34>
  402c64:	91021000 	add	x0, x0, #0x84
  402c68:	b9400001 	ldr	w1, [x0]
  402c6c:	d00000e0 	adrp	x0, 420000 <__libc_start_main@GLIBC_2.34>
  402c70:	91026000 	add	x0, x0, #0x98
  402c74:	b9000001 	str	w1, [x0]
  402c78:	d00000e0 	adrp	x0, 420000 <__libc_start_main@GLIBC_2.34>
  402c7c:	91034800 	add	x0, x0, #0xd2
  402c80:	39400001 	ldrb	w1, [x0]
  402c84:	d00000e0 	adrp	x0, 420000 <__libc_start_main@GLIBC_2.34>
  402c88:	91036800 	add	x0, x0, #0xda
  402c8c:	39000001 	strb	w1, [x0]
  402c90:	d00000e0 	adrp	x0, 420000 <__libc_start_main@GLIBC_2.34>
  402c94:	91020000 	add	x0, x0, #0x80
  402c98:	b9400001 	ldr	w1, [x0]
  402c9c:	d00000e0 	adrp	x0, 420000 <__libc_start_main@GLIBC_2.34>
  402ca0:	91025000 	add	x0, x0, #0x94
  402ca4:	b9000001 	str	w1, [x0]
  402ca8:	d00000e0 	adrp	x0, 420000 <__libc_start_main@GLIBC_2.34>
  402cac:	91031400 	add	x0, x0, #0xc5
  402cb0:	39400001 	ldrb	w1, [x0]
  402cb4:	d00000e0 	adrp	x0, 420000 <__libc_start_main@GLIBC_2.34>
  402cb8:	91036400 	add	x0, x0, #0xd9
  402cbc:	39000001 	strb	w1, [x0]
  402cc0:	d00000e0 	adrp	x0, 420000 <__libc_start_main@GLIBC_2.34>
  402cc4:	9102fc00 	add	x0, x0, #0xbf
  402cc8:	39400001 	ldrb	w1, [x0]
  402ccc:	d00000e0 	adrp	x0, 420000 <__libc_start_main@GLIBC_2.34>
  402cd0:	91039c00 	add	x0, x0, #0xe7
  402cd4:	39000001 	strb	w1, [x0]
  402cd8:	d00000e0 	adrp	x0, 420000 <__libc_start_main@GLIBC_2.34>
  402cdc:	9102f400 	add	x0, x0, #0xbd
  402ce0:	39400001 	ldrb	w1, [x0]
  402ce4:	d00000e0 	adrp	x0, 420000 <__libc_start_main@GLIBC_2.34>
  402ce8:	91036000 	add	x0, x0, #0xd8
  402cec:	39000001 	strb	w1, [x0]
  402cf0:	d00000e0 	adrp	x0, 420000 <__libc_start_main@GLIBC_2.34>
  402cf4:	9102ec00 	add	x0, x0, #0xbb
  402cf8:	39400001 	ldrb	w1, [x0]
  402cfc:	d00000e0 	adrp	x0, 420000 <__libc_start_main@GLIBC_2.34>
  402d00:	91039800 	add	x0, x0, #0xe6
  402d04:	39000001 	strb	w1, [x0]
  402d08:	d00000e0 	adrp	x0, 420000 <__libc_start_main@GLIBC_2.34>
  402d0c:	9102e400 	add	x0, x0, #0xb9
  402d10:	39400001 	ldrb	w1, [x0]
  402d14:	d00000e0 	adrp	x0, 420000 <__libc_start_main@GLIBC_2.34>
  402d18:	91035c00 	add	x0, x0, #0xd7
  402d1c:	39000001 	strb	w1, [x0]
  402d20:	d00000e0 	adrp	x0, 420000 <__libc_start_main@GLIBC_2.34>
  402d24:	91030400 	add	x0, x0, #0xc1
  402d28:	39400001 	ldrb	w1, [x0]
  402d2c:	d00000e0 	adrp	x0, 420000 <__libc_start_main@GLIBC_2.34>
  402d30:	91035800 	add	x0, x0, #0xd6
  402d34:	39000001 	strb	w1, [x0]
  402d38:	d00000e0 	adrp	x0, 420000 <__libc_start_main@GLIBC_2.34>
  402d3c:	91030800 	add	x0, x0, #0xc2
  402d40:	39400001 	ldrb	w1, [x0]
  402d44:	d00000e0 	adrp	x0, 420000 <__libc_start_main@GLIBC_2.34>
  402d48:	9103a400 	add	x0, x0, #0xe9
  402d4c:	39000001 	strb	w1, [x0]
  402d50:	d00000e0 	adrp	x0, 420000 <__libc_start_main@GLIBC_2.34>
  402d54:	91039c00 	add	x0, x0, #0xe7
  402d58:	39400001 	ldrb	w1, [x0]
  402d5c:	d00000e0 	adrp	x0, 420000 <__libc_start_main@GLIBC_2.34>
  402d60:	9102fc00 	add	x0, x0, #0xbf
  402d64:	39000001 	strb	w1, [x0]
  402d68:	d00000e0 	adrp	x0, 420000 <__libc_start_main@GLIBC_2.34>
  402d6c:	91036000 	add	x0, x0, #0xd8
  402d70:	39400001 	ldrb	w1, [x0]
  402d74:	d00000e0 	adrp	x0, 420000 <__libc_start_main@GLIBC_2.34>
  402d78:	9102f400 	add	x0, x0, #0xbd
  402d7c:	39000001 	strb	w1, [x0]
  402d80:	d00000e0 	adrp	x0, 420000 <__libc_start_main@GLIBC_2.34>
  402d84:	91039800 	add	x0, x0, #0xe6
  402d88:	39400001 	ldrb	w1, [x0]
  402d8c:	d00000e0 	adrp	x0, 420000 <__libc_start_main@GLIBC_2.34>
  402d90:	9102ec00 	add	x0, x0, #0xbb
  402d94:	39000001 	strb	w1, [x0]
  402d98:	d00000e0 	adrp	x0, 420000 <__libc_start_main@GLIBC_2.34>
  402d9c:	91035c00 	add	x0, x0, #0xd7
  402da0:	39400001 	ldrb	w1, [x0]
  402da4:	d00000e0 	adrp	x0, 420000 <__libc_start_main@GLIBC_2.34>
  402da8:	9102e400 	add	x0, x0, #0xb9
  402dac:	39000001 	strb	w1, [x0]
  402db0:	97fffc9c 	bl	402020 <generic_EINKLEMMSCHUTZ_CTRL>
  402db4:	d00000e0 	adrp	x0, 420000 <__libc_start_main@GLIBC_2.34>
  402db8:	91033c00 	add	x0, x0, #0xcf
  402dbc:	39400001 	ldrb	w1, [x0]
  402dc0:	d00000e0 	adrp	x0, 420000 <__libc_start_main@GLIBC_2.34>
  402dc4:	9103bc00 	add	x0, x0, #0xef
  402dc8:	39000001 	strb	w1, [x0]
  402dcc:	d00000e0 	adrp	x0, 420000 <__libc_start_main@GLIBC_2.34>
  402dd0:	91033000 	add	x0, x0, #0xcc
  402dd4:	39400001 	ldrb	w1, [x0]
  402dd8:	d00000e0 	adrp	x0, 420000 <__libc_start_main@GLIBC_2.34>
  402ddc:	9103b000 	add	x0, x0, #0xec
  402de0:	39000001 	strb	w1, [x0]
  402de4:	d00000e0 	adrp	x0, 420000 <__libc_start_main@GLIBC_2.34>
  402de8:	91021000 	add	x0, x0, #0x84
  402dec:	b9400001 	ldr	w1, [x0]
  402df0:	d00000e0 	adrp	x0, 420000 <__libc_start_main@GLIBC_2.34>
  402df4:	91026000 	add	x0, x0, #0x98
  402df8:	b9000001 	str	w1, [x0]
  402dfc:	d00000e0 	adrp	x0, 420000 <__libc_start_main@GLIBC_2.34>
  402e00:	91034800 	add	x0, x0, #0xd2
  402e04:	39400001 	ldrb	w1, [x0]
  402e08:	d00000e0 	adrp	x0, 420000 <__libc_start_main@GLIBC_2.34>
  402e0c:	91036800 	add	x0, x0, #0xda
  402e10:	39000001 	strb	w1, [x0]
  402e14:	d00000e0 	adrp	x0, 420000 <__libc_start_main@GLIBC_2.34>
  402e18:	91020000 	add	x0, x0, #0x80
  402e1c:	b9400001 	ldr	w1, [x0]
  402e20:	d00000e0 	adrp	x0, 420000 <__libc_start_main@GLIBC_2.34>
  402e24:	91025000 	add	x0, x0, #0x94
  402e28:	b9000001 	str	w1, [x0]
  402e2c:	d00000e0 	adrp	x0, 420000 <__libc_start_main@GLIBC_2.34>
  402e30:	91031400 	add	x0, x0, #0xc5
  402e34:	39400001 	ldrb	w1, [x0]
  402e38:	d00000e0 	adrp	x0, 420000 <__libc_start_main@GLIBC_2.34>
  402e3c:	91036400 	add	x0, x0, #0xd9
  402e40:	39000001 	strb	w1, [x0]
  402e44:	d00000e0 	adrp	x0, 420000 <__libc_start_main@GLIBC_2.34>
  402e48:	9102fc00 	add	x0, x0, #0xbf
  402e4c:	39400001 	ldrb	w1, [x0]
  402e50:	d00000e0 	adrp	x0, 420000 <__libc_start_main@GLIBC_2.34>
  402e54:	91039c00 	add	x0, x0, #0xe7
  402e58:	39000001 	strb	w1, [x0]
  402e5c:	d00000e0 	adrp	x0, 420000 <__libc_start_main@GLIBC_2.34>
  402e60:	9102f400 	add	x0, x0, #0xbd
  402e64:	39400001 	ldrb	w1, [x0]
  402e68:	d00000e0 	adrp	x0, 420000 <__libc_start_main@GLIBC_2.34>
  402e6c:	91036000 	add	x0, x0, #0xd8
  402e70:	39000001 	strb	w1, [x0]
  402e74:	d00000e0 	adrp	x0, 420000 <__libc_start_main@GLIBC_2.34>
  402e78:	9102ec00 	add	x0, x0, #0xbb
  402e7c:	39400001 	ldrb	w1, [x0]
  402e80:	d00000e0 	adrp	x0, 420000 <__libc_start_main@GLIBC_2.34>
  402e84:	91039800 	add	x0, x0, #0xe6
  402e88:	39000001 	strb	w1, [x0]
  402e8c:	d00000e0 	adrp	x0, 420000 <__libc_start_main@GLIBC_2.34>
  402e90:	9102e400 	add	x0, x0, #0xb9
  402e94:	39400001 	ldrb	w1, [x0]
  402e98:	d00000e0 	adrp	x0, 420000 <__libc_start_main@GLIBC_2.34>
  402e9c:	91035c00 	add	x0, x0, #0xd7
  402ea0:	39000001 	strb	w1, [x0]
  402ea4:	d00000e0 	adrp	x0, 420000 <__libc_start_main@GLIBC_2.34>
  402ea8:	91030400 	add	x0, x0, #0xc1
  402eac:	39400001 	ldrb	w1, [x0]
  402eb0:	d00000e0 	adrp	x0, 420000 <__libc_start_main@GLIBC_2.34>
  402eb4:	91035800 	add	x0, x0, #0xd6
  402eb8:	39000001 	strb	w1, [x0]
  402ebc:	d00000e0 	adrp	x0, 420000 <__libc_start_main@GLIBC_2.34>
  402ec0:	91030800 	add	x0, x0, #0xc2
  402ec4:	39400001 	ldrb	w1, [x0]
  402ec8:	d00000e0 	adrp	x0, 420000 <__libc_start_main@GLIBC_2.34>
  402ecc:	9103a400 	add	x0, x0, #0xe9
  402ed0:	39000001 	strb	w1, [x0]
  402ed4:	d00000e0 	adrp	x0, 420000 <__libc_start_main@GLIBC_2.34>
  402ed8:	91039c00 	add	x0, x0, #0xe7
  402edc:	39400001 	ldrb	w1, [x0]
  402ee0:	d00000e0 	adrp	x0, 420000 <__libc_start_main@GLIBC_2.34>
  402ee4:	9102fc00 	add	x0, x0, #0xbf
  402ee8:	39000001 	strb	w1, [x0]
  402eec:	d00000e0 	adrp	x0, 420000 <__libc_start_main@GLIBC_2.34>
  402ef0:	91036000 	add	x0, x0, #0xd8
  402ef4:	39400001 	ldrb	w1, [x0]
  402ef8:	d00000e0 	adrp	x0, 420000 <__libc_start_main@GLIBC_2.34>
  402efc:	9102f400 	add	x0, x0, #0xbd
  402f00:	39000001 	strb	w1, [x0]
  402f04:	d00000e0 	adrp	x0, 420000 <__libc_start_main@GLIBC_2.34>
  402f08:	91039800 	add	x0, x0, #0xe6
  402f0c:	39400001 	ldrb	w1, [x0]
  402f10:	d00000e0 	adrp	x0, 420000 <__libc_start_main@GLIBC_2.34>
  402f14:	9102ec00 	add	x0, x0, #0xbb
  402f18:	39000001 	strb	w1, [x0]
  402f1c:	d00000e0 	adrp	x0, 420000 <__libc_start_main@GLIBC_2.34>
  402f20:	91035c00 	add	x0, x0, #0xd7
  402f24:	39400001 	ldrb	w1, [x0]
  402f28:	d00000e0 	adrp	x0, 420000 <__libc_start_main@GLIBC_2.34>
  402f2c:	9102e400 	add	x0, x0, #0xb9
  402f30:	39000001 	strb	w1, [x0]
  402f34:	97fffc8c 	bl	402164 <generic_BLOCK_ERKENNUNG_CTRL>
  402f38:	d00000e0 	adrp	x0, 420000 <__libc_start_main@GLIBC_2.34>
  402f3c:	91033c00 	add	x0, x0, #0xcf
  402f40:	39400001 	ldrb	w1, [x0]
  402f44:	d00000e0 	adrp	x0, 420000 <__libc_start_main@GLIBC_2.34>
  402f48:	9103bc00 	add	x0, x0, #0xef
  402f4c:	39000001 	strb	w1, [x0]
  402f50:	d00000e0 	adrp	x0, 420000 <__libc_start_main@GLIBC_2.34>
  402f54:	91033000 	add	x0, x0, #0xcc
  402f58:	39400001 	ldrb	w1, [x0]
  402f5c:	d00000e0 	adrp	x0, 420000 <__libc_start_main@GLIBC_2.34>
  402f60:	9103b000 	add	x0, x0, #0xec
  402f64:	39000001 	strb	w1, [x0]
  402f68:	d00000e0 	adrp	x0, 420000 <__libc_start_main@GLIBC_2.34>
  402f6c:	91021000 	add	x0, x0, #0x84
  402f70:	b9400001 	ldr	w1, [x0]
  402f74:	d00000e0 	adrp	x0, 420000 <__libc_start_main@GLIBC_2.34>
  402f78:	91026000 	add	x0, x0, #0x98
  402f7c:	b9000001 	str	w1, [x0]
  402f80:	d00000e0 	adrp	x0, 420000 <__libc_start_main@GLIBC_2.34>
  402f84:	91034800 	add	x0, x0, #0xd2
  402f88:	39400001 	ldrb	w1, [x0]
  402f8c:	d00000e0 	adrp	x0, 420000 <__libc_start_main@GLIBC_2.34>
  402f90:	91036800 	add	x0, x0, #0xda
  402f94:	39000001 	strb	w1, [x0]
  402f98:	d00000e0 	adrp	x0, 420000 <__libc_start_main@GLIBC_2.34>
  402f9c:	91020000 	add	x0, x0, #0x80
  402fa0:	b9400001 	ldr	w1, [x0]
  402fa4:	d00000e0 	adrp	x0, 420000 <__libc_start_main@GLIBC_2.34>
  402fa8:	91025000 	add	x0, x0, #0x94
  402fac:	b9000001 	str	w1, [x0]
  402fb0:	d00000e0 	adrp	x0, 420000 <__libc_start_main@GLIBC_2.34>
  402fb4:	91031400 	add	x0, x0, #0xc5
  402fb8:	39400001 	ldrb	w1, [x0]
  402fbc:	d00000e0 	adrp	x0, 420000 <__libc_start_main@GLIBC_2.34>
  402fc0:	91036400 	add	x0, x0, #0xd9
  402fc4:	39000001 	strb	w1, [x0]
  402fc8:	d00000e0 	adrp	x0, 420000 <__libc_start_main@GLIBC_2.34>
  402fcc:	9102fc00 	add	x0, x0, #0xbf
  402fd0:	39400001 	ldrb	w1, [x0]
  402fd4:	d00000e0 	adrp	x0, 420000 <__libc_start_main@GLIBC_2.34>
  402fd8:	91039c00 	add	x0, x0, #0xe7
  402fdc:	39000001 	strb	w1, [x0]
  402fe0:	d00000e0 	adrp	x0, 420000 <__libc_start_main@GLIBC_2.34>
  402fe4:	9102f400 	add	x0, x0, #0xbd
  402fe8:	39400001 	ldrb	w1, [x0]
  402fec:	d00000e0 	adrp	x0, 420000 <__libc_start_main@GLIBC_2.34>
  402ff0:	91036000 	add	x0, x0, #0xd8
  402ff4:	39000001 	strb	w1, [x0]
  402ff8:	d00000e0 	adrp	x0, 420000 <__libc_start_main@GLIBC_2.34>
  402ffc:	9102ec00 	add	x0, x0, #0xbb
  403000:	39400001 	ldrb	w1, [x0]
  403004:	b00000e0 	adrp	x0, 420000 <__libc_start_main@GLIBC_2.34>
  403008:	91039800 	add	x0, x0, #0xe6
  40300c:	39000001 	strb	w1, [x0]
  403010:	b00000e0 	adrp	x0, 420000 <__libc_start_main@GLIBC_2.34>
  403014:	9102e400 	add	x0, x0, #0xb9
  403018:	39400001 	ldrb	w1, [x0]
  40301c:	b00000e0 	adrp	x0, 420000 <__libc_start_main@GLIBC_2.34>
  403020:	91035c00 	add	x0, x0, #0xd7
  403024:	39000001 	strb	w1, [x0]
  403028:	b00000e0 	adrp	x0, 420000 <__libc_start_main@GLIBC_2.34>
  40302c:	91030400 	add	x0, x0, #0xc1
  403030:	39400001 	ldrb	w1, [x0]
  403034:	b00000e0 	adrp	x0, 420000 <__libc_start_main@GLIBC_2.34>
  403038:	91035800 	add	x0, x0, #0xd6
  40303c:	39000001 	strb	w1, [x0]
  403040:	b00000e0 	adrp	x0, 420000 <__libc_start_main@GLIBC_2.34>
  403044:	91030800 	add	x0, x0, #0xc2
  403048:	39400001 	ldrb	w1, [x0]
  40304c:	b00000e0 	adrp	x0, 420000 <__libc_start_main@GLIBC_2.34>
  403050:	9103a400 	add	x0, x0, #0xe9
  403054:	39000001 	strb	w1, [x0]
  403058:	b00000e0 	adrp	x0, 420000 <__libc_start_main@GLIBC_2.34>
  40305c:	91046000 	add	x0, x0, #0x118
  403060:	39402801 	ldrb	w1, [x0, #10]
  403064:	b00000e0 	adrp	x0, 420000 <__libc_start_main@GLIBC_2.34>
  403068:	91046000 	add	x0, x0, #0x118
  40306c:	39002c01 	strb	w1, [x0, #11]
  403070:	b00000e0 	adrp	x0, 420000 <__libc_start_main@GLIBC_2.34>
  403074:	91046000 	add	x0, x0, #0x118
  403078:	39403401 	ldrb	w1, [x0, #13]
  40307c:	b00000e0 	adrp	x0, 420000 <__libc_start_main@GLIBC_2.34>
  403080:	91046000 	add	x0, x0, #0x118
  403084:	39003801 	strb	w1, [x0, #14]
  403088:	b00000e0 	adrp	x0, 420000 <__libc_start_main@GLIBC_2.34>
  40308c:	91046000 	add	x0, x0, #0x118
  403090:	39404001 	ldrb	w1, [x0, #16]
  403094:	b00000e0 	adrp	x0, 420000 <__libc_start_main@GLIBC_2.34>
  403098:	91046000 	add	x0, x0, #0x118
  40309c:	39004401 	strb	w1, [x0, #17]
  4030a0:	b00000e0 	adrp	x0, 420000 <__libc_start_main@GLIBC_2.34>
  4030a4:	91046000 	add	x0, x0, #0x118
  4030a8:	39404c01 	ldrb	w1, [x0, #19]
  4030ac:	b00000e0 	adrp	x0, 420000 <__libc_start_main@GLIBC_2.34>
  4030b0:	91046000 	add	x0, x0, #0x118
  4030b4:	39005001 	strb	w1, [x0, #20]
  4030b8:	b00000e0 	adrp	x0, 420000 <__libc_start_main@GLIBC_2.34>
  4030bc:	91018000 	add	x0, x0, #0x60
  4030c0:	b9400001 	ldr	w1, [x0]
  4030c4:	b00000e0 	adrp	x0, 420000 <__libc_start_main@GLIBC_2.34>
  4030c8:	9101a000 	add	x0, x0, #0x68
  4030cc:	b9000001 	str	w1, [x0]
  4030d0:	b00000e0 	adrp	x0, 420000 <__libc_start_main@GLIBC_2.34>
  4030d4:	91021000 	add	x0, x0, #0x84
  4030d8:	b9400001 	ldr	w1, [x0]
  4030dc:	b00000e0 	adrp	x0, 420000 <__libc_start_main@GLIBC_2.34>
  4030e0:	91022000 	add	x0, x0, #0x88
  4030e4:	b9000001 	str	w1, [x0]
  4030e8:	b00000e0 	adrp	x0, 420000 <__libc_start_main@GLIBC_2.34>
  4030ec:	91024000 	add	x0, x0, #0x90
  4030f0:	b9400001 	ldr	w1, [x0]
  4030f4:	b00000e0 	adrp	x0, 420000 <__libc_start_main@GLIBC_2.34>
  4030f8:	91023000 	add	x0, x0, #0x8c
  4030fc:	b9000001 	str	w1, [x0]
  403100:	b00000e0 	adrp	x0, 420000 <__libc_start_main@GLIBC_2.34>
  403104:	91026000 	add	x0, x0, #0x98
  403108:	b9400001 	ldr	w1, [x0]
  40310c:	b00000e0 	adrp	x0, 420000 <__libc_start_main@GLIBC_2.34>
  403110:	91027000 	add	x0, x0, #0x9c
  403114:	b9000001 	str	w1, [x0]
  403118:	b00000e0 	adrp	x0, 420000 <__libc_start_main@GLIBC_2.34>
  40311c:	9102a000 	add	x0, x0, #0xa8
  403120:	b9400001 	ldr	w1, [x0]
  403124:	b00000e0 	adrp	x0, 420000 <__libc_start_main@GLIBC_2.34>
  403128:	9102c000 	add	x0, x0, #0xb0
  40312c:	b9000001 	str	w1, [x0]
  403130:	b00000e0 	adrp	x0, 420000 <__libc_start_main@GLIBC_2.34>
  403134:	9102e400 	add	x0, x0, #0xb9
  403138:	39400001 	ldrb	w1, [x0]
  40313c:	b00000e0 	adrp	x0, 420000 <__libc_start_main@GLIBC_2.34>
  403140:	9102e800 	add	x0, x0, #0xba
  403144:	39000001 	strb	w1, [x0]
  403148:	b00000e0 	adrp	x0, 420000 <__libc_start_main@GLIBC_2.34>
  40314c:	9102ec00 	add	x0, x0, #0xbb
  403150:	39400001 	ldrb	w1, [x0]
  403154:	b00000e0 	adrp	x0, 420000 <__libc_start_main@GLIBC_2.34>
  403158:	9102f000 	add	x0, x0, #0xbc
  40315c:	39000001 	strb	w1, [x0]
  403160:	b00000e0 	adrp	x0, 420000 <__libc_start_main@GLIBC_2.34>
  403164:	9102f400 	add	x0, x0, #0xbd
  403168:	39400001 	ldrb	w1, [x0]
  40316c:	b00000e0 	adrp	x0, 420000 <__libc_start_main@GLIBC_2.34>
  403170:	9102f800 	add	x0, x0, #0xbe
  403174:	39000001 	strb	w1, [x0]
  403178:	b00000e0 	adrp	x0, 420000 <__libc_start_main@GLIBC_2.34>
  40317c:	9102fc00 	add	x0, x0, #0xbf
  403180:	39400001 	ldrb	w1, [x0]
  403184:	b00000e0 	adrp	x0, 420000 <__libc_start_main@GLIBC_2.34>
  403188:	91030000 	add	x0, x0, #0xc0
  40318c:	39000001 	strb	w1, [x0]
  403190:	b00000e0 	adrp	x0, 420000 <__libc_start_main@GLIBC_2.34>
  403194:	91030c00 	add	x0, x0, #0xc3
  403198:	39400001 	ldrb	w1, [x0]
  40319c:	b00000e0 	adrp	x0, 420000 <__libc_start_main@GLIBC_2.34>
  4031a0:	91030800 	add	x0, x0, #0xc2
  4031a4:	39000001 	strb	w1, [x0]
  4031a8:	b00000e0 	adrp	x0, 420000 <__libc_start_main@GLIBC_2.34>
  4031ac:	91030800 	add	x0, x0, #0xc2
  4031b0:	39400001 	ldrb	w1, [x0]
  4031b4:	b00000e0 	adrp	x0, 420000 <__libc_start_main@GLIBC_2.34>
  4031b8:	91031000 	add	x0, x0, #0xc4
  4031bc:	39000001 	strb	w1, [x0]
  4031c0:	b00000e0 	adrp	x0, 420000 <__libc_start_main@GLIBC_2.34>
  4031c4:	91031c00 	add	x0, x0, #0xc7
  4031c8:	39400001 	ldrb	w1, [x0]
  4031cc:	b00000e0 	adrp	x0, 420000 <__libc_start_main@GLIBC_2.34>
  4031d0:	91031800 	add	x0, x0, #0xc6
  4031d4:	39000001 	strb	w1, [x0]
  4031d8:	b00000e0 	adrp	x0, 420000 <__libc_start_main@GLIBC_2.34>
  4031dc:	91031800 	add	x0, x0, #0xc6
  4031e0:	39400001 	ldrb	w1, [x0]
  4031e4:	b00000e0 	adrp	x0, 420000 <__libc_start_main@GLIBC_2.34>
  4031e8:	91032000 	add	x0, x0, #0xc8
  4031ec:	39000001 	strb	w1, [x0]
  4031f0:	b00000e0 	adrp	x0, 420000 <__libc_start_main@GLIBC_2.34>
  4031f4:	91032800 	add	x0, x0, #0xca
  4031f8:	39400001 	ldrb	w1, [x0]
  4031fc:	b00000e0 	adrp	x0, 420000 <__libc_start_main@GLIBC_2.34>
  403200:	91032400 	add	x0, x0, #0xc9
  403204:	39000001 	strb	w1, [x0]
  403208:	b00000e0 	adrp	x0, 420000 <__libc_start_main@GLIBC_2.34>
  40320c:	91032400 	add	x0, x0, #0xc9
  403210:	39400001 	ldrb	w1, [x0]
  403214:	b00000e0 	adrp	x0, 420000 <__libc_start_main@GLIBC_2.34>
  403218:	91032c00 	add	x0, x0, #0xcb
  40321c:	39000001 	strb	w1, [x0]
  403220:	b00000e0 	adrp	x0, 420000 <__libc_start_main@GLIBC_2.34>
  403224:	91033400 	add	x0, x0, #0xcd
  403228:	39400001 	ldrb	w1, [x0]
  40322c:	b00000e0 	adrp	x0, 420000 <__libc_start_main@GLIBC_2.34>
  403230:	91033000 	add	x0, x0, #0xcc
  403234:	39000001 	strb	w1, [x0]
  403238:	b00000e0 	adrp	x0, 420000 <__libc_start_main@GLIBC_2.34>
  40323c:	91033000 	add	x0, x0, #0xcc
  403240:	39400001 	ldrb	w1, [x0]
  403244:	b00000e0 	adrp	x0, 420000 <__libc_start_main@GLIBC_2.34>
  403248:	91033800 	add	x0, x0, #0xce
  40324c:	39000001 	strb	w1, [x0]
  403250:	b00000e0 	adrp	x0, 420000 <__libc_start_main@GLIBC_2.34>
  403254:	91034000 	add	x0, x0, #0xd0
  403258:	39400001 	ldrb	w1, [x0]
  40325c:	b00000e0 	adrp	x0, 420000 <__libc_start_main@GLIBC_2.34>
  403260:	91033c00 	add	x0, x0, #0xcf
  403264:	39000001 	strb	w1, [x0]
  403268:	b00000e0 	adrp	x0, 420000 <__libc_start_main@GLIBC_2.34>
  40326c:	91033c00 	add	x0, x0, #0xcf
  403270:	39400001 	ldrb	w1, [x0]
  403274:	b00000e0 	adrp	x0, 420000 <__libc_start_main@GLIBC_2.34>
  403278:	91034400 	add	x0, x0, #0xd1
  40327c:	39000001 	strb	w1, [x0]
  403280:	b00000e0 	adrp	x0, 420000 <__libc_start_main@GLIBC_2.34>
  403284:	91034800 	add	x0, x0, #0xd2
  403288:	39400001 	ldrb	w1, [x0]
  40328c:	b00000e0 	adrp	x0, 420000 <__libc_start_main@GLIBC_2.34>
  403290:	91034c00 	add	x0, x0, #0xd3
  403294:	39000001 	strb	w1, [x0]
  403298:	b00000e0 	adrp	x0, 420000 <__libc_start_main@GLIBC_2.34>
  40329c:	91036800 	add	x0, x0, #0xda
  4032a0:	39400001 	ldrb	w1, [x0]
  4032a4:	b00000e0 	adrp	x0, 420000 <__libc_start_main@GLIBC_2.34>
  4032a8:	91036c00 	add	x0, x0, #0xdb
  4032ac:	39000001 	strb	w1, [x0]
  4032b0:	b00000e0 	adrp	x0, 420000 <__libc_start_main@GLIBC_2.34>
  4032b4:	91037000 	add	x0, x0, #0xdc
  4032b8:	39400001 	ldrb	w1, [x0]
  4032bc:	b00000e0 	adrp	x0, 420000 <__libc_start_main@GLIBC_2.34>
  4032c0:	91037800 	add	x0, x0, #0xde
  4032c4:	39000001 	strb	w1, [x0]
  4032c8:	b00000e0 	adrp	x0, 420000 <__libc_start_main@GLIBC_2.34>
  4032cc:	91037c00 	add	x0, x0, #0xdf
  4032d0:	39400001 	ldrb	w1, [x0]
  4032d4:	b00000e0 	adrp	x0, 420000 <__libc_start_main@GLIBC_2.34>
  4032d8:	91038400 	add	x0, x0, #0xe1
  4032dc:	39000001 	strb	w1, [x0]
  4032e0:	b00000e0 	adrp	x0, 420000 <__libc_start_main@GLIBC_2.34>
  4032e4:	91038800 	add	x0, x0, #0xe2
  4032e8:	39400001 	ldrb	w1, [x0]
  4032ec:	b00000e0 	adrp	x0, 420000 <__libc_start_main@GLIBC_2.34>
  4032f0:	91038c00 	add	x0, x0, #0xe3
  4032f4:	39000001 	strb	w1, [x0]
  4032f8:	b00000e0 	adrp	x0, 420000 <__libc_start_main@GLIBC_2.34>
  4032fc:	91039000 	add	x0, x0, #0xe4
  403300:	39400001 	ldrb	w1, [x0]
  403304:	b00000e0 	adrp	x0, 420000 <__libc_start_main@GLIBC_2.34>
  403308:	91039400 	add	x0, x0, #0xe5
  40330c:	39000001 	strb	w1, [x0]
  403310:	b00000e0 	adrp	x0, 420000 <__libc_start_main@GLIBC_2.34>
  403314:	9103a800 	add	x0, x0, #0xea
  403318:	39400001 	ldrb	w1, [x0]
  40331c:	b00000e0 	adrp	x0, 420000 <__libc_start_main@GLIBC_2.34>
  403320:	9103a400 	add	x0, x0, #0xe9
  403324:	39000001 	strb	w1, [x0]
  403328:	b00000e0 	adrp	x0, 420000 <__libc_start_main@GLIBC_2.34>
  40332c:	9103a400 	add	x0, x0, #0xe9
  403330:	39400001 	ldrb	w1, [x0]
  403334:	b00000e0 	adrp	x0, 420000 <__libc_start_main@GLIBC_2.34>
  403338:	9103ac00 	add	x0, x0, #0xeb
  40333c:	39000001 	strb	w1, [x0]
  403340:	b00000e0 	adrp	x0, 420000 <__libc_start_main@GLIBC_2.34>
  403344:	9103b400 	add	x0, x0, #0xed
  403348:	39400001 	ldrb	w1, [x0]
  40334c:	b00000e0 	adrp	x0, 420000 <__libc_start_main@GLIBC_2.34>
  403350:	9103b000 	add	x0, x0, #0xec
  403354:	39000001 	strb	w1, [x0]
  403358:	b00000e0 	adrp	x0, 420000 <__libc_start_main@GLIBC_2.34>
  40335c:	9103b000 	add	x0, x0, #0xec
  403360:	39400001 	ldrb	w1, [x0]
  403364:	b00000e0 	adrp	x0, 420000 <__libc_start_main@GLIBC_2.34>
  403368:	9103b800 	add	x0, x0, #0xee
  40336c:	39000001 	strb	w1, [x0]
  403370:	b00000e0 	adrp	x0, 420000 <__libc_start_main@GLIBC_2.34>
  403374:	9103c000 	add	x0, x0, #0xf0
  403378:	39400001 	ldrb	w1, [x0]
  40337c:	b00000e0 	adrp	x0, 420000 <__libc_start_main@GLIBC_2.34>
  403380:	9103bc00 	add	x0, x0, #0xef
  403384:	39000001 	strb	w1, [x0]
  403388:	b00000e0 	adrp	x0, 420000 <__libc_start_main@GLIBC_2.34>
  40338c:	9103bc00 	add	x0, x0, #0xef
  403390:	39400001 	ldrb	w1, [x0]
  403394:	b00000e0 	adrp	x0, 420000 <__libc_start_main@GLIBC_2.34>
  403398:	9103c400 	add	x0, x0, #0xf1
  40339c:	39000001 	strb	w1, [x0]
  4033a0:	b00000e0 	adrp	x0, 420000 <__libc_start_main@GLIBC_2.34>
  4033a4:	91040000 	add	x0, x0, #0x100
  4033a8:	39400000 	ldrb	w0, [x0]
  4033ac:	7100001f 	cmp	w0, #0x0
  4033b0:	54ff8d80 	b.eq	402560 <FH_DU+0x34>  // b.none
  4033b4:	d503201f 	nop
  4033b8:	d503201f 	nop
  4033bc:	a8c17bfd 	ldp	x29, x30, [sp], #16
  4033c0:	d65f03c0 	ret

00000000004033c4 <main>:
  4033c4:	a9bf7bfd 	stp	x29, x30, [sp, #-16]!
  4033c8:	910003fd 	mov	x29, sp
  4033cc:	97fff530 	bl	40088c <init>
  4033d0:	97fff48d 	bl	400604 <interface>
  4033d4:	97fffc56 	bl	40252c <FH_DU>
  4033d8:	52800000 	mov	w0, #0x0                   	// #0
  4033dc:	a8c17bfd 	ldp	x29, x30, [sp], #16
  4033e0:	d65f03c0 	ret

Disassembly of section .fini:

00000000004033e4 <_fini>:
  4033e4:	d503201f 	nop
  4033e8:	a9bf7bfd 	stp	x29, x30, [sp, #-16]!
  4033ec:	910003fd 	mov	x29, sp
  4033f0:	a8c17bfd 	ldp	x29, x30, [sp], #16
  4033f4:	d65f03c0 	ret
