
statemate：     文件格式 elf64-littleaarch64


Disassembly of section .interp:

0000000000400238 <.interp>:
  400238:	62696c2f 	.inst	0x62696c2f ; undefined
  40023c:	2d646c2f 	ldp	s15, s27, [x1, #-224]
  400240:	756e696c 	.inst	0x756e696c ; undefined
  400244:	61612d78 	.inst	0x61612d78 ; undefined
  400248:	36686372 	tbz	w18, #13, 400eb4 <generic_KINDERSICHERUNG_CTRL+0x53c>
  40024c:	6f732e34 	.inst	0x6f732e34 ; undefined
  400250:	地址 0x0000000000400250 越界。


Disassembly of section .note.gnu.build-id:

0000000000400254 <.note.gnu.build-id>:
  400254:	00000004 	udf	#4
  400258:	00000014 	udf	#20
  40025c:	00000003 	udf	#3
  400260:	00554e47 	.inst	0x00554e47 ; undefined
  400264:	4cd0b53b 	.inst	0x4cd0b53b ; undefined
  400268:	60b55ccb 	.inst	0x60b55ccb ; undefined
  40026c:	ad106ea8 	stp	q8, q27, [x21, #512]
  400270:	c566d3fb 	ld1w	{z27.d}, p4/z, [sp, z6.d, lsl #2]
  400274:	cf1eca11 	.inst	0xcf1eca11 ; undefined

Disassembly of section .note.ABI-tag:

0000000000400278 <__abi_tag>:
  400278:	00000004 	udf	#4
  40027c:	00000010 	udf	#16
  400280:	00000001 	udf	#1
  400284:	00554e47 	.inst	0x00554e47 ; undefined
  400288:	00000000 	udf	#0
  40028c:	00000003 	udf	#3
  400290:	00000007 	udf	#7
  400294:	00000000 	udf	#0

Disassembly of section .gnu.hash:

0000000000400298 <.gnu.hash>:
  400298:	00000001 	udf	#1
  40029c:	00000001 	udf	#1
  4002a0:	00000001 	udf	#1
	...

Disassembly of section .dynsym:

00000000004002b8 <.dynsym>:
	...
  4002d0:	00000001 	udf	#1
  4002d4:	00000012 	udf	#18
	...
  4002e8:	00000039 	udf	#57
  4002ec:	00000020 	udf	#32
	...
  400300:	00000055 	udf	#85
  400304:	00000020 	udf	#32
	...
  400318:	00000013 	udf	#19
  40031c:	00000012 	udf	#18
	...
  400330:	00000064 	udf	#100
  400334:	00000020 	udf	#32
	...

Disassembly of section .dynstr:

0000000000400348 <.dynstr>:
  400348:	6c5f5f00 	ldnp	d0, d23, [x24, #496]
  40034c:	5f636269 	.inst	0x5f636269 ; undefined
  400350:	72617473 	.inst	0x72617473 ; undefined
  400354:	616d5f74 	.inst	0x616d5f74 ; undefined
  400358:	61006e69 	.inst	0x61006e69 ; undefined
  40035c:	74726f62 	.inst	0x74726f62 ; undefined
  400360:	62696c00 	.inst	0x62696c00 ; undefined
  400364:	6f732e63 	.inst	0x6f732e63 ; undefined
  400368:	4700362e 	.inst	0x4700362e ; undefined
  40036c:	4342494c 	.inst	0x4342494c ; undefined
  400370:	312e325f 	cmn	w18, #0xb8c
  400374:	4c470037 	.inst	0x4c470037 ; undefined
  400378:	5f434249 	.inst	0x5f434249 ; undefined
  40037c:	34332e32 	cbz	w18, 466940 <__bss_end__+0x467e8>
  400380:	54495f00 	b.eq	492f60 <__bss_end__+0x72e08>  // b.none
  400384:	65645f4d 	fnmla	z13.h, p7/m, z26.h, z4.h
  400388:	69676572 	ldpsw	x18, x25, [x11, #-200]
  40038c:	72657473 	.inst	0x72657473 ; undefined
  400390:	6c434d54 	ldnp	d20, d19, [x10, #48]
  400394:	54656e6f 	b.nv	4cb160 <__bss_end__+0xab008>
  400398:	656c6261 	fnmls	z1.h, p0/m, z19.h, z12.h
  40039c:	675f5f00 	.inst	0x675f5f00 ; undefined
  4003a0:	5f6e6f6d 	.inst	0x5f6e6f6d ; undefined
  4003a4:	72617473 	.inst	0x72617473 ; undefined
  4003a8:	005f5f74 	.inst	0x005f5f74 ; undefined
  4003ac:	4d54495f 	.inst	0x4d54495f ; undefined
  4003b0:	6765725f 	.inst	0x6765725f ; undefined
  4003b4:	65747369 	fnmls	z9.h, p4/m, z27.h, z20.h
  4003b8:	434d5472 	.inst	0x434d5472 ; undefined
  4003bc:	656e6f6c 	fnmls	z12.h, p3/m, z27.h, z14.h
  4003c0:	6c626154 	ldnp	d20, d24, [x10, #-480]
  4003c4:	地址 0x00000000004003c4 越界。


Disassembly of section .gnu.version:

00000000004003c6 <.gnu.version>:
  4003c6:	00020000 	.inst	0x00020000 ; undefined
  4003ca:	00010001 	.inst	0x00010001 ; undefined
  4003ce:	00010003 	.inst	0x00010003 ; undefined

Disassembly of section .gnu.version_r:

00000000004003d8 <.gnu.version_r>:
  4003d8:	00020001 	.inst	0x00020001 ; undefined
  4003dc:	00000019 	udf	#25
  4003e0:	00000010 	udf	#16
  4003e4:	00000000 	udf	#0
  4003e8:	06969197 	.inst	0x06969197 ; undefined
  4003ec:	00030000 	.inst	0x00030000 ; undefined
  4003f0:	00000023 	udf	#35
  4003f4:	00000010 	udf	#16
  4003f8:	069691b4 	.inst	0x069691b4 ; undefined
  4003fc:	00020000 	.inst	0x00020000 ; undefined
  400400:	0000002e 	udf	#46
  400404:	00000000 	udf	#0

Disassembly of section .rela.dyn:

0000000000400408 <.rela.dyn>:
  400408:	0041ffd0 	.inst	0x0041ffd0 ; undefined
  40040c:	00000000 	udf	#0
  400410:	00000401 	udf	#1025
  400414:	00000002 	udf	#2
	...
  400420:	0041ffd8 	.inst	0x0041ffd8 ; undefined
  400424:	00000000 	udf	#0
  400428:	00000401 	udf	#1025
  40042c:	00000003 	udf	#3
	...
  400438:	0041ffe0 	.inst	0x0041ffe0 ; undefined
  40043c:	00000000 	udf	#0
  400440:	00000401 	udf	#1025
  400444:	00000005 	udf	#5
	...

Disassembly of section .rela.plt:

0000000000400450 <.rela.plt>:
  400450:	00420000 	.inst	0x00420000 ; undefined
  400454:	00000000 	udf	#0
  400458:	00000402 	udf	#1026
  40045c:	00000001 	udf	#1
	...
  400468:	00420008 	.inst	0x00420008 ; undefined
  40046c:	00000000 	udf	#0
  400470:	00000402 	udf	#1026
  400474:	00000003 	udf	#3
	...
  400480:	00420010 	.inst	0x00420010 ; undefined
  400484:	00000000 	udf	#0
  400488:	00000402 	udf	#1026
  40048c:	00000004 	udf	#4
	...

Disassembly of section .init:

0000000000400498 <_init>:
  400498:	d503201f 	nop
  40049c:	a9bf7bfd 	stp	x29, x30, [sp, #-16]!
  4004a0:	910003fd 	mov	x29, sp
  4004a4:	94000028 	bl	400544 <call_weak_fn>
  4004a8:	a8c17bfd 	ldp	x29, x30, [sp], #16
  4004ac:	d65f03c0 	ret

Disassembly of section .plt:

00000000004004b0 <.plt>:
  4004b0:	a9bf7bf0 	stp	x16, x30, [sp, #-16]!
  4004b4:	f00000f0 	adrp	x16, 41f000 <__FRAME_END__+0x1ba20>
  4004b8:	f947fe11 	ldr	x17, [x16, #4088]
  4004bc:	913fe210 	add	x16, x16, #0xff8
  4004c0:	d61f0220 	br	x17
  4004c4:	d503201f 	nop
  4004c8:	d503201f 	nop
  4004cc:	d503201f 	nop

00000000004004d0 <__libc_start_main@plt>:
  4004d0:	90000110 	adrp	x16, 420000 <__libc_start_main@GLIBC_2.34>
  4004d4:	f9400211 	ldr	x17, [x16]
  4004d8:	91000210 	add	x16, x16, #0x0
  4004dc:	d61f0220 	br	x17

00000000004004e0 <__gmon_start__@plt>:
  4004e0:	90000110 	adrp	x16, 420000 <__libc_start_main@GLIBC_2.34>
  4004e4:	f9400611 	ldr	x17, [x16, #8]
  4004e8:	91002210 	add	x16, x16, #0x8
  4004ec:	d61f0220 	br	x17

00000000004004f0 <abort@plt>:
  4004f0:	90000110 	adrp	x16, 420000 <__libc_start_main@GLIBC_2.34>
  4004f4:	f9400a11 	ldr	x17, [x16, #16]
  4004f8:	91004210 	add	x16, x16, #0x10
  4004fc:	d61f0220 	br	x17

Disassembly of section .text:

0000000000400500 <_start>:
  400500:	d503201f 	nop
  400504:	d280001d 	mov	x29, #0x0                   	// #0
  400508:	d280001e 	mov	x30, #0x0                   	// #0
  40050c:	aa0003e5 	mov	x5, x0
  400510:	f94003e1 	ldr	x1, [sp]
  400514:	910023e2 	add	x2, sp, #0x8
  400518:	910003e6 	mov	x6, sp
  40051c:	90000000 	adrp	x0, 400000 <__abi_tag-0x278>
  400520:	9114d000 	add	x0, x0, #0x534
  400524:	d2800003 	mov	x3, #0x0                   	// #0
  400528:	d2800004 	mov	x4, #0x0                   	// #0
  40052c:	97ffffe9 	bl	4004d0 <__libc_start_main@plt>
  400530:	97fffff0 	bl	4004f0 <abort@plt>

0000000000400534 <__wrap_main>:
  400534:	d503201f 	nop
  400538:	14000ba3 	b	4033c4 <main>
  40053c:	d503201f 	nop

0000000000400540 <_dl_relocate_static_pie>:
  400540:	d65f03c0 	ret

0000000000400544 <call_weak_fn>:
  400544:	f00000e0 	adrp	x0, 41f000 <__FRAME_END__+0x1ba20>
  400548:	f947ec00 	ldr	x0, [x0, #4056]
  40054c:	b4000040 	cbz	x0, 400554 <call_weak_fn+0x10>
  400550:	17ffffe4 	b	4004e0 <__gmon_start__@plt>
  400554:	d65f03c0 	ret
  400558:	d503201f 	nop
  40055c:	d503201f 	nop

0000000000400560 <deregister_tm_clones>:
  400560:	90000100 	adrp	x0, 420000 <__libc_start_main@GLIBC_2.34>
  400564:	9100a000 	add	x0, x0, #0x28
  400568:	90000101 	adrp	x1, 420000 <__libc_start_main@GLIBC_2.34>
  40056c:	9100a021 	add	x1, x1, #0x28
  400570:	eb00003f 	cmp	x1, x0
  400574:	540000c0 	b.eq	40058c <deregister_tm_clones+0x2c>  // b.none
  400578:	f00000e1 	adrp	x1, 41f000 <__FRAME_END__+0x1ba20>
  40057c:	f947e821 	ldr	x1, [x1, #4048]
  400580:	b4000061 	cbz	x1, 40058c <deregister_tm_clones+0x2c>
  400584:	aa0103f0 	mov	x16, x1
  400588:	d61f0200 	br	x16
  40058c:	d65f03c0 	ret

0000000000400590 <register_tm_clones>:
  400590:	90000100 	adrp	x0, 420000 <__libc_start_main@GLIBC_2.34>
  400594:	9100a000 	add	x0, x0, #0x28
  400598:	90000101 	adrp	x1, 420000 <__libc_start_main@GLIBC_2.34>
  40059c:	9100a021 	add	x1, x1, #0x28
  4005a0:	cb000021 	sub	x1, x1, x0
  4005a4:	d37ffc22 	lsr	x2, x1, #63
  4005a8:	8b810c41 	add	x1, x2, x1, asr #3
  4005ac:	9341fc21 	asr	x1, x1, #1
  4005b0:	b40000c1 	cbz	x1, 4005c8 <register_tm_clones+0x38>
  4005b4:	f00000e2 	adrp	x2, 41f000 <__FRAME_END__+0x1ba20>
  4005b8:	f947f042 	ldr	x2, [x2, #4064]
  4005bc:	b4000062 	cbz	x2, 4005c8 <register_tm_clones+0x38>
  4005c0:	aa0203f0 	mov	x16, x2
  4005c4:	d61f0200 	br	x16
  4005c8:	d65f03c0 	ret
  4005cc:	d503201f 	nop

00000000004005d0 <__do_global_dtors_aux>:
  4005d0:	a9be7bfd 	stp	x29, x30, [sp, #-32]!
  4005d4:	910003fd 	mov	x29, sp
  4005d8:	f9000bf3 	str	x19, [sp, #16]
  4005dc:	90000113 	adrp	x19, 420000 <__libc_start_main@GLIBC_2.34>
  4005e0:	3940a260 	ldrb	w0, [x19, #40]
  4005e4:	35000080 	cbnz	w0, 4005f4 <__do_global_dtors_aux+0x24>
  4005e8:	97ffffde 	bl	400560 <deregister_tm_clones>
  4005ec:	52800020 	mov	w0, #0x1                   	// #1
  4005f0:	3900a260 	strb	w0, [x19, #40]
  4005f4:	f9400bf3 	ldr	x19, [sp, #16]
  4005f8:	a8c27bfd 	ldp	x29, x30, [sp], #32
  4005fc:	d65f03c0 	ret

0000000000400600 <frame_dummy>:
  400600:	17ffffe4 	b	400590 <register_tm_clones>

0000000000400604 <interface>:
  400604:	90000100 	adrp	x0, 420000 <__libc_start_main@GLIBC_2.34>
  400608:	91046000 	add	x0, x0, #0x118
  40060c:	39401000 	ldrb	w0, [x0, #4]
  400610:	7100001f 	cmp	w0, #0x0
  400614:	540000e0 	b.eq	400630 <interface+0x2c>  // b.none
  400618:	90000100 	adrp	x0, 420000 <__libc_start_main@GLIBC_2.34>
  40061c:	9103e000 	add	x0, x0, #0xf8
  400620:	f9400001 	ldr	x1, [x0]
  400624:	90000100 	adrp	x0, 420000 <__libc_start_main@GLIBC_2.34>
  400628:	91010000 	add	x0, x0, #0x40
  40062c:	f9000001 	str	x1, [x0]
  400630:	90000100 	adrp	x0, 420000 <__libc_start_main@GLIBC_2.34>
  400634:	91046000 	add	x0, x0, #0x118
  400638:	39401000 	ldrb	w0, [x0, #4]
  40063c:	7100001f 	cmp	w0, #0x0
  400640:	540000c1 	b.ne	400658 <interface+0x54>  // b.any
  400644:	90000100 	adrp	x0, 420000 <__libc_start_main@GLIBC_2.34>
  400648:	91046000 	add	x0, x0, #0x118
  40064c:	39401800 	ldrb	w0, [x0, #6]
  400650:	7100001f 	cmp	w0, #0x0
  400654:	540000e0 	b.eq	400670 <interface+0x6c>  // b.none
  400658:	90000100 	adrp	x0, 420000 <__libc_start_main@GLIBC_2.34>
  40065c:	9103e000 	add	x0, x0, #0xf8
  400660:	f9400001 	ldr	x1, [x0]
  400664:	90000100 	adrp	x0, 420000 <__libc_start_main@GLIBC_2.34>
  400668:	9100e000 	add	x0, x0, #0x38
  40066c:	f9000001 	str	x1, [x0]
  400670:	90000100 	adrp	x0, 420000 <__libc_start_main@GLIBC_2.34>
  400674:	91012000 	add	x0, x0, #0x48
  400678:	f9400000 	ldr	x0, [x0]
  40067c:	f100001f 	cmp	x0, #0x0
  400680:	54000280 	b.eq	4006d0 <interface+0xcc>  // b.none
  400684:	90000100 	adrp	x0, 420000 <__libc_start_main@GLIBC_2.34>
  400688:	9103e000 	add	x0, x0, #0xf8
  40068c:	f9400001 	ldr	x1, [x0]
  400690:	90000100 	adrp	x0, 420000 <__libc_start_main@GLIBC_2.34>
  400694:	91012000 	add	x0, x0, #0x48
  400698:	f9400000 	ldr	x0, [x0]
  40069c:	cb000020 	sub	x0, x1, x0
  4006a0:	9e670000 	fmov	d0, x0
  4006a4:	7e61d801 	ucvtf	d1, d0
  4006a8:	1e6c1000 	fmov	d0, #5.000000000000000000e-01
  4006ac:	1e602030 	fcmpe	d1, d0
  4006b0:	5400004a 	b.ge	4006b8 <interface+0xb4>  // b.tcont
  4006b4:	14000007 	b	4006d0 <interface+0xcc>
  4006b8:	90000100 	adrp	x0, 420000 <__libc_start_main@GLIBC_2.34>
  4006bc:	91034000 	add	x0, x0, #0xd0
  4006c0:	3900001f 	strb	wzr, [x0]
  4006c4:	90000100 	adrp	x0, 420000 <__libc_start_main@GLIBC_2.34>
  4006c8:	91012000 	add	x0, x0, #0x48
  4006cc:	f900001f 	str	xzr, [x0]
  4006d0:	90000100 	adrp	x0, 420000 <__libc_start_main@GLIBC_2.34>
  4006d4:	91014000 	add	x0, x0, #0x50
  4006d8:	f9400000 	ldr	x0, [x0]
  4006dc:	f100001f 	cmp	x0, #0x0
  4006e0:	54000280 	b.eq	400730 <interface+0x12c>  // b.none
  4006e4:	90000100 	adrp	x0, 420000 <__libc_start_main@GLIBC_2.34>
  4006e8:	9103e000 	add	x0, x0, #0xf8
  4006ec:	f9400001 	ldr	x1, [x0]
  4006f0:	90000100 	adrp	x0, 420000 <__libc_start_main@GLIBC_2.34>
  4006f4:	91014000 	add	x0, x0, #0x50
  4006f8:	f9400000 	ldr	x0, [x0]
  4006fc:	cb000020 	sub	x0, x1, x0
  400700:	9e670000 	fmov	d0, x0
  400704:	7e61d801 	ucvtf	d1, d0
  400708:	1e6c1000 	fmov	d0, #5.000000000000000000e-01
  40070c:	1e602030 	fcmpe	d1, d0
  400710:	5400004a 	b.ge	400718 <interface+0x114>  // b.tcont
  400714:	14000007 	b	400730 <interface+0x12c>
  400718:	90000100 	adrp	x0, 420000 <__libc_start_main@GLIBC_2.34>
  40071c:	91033400 	add	x0, x0, #0xcd
  400720:	3900001f 	strb	wzr, [x0]
  400724:	90000100 	adrp	x0, 420000 <__libc_start_main@GLIBC_2.34>
  400728:	91014000 	add	x0, x0, #0x50
  40072c:	f900001f 	str	xzr, [x0]
  400730:	90000100 	adrp	x0, 420000 <__libc_start_main@GLIBC_2.34>
  400734:	91016000 	add	x0, x0, #0x58
  400738:	f9400000 	ldr	x0, [x0]
  40073c:	f100001f 	cmp	x0, #0x0
  400740:	54000280 	b.eq	400790 <interface+0x18c>  // b.none
  400744:	90000100 	adrp	x0, 420000 <__libc_start_main@GLIBC_2.34>
  400748:	9103e000 	add	x0, x0, #0xf8
  40074c:	f9400001 	ldr	x1, [x0]
  400750:	90000100 	adrp	x0, 420000 <__libc_start_main@GLIBC_2.34>
  400754:	91016000 	add	x0, x0, #0x58
  400758:	f9400000 	ldr	x0, [x0]
  40075c:	cb000020 	sub	x0, x1, x0
  400760:	9e670000 	fmov	d0, x0
  400764:	7e61d801 	ucvtf	d1, d0
  400768:	1e6c1000 	fmov	d0, #5.000000000000000000e-01
  40076c:	1e602030 	fcmpe	d1, d0
  400770:	5400004a 	b.ge	400778 <interface+0x174>  // b.tcont
  400774:	14000007 	b	400790 <interface+0x18c>
  400778:	90000100 	adrp	x0, 420000 <__libc_start_main@GLIBC_2.34>
  40077c:	91033400 	add	x0, x0, #0xcd
  400780:	3900001f 	strb	wzr, [x0]
  400784:	90000100 	adrp	x0, 420000 <__libc_start_main@GLIBC_2.34>
  400788:	91016000 	add	x0, x0, #0x58
  40078c:	f900001f 	str	xzr, [x0]
  400790:	90000100 	adrp	x0, 420000 <__libc_start_main@GLIBC_2.34>
  400794:	9101c000 	add	x0, x0, #0x70
  400798:	f9400000 	ldr	x0, [x0]
  40079c:	f100001f 	cmp	x0, #0x0
  4007a0:	54000220 	b.eq	4007e4 <interface+0x1e0>  // b.none
  4007a4:	90000100 	adrp	x0, 420000 <__libc_start_main@GLIBC_2.34>
  4007a8:	9103e000 	add	x0, x0, #0xf8
  4007ac:	f9400001 	ldr	x1, [x0]
  4007b0:	90000100 	adrp	x0, 420000 <__libc_start_main@GLIBC_2.34>
  4007b4:	9101c000 	add	x0, x0, #0x70
  4007b8:	f9400000 	ldr	x0, [x0]
  4007bc:	cb000020 	sub	x0, x1, x0
  4007c0:	9e670000 	fmov	d0, x0
  4007c4:	7e61d801 	ucvtf	d1, d0
  4007c8:	1e6c1000 	fmov	d0, #5.000000000000000000e-01
  4007cc:	1e602030 	fcmpe	d1, d0
  4007d0:	5400004a 	b.ge	4007d8 <interface+0x1d4>  // b.tcont
  4007d4:	14000004 	b	4007e4 <interface+0x1e0>
  4007d8:	90000100 	adrp	x0, 420000 <__libc_start_main@GLIBC_2.34>
  4007dc:	9101c000 	add	x0, x0, #0x70
  4007e0:	f900001f 	str	xzr, [x0]
  4007e4:	90000100 	adrp	x0, 420000 <__libc_start_main@GLIBC_2.34>
  4007e8:	9101e000 	add	x0, x0, #0x78
  4007ec:	f9400000 	ldr	x0, [x0]
  4007f0:	f100001f 	cmp	x0, #0x0
  4007f4:	54000220 	b.eq	400838 <interface+0x234>  // b.none
  4007f8:	90000100 	adrp	x0, 420000 <__libc_start_main@GLIBC_2.34>
  4007fc:	9103e000 	add	x0, x0, #0xf8
  400800:	f9400001 	ldr	x1, [x0]
  400804:	90000100 	adrp	x0, 420000 <__libc_start_main@GLIBC_2.34>
  400808:	9101e000 	add	x0, x0, #0x78
  40080c:	f9400000 	ldr	x0, [x0]
  400810:	cb000020 	sub	x0, x1, x0
  400814:	9e670000 	fmov	d0, x0
  400818:	7e61d801 	ucvtf	d1, d0
  40081c:	1e6c1000 	fmov	d0, #5.000000000000000000e-01
  400820:	1e602030 	fcmpe	d1, d0
  400824:	5400004a 	b.ge	40082c <interface+0x228>  // b.tcont
  400828:	14000004 	b	400838 <interface+0x234>
  40082c:	90000100 	adrp	x0, 420000 <__libc_start_main@GLIBC_2.34>
  400830:	9101e000 	add	x0, x0, #0x78
  400834:	f900001f 	str	xzr, [x0]
  400838:	90000100 	adrp	x0, 420000 <__libc_start_main@GLIBC_2.34>
  40083c:	91046000 	add	x0, x0, #0x118
  400840:	39400000 	ldrb	w0, [x0]
  400844:	7100001f 	cmp	w0, #0x0
  400848:	54000121 	b.ne	40086c <interface+0x268>  // b.any
  40084c:	90000100 	adrp	x0, 420000 <__libc_start_main@GLIBC_2.34>
  400850:	9102a000 	add	x0, x0, #0xa8
  400854:	b9400001 	ldr	w1, [x0]
  400858:	90000100 	adrp	x0, 420000 <__libc_start_main@GLIBC_2.34>
  40085c:	9102c000 	add	x0, x0, #0xb0
  400860:	b9400000 	ldr	w0, [x0]
  400864:	6b00003f 	cmp	w1, w0
  400868:	540000e0 	b.eq	400884 <interface+0x280>  // b.none
  40086c:	90000100 	adrp	x0, 420000 <__libc_start_main@GLIBC_2.34>
  400870:	9103e000 	add	x0, x0, #0xf8
  400874:	f9400001 	ldr	x1, [x0]
  400878:	90000100 	adrp	x0, 420000 <__libc_start_main@GLIBC_2.34>
  40087c:	9100c000 	add	x0, x0, #0x30
  400880:	f9000001 	str	x1, [x0]
  400884:	d503201f 	nop
  400888:	d65f03c0 	ret

000000000040088c <init>:
  40088c:	90000100 	adrp	x0, 420000 <__libc_start_main@GLIBC_2.34>
  400890:	9100c000 	add	x0, x0, #0x30
  400894:	f900001f 	str	xzr, [x0]
  400898:	90000100 	adrp	x0, 420000 <__libc_start_main@GLIBC_2.34>
  40089c:	9100e000 	add	x0, x0, #0x38
  4008a0:	f900001f 	str	xzr, [x0]
  4008a4:	90000100 	adrp	x0, 420000 <__libc_start_main@GLIBC_2.34>
  4008a8:	91010000 	add	x0, x0, #0x40
  4008ac:	f900001f 	str	xzr, [x0]
  4008b0:	90000100 	adrp	x0, 420000 <__libc_start_main@GLIBC_2.34>
  4008b4:	91040800 	add	x0, x0, #0x102
  4008b8:	3900001f 	strb	wzr, [x0]
  4008bc:	90000100 	adrp	x0, 420000 <__libc_start_main@GLIBC_2.34>
  4008c0:	91040c00 	add	x0, x0, #0x103
  4008c4:	3900001f 	strb	wzr, [x0]
  4008c8:	90000100 	adrp	x0, 420000 <__libc_start_main@GLIBC_2.34>
  4008cc:	91041000 	add	x0, x0, #0x104
  4008d0:	3900001f 	strb	wzr, [x0]
  4008d4:	90000100 	adrp	x0, 420000 <__libc_start_main@GLIBC_2.34>
  4008d8:	91041400 	add	x0, x0, #0x105
  4008dc:	3900001f 	strb	wzr, [x0]
  4008e0:	90000100 	adrp	x0, 420000 <__libc_start_main@GLIBC_2.34>
  4008e4:	91041800 	add	x0, x0, #0x106
  4008e8:	3900001f 	strb	wzr, [x0]
  4008ec:	90000100 	adrp	x0, 420000 <__libc_start_main@GLIBC_2.34>
  4008f0:	91041c00 	add	x0, x0, #0x107
  4008f4:	3900001f 	strb	wzr, [x0]
  4008f8:	90000100 	adrp	x0, 420000 <__libc_start_main@GLIBC_2.34>
  4008fc:	91042000 	add	x0, x0, #0x108
  400900:	3900001f 	strb	wzr, [x0]
  400904:	90000100 	adrp	x0, 420000 <__libc_start_main@GLIBC_2.34>
  400908:	91042400 	add	x0, x0, #0x109
  40090c:	3900001f 	strb	wzr, [x0]
  400910:	90000100 	adrp	x0, 420000 <__libc_start_main@GLIBC_2.34>
  400914:	91042800 	add	x0, x0, #0x10a
  400918:	3900001f 	strb	wzr, [x0]
  40091c:	90000100 	adrp	x0, 420000 <__libc_start_main@GLIBC_2.34>
  400920:	91042c00 	add	x0, x0, #0x10b
  400924:	3900001f 	strb	wzr, [x0]
  400928:	90000100 	adrp	x0, 420000 <__libc_start_main@GLIBC_2.34>
  40092c:	91043000 	add	x0, x0, #0x10c
  400930:	3900001f 	strb	wzr, [x0]
  400934:	90000100 	adrp	x0, 420000 <__libc_start_main@GLIBC_2.34>
  400938:	91043400 	add	x0, x0, #0x10d
  40093c:	3900001f 	strb	wzr, [x0]
  400940:	90000100 	adrp	x0, 420000 <__libc_start_main@GLIBC_2.34>
  400944:	91043800 	add	x0, x0, #0x10e
  400948:	3900001f 	strb	wzr, [x0]
  40094c:	90000100 	adrp	x0, 420000 <__libc_start_main@GLIBC_2.34>
  400950:	91043c00 	add	x0, x0, #0x10f
  400954:	3900001f 	strb	wzr, [x0]
  400958:	90000100 	adrp	x0, 420000 <__libc_start_main@GLIBC_2.34>
  40095c:	91044000 	add	x0, x0, #0x110
  400960:	3900001f 	strb	wzr, [x0]
  400964:	90000100 	adrp	x0, 420000 <__libc_start_main@GLIBC_2.34>
  400968:	91044400 	add	x0, x0, #0x111
  40096c:	3900001f 	strb	wzr, [x0]
  400970:	d503201f 	nop
  400974:	d65f03c0 	ret

0000000000400978 <generic_KINDERSICHERUNG_CTRL>:
  400978:	90000100 	adrp	x0, 420000 <__libc_start_main@GLIBC_2.34>
  40097c:	91046000 	add	x0, x0, #0x118
  400980:	39402800 	ldrb	w0, [x0, #10]
  400984:	7100001f 	cmp	w0, #0x0
  400988:	54003640 	b.eq	401050 <generic_KINDERSICHERUNG_CTRL+0x6d8>  // b.none
  40098c:	90000100 	adrp	x0, 420000 <__libc_start_main@GLIBC_2.34>
  400990:	91041400 	add	x0, x0, #0x105
  400994:	39400000 	ldrb	w0, [x0]
  400998:	71000c1f 	cmp	w0, #0x3
  40099c:	54002000 	b.eq	400d9c <generic_KINDERSICHERUNG_CTRL+0x424>  // b.none
  4009a0:	71000c1f 	cmp	w0, #0x3
  4009a4:	5400346c 	b.gt	401030 <generic_KINDERSICHERUNG_CTRL+0x6b8>
  4009a8:	7100041f 	cmp	w0, #0x1
  4009ac:	54000080 	b.eq	4009bc <generic_KINDERSICHERUNG_CTRL+0x44>  // b.none
  4009b0:	7100081f 	cmp	w0, #0x2
  4009b4:	54000fc0 	b.eq	400bac <generic_KINDERSICHERUNG_CTRL+0x234>  // b.none
  4009b8:	1400019e 	b	401030 <generic_KINDERSICHERUNG_CTRL+0x6b8>
  4009bc:	90000100 	adrp	x0, 420000 <__libc_start_main@GLIBC_2.34>
  4009c0:	9102f400 	add	x0, x0, #0xbd
  4009c4:	39400000 	ldrb	w0, [x0]
  4009c8:	7100001f 	cmp	w0, #0x0
  4009cc:	540002e1 	b.ne	400a28 <generic_KINDERSICHERUNG_CTRL+0xb0>  // b.any
  4009d0:	90000100 	adrp	x0, 420000 <__libc_start_main@GLIBC_2.34>
  4009d4:	9102e400 	add	x0, x0, #0xb9
  4009d8:	39400000 	ldrb	w0, [x0]
  4009dc:	7100001f 	cmp	w0, #0x0
  4009e0:	54000241 	b.ne	400a28 <generic_KINDERSICHERUNG_CTRL+0xb0>  // b.any
  4009e4:	90000100 	adrp	x0, 420000 <__libc_start_main@GLIBC_2.34>
  4009e8:	91040000 	add	x0, x0, #0x100
  4009ec:	3900001f 	strb	wzr, [x0]
  4009f0:	90000100 	adrp	x0, 420000 <__libc_start_main@GLIBC_2.34>
  4009f4:	91031c00 	add	x0, x0, #0xc7
  4009f8:	3900001f 	strb	wzr, [x0]
  4009fc:	90000100 	adrp	x0, 420000 <__libc_start_main@GLIBC_2.34>
  400a00:	91032800 	add	x0, x0, #0xca
  400a04:	3900001f 	strb	wzr, [x0]
  400a08:	90000100 	adrp	x0, 420000 <__libc_start_main@GLIBC_2.34>
  400a0c:	91041400 	add	x0, x0, #0x105
  400a10:	52800061 	mov	w1, #0x3                   	// #3
  400a14:	39000001 	strb	w1, [x0]
  400a18:	90000100 	adrp	x0, 420000 <__libc_start_main@GLIBC_2.34>
  400a1c:	91040c00 	add	x0, x0, #0x103
  400a20:	3900001f 	strb	wzr, [x0]
  400a24:	1400018e 	b	40105c <generic_KINDERSICHERUNG_CTRL+0x6e4>
  400a28:	90000100 	adrp	x0, 420000 <__libc_start_main@GLIBC_2.34>
  400a2c:	91040c00 	add	x0, x0, #0x103
  400a30:	39400000 	ldrb	w0, [x0]
  400a34:	7100041f 	cmp	w0, #0x1
  400a38:	54000ae1 	b.ne	400b94 <generic_KINDERSICHERUNG_CTRL+0x21c>  // b.any
  400a3c:	90000100 	adrp	x0, 420000 <__libc_start_main@GLIBC_2.34>
  400a40:	9102f400 	add	x0, x0, #0xbd
  400a44:	39400000 	ldrb	w0, [x0]
  400a48:	7100001f 	cmp	w0, #0x0
  400a4c:	54000240 	b.eq	400a94 <generic_KINDERSICHERUNG_CTRL+0x11c>  // b.none
  400a50:	90000100 	adrp	x0, 420000 <__libc_start_main@GLIBC_2.34>
  400a54:	9102f800 	add	x0, x0, #0xbe
  400a58:	39400000 	ldrb	w0, [x0]
  400a5c:	7100001f 	cmp	w0, #0x0
  400a60:	540001a1 	b.ne	400a94 <generic_KINDERSICHERUNG_CTRL+0x11c>  // b.any
  400a64:	90000100 	adrp	x0, 420000 <__libc_start_main@GLIBC_2.34>
  400a68:	91040000 	add	x0, x0, #0x100
  400a6c:	3900001f 	strb	wzr, [x0]
  400a70:	90000100 	adrp	x0, 420000 <__libc_start_main@GLIBC_2.34>
  400a74:	91032800 	add	x0, x0, #0xca
  400a78:	52800021 	mov	w1, #0x1                   	// #1
  400a7c:	39000001 	strb	w1, [x0]
  400a80:	90000100 	adrp	x0, 420000 <__libc_start_main@GLIBC_2.34>
  400a84:	91040c00 	add	x0, x0, #0x103
  400a88:	52800021 	mov	w1, #0x1                   	// #1
  400a8c:	39000001 	strb	w1, [x0]
  400a90:	14000046 	b	400ba8 <generic_KINDERSICHERUNG_CTRL+0x230>
  400a94:	90000100 	adrp	x0, 420000 <__libc_start_main@GLIBC_2.34>
  400a98:	9102e400 	add	x0, x0, #0xb9
  400a9c:	39400000 	ldrb	w0, [x0]
  400aa0:	7100001f 	cmp	w0, #0x0
  400aa4:	54000240 	b.eq	400aec <generic_KINDERSICHERUNG_CTRL+0x174>  // b.none
  400aa8:	90000100 	adrp	x0, 420000 <__libc_start_main@GLIBC_2.34>
  400aac:	9102e800 	add	x0, x0, #0xba
  400ab0:	39400000 	ldrb	w0, [x0]
  400ab4:	7100001f 	cmp	w0, #0x0
  400ab8:	540001a1 	b.ne	400aec <generic_KINDERSICHERUNG_CTRL+0x174>  // b.any
  400abc:	90000100 	adrp	x0, 420000 <__libc_start_main@GLIBC_2.34>
  400ac0:	91040000 	add	x0, x0, #0x100
  400ac4:	3900001f 	strb	wzr, [x0]
  400ac8:	90000100 	adrp	x0, 420000 <__libc_start_main@GLIBC_2.34>
  400acc:	91031c00 	add	x0, x0, #0xc7
  400ad0:	52800021 	mov	w1, #0x1                   	// #1
  400ad4:	39000001 	strb	w1, [x0]
  400ad8:	90000100 	adrp	x0, 420000 <__libc_start_main@GLIBC_2.34>
  400adc:	91040c00 	add	x0, x0, #0x103
  400ae0:	52800021 	mov	w1, #0x1                   	// #1
  400ae4:	39000001 	strb	w1, [x0]
  400ae8:	14000030 	b	400ba8 <generic_KINDERSICHERUNG_CTRL+0x230>
  400aec:	90000100 	adrp	x0, 420000 <__libc_start_main@GLIBC_2.34>
  400af0:	9102f400 	add	x0, x0, #0xbd
  400af4:	39400000 	ldrb	w0, [x0]
  400af8:	7100001f 	cmp	w0, #0x0
  400afc:	54000221 	b.ne	400b40 <generic_KINDERSICHERUNG_CTRL+0x1c8>  // b.any
  400b00:	90000100 	adrp	x0, 420000 <__libc_start_main@GLIBC_2.34>
  400b04:	9102f800 	add	x0, x0, #0xbe
  400b08:	39400000 	ldrb	w0, [x0]
  400b0c:	7100001f 	cmp	w0, #0x0
  400b10:	54000180 	b.eq	400b40 <generic_KINDERSICHERUNG_CTRL+0x1c8>  // b.none
  400b14:	90000100 	adrp	x0, 420000 <__libc_start_main@GLIBC_2.34>
  400b18:	91040000 	add	x0, x0, #0x100
  400b1c:	3900001f 	strb	wzr, [x0]
  400b20:	90000100 	adrp	x0, 420000 <__libc_start_main@GLIBC_2.34>
  400b24:	91032800 	add	x0, x0, #0xca
  400b28:	3900001f 	strb	wzr, [x0]
  400b2c:	90000100 	adrp	x0, 420000 <__libc_start_main@GLIBC_2.34>
  400b30:	91040c00 	add	x0, x0, #0x103
  400b34:	52800021 	mov	w1, #0x1                   	// #1
  400b38:	39000001 	strb	w1, [x0]
  400b3c:	1400001b 	b	400ba8 <generic_KINDERSICHERUNG_CTRL+0x230>
  400b40:	90000100 	adrp	x0, 420000 <__libc_start_main@GLIBC_2.34>
  400b44:	9102e400 	add	x0, x0, #0xb9
  400b48:	39400000 	ldrb	w0, [x0]
  400b4c:	7100001f 	cmp	w0, #0x0
  400b50:	540002a1 	b.ne	400ba4 <generic_KINDERSICHERUNG_CTRL+0x22c>  // b.any
  400b54:	90000100 	adrp	x0, 420000 <__libc_start_main@GLIBC_2.34>
  400b58:	9102e800 	add	x0, x0, #0xba
  400b5c:	39400000 	ldrb	w0, [x0]
  400b60:	7100001f 	cmp	w0, #0x0
  400b64:	54000200 	b.eq	400ba4 <generic_KINDERSICHERUNG_CTRL+0x22c>  // b.none
  400b68:	90000100 	adrp	x0, 420000 <__libc_start_main@GLIBC_2.34>
  400b6c:	91040000 	add	x0, x0, #0x100
  400b70:	3900001f 	strb	wzr, [x0]
  400b74:	90000100 	adrp	x0, 420000 <__libc_start_main@GLIBC_2.34>
  400b78:	91031c00 	add	x0, x0, #0xc7
  400b7c:	3900001f 	strb	wzr, [x0]
  400b80:	90000100 	adrp	x0, 420000 <__libc_start_main@GLIBC_2.34>
  400b84:	91040c00 	add	x0, x0, #0x103
  400b88:	52800021 	mov	w1, #0x1                   	// #1
  400b8c:	39000001 	strb	w1, [x0]
  400b90:	14000006 	b	400ba8 <generic_KINDERSICHERUNG_CTRL+0x230>
  400b94:	90000100 	adrp	x0, 420000 <__libc_start_main@GLIBC_2.34>
  400b98:	91040000 	add	x0, x0, #0x100
  400b9c:	3900001f 	strb	wzr, [x0]
  400ba0:	14000002 	b	400ba8 <generic_KINDERSICHERUNG_CTRL+0x230>
  400ba4:	d503201f 	nop
  400ba8:	1400012d 	b	40105c <generic_KINDERSICHERUNG_CTRL+0x6e4>
  400bac:	90000100 	adrp	x0, 420000 <__libc_start_main@GLIBC_2.34>
  400bb0:	9102fc00 	add	x0, x0, #0xbf
  400bb4:	39400000 	ldrb	w0, [x0]
  400bb8:	7100001f 	cmp	w0, #0x0
  400bbc:	540002e1 	b.ne	400c18 <generic_KINDERSICHERUNG_CTRL+0x2a0>  // b.any
  400bc0:	90000100 	adrp	x0, 420000 <__libc_start_main@GLIBC_2.34>
  400bc4:	9102ec00 	add	x0, x0, #0xbb
  400bc8:	39400000 	ldrb	w0, [x0]
  400bcc:	7100001f 	cmp	w0, #0x0
  400bd0:	54000241 	b.ne	400c18 <generic_KINDERSICHERUNG_CTRL+0x2a0>  // b.any
  400bd4:	90000100 	adrp	x0, 420000 <__libc_start_main@GLIBC_2.34>
  400bd8:	91040000 	add	x0, x0, #0x100
  400bdc:	3900001f 	strb	wzr, [x0]
  400be0:	90000100 	adrp	x0, 420000 <__libc_start_main@GLIBC_2.34>
  400be4:	91031c00 	add	x0, x0, #0xc7
  400be8:	3900001f 	strb	wzr, [x0]
  400bec:	90000100 	adrp	x0, 420000 <__libc_start_main@GLIBC_2.34>
  400bf0:	91032800 	add	x0, x0, #0xca
  400bf4:	3900001f 	strb	wzr, [x0]
  400bf8:	90000100 	adrp	x0, 420000 <__libc_start_main@GLIBC_2.34>
  400bfc:	91041400 	add	x0, x0, #0x105
  400c00:	52800061 	mov	w1, #0x3                   	// #3
  400c04:	39000001 	strb	w1, [x0]
  400c08:	90000100 	adrp	x0, 420000 <__libc_start_main@GLIBC_2.34>
  400c0c:	91041000 	add	x0, x0, #0x104
  400c10:	3900001f 	strb	wzr, [x0]
  400c14:	14000112 	b	40105c <generic_KINDERSICHERUNG_CTRL+0x6e4>
  400c18:	90000100 	adrp	x0, 420000 <__libc_start_main@GLIBC_2.34>
  400c1c:	91041000 	add	x0, x0, #0x104
  400c20:	39400000 	ldrb	w0, [x0]
  400c24:	7100041f 	cmp	w0, #0x1
  400c28:	54000ae1 	b.ne	400d84 <generic_KINDERSICHERUNG_CTRL+0x40c>  // b.any
  400c2c:	90000100 	adrp	x0, 420000 <__libc_start_main@GLIBC_2.34>
  400c30:	9102fc00 	add	x0, x0, #0xbf
  400c34:	39400000 	ldrb	w0, [x0]
  400c38:	7100001f 	cmp	w0, #0x0
  400c3c:	54000240 	b.eq	400c84 <generic_KINDERSICHERUNG_CTRL+0x30c>  // b.none
  400c40:	90000100 	adrp	x0, 420000 <__libc_start_main@GLIBC_2.34>
  400c44:	91030000 	add	x0, x0, #0xc0
  400c48:	39400000 	ldrb	w0, [x0]
  400c4c:	7100001f 	cmp	w0, #0x0
  400c50:	540001a1 	b.ne	400c84 <generic_KINDERSICHERUNG_CTRL+0x30c>  // b.any
  400c54:	90000100 	adrp	x0, 420000 <__libc_start_main@GLIBC_2.34>
  400c58:	91040000 	add	x0, x0, #0x100
  400c5c:	3900001f 	strb	wzr, [x0]
  400c60:	90000100 	adrp	x0, 420000 <__libc_start_main@GLIBC_2.34>
  400c64:	91032800 	add	x0, x0, #0xca
  400c68:	52800021 	mov	w1, #0x1                   	// #1
  400c6c:	39000001 	strb	w1, [x0]
  400c70:	90000100 	adrp	x0, 420000 <__libc_start_main@GLIBC_2.34>
  400c74:	91041000 	add	x0, x0, #0x104
  400c78:	52800021 	mov	w1, #0x1                   	// #1
  400c7c:	39000001 	strb	w1, [x0]
  400c80:	14000046 	b	400d98 <generic_KINDERSICHERUNG_CTRL+0x420>
  400c84:	90000100 	adrp	x0, 420000 <__libc_start_main@GLIBC_2.34>
  400c88:	9102ec00 	add	x0, x0, #0xbb
  400c8c:	39400000 	ldrb	w0, [x0]
  400c90:	7100001f 	cmp	w0, #0x0
  400c94:	54000240 	b.eq	400cdc <generic_KINDERSICHERUNG_CTRL+0x364>  // b.none
  400c98:	90000100 	adrp	x0, 420000 <__libc_start_main@GLIBC_2.34>
  400c9c:	9102f000 	add	x0, x0, #0xbc
  400ca0:	39400000 	ldrb	w0, [x0]
  400ca4:	7100001f 	cmp	w0, #0x0
  400ca8:	540001a1 	b.ne	400cdc <generic_KINDERSICHERUNG_CTRL+0x364>  // b.any
  400cac:	90000100 	adrp	x0, 420000 <__libc_start_main@GLIBC_2.34>
  400cb0:	91040000 	add	x0, x0, #0x100
  400cb4:	3900001f 	strb	wzr, [x0]
  400cb8:	90000100 	adrp	x0, 420000 <__libc_start_main@GLIBC_2.34>
  400cbc:	91031c00 	add	x0, x0, #0xc7
  400cc0:	52800021 	mov	w1, #0x1                   	// #1
  400cc4:	39000001 	strb	w1, [x0]
  400cc8:	90000100 	adrp	x0, 420000 <__libc_start_main@GLIBC_2.34>
  400ccc:	91041000 	add	x0, x0, #0x104
  400cd0:	52800021 	mov	w1, #0x1                   	// #1
  400cd4:	39000001 	strb	w1, [x0]
  400cd8:	14000030 	b	400d98 <generic_KINDERSICHERUNG_CTRL+0x420>
  400cdc:	90000100 	adrp	x0, 420000 <__libc_start_main@GLIBC_2.34>
  400ce0:	9102fc00 	add	x0, x0, #0xbf
  400ce4:	39400000 	ldrb	w0, [x0]
  400ce8:	7100001f 	cmp	w0, #0x0
  400cec:	54000221 	b.ne	400d30 <generic_KINDERSICHERUNG_CTRL+0x3b8>  // b.any
  400cf0:	90000100 	adrp	x0, 420000 <__libc_start_main@GLIBC_2.34>
  400cf4:	91030000 	add	x0, x0, #0xc0
  400cf8:	39400000 	ldrb	w0, [x0]
  400cfc:	7100001f 	cmp	w0, #0x0
  400d00:	54000180 	b.eq	400d30 <generic_KINDERSICHERUNG_CTRL+0x3b8>  // b.none
  400d04:	90000100 	adrp	x0, 420000 <__libc_start_main@GLIBC_2.34>
  400d08:	91040000 	add	x0, x0, #0x100
  400d0c:	3900001f 	strb	wzr, [x0]
  400d10:	90000100 	adrp	x0, 420000 <__libc_start_main@GLIBC_2.34>
  400d14:	91032800 	add	x0, x0, #0xca
  400d18:	3900001f 	strb	wzr, [x0]
  400d1c:	90000100 	adrp	x0, 420000 <__libc_start_main@GLIBC_2.34>
  400d20:	91041000 	add	x0, x0, #0x104
  400d24:	52800021 	mov	w1, #0x1                   	// #1
  400d28:	39000001 	strb	w1, [x0]
  400d2c:	1400001b 	b	400d98 <generic_KINDERSICHERUNG_CTRL+0x420>
  400d30:	90000100 	adrp	x0, 420000 <__libc_start_main@GLIBC_2.34>
  400d34:	9102ec00 	add	x0, x0, #0xbb
  400d38:	39400000 	ldrb	w0, [x0]
  400d3c:	7100001f 	cmp	w0, #0x0
  400d40:	540002a1 	b.ne	400d94 <generic_KINDERSICHERUNG_CTRL+0x41c>  // b.any
  400d44:	90000100 	adrp	x0, 420000 <__libc_start_main@GLIBC_2.34>
  400d48:	9102f000 	add	x0, x0, #0xbc
  400d4c:	39400000 	ldrb	w0, [x0]
  400d50:	7100001f 	cmp	w0, #0x0
  400d54:	54000200 	b.eq	400d94 <generic_KINDERSICHERUNG_CTRL+0x41c>  // b.none
  400d58:	90000100 	adrp	x0, 420000 <__libc_start_main@GLIBC_2.34>
  400d5c:	91040000 	add	x0, x0, #0x100
  400d60:	3900001f 	strb	wzr, [x0]
  400d64:	90000100 	adrp	x0, 420000 <__libc_start_main@GLIBC_2.34>
  400d68:	91031c00 	add	x0, x0, #0xc7
  400d6c:	3900001f 	strb	wzr, [x0]
  400d70:	90000100 	adrp	x0, 420000 <__libc_start_main@GLIBC_2.34>
  400d74:	91041000 	add	x0, x0, #0x104
  400d78:	52800021 	mov	w1, #0x1                   	// #1
  400d7c:	39000001 	strb	w1, [x0]
  400d80:	14000006 	b	400d98 <generic_KINDERSICHERUNG_CTRL+0x420>
  400d84:	90000100 	adrp	x0, 420000 <__libc_start_main@GLIBC_2.34>
  400d88:	91040000 	add	x0, x0, #0x100
  400d8c:	3900001f 	strb	wzr, [x0]
  400d90:	14000002 	b	400d98 <generic_KINDERSICHERUNG_CTRL+0x420>
  400d94:	d503201f 	nop
  400d98:	140000b1 	b	40105c <generic_KINDERSICHERUNG_CTRL+0x6e4>
  400d9c:	90000100 	adrp	x0, 420000 <__libc_start_main@GLIBC_2.34>
  400da0:	91030400 	add	x0, x0, #0xc1
  400da4:	39400000 	ldrb	w0, [x0]
  400da8:	7100001f 	cmp	w0, #0x0
  400dac:	54000361 	b.ne	400e18 <generic_KINDERSICHERUNG_CTRL+0x4a0>  // b.any
  400db0:	90000100 	adrp	x0, 420000 <__libc_start_main@GLIBC_2.34>
  400db4:	9102ec00 	add	x0, x0, #0xbb
  400db8:	39400000 	ldrb	w0, [x0]
  400dbc:	7100001f 	cmp	w0, #0x0
  400dc0:	540002c0 	b.eq	400e18 <generic_KINDERSICHERUNG_CTRL+0x4a0>  // b.none
  400dc4:	90000100 	adrp	x0, 420000 <__libc_start_main@GLIBC_2.34>
  400dc8:	9102fc00 	add	x0, x0, #0xbf
  400dcc:	39400000 	ldrb	w0, [x0]
  400dd0:	7100001f 	cmp	w0, #0x0
  400dd4:	54000220 	b.eq	400e18 <generic_KINDERSICHERUNG_CTRL+0x4a0>  // b.none
  400dd8:	90000100 	adrp	x0, 420000 <__libc_start_main@GLIBC_2.34>
  400ddc:	91040000 	add	x0, x0, #0x100
  400de0:	3900001f 	strb	wzr, [x0]
  400de4:	90000100 	adrp	x0, 420000 <__libc_start_main@GLIBC_2.34>
  400de8:	91031c00 	add	x0, x0, #0xc7
  400dec:	52800021 	mov	w1, #0x1                   	// #1
  400df0:	39000001 	strb	w1, [x0]
  400df4:	90000100 	adrp	x0, 420000 <__libc_start_main@GLIBC_2.34>
  400df8:	91032800 	add	x0, x0, #0xca
  400dfc:	52800021 	mov	w1, #0x1                   	// #1
  400e00:	39000001 	strb	w1, [x0]
  400e04:	90000100 	adrp	x0, 420000 <__libc_start_main@GLIBC_2.34>
  400e08:	91041400 	add	x0, x0, #0x105
  400e0c:	52800041 	mov	w1, #0x2                   	// #2
  400e10:	39000001 	strb	w1, [x0]
  400e14:	14000092 	b	40105c <generic_KINDERSICHERUNG_CTRL+0x6e4>
  400e18:	90000100 	adrp	x0, 420000 <__libc_start_main@GLIBC_2.34>
  400e1c:	91030400 	add	x0, x0, #0xc1
  400e20:	39400000 	ldrb	w0, [x0]
  400e24:	7100001f 	cmp	w0, #0x0
  400e28:	540002e1 	b.ne	400e84 <generic_KINDERSICHERUNG_CTRL+0x50c>  // b.any
  400e2c:	90000100 	adrp	x0, 420000 <__libc_start_main@GLIBC_2.34>
  400e30:	9102ec00 	add	x0, x0, #0xbb
  400e34:	39400000 	ldrb	w0, [x0]
  400e38:	7100001f 	cmp	w0, #0x0
  400e3c:	54000240 	b.eq	400e84 <generic_KINDERSICHERUNG_CTRL+0x50c>  // b.none
  400e40:	90000100 	adrp	x0, 420000 <__libc_start_main@GLIBC_2.34>
  400e44:	9102fc00 	add	x0, x0, #0xbf
  400e48:	39400000 	ldrb	w0, [x0]
  400e4c:	7100001f 	cmp	w0, #0x0
  400e50:	540001a1 	b.ne	400e84 <generic_KINDERSICHERUNG_CTRL+0x50c>  // b.any
  400e54:	90000100 	adrp	x0, 420000 <__libc_start_main@GLIBC_2.34>
  400e58:	91040000 	add	x0, x0, #0x100
  400e5c:	3900001f 	strb	wzr, [x0]
  400e60:	90000100 	adrp	x0, 420000 <__libc_start_main@GLIBC_2.34>
  400e64:	91031c00 	add	x0, x0, #0xc7
  400e68:	52800021 	mov	w1, #0x1                   	// #1
  400e6c:	39000001 	strb	w1, [x0]
  400e70:	90000100 	adrp	x0, 420000 <__libc_start_main@GLIBC_2.34>
  400e74:	91041400 	add	x0, x0, #0x105
  400e78:	52800041 	mov	w1, #0x2                   	// #2
  400e7c:	39000001 	strb	w1, [x0]
  400e80:	14000077 	b	40105c <generic_KINDERSICHERUNG_CTRL+0x6e4>
  400e84:	90000100 	adrp	x0, 420000 <__libc_start_main@GLIBC_2.34>
  400e88:	91030400 	add	x0, x0, #0xc1
  400e8c:	39400000 	ldrb	w0, [x0]
  400e90:	7100001f 	cmp	w0, #0x0
  400e94:	540002e1 	b.ne	400ef0 <generic_KINDERSICHERUNG_CTRL+0x578>  // b.any
  400e98:	90000100 	adrp	x0, 420000 <__libc_start_main@GLIBC_2.34>
  400e9c:	9102ec00 	add	x0, x0, #0xbb
  400ea0:	39400000 	ldrb	w0, [x0]
  400ea4:	7100001f 	cmp	w0, #0x0
  400ea8:	54000241 	b.ne	400ef0 <generic_KINDERSICHERUNG_CTRL+0x578>  // b.any
  400eac:	90000100 	adrp	x0, 420000 <__libc_start_main@GLIBC_2.34>
  400eb0:	9102fc00 	add	x0, x0, #0xbf
  400eb4:	39400000 	ldrb	w0, [x0]
  400eb8:	7100001f 	cmp	w0, #0x0
  400ebc:	540001a0 	b.eq	400ef0 <generic_KINDERSICHERUNG_CTRL+0x578>  // b.none
  400ec0:	90000100 	adrp	x0, 420000 <__libc_start_main@GLIBC_2.34>
  400ec4:	91040000 	add	x0, x0, #0x100
  400ec8:	3900001f 	strb	wzr, [x0]
  400ecc:	90000100 	adrp	x0, 420000 <__libc_start_main@GLIBC_2.34>
  400ed0:	91032800 	add	x0, x0, #0xca
  400ed4:	52800021 	mov	w1, #0x1                   	// #1
  400ed8:	39000001 	strb	w1, [x0]
  400edc:	90000100 	adrp	x0, 420000 <__libc_start_main@GLIBC_2.34>
  400ee0:	91041400 	add	x0, x0, #0x105
  400ee4:	52800041 	mov	w1, #0x2                   	// #2
  400ee8:	39000001 	strb	w1, [x0]
  400eec:	1400005c 	b	40105c <generic_KINDERSICHERUNG_CTRL+0x6e4>
  400ef0:	90000100 	adrp	x0, 420000 <__libc_start_main@GLIBC_2.34>
  400ef4:	9102e400 	add	x0, x0, #0xb9
  400ef8:	39400000 	ldrb	w0, [x0]
  400efc:	7100001f 	cmp	w0, #0x0
  400f00:	540002e1 	b.ne	400f5c <generic_KINDERSICHERUNG_CTRL+0x5e4>  // b.any
  400f04:	90000100 	adrp	x0, 420000 <__libc_start_main@GLIBC_2.34>
  400f08:	9102f400 	add	x0, x0, #0xbd
  400f0c:	39400000 	ldrb	w0, [x0]
  400f10:	7100001f 	cmp	w0, #0x0
  400f14:	54000240 	b.eq	400f5c <generic_KINDERSICHERUNG_CTRL+0x5e4>  // b.none
  400f18:	90000100 	adrp	x0, 420000 <__libc_start_main@GLIBC_2.34>
  400f1c:	91030400 	add	x0, x0, #0xc1
  400f20:	39400000 	ldrb	w0, [x0]
  400f24:	7100001f 	cmp	w0, #0x0
  400f28:	540001a1 	b.ne	400f5c <generic_KINDERSICHERUNG_CTRL+0x5e4>  // b.any
  400f2c:	90000100 	adrp	x0, 420000 <__libc_start_main@GLIBC_2.34>
  400f30:	91040000 	add	x0, x0, #0x100
  400f34:	3900001f 	strb	wzr, [x0]
  400f38:	90000100 	adrp	x0, 420000 <__libc_start_main@GLIBC_2.34>
  400f3c:	91032800 	add	x0, x0, #0xca
  400f40:	52800021 	mov	w1, #0x1                   	// #1
  400f44:	39000001 	strb	w1, [x0]
  400f48:	90000100 	adrp	x0, 420000 <__libc_start_main@GLIBC_2.34>
  400f4c:	91041400 	add	x0, x0, #0x105
  400f50:	52800021 	mov	w1, #0x1                   	// #1
  400f54:	39000001 	strb	w1, [x0]
  400f58:	14000041 	b	40105c <generic_KINDERSICHERUNG_CTRL+0x6e4>
  400f5c:	90000100 	adrp	x0, 420000 <__libc_start_main@GLIBC_2.34>
  400f60:	9102e400 	add	x0, x0, #0xb9
  400f64:	39400000 	ldrb	w0, [x0]
  400f68:	7100001f 	cmp	w0, #0x0
  400f6c:	540002c0 	b.eq	400fc4 <generic_KINDERSICHERUNG_CTRL+0x64c>  // b.none
  400f70:	90000100 	adrp	x0, 420000 <__libc_start_main@GLIBC_2.34>
  400f74:	9102f400 	add	x0, x0, #0xbd
  400f78:	39400000 	ldrb	w0, [x0]
  400f7c:	7100001f 	cmp	w0, #0x0
  400f80:	54000220 	b.eq	400fc4 <generic_KINDERSICHERUNG_CTRL+0x64c>  // b.none
  400f84:	90000100 	adrp	x0, 420000 <__libc_start_main@GLIBC_2.34>
  400f88:	91040000 	add	x0, x0, #0x100
  400f8c:	3900001f 	strb	wzr, [x0]
  400f90:	90000100 	adrp	x0, 420000 <__libc_start_main@GLIBC_2.34>
  400f94:	91032800 	add	x0, x0, #0xca
  400f98:	52800021 	mov	w1, #0x1                   	// #1
  400f9c:	39000001 	strb	w1, [x0]
  400fa0:	90000100 	adrp	x0, 420000 <__libc_start_main@GLIBC_2.34>
  400fa4:	91031c00 	add	x0, x0, #0xc7
  400fa8:	52800021 	mov	w1, #0x1                   	// #1
  400fac:	39000001 	strb	w1, [x0]
  400fb0:	90000100 	adrp	x0, 420000 <__libc_start_main@GLIBC_2.34>
  400fb4:	91041400 	add	x0, x0, #0x105
  400fb8:	52800021 	mov	w1, #0x1                   	// #1
  400fbc:	39000001 	strb	w1, [x0]
  400fc0:	14000027 	b	40105c <generic_KINDERSICHERUNG_CTRL+0x6e4>
  400fc4:	90000100 	adrp	x0, 420000 <__libc_start_main@GLIBC_2.34>
  400fc8:	9102e400 	add	x0, x0, #0xb9
  400fcc:	39400000 	ldrb	w0, [x0]
  400fd0:	7100001f 	cmp	w0, #0x0
  400fd4:	54000420 	b.eq	401058 <generic_KINDERSICHERUNG_CTRL+0x6e0>  // b.none
  400fd8:	90000100 	adrp	x0, 420000 <__libc_start_main@GLIBC_2.34>
  400fdc:	9102f400 	add	x0, x0, #0xbd
  400fe0:	39400000 	ldrb	w0, [x0]
  400fe4:	7100001f 	cmp	w0, #0x0
  400fe8:	54000381 	b.ne	401058 <generic_KINDERSICHERUNG_CTRL+0x6e0>  // b.any
  400fec:	90000100 	adrp	x0, 420000 <__libc_start_main@GLIBC_2.34>
  400ff0:	91030400 	add	x0, x0, #0xc1
  400ff4:	39400000 	ldrb	w0, [x0]
  400ff8:	7100001f 	cmp	w0, #0x0
  400ffc:	540002e1 	b.ne	401058 <generic_KINDERSICHERUNG_CTRL+0x6e0>  // b.any
  401000:	f00000e0 	adrp	x0, 420000 <__libc_start_main@GLIBC_2.34>
  401004:	91040000 	add	x0, x0, #0x100
  401008:	3900001f 	strb	wzr, [x0]
  40100c:	f00000e0 	adrp	x0, 420000 <__libc_start_main@GLIBC_2.34>
  401010:	91031c00 	add	x0, x0, #0xc7
  401014:	52800021 	mov	w1, #0x1                   	// #1
  401018:	39000001 	strb	w1, [x0]
  40101c:	f00000e0 	adrp	x0, 420000 <__libc_start_main@GLIBC_2.34>
  401020:	91041400 	add	x0, x0, #0x105
  401024:	52800021 	mov	w1, #0x1                   	// #1
  401028:	39000001 	strb	w1, [x0]
  40102c:	1400000c 	b	40105c <generic_KINDERSICHERUNG_CTRL+0x6e4>
  401030:	f00000e0 	adrp	x0, 420000 <__libc_start_main@GLIBC_2.34>
  401034:	91040000 	add	x0, x0, #0x100
  401038:	3900001f 	strb	wzr, [x0]
  40103c:	f00000e0 	adrp	x0, 420000 <__libc_start_main@GLIBC_2.34>
  401040:	91041400 	add	x0, x0, #0x105
  401044:	52800061 	mov	w1, #0x3                   	// #3
  401048:	39000001 	strb	w1, [x0]
  40104c:	14000004 	b	40105c <generic_KINDERSICHERUNG_CTRL+0x6e4>
  401050:	d503201f 	nop
  401054:	14000002 	b	40105c <generic_KINDERSICHERUNG_CTRL+0x6e4>
  401058:	d503201f 	nop
  40105c:	d503201f 	nop
  401060:	d65f03c0 	ret

0000000000401064 <generic_FH_TUERMODUL_CTRL>:
  401064:	f00000e0 	adrp	x0, 420000 <__libc_start_main@GLIBC_2.34>
  401068:	91046000 	add	x0, x0, #0x118
  40106c:	39403400 	ldrb	w0, [x0, #13]
  401070:	7100001f 	cmp	w0, #0x0
  401074:	54000221 	b.ne	4010b8 <generic_FH_TUERMODUL_CTRL+0x54>  // b.any
  401078:	f00000e0 	adrp	x0, 420000 <__libc_start_main@GLIBC_2.34>
  40107c:	91046000 	add	x0, x0, #0x118
  401080:	39403c00 	ldrb	w0, [x0, #15]
  401084:	7100001f 	cmp	w0, #0x0
  401088:	54000180 	b.eq	4010b8 <generic_FH_TUERMODUL_CTRL+0x54>  // b.none
  40108c:	f00000e0 	adrp	x0, 420000 <__libc_start_main@GLIBC_2.34>
  401090:	91046000 	add	x0, x0, #0x118
  401094:	39403800 	ldrb	w0, [x0, #14]
  401098:	7100001f 	cmp	w0, #0x0
  40109c:	540000e1 	b.ne	4010b8 <generic_FH_TUERMODUL_CTRL+0x54>  // b.any
  4010a0:	f00000e0 	adrp	x0, 420000 <__libc_start_main@GLIBC_2.34>
  4010a4:	91046000 	add	x0, x0, #0x118
  4010a8:	3900101f 	strb	wzr, [x0, #4]
  4010ac:	f00000e0 	adrp	x0, 420000 <__libc_start_main@GLIBC_2.34>
  4010b0:	91046000 	add	x0, x0, #0x118
  4010b4:	3900181f 	strb	wzr, [x0, #6]
  4010b8:	f00000e0 	adrp	x0, 420000 <__libc_start_main@GLIBC_2.34>
  4010bc:	91046000 	add	x0, x0, #0x118
  4010c0:	39403400 	ldrb	w0, [x0, #13]
  4010c4:	7100001f 	cmp	w0, #0x0
  4010c8:	54007a80 	b.eq	402018 <generic_FH_TUERMODUL_CTRL+0xfb4>  // b.none
  4010cc:	f00000e0 	adrp	x0, 420000 <__libc_start_main@GLIBC_2.34>
  4010d0:	91046000 	add	x0, x0, #0x118
  4010d4:	39402800 	ldrb	w0, [x0, #10]
  4010d8:	7100001f 	cmp	w0, #0x0
  4010dc:	540000a1 	b.ne	4010f0 <generic_FH_TUERMODUL_CTRL+0x8c>  // b.any
  4010e0:	f00000e0 	adrp	x0, 420000 <__libc_start_main@GLIBC_2.34>
  4010e4:	91041400 	add	x0, x0, #0x105
  4010e8:	52800061 	mov	w1, #0x3                   	// #3
  4010ec:	39000001 	strb	w1, [x0]
  4010f0:	f00000e0 	adrp	x0, 420000 <__libc_start_main@GLIBC_2.34>
  4010f4:	91046000 	add	x0, x0, #0x118
  4010f8:	39002c1f 	strb	wzr, [x0, #11]
  4010fc:	f00000e0 	adrp	x0, 420000 <__libc_start_main@GLIBC_2.34>
  401100:	91046000 	add	x0, x0, #0x118
  401104:	39404c00 	ldrb	w0, [x0, #19]
  401108:	7100001f 	cmp	w0, #0x0
  40110c:	54000101 	b.ne	40112c <generic_FH_TUERMODUL_CTRL+0xc8>  // b.any
  401110:	f00000e0 	adrp	x0, 420000 <__libc_start_main@GLIBC_2.34>
  401114:	91046000 	add	x0, x0, #0x118
  401118:	3900001f 	strb	wzr, [x0]
  40111c:	f00000e0 	adrp	x0, 420000 <__libc_start_main@GLIBC_2.34>
  401120:	91044400 	add	x0, x0, #0x111
  401124:	52800021 	mov	w1, #0x1                   	// #1
  401128:	39000001 	strb	w1, [x0]
  40112c:	f00000e0 	adrp	x0, 420000 <__libc_start_main@GLIBC_2.34>
  401130:	91046000 	add	x0, x0, #0x118
  401134:	3900501f 	strb	wzr, [x0, #20]
  401138:	f00000e0 	adrp	x0, 420000 <__libc_start_main@GLIBC_2.34>
  40113c:	91046000 	add	x0, x0, #0x118
  401140:	52800021 	mov	w1, #0x1                   	// #1
  401144:	39002c01 	strb	w1, [x0, #11]
  401148:	f00000e0 	adrp	x0, 420000 <__libc_start_main@GLIBC_2.34>
  40114c:	91046000 	add	x0, x0, #0x118
  401150:	52800021 	mov	w1, #0x1                   	// #1
  401154:	39005001 	strb	w1, [x0, #20]
  401158:	f00000e0 	adrp	x0, 420000 <__libc_start_main@GLIBC_2.34>
  40115c:	91041800 	add	x0, x0, #0x106
  401160:	39400000 	ldrb	w0, [x0]
  401164:	71000c1f 	cmp	w0, #0x3
  401168:	540013c0 	b.eq	4013e0 <generic_FH_TUERMODUL_CTRL+0x37c>  // b.none
  40116c:	71000c1f 	cmp	w0, #0x3
  401170:	5400604c 	b.gt	401d78 <generic_FH_TUERMODUL_CTRL+0xd14>
  401174:	7100041f 	cmp	w0, #0x1
  401178:	54000080 	b.eq	401188 <generic_FH_TUERMODUL_CTRL+0x124>  // b.none
  40117c:	7100081f 	cmp	w0, #0x2
  401180:	54000300 	b.eq	4011e0 <generic_FH_TUERMODUL_CTRL+0x17c>  // b.none
  401184:	140002fd 	b	401d78 <generic_FH_TUERMODUL_CTRL+0xd14>
  401188:	f00000e0 	adrp	x0, 420000 <__libc_start_main@GLIBC_2.34>
  40118c:	91018000 	add	x0, x0, #0x60
  401190:	b9400000 	ldr	w0, [x0]
  401194:	7100ec1f 	cmp	w0, #0x3b
  401198:	54006001 	b.ne	401d98 <generic_FH_TUERMODUL_CTRL+0xd34>  // b.any
  40119c:	f00000e0 	adrp	x0, 420000 <__libc_start_main@GLIBC_2.34>
  4011a0:	9101a000 	add	x0, x0, #0x68
  4011a4:	b9400000 	ldr	w0, [x0]
  4011a8:	7100ec1f 	cmp	w0, #0x3b
  4011ac:	54005f60 	b.eq	401d98 <generic_FH_TUERMODUL_CTRL+0xd34>  // b.none
  4011b0:	f00000e0 	adrp	x0, 420000 <__libc_start_main@GLIBC_2.34>
  4011b4:	91040000 	add	x0, x0, #0x100
  4011b8:	3900001f 	strb	wzr, [x0]
  4011bc:	f00000e0 	adrp	x0, 420000 <__libc_start_main@GLIBC_2.34>
  4011c0:	91041800 	add	x0, x0, #0x106
  4011c4:	52800061 	mov	w1, #0x3                   	// #3
  4011c8:	39000001 	strb	w1, [x0]
  4011cc:	f00000e0 	adrp	x0, 420000 <__libc_start_main@GLIBC_2.34>
  4011d0:	91042400 	add	x0, x0, #0x109
  4011d4:	52800061 	mov	w1, #0x3                   	// #3
  4011d8:	39000001 	strb	w1, [x0]
  4011dc:	140002f0 	b	401d9c <generic_FH_TUERMODUL_CTRL+0xd38>
  4011e0:	f00000e0 	adrp	x0, 420000 <__libc_start_main@GLIBC_2.34>
  4011e4:	91030800 	add	x0, x0, #0xc2
  4011e8:	39400000 	ldrb	w0, [x0]
  4011ec:	7100001f 	cmp	w0, #0x0
  4011f0:	54000400 	b.eq	401270 <generic_FH_TUERMODUL_CTRL+0x20c>  // b.none
  4011f4:	f00000e0 	adrp	x0, 420000 <__libc_start_main@GLIBC_2.34>
  4011f8:	91031000 	add	x0, x0, #0xc4
  4011fc:	39400000 	ldrb	w0, [x0]
  401200:	7100001f 	cmp	w0, #0x0
  401204:	54000361 	b.ne	401270 <generic_FH_TUERMODUL_CTRL+0x20c>  // b.any
  401208:	f00000e0 	adrp	x0, 420000 <__libc_start_main@GLIBC_2.34>
  40120c:	91033000 	add	x0, x0, #0xcc
  401210:	39400000 	ldrb	w0, [x0]
  401214:	7100001f 	cmp	w0, #0x0
  401218:	540002c0 	b.eq	401270 <generic_FH_TUERMODUL_CTRL+0x20c>  // b.none
  40121c:	f00000e0 	adrp	x0, 420000 <__libc_start_main@GLIBC_2.34>
  401220:	91040000 	add	x0, x0, #0x100
  401224:	3900001f 	strb	wzr, [x0]
  401228:	f00000e0 	adrp	x0, 420000 <__libc_start_main@GLIBC_2.34>
  40122c:	91033400 	add	x0, x0, #0xcd
  401230:	3900001f 	strb	wzr, [x0]
  401234:	f00000e0 	adrp	x0, 420000 <__libc_start_main@GLIBC_2.34>
  401238:	9103e000 	add	x0, x0, #0xf8
  40123c:	f9400001 	ldr	x1, [x0]
  401240:	f00000e0 	adrp	x0, 420000 <__libc_start_main@GLIBC_2.34>
  401244:	91016000 	add	x0, x0, #0x58
  401248:	f9000001 	str	x1, [x0]
  40124c:	f00000e0 	adrp	x0, 420000 <__libc_start_main@GLIBC_2.34>
  401250:	91041800 	add	x0, x0, #0x106
  401254:	52800061 	mov	w1, #0x3                   	// #3
  401258:	39000001 	strb	w1, [x0]
  40125c:	f00000e0 	adrp	x0, 420000 <__libc_start_main@GLIBC_2.34>
  401260:	91042400 	add	x0, x0, #0x109
  401264:	52800061 	mov	w1, #0x3                   	// #3
  401268:	39000001 	strb	w1, [x0]
  40126c:	140002cc 	b	401d9c <generic_FH_TUERMODUL_CTRL+0xd38>
  401270:	f00000e0 	adrp	x0, 420000 <__libc_start_main@GLIBC_2.34>
  401274:	91040800 	add	x0, x0, #0x102
  401278:	39400000 	ldrb	w0, [x0]
  40127c:	71000c1f 	cmp	w0, #0x3
  401280:	54000500 	b.eq	401320 <generic_FH_TUERMODUL_CTRL+0x2bc>  // b.none
  401284:	71000c1f 	cmp	w0, #0x3
  401288:	5400090c 	b.gt	4013a8 <generic_FH_TUERMODUL_CTRL+0x344>
  40128c:	7100041f 	cmp	w0, #0x1
  401290:	54000080 	b.eq	4012a0 <generic_FH_TUERMODUL_CTRL+0x23c>  // b.none
  401294:	7100081f 	cmp	w0, #0x2
  401298:	54000240 	b.eq	4012e0 <generic_FH_TUERMODUL_CTRL+0x27c>  // b.none
  40129c:	14000043 	b	4013a8 <generic_FH_TUERMODUL_CTRL+0x344>
  4012a0:	f00000e0 	adrp	x0, 420000 <__libc_start_main@GLIBC_2.34>
  4012a4:	91031800 	add	x0, x0, #0xc6
  4012a8:	39400000 	ldrb	w0, [x0]
  4012ac:	7100001f 	cmp	w0, #0x0
  4012b0:	540008c1 	b.ne	4013c8 <generic_FH_TUERMODUL_CTRL+0x364>  // b.any
  4012b4:	f00000e0 	adrp	x0, 420000 <__libc_start_main@GLIBC_2.34>
  4012b8:	91040000 	add	x0, x0, #0x100
  4012bc:	3900001f 	strb	wzr, [x0]
  4012c0:	f00000e0 	adrp	x0, 420000 <__libc_start_main@GLIBC_2.34>
  4012c4:	91033400 	add	x0, x0, #0xcd
  4012c8:	3900001f 	strb	wzr, [x0]
  4012cc:	f00000e0 	adrp	x0, 420000 <__libc_start_main@GLIBC_2.34>
  4012d0:	91040800 	add	x0, x0, #0x102
  4012d4:	52800061 	mov	w1, #0x3                   	// #3
  4012d8:	39000001 	strb	w1, [x0]
  4012dc:	14000040 	b	4013dc <generic_FH_TUERMODUL_CTRL+0x378>
  4012e0:	f00000e0 	adrp	x0, 420000 <__libc_start_main@GLIBC_2.34>
  4012e4:	91032400 	add	x0, x0, #0xc9
  4012e8:	39400000 	ldrb	w0, [x0]
  4012ec:	7100001f 	cmp	w0, #0x0
  4012f0:	54000701 	b.ne	4013d0 <generic_FH_TUERMODUL_CTRL+0x36c>  // b.any
  4012f4:	f00000e0 	adrp	x0, 420000 <__libc_start_main@GLIBC_2.34>
  4012f8:	91040000 	add	x0, x0, #0x100
  4012fc:	3900001f 	strb	wzr, [x0]
  401300:	f00000e0 	adrp	x0, 420000 <__libc_start_main@GLIBC_2.34>
  401304:	91034000 	add	x0, x0, #0xd0
  401308:	3900001f 	strb	wzr, [x0]
  40130c:	f00000e0 	adrp	x0, 420000 <__libc_start_main@GLIBC_2.34>
  401310:	91040800 	add	x0, x0, #0x102
  401314:	52800061 	mov	w1, #0x3                   	// #3
  401318:	39000001 	strb	w1, [x0]
  40131c:	14000030 	b	4013dc <generic_FH_TUERMODUL_CTRL+0x378>
  401320:	f00000e0 	adrp	x0, 420000 <__libc_start_main@GLIBC_2.34>
  401324:	91032400 	add	x0, x0, #0xc9
  401328:	39400000 	ldrb	w0, [x0]
  40132c:	7100001f 	cmp	w0, #0x0
  401330:	540001a0 	b.eq	401364 <generic_FH_TUERMODUL_CTRL+0x300>  // b.none
  401334:	f00000e0 	adrp	x0, 420000 <__libc_start_main@GLIBC_2.34>
  401338:	91040000 	add	x0, x0, #0x100
  40133c:	3900001f 	strb	wzr, [x0]
  401340:	f00000e0 	adrp	x0, 420000 <__libc_start_main@GLIBC_2.34>
  401344:	91034000 	add	x0, x0, #0xd0
  401348:	52800021 	mov	w1, #0x1                   	// #1
  40134c:	39000001 	strb	w1, [x0]
  401350:	f00000e0 	adrp	x0, 420000 <__libc_start_main@GLIBC_2.34>
  401354:	91040800 	add	x0, x0, #0x102
  401358:	52800041 	mov	w1, #0x2                   	// #2
  40135c:	39000001 	strb	w1, [x0]
  401360:	1400001f 	b	4013dc <generic_FH_TUERMODUL_CTRL+0x378>
  401364:	f00000e0 	adrp	x0, 420000 <__libc_start_main@GLIBC_2.34>
  401368:	91031800 	add	x0, x0, #0xc6
  40136c:	39400000 	ldrb	w0, [x0]
  401370:	7100001f 	cmp	w0, #0x0
  401374:	54000320 	b.eq	4013d8 <generic_FH_TUERMODUL_CTRL+0x374>  // b.none
  401378:	f00000e0 	adrp	x0, 420000 <__libc_start_main@GLIBC_2.34>
  40137c:	91040000 	add	x0, x0, #0x100
  401380:	3900001f 	strb	wzr, [x0]
  401384:	f00000e0 	adrp	x0, 420000 <__libc_start_main@GLIBC_2.34>
  401388:	91033400 	add	x0, x0, #0xcd
  40138c:	52800021 	mov	w1, #0x1                   	// #1
  401390:	39000001 	strb	w1, [x0]
  401394:	f00000e0 	adrp	x0, 420000 <__libc_start_main@GLIBC_2.34>
  401398:	91040800 	add	x0, x0, #0x102
  40139c:	52800021 	mov	w1, #0x1                   	// #1
  4013a0:	39000001 	strb	w1, [x0]
  4013a4:	1400000e 	b	4013dc <generic_FH_TUERMODUL_CTRL+0x378>
  4013a8:	f00000e0 	adrp	x0, 420000 <__libc_start_main@GLIBC_2.34>
  4013ac:	91040000 	add	x0, x0, #0x100
  4013b0:	3900001f 	strb	wzr, [x0]
  4013b4:	f00000e0 	adrp	x0, 420000 <__libc_start_main@GLIBC_2.34>
  4013b8:	91040800 	add	x0, x0, #0x102
  4013bc:	52800061 	mov	w1, #0x3                   	// #3
  4013c0:	39000001 	strb	w1, [x0]
  4013c4:	14000006 	b	4013dc <generic_FH_TUERMODUL_CTRL+0x378>
  4013c8:	d503201f 	nop
  4013cc:	14000274 	b	401d9c <generic_FH_TUERMODUL_CTRL+0xd38>
  4013d0:	d503201f 	nop
  4013d4:	14000272 	b	401d9c <generic_FH_TUERMODUL_CTRL+0xd38>
  4013d8:	d503201f 	nop
  4013dc:	14000270 	b	401d9c <generic_FH_TUERMODUL_CTRL+0xd38>
  4013e0:	f00000e0 	adrp	x0, 420000 <__libc_start_main@GLIBC_2.34>
  4013e4:	91018000 	add	x0, x0, #0x60
  4013e8:	b9400000 	ldr	w0, [x0]
  4013ec:	7100f01f 	cmp	w0, #0x3c
  4013f0:	540003cd 	b.le	401468 <generic_FH_TUERMODUL_CTRL+0x404>
  4013f4:	f00000e0 	adrp	x0, 420000 <__libc_start_main@GLIBC_2.34>
  4013f8:	9101a000 	add	x0, x0, #0x68
  4013fc:	b9400000 	ldr	w0, [x0]
  401400:	7100f01f 	cmp	w0, #0x3c
  401404:	5400032c 	b.gt	401468 <generic_FH_TUERMODUL_CTRL+0x404>
  401408:	f00000e0 	adrp	x0, 420000 <__libc_start_main@GLIBC_2.34>
  40140c:	9102d800 	add	x0, x0, #0xb6
  401410:	39400000 	ldrb	w0, [x0]
  401414:	7100001f 	cmp	w0, #0x0
  401418:	54000281 	b.ne	401468 <generic_FH_TUERMODUL_CTRL+0x404>  // b.any
  40141c:	f00000e0 	adrp	x0, 420000 <__libc_start_main@GLIBC_2.34>
  401420:	9102d000 	add	x0, x0, #0xb4
  401424:	39400000 	ldrb	w0, [x0]
  401428:	7100001f 	cmp	w0, #0x0
  40142c:	540001e1 	b.ne	401468 <generic_FH_TUERMODUL_CTRL+0x404>  // b.any
  401430:	f00000e0 	adrp	x0, 420000 <__libc_start_main@GLIBC_2.34>
  401434:	91040000 	add	x0, x0, #0x100
  401438:	3900001f 	strb	wzr, [x0]
  40143c:	f00000e0 	adrp	x0, 420000 <__libc_start_main@GLIBC_2.34>
  401440:	91033400 	add	x0, x0, #0xcd
  401444:	3900001f 	strb	wzr, [x0]
  401448:	f00000e0 	adrp	x0, 420000 <__libc_start_main@GLIBC_2.34>
  40144c:	91034000 	add	x0, x0, #0xd0
  401450:	3900001f 	strb	wzr, [x0]
  401454:	f00000e0 	adrp	x0, 420000 <__libc_start_main@GLIBC_2.34>
  401458:	91041800 	add	x0, x0, #0x106
  40145c:	52800021 	mov	w1, #0x1                   	// #1
  401460:	39000001 	strb	w1, [x0]
  401464:	1400024e 	b	401d9c <generic_FH_TUERMODUL_CTRL+0xd38>
  401468:	f00000e0 	adrp	x0, 420000 <__libc_start_main@GLIBC_2.34>
  40146c:	91030800 	add	x0, x0, #0xc2
  401470:	39400000 	ldrb	w0, [x0]
  401474:	7100001f 	cmp	w0, #0x0
  401478:	54000400 	b.eq	4014f8 <generic_FH_TUERMODUL_CTRL+0x494>  // b.none
  40147c:	f00000e0 	adrp	x0, 420000 <__libc_start_main@GLIBC_2.34>
  401480:	91031000 	add	x0, x0, #0xc4
  401484:	39400000 	ldrb	w0, [x0]
  401488:	7100001f 	cmp	w0, #0x0
  40148c:	54000361 	b.ne	4014f8 <generic_FH_TUERMODUL_CTRL+0x494>  // b.any
  401490:	f00000e0 	adrp	x0, 420000 <__libc_start_main@GLIBC_2.34>
  401494:	91033c00 	add	x0, x0, #0xcf
  401498:	39400000 	ldrb	w0, [x0]
  40149c:	7100001f 	cmp	w0, #0x0
  4014a0:	540002c0 	b.eq	4014f8 <generic_FH_TUERMODUL_CTRL+0x494>  // b.none
  4014a4:	f00000e0 	adrp	x0, 420000 <__libc_start_main@GLIBC_2.34>
  4014a8:	91040000 	add	x0, x0, #0x100
  4014ac:	3900001f 	strb	wzr, [x0]
  4014b0:	f00000e0 	adrp	x0, 420000 <__libc_start_main@GLIBC_2.34>
  4014b4:	91034000 	add	x0, x0, #0xd0
  4014b8:	3900001f 	strb	wzr, [x0]
  4014bc:	f00000e0 	adrp	x0, 420000 <__libc_start_main@GLIBC_2.34>
  4014c0:	9103e000 	add	x0, x0, #0xf8
  4014c4:	f9400001 	ldr	x1, [x0]
  4014c8:	f00000e0 	adrp	x0, 420000 <__libc_start_main@GLIBC_2.34>
  4014cc:	91012000 	add	x0, x0, #0x48
  4014d0:	f9000001 	str	x1, [x0]
  4014d4:	f00000e0 	adrp	x0, 420000 <__libc_start_main@GLIBC_2.34>
  4014d8:	91041800 	add	x0, x0, #0x106
  4014dc:	52800041 	mov	w1, #0x2                   	// #2
  4014e0:	39000001 	strb	w1, [x0]
  4014e4:	f00000e0 	adrp	x0, 420000 <__libc_start_main@GLIBC_2.34>
  4014e8:	91040800 	add	x0, x0, #0x102
  4014ec:	52800061 	mov	w1, #0x3                   	// #3
  4014f0:	39000001 	strb	w1, [x0]
  4014f4:	1400022a 	b	401d9c <generic_FH_TUERMODUL_CTRL+0xd38>
  4014f8:	f00000e0 	adrp	x0, 420000 <__libc_start_main@GLIBC_2.34>
  4014fc:	91030800 	add	x0, x0, #0xc2
  401500:	39400000 	ldrb	w0, [x0]
  401504:	7100001f 	cmp	w0, #0x0
  401508:	54000400 	b.eq	401588 <generic_FH_TUERMODUL_CTRL+0x524>  // b.none
  40150c:	f00000e0 	adrp	x0, 420000 <__libc_start_main@GLIBC_2.34>
  401510:	91031000 	add	x0, x0, #0xc4
  401514:	39400000 	ldrb	w0, [x0]
  401518:	7100001f 	cmp	w0, #0x0
  40151c:	54000361 	b.ne	401588 <generic_FH_TUERMODUL_CTRL+0x524>  // b.any
  401520:	f00000e0 	adrp	x0, 420000 <__libc_start_main@GLIBC_2.34>
  401524:	91033000 	add	x0, x0, #0xcc
  401528:	39400000 	ldrb	w0, [x0]
  40152c:	7100001f 	cmp	w0, #0x0
  401530:	540002c0 	b.eq	401588 <generic_FH_TUERMODUL_CTRL+0x524>  // b.none
  401534:	f00000e0 	adrp	x0, 420000 <__libc_start_main@GLIBC_2.34>
  401538:	91040000 	add	x0, x0, #0x100
  40153c:	3900001f 	strb	wzr, [x0]
  401540:	f00000e0 	adrp	x0, 420000 <__libc_start_main@GLIBC_2.34>
  401544:	91033400 	add	x0, x0, #0xcd
  401548:	3900001f 	strb	wzr, [x0]
  40154c:	f00000e0 	adrp	x0, 420000 <__libc_start_main@GLIBC_2.34>
  401550:	9103e000 	add	x0, x0, #0xf8
  401554:	f9400001 	ldr	x1, [x0]
  401558:	f00000e0 	adrp	x0, 420000 <__libc_start_main@GLIBC_2.34>
  40155c:	91014000 	add	x0, x0, #0x50
  401560:	f9000001 	str	x1, [x0]
  401564:	f00000e0 	adrp	x0, 420000 <__libc_start_main@GLIBC_2.34>
  401568:	91041800 	add	x0, x0, #0x106
  40156c:	52800041 	mov	w1, #0x2                   	// #2
  401570:	39000001 	strb	w1, [x0]
  401574:	f00000e0 	adrp	x0, 420000 <__libc_start_main@GLIBC_2.34>
  401578:	91040800 	add	x0, x0, #0x102
  40157c:	52800061 	mov	w1, #0x3                   	// #3
  401580:	39000001 	strb	w1, [x0]
  401584:	14000206 	b	401d9c <generic_FH_TUERMODUL_CTRL+0xd38>
  401588:	f00000e0 	adrp	x0, 420000 <__libc_start_main@GLIBC_2.34>
  40158c:	91042400 	add	x0, x0, #0x109
  401590:	39400000 	ldrb	w0, [x0]
  401594:	71000c1f 	cmp	w0, #0x3
  401598:	54003500 	b.eq	401c38 <generic_FH_TUERMODUL_CTRL+0xbd4>  // b.none
  40159c:	71000c1f 	cmp	w0, #0x3
  4015a0:	54003d8c 	b.gt	401d50 <generic_FH_TUERMODUL_CTRL+0xcec>
  4015a4:	7100041f 	cmp	w0, #0x1
  4015a8:	54000080 	b.eq	4015b8 <generic_FH_TUERMODUL_CTRL+0x554>  // b.none
  4015ac:	7100081f 	cmp	w0, #0x2
  4015b0:	54000e40 	b.eq	401778 <generic_FH_TUERMODUL_CTRL+0x714>  // b.none
  4015b4:	140001e7 	b	401d50 <generic_FH_TUERMODUL_CTRL+0xcec>
  4015b8:	f00000e0 	adrp	x0, 420000 <__libc_start_main@GLIBC_2.34>
  4015bc:	91020000 	add	x0, x0, #0x80
  4015c0:	b9400000 	ldr	w0, [x0]
  4015c4:	7106501f 	cmp	w0, #0x194
  4015c8:	5400018d 	b.le	4015f8 <generic_FH_TUERMODUL_CTRL+0x594>
  4015cc:	f00000e0 	adrp	x0, 420000 <__libc_start_main@GLIBC_2.34>
  4015d0:	91040000 	add	x0, x0, #0x100
  4015d4:	3900001f 	strb	wzr, [x0]
  4015d8:	f00000e0 	adrp	x0, 420000 <__libc_start_main@GLIBC_2.34>
  4015dc:	91034000 	add	x0, x0, #0xd0
  4015e0:	3900001f 	strb	wzr, [x0]
  4015e4:	f00000e0 	adrp	x0, 420000 <__libc_start_main@GLIBC_2.34>
  4015e8:	91042400 	add	x0, x0, #0x109
  4015ec:	52800061 	mov	w1, #0x3                   	// #3
  4015f0:	39000001 	strb	w1, [x0]
  4015f4:	140001e0 	b	401d74 <generic_FH_TUERMODUL_CTRL+0xd10>
  4015f8:	f00000e0 	adrp	x0, 420000 <__libc_start_main@GLIBC_2.34>
  4015fc:	91043000 	add	x0, x0, #0x10c
  401600:	39400000 	ldrb	w0, [x0]
  401604:	7100041f 	cmp	w0, #0x1
  401608:	54000080 	b.eq	401618 <generic_FH_TUERMODUL_CTRL+0x5b4>  // b.none
  40160c:	7100081f 	cmp	w0, #0x2
  401610:	54000480 	b.eq	4016a0 <generic_FH_TUERMODUL_CTRL+0x63c>  // b.none
  401614:	1400004d 	b	401748 <generic_FH_TUERMODUL_CTRL+0x6e4>
  401618:	f00000e0 	adrp	x0, 420000 <__libc_start_main@GLIBC_2.34>
  40161c:	91031800 	add	x0, x0, #0xc6
  401620:	39400000 	ldrb	w0, [x0]
  401624:	7100001f 	cmp	w0, #0x0
  401628:	540000c0 	b.eq	401640 <generic_FH_TUERMODUL_CTRL+0x5dc>  // b.none
  40162c:	f00000e0 	adrp	x0, 420000 <__libc_start_main@GLIBC_2.34>
  401630:	91032000 	add	x0, x0, #0xc8
  401634:	39400000 	ldrb	w0, [x0]
  401638:	7100001f 	cmp	w0, #0x0
  40163c:	54000160 	b.eq	401668 <generic_FH_TUERMODUL_CTRL+0x604>  // b.none
  401640:	f00000e0 	adrp	x0, 420000 <__libc_start_main@GLIBC_2.34>
  401644:	91032400 	add	x0, x0, #0xc9
  401648:	39400000 	ldrb	w0, [x0]
  40164c:	7100001f 	cmp	w0, #0x0
  401650:	540008c0 	b.eq	401768 <generic_FH_TUERMODUL_CTRL+0x704>  // b.none
  401654:	f00000e0 	adrp	x0, 420000 <__libc_start_main@GLIBC_2.34>
  401658:	91032c00 	add	x0, x0, #0xcb
  40165c:	39400000 	ldrb	w0, [x0]
  401660:	7100001f 	cmp	w0, #0x0
  401664:	54000821 	b.ne	401768 <generic_FH_TUERMODUL_CTRL+0x704>  // b.any
  401668:	f00000e0 	adrp	x0, 420000 <__libc_start_main@GLIBC_2.34>
  40166c:	91040000 	add	x0, x0, #0x100
  401670:	3900001f 	strb	wzr, [x0]
  401674:	f00000e0 	adrp	x0, 420000 <__libc_start_main@GLIBC_2.34>
  401678:	91034000 	add	x0, x0, #0xd0
  40167c:	3900001f 	strb	wzr, [x0]
  401680:	f00000e0 	adrp	x0, 420000 <__libc_start_main@GLIBC_2.34>
  401684:	91042400 	add	x0, x0, #0x109
  401688:	52800061 	mov	w1, #0x3                   	// #3
  40168c:	39000001 	strb	w1, [x0]
  401690:	f00000e0 	adrp	x0, 420000 <__libc_start_main@GLIBC_2.34>
  401694:	91043000 	add	x0, x0, #0x10c
  401698:	3900001f 	strb	wzr, [x0]
  40169c:	14000036 	b	401774 <generic_FH_TUERMODUL_CTRL+0x710>
  4016a0:	f00000e0 	adrp	x0, 420000 <__libc_start_main@GLIBC_2.34>
  4016a4:	91031800 	add	x0, x0, #0xc6
  4016a8:	39400000 	ldrb	w0, [x0]
  4016ac:	7100001f 	cmp	w0, #0x0
  4016b0:	540001c0 	b.eq	4016e8 <generic_FH_TUERMODUL_CTRL+0x684>  // b.none
  4016b4:	f00000e0 	adrp	x0, 420000 <__libc_start_main@GLIBC_2.34>
  4016b8:	91032000 	add	x0, x0, #0xc8
  4016bc:	39400000 	ldrb	w0, [x0]
  4016c0:	7100001f 	cmp	w0, #0x0
  4016c4:	54000121 	b.ne	4016e8 <generic_FH_TUERMODUL_CTRL+0x684>  // b.any
  4016c8:	f00000e0 	adrp	x0, 420000 <__libc_start_main@GLIBC_2.34>
  4016cc:	91040000 	add	x0, x0, #0x100
  4016d0:	3900001f 	strb	wzr, [x0]
  4016d4:	f00000e0 	adrp	x0, 420000 <__libc_start_main@GLIBC_2.34>
  4016d8:	91043000 	add	x0, x0, #0x10c
  4016dc:	52800021 	mov	w1, #0x1                   	// #1
  4016e0:	39000001 	strb	w1, [x0]
  4016e4:	14000024 	b	401774 <generic_FH_TUERMODUL_CTRL+0x710>
  4016e8:	f00000e0 	adrp	x0, 420000 <__libc_start_main@GLIBC_2.34>
  4016ec:	91032400 	add	x0, x0, #0xc9
  4016f0:	39400000 	ldrb	w0, [x0]
  4016f4:	7100001f 	cmp	w0, #0x0
  4016f8:	540003c1 	b.ne	401770 <generic_FH_TUERMODUL_CTRL+0x70c>  // b.any
  4016fc:	f00000e0 	adrp	x0, 420000 <__libc_start_main@GLIBC_2.34>
  401700:	91032c00 	add	x0, x0, #0xcb
  401704:	39400000 	ldrb	w0, [x0]
  401708:	7100001f 	cmp	w0, #0x0
  40170c:	54000320 	b.eq	401770 <generic_FH_TUERMODUL_CTRL+0x70c>  // b.none
  401710:	f00000e0 	adrp	x0, 420000 <__libc_start_main@GLIBC_2.34>
  401714:	91040000 	add	x0, x0, #0x100
  401718:	3900001f 	strb	wzr, [x0]
  40171c:	f00000e0 	adrp	x0, 420000 <__libc_start_main@GLIBC_2.34>
  401720:	91034000 	add	x0, x0, #0xd0
  401724:	3900001f 	strb	wzr, [x0]
  401728:	f00000e0 	adrp	x0, 420000 <__libc_start_main@GLIBC_2.34>
  40172c:	91042400 	add	x0, x0, #0x109
  401730:	52800061 	mov	w1, #0x3                   	// #3
  401734:	39000001 	strb	w1, [x0]
  401738:	f00000e0 	adrp	x0, 420000 <__libc_start_main@GLIBC_2.34>
  40173c:	91043000 	add	x0, x0, #0x10c
  401740:	3900001f 	strb	wzr, [x0]
  401744:	1400000c 	b	401774 <generic_FH_TUERMODUL_CTRL+0x710>
  401748:	f00000e0 	adrp	x0, 420000 <__libc_start_main@GLIBC_2.34>
  40174c:	91040000 	add	x0, x0, #0x100
  401750:	3900001f 	strb	wzr, [x0]
  401754:	f00000e0 	adrp	x0, 420000 <__libc_start_main@GLIBC_2.34>
  401758:	91043000 	add	x0, x0, #0x10c
  40175c:	52800041 	mov	w1, #0x2                   	// #2
  401760:	39000001 	strb	w1, [x0]
  401764:	14000004 	b	401774 <generic_FH_TUERMODUL_CTRL+0x710>
  401768:	d503201f 	nop
  40176c:	14000182 	b	401d74 <generic_FH_TUERMODUL_CTRL+0xd10>
  401770:	d503201f 	nop
  401774:	14000180 	b	401d74 <generic_FH_TUERMODUL_CTRL+0xd10>
  401778:	f00000e0 	adrp	x0, 420000 <__libc_start_main@GLIBC_2.34>
  40177c:	91020000 	add	x0, x0, #0x80
  401780:	b9400000 	ldr	w0, [x0]
  401784:	7100001f 	cmp	w0, #0x0
  401788:	5400018c 	b.gt	4017b8 <generic_FH_TUERMODUL_CTRL+0x754>
  40178c:	f00000e0 	adrp	x0, 420000 <__libc_start_main@GLIBC_2.34>
  401790:	91040000 	add	x0, x0, #0x100
  401794:	3900001f 	strb	wzr, [x0]
  401798:	f00000e0 	adrp	x0, 420000 <__libc_start_main@GLIBC_2.34>
  40179c:	91033400 	add	x0, x0, #0xcd
  4017a0:	3900001f 	strb	wzr, [x0]
  4017a4:	f00000e0 	adrp	x0, 420000 <__libc_start_main@GLIBC_2.34>
  4017a8:	91042400 	add	x0, x0, #0x109
  4017ac:	52800061 	mov	w1, #0x3                   	// #3
  4017b0:	39000001 	strb	w1, [x0]
  4017b4:	14000170 	b	401d74 <generic_FH_TUERMODUL_CTRL+0xd10>
  4017b8:	f00000e0 	adrp	x0, 420000 <__libc_start_main@GLIBC_2.34>
  4017bc:	91043400 	add	x0, x0, #0x10d
  4017c0:	39400000 	ldrb	w0, [x0]
  4017c4:	7100041f 	cmp	w0, #0x1
  4017c8:	54000080 	b.eq	4017d8 <generic_FH_TUERMODUL_CTRL+0x774>  // b.none
  4017cc:	7100081f 	cmp	w0, #0x2
  4017d0:	54000f80 	b.eq	4019c0 <generic_FH_TUERMODUL_CTRL+0x95c>  // b.none
  4017d4:	14000104 	b	401be4 <generic_FH_TUERMODUL_CTRL+0xb80>
  4017d8:	f00000e0 	adrp	x0, 420000 <__libc_start_main@GLIBC_2.34>
  4017dc:	91032400 	add	x0, x0, #0xc9
  4017e0:	39400000 	ldrb	w0, [x0]
  4017e4:	7100001f 	cmp	w0, #0x0
  4017e8:	540000c0 	b.eq	401800 <generic_FH_TUERMODUL_CTRL+0x79c>  // b.none
  4017ec:	f00000e0 	adrp	x0, 420000 <__libc_start_main@GLIBC_2.34>
  4017f0:	91032c00 	add	x0, x0, #0xcb
  4017f4:	39400000 	ldrb	w0, [x0]
  4017f8:	7100001f 	cmp	w0, #0x0
  4017fc:	54000160 	b.eq	401828 <generic_FH_TUERMODUL_CTRL+0x7c4>  // b.none
  401800:	f00000e0 	adrp	x0, 420000 <__libc_start_main@GLIBC_2.34>
  401804:	91031800 	add	x0, x0, #0xc6
  401808:	39400000 	ldrb	w0, [x0]
  40180c:	7100001f 	cmp	w0, #0x0
  401810:	54000220 	b.eq	401854 <generic_FH_TUERMODUL_CTRL+0x7f0>  // b.none
  401814:	f00000e0 	adrp	x0, 420000 <__libc_start_main@GLIBC_2.34>
  401818:	91032000 	add	x0, x0, #0xc8
  40181c:	39400000 	ldrb	w0, [x0]
  401820:	7100001f 	cmp	w0, #0x0
  401824:	54000181 	b.ne	401854 <generic_FH_TUERMODUL_CTRL+0x7f0>  // b.any
  401828:	f00000e0 	adrp	x0, 420000 <__libc_start_main@GLIBC_2.34>
  40182c:	91040000 	add	x0, x0, #0x100
  401830:	3900001f 	strb	wzr, [x0]
  401834:	f00000e0 	adrp	x0, 420000 <__libc_start_main@GLIBC_2.34>
  401838:	91033400 	add	x0, x0, #0xcd
  40183c:	3900001f 	strb	wzr, [x0]
  401840:	f00000e0 	adrp	x0, 420000 <__libc_start_main@GLIBC_2.34>
  401844:	91042400 	add	x0, x0, #0x109
  401848:	52800061 	mov	w1, #0x3                   	// #3
  40184c:	39000001 	strb	w1, [x0]
  401850:	140000f9 	b	401c34 <generic_FH_TUERMODUL_CTRL+0xbd0>
  401854:	f00000e0 	adrp	x0, 420000 <__libc_start_main@GLIBC_2.34>
  401858:	91042800 	add	x0, x0, #0x10a
  40185c:	39400000 	ldrb	w0, [x0]
  401860:	7100041f 	cmp	w0, #0x1
  401864:	54000080 	b.eq	401874 <generic_FH_TUERMODUL_CTRL+0x810>  // b.none
  401868:	7100081f 	cmp	w0, #0x2
  40186c:	54000400 	b.eq	4018ec <generic_FH_TUERMODUL_CTRL+0x888>  // b.none
  401870:	14000044 	b	401980 <generic_FH_TUERMODUL_CTRL+0x91c>
  401874:	f00000e0 	adrp	x0, 420000 <__libc_start_main@GLIBC_2.34>
  401878:	91046000 	add	x0, x0, #0x118
  40187c:	39005c1f 	strb	wzr, [x0, #23]
  401880:	f00000e0 	adrp	x0, 420000 <__libc_start_main@GLIBC_2.34>
  401884:	91046000 	add	x0, x0, #0x118
  401888:	39405800 	ldrb	w0, [x0, #22]
  40188c:	7100001f 	cmp	w0, #0x0
  401890:	54000900 	b.eq	4019b0 <generic_FH_TUERMODUL_CTRL+0x94c>  // b.none
  401894:	f00000e0 	adrp	x0, 420000 <__libc_start_main@GLIBC_2.34>
  401898:	91040000 	add	x0, x0, #0x100
  40189c:	3900001f 	strb	wzr, [x0]
  4018a0:	f00000e0 	adrp	x0, 420000 <__libc_start_main@GLIBC_2.34>
  4018a4:	91033400 	add	x0, x0, #0xcd
  4018a8:	52800021 	mov	w1, #0x1                   	// #1
  4018ac:	39000001 	strb	w1, [x0]
  4018b0:	f00000e0 	adrp	x0, 420000 <__libc_start_main@GLIBC_2.34>
  4018b4:	9102d400 	add	x0, x0, #0xb5
  4018b8:	3900001f 	strb	wzr, [x0]
  4018bc:	f00000e0 	adrp	x0, 420000 <__libc_start_main@GLIBC_2.34>
  4018c0:	91042800 	add	x0, x0, #0x10a
  4018c4:	52800041 	mov	w1, #0x2                   	// #2
  4018c8:	39000001 	strb	w1, [x0]
  4018cc:	f00000e0 	adrp	x0, 420000 <__libc_start_main@GLIBC_2.34>
  4018d0:	91034000 	add	x0, x0, #0xd0
  4018d4:	3900001f 	strb	wzr, [x0]
  4018d8:	f00000e0 	adrp	x0, 420000 <__libc_start_main@GLIBC_2.34>
  4018dc:	91046000 	add	x0, x0, #0x118
  4018e0:	52800021 	mov	w1, #0x1                   	// #1
  4018e4:	39004401 	strb	w1, [x0, #17]
  4018e8:	14000035 	b	4019bc <generic_FH_TUERMODUL_CTRL+0x958>
  4018ec:	f00000e0 	adrp	x0, 420000 <__libc_start_main@GLIBC_2.34>
  4018f0:	91046000 	add	x0, x0, #0x118
  4018f4:	39406000 	ldrb	w0, [x0, #24]
  4018f8:	7100001f 	cmp	w0, #0x0
  4018fc:	540005e0 	b.eq	4019b8 <generic_FH_TUERMODUL_CTRL+0x954>  // b.none
  401900:	f00000e0 	adrp	x0, 420000 <__libc_start_main@GLIBC_2.34>
  401904:	91040000 	add	x0, x0, #0x100
  401908:	3900001f 	strb	wzr, [x0]
  40190c:	f00000e0 	adrp	x0, 420000 <__libc_start_main@GLIBC_2.34>
  401910:	9102d400 	add	x0, x0, #0xb5
  401914:	52800021 	mov	w1, #0x1                   	// #1
  401918:	39000001 	strb	w1, [x0]
  40191c:	f00000e0 	adrp	x0, 420000 <__libc_start_main@GLIBC_2.34>
  401920:	91046000 	add	x0, x0, #0x118
  401924:	52800021 	mov	w1, #0x1                   	// #1
  401928:	39005c01 	strb	w1, [x0, #23]
  40192c:	f00000e0 	adrp	x0, 420000 <__libc_start_main@GLIBC_2.34>
  401930:	91042800 	add	x0, x0, #0x10a
  401934:	52800021 	mov	w1, #0x1                   	// #1
  401938:	39000001 	strb	w1, [x0]
  40193c:	f00000e0 	adrp	x0, 420000 <__libc_start_main@GLIBC_2.34>
  401940:	91046000 	add	x0, x0, #0x118
  401944:	3900441f 	strb	wzr, [x0, #17]
  401948:	f00000e0 	adrp	x0, 420000 <__libc_start_main@GLIBC_2.34>
  40194c:	91033400 	add	x0, x0, #0xcd
  401950:	3900001f 	strb	wzr, [x0]
  401954:	f00000e0 	adrp	x0, 420000 <__libc_start_main@GLIBC_2.34>
  401958:	9103e000 	add	x0, x0, #0xf8
  40195c:	f9400001 	ldr	x1, [x0]
  401960:	f00000e0 	adrp	x0, 420000 <__libc_start_main@GLIBC_2.34>
  401964:	9101c000 	add	x0, x0, #0x70
  401968:	f9000001 	str	x1, [x0]
  40196c:	f00000e0 	adrp	x0, 420000 <__libc_start_main@GLIBC_2.34>
  401970:	91034000 	add	x0, x0, #0xd0
  401974:	52800021 	mov	w1, #0x1                   	// #1
  401978:	39000001 	strb	w1, [x0]
  40197c:	14000010 	b	4019bc <generic_FH_TUERMODUL_CTRL+0x958>
  401980:	f00000e0 	adrp	x0, 420000 <__libc_start_main@GLIBC_2.34>
  401984:	91040000 	add	x0, x0, #0x100
  401988:	3900001f 	strb	wzr, [x0]
  40198c:	f00000e0 	adrp	x0, 420000 <__libc_start_main@GLIBC_2.34>
  401990:	91042800 	add	x0, x0, #0x10a
  401994:	52800041 	mov	w1, #0x2                   	// #2
  401998:	39000001 	strb	w1, [x0]
  40199c:	f00000e0 	adrp	x0, 420000 <__libc_start_main@GLIBC_2.34>
  4019a0:	91046000 	add	x0, x0, #0x118
  4019a4:	52800021 	mov	w1, #0x1                   	// #1
  4019a8:	39004401 	strb	w1, [x0, #17]
  4019ac:	14000004 	b	4019bc <generic_FH_TUERMODUL_CTRL+0x958>
  4019b0:	d503201f 	nop
  4019b4:	140000a0 	b	401c34 <generic_FH_TUERMODUL_CTRL+0xbd0>
  4019b8:	d503201f 	nop
  4019bc:	1400009e 	b	401c34 <generic_FH_TUERMODUL_CTRL+0xbd0>
  4019c0:	f00000e0 	adrp	x0, 420000 <__libc_start_main@GLIBC_2.34>
  4019c4:	91031800 	add	x0, x0, #0xc6
  4019c8:	39400000 	ldrb	w0, [x0]
  4019cc:	7100001f 	cmp	w0, #0x0
  4019d0:	54000221 	b.ne	401a14 <generic_FH_TUERMODUL_CTRL+0x9b0>  // b.any
  4019d4:	f00000e0 	adrp	x0, 420000 <__libc_start_main@GLIBC_2.34>
  4019d8:	91032000 	add	x0, x0, #0xc8
  4019dc:	39400000 	ldrb	w0, [x0]
  4019e0:	7100001f 	cmp	w0, #0x0
  4019e4:	54000180 	b.eq	401a14 <generic_FH_TUERMODUL_CTRL+0x9b0>  // b.none
  4019e8:	f00000e0 	adrp	x0, 420000 <__libc_start_main@GLIBC_2.34>
  4019ec:	91040000 	add	x0, x0, #0x100
  4019f0:	3900001f 	strb	wzr, [x0]
  4019f4:	f00000e0 	adrp	x0, 420000 <__libc_start_main@GLIBC_2.34>
  4019f8:	91033400 	add	x0, x0, #0xcd
  4019fc:	3900001f 	strb	wzr, [x0]
  401a00:	f00000e0 	adrp	x0, 420000 <__libc_start_main@GLIBC_2.34>
  401a04:	91042400 	add	x0, x0, #0x109
  401a08:	52800061 	mov	w1, #0x3                   	// #3
  401a0c:	39000001 	strb	w1, [x0]
  401a10:	14000089 	b	401c34 <generic_FH_TUERMODUL_CTRL+0xbd0>
  401a14:	f00000e0 	adrp	x0, 420000 <__libc_start_main@GLIBC_2.34>
  401a18:	91042c00 	add	x0, x0, #0x10b
  401a1c:	39400000 	ldrb	w0, [x0]
  401a20:	7100041f 	cmp	w0, #0x1
  401a24:	54000080 	b.eq	401a34 <generic_FH_TUERMODUL_CTRL+0x9d0>  // b.none
  401a28:	7100081f 	cmp	w0, #0x2
  401a2c:	54000400 	b.eq	401aac <generic_FH_TUERMODUL_CTRL+0xa48>  // b.none
  401a30:	14000059 	b	401b94 <generic_FH_TUERMODUL_CTRL+0xb30>
  401a34:	f00000e0 	adrp	x0, 420000 <__libc_start_main@GLIBC_2.34>
  401a38:	91046000 	add	x0, x0, #0x118
  401a3c:	39005c1f 	strb	wzr, [x0, #23]
  401a40:	f00000e0 	adrp	x0, 420000 <__libc_start_main@GLIBC_2.34>
  401a44:	91046000 	add	x0, x0, #0x118
  401a48:	39405800 	ldrb	w0, [x0, #22]
  401a4c:	7100001f 	cmp	w0, #0x0
  401a50:	54000c20 	b.eq	401bd4 <generic_FH_TUERMODUL_CTRL+0xb70>  // b.none
  401a54:	f00000e0 	adrp	x0, 420000 <__libc_start_main@GLIBC_2.34>
  401a58:	91040000 	add	x0, x0, #0x100
  401a5c:	3900001f 	strb	wzr, [x0]
  401a60:	f00000e0 	adrp	x0, 420000 <__libc_start_main@GLIBC_2.34>
  401a64:	9102dc00 	add	x0, x0, #0xb7
  401a68:	3900001f 	strb	wzr, [x0]
  401a6c:	f00000e0 	adrp	x0, 420000 <__libc_start_main@GLIBC_2.34>
  401a70:	91042c00 	add	x0, x0, #0x10b
  401a74:	52800041 	mov	w1, #0x2                   	// #2
  401a78:	39000001 	strb	w1, [x0]
  401a7c:	f00000e0 	adrp	x0, 420000 <__libc_start_main@GLIBC_2.34>
  401a80:	91034000 	add	x0, x0, #0xd0
  401a84:	3900001f 	strb	wzr, [x0]
  401a88:	f00000e0 	adrp	x0, 420000 <__libc_start_main@GLIBC_2.34>
  401a8c:	91046000 	add	x0, x0, #0x118
  401a90:	52800021 	mov	w1, #0x1                   	// #1
  401a94:	39004401 	strb	w1, [x0, #17]
  401a98:	f00000e0 	adrp	x0, 420000 <__libc_start_main@GLIBC_2.34>
  401a9c:	91033400 	add	x0, x0, #0xcd
  401aa0:	52800021 	mov	w1, #0x1                   	// #1
  401aa4:	39000001 	strb	w1, [x0]
  401aa8:	1400004e 	b	401be0 <generic_FH_TUERMODUL_CTRL+0xb7c>
  401aac:	f00000e0 	adrp	x0, 420000 <__libc_start_main@GLIBC_2.34>
  401ab0:	91046000 	add	x0, x0, #0x118
  401ab4:	39406000 	ldrb	w0, [x0, #24]
  401ab8:	7100001f 	cmp	w0, #0x0
  401abc:	54000420 	b.eq	401b40 <generic_FH_TUERMODUL_CTRL+0xadc>  // b.none
  401ac0:	f00000e0 	adrp	x0, 420000 <__libc_start_main@GLIBC_2.34>
  401ac4:	91040000 	add	x0, x0, #0x100
  401ac8:	3900001f 	strb	wzr, [x0]
  401acc:	f00000e0 	adrp	x0, 420000 <__libc_start_main@GLIBC_2.34>
  401ad0:	91033400 	add	x0, x0, #0xcd
  401ad4:	3900001f 	strb	wzr, [x0]
  401ad8:	f00000e0 	adrp	x0, 420000 <__libc_start_main@GLIBC_2.34>
  401adc:	9102dc00 	add	x0, x0, #0xb7
  401ae0:	52800021 	mov	w1, #0x1                   	// #1
  401ae4:	39000001 	strb	w1, [x0]
  401ae8:	f00000e0 	adrp	x0, 420000 <__libc_start_main@GLIBC_2.34>
  401aec:	91046000 	add	x0, x0, #0x118
  401af0:	52800021 	mov	w1, #0x1                   	// #1
  401af4:	39005c01 	strb	w1, [x0, #23]
  401af8:	f00000e0 	adrp	x0, 420000 <__libc_start_main@GLIBC_2.34>
  401afc:	91042c00 	add	x0, x0, #0x10b
  401b00:	52800021 	mov	w1, #0x1                   	// #1
  401b04:	39000001 	strb	w1, [x0]
  401b08:	f00000e0 	adrp	x0, 420000 <__libc_start_main@GLIBC_2.34>
  401b0c:	91046000 	add	x0, x0, #0x118
  401b10:	3900441f 	strb	wzr, [x0, #17]
  401b14:	f00000e0 	adrp	x0, 420000 <__libc_start_main@GLIBC_2.34>
  401b18:	9103e000 	add	x0, x0, #0xf8
  401b1c:	f9400001 	ldr	x1, [x0]
  401b20:	f00000e0 	adrp	x0, 420000 <__libc_start_main@GLIBC_2.34>
  401b24:	9101e000 	add	x0, x0, #0x78
  401b28:	f9000001 	str	x1, [x0]
  401b2c:	f00000e0 	adrp	x0, 420000 <__libc_start_main@GLIBC_2.34>
  401b30:	91034000 	add	x0, x0, #0xd0
  401b34:	52800021 	mov	w1, #0x1                   	// #1
  401b38:	39000001 	strb	w1, [x0]
  401b3c:	14000029 	b	401be0 <generic_FH_TUERMODUL_CTRL+0xb7c>
  401b40:	f00000e0 	adrp	x0, 420000 <__libc_start_main@GLIBC_2.34>
  401b44:	91032400 	add	x0, x0, #0xc9
  401b48:	39400000 	ldrb	w0, [x0]
  401b4c:	7100001f 	cmp	w0, #0x0
  401b50:	54000460 	b.eq	401bdc <generic_FH_TUERMODUL_CTRL+0xb78>  // b.none
  401b54:	f00000e0 	adrp	x0, 420000 <__libc_start_main@GLIBC_2.34>
  401b58:	91032c00 	add	x0, x0, #0xcb
  401b5c:	39400000 	ldrb	w0, [x0]
  401b60:	7100001f 	cmp	w0, #0x0
  401b64:	540003c1 	b.ne	401bdc <generic_FH_TUERMODUL_CTRL+0xb78>  // b.any
  401b68:	f00000e0 	adrp	x0, 420000 <__libc_start_main@GLIBC_2.34>
  401b6c:	91040000 	add	x0, x0, #0x100
  401b70:	3900001f 	strb	wzr, [x0]
  401b74:	f00000e0 	adrp	x0, 420000 <__libc_start_main@GLIBC_2.34>
  401b78:	91043400 	add	x0, x0, #0x10d
  401b7c:	52800021 	mov	w1, #0x1                   	// #1
  401b80:	39000001 	strb	w1, [x0]
  401b84:	f00000e0 	adrp	x0, 420000 <__libc_start_main@GLIBC_2.34>
  401b88:	91042c00 	add	x0, x0, #0x10b
  401b8c:	3900001f 	strb	wzr, [x0]
  401b90:	14000014 	b	401be0 <generic_FH_TUERMODUL_CTRL+0xb7c>
  401b94:	f00000e0 	adrp	x0, 420000 <__libc_start_main@GLIBC_2.34>
  401b98:	91040000 	add	x0, x0, #0x100
  401b9c:	3900001f 	strb	wzr, [x0]
  401ba0:	f00000e0 	adrp	x0, 420000 <__libc_start_main@GLIBC_2.34>
  401ba4:	91042c00 	add	x0, x0, #0x10b
  401ba8:	52800041 	mov	w1, #0x2                   	// #2
  401bac:	39000001 	strb	w1, [x0]
  401bb0:	f00000e0 	adrp	x0, 420000 <__libc_start_main@GLIBC_2.34>
  401bb4:	91046000 	add	x0, x0, #0x118
  401bb8:	52800021 	mov	w1, #0x1                   	// #1
  401bbc:	39004401 	strb	w1, [x0, #17]
  401bc0:	f00000e0 	adrp	x0, 420000 <__libc_start_main@GLIBC_2.34>
  401bc4:	91033400 	add	x0, x0, #0xcd
  401bc8:	52800021 	mov	w1, #0x1                   	// #1
  401bcc:	39000001 	strb	w1, [x0]
  401bd0:	14000004 	b	401be0 <generic_FH_TUERMODUL_CTRL+0xb7c>
  401bd4:	d503201f 	nop
  401bd8:	14000017 	b	401c34 <generic_FH_TUERMODUL_CTRL+0xbd0>
  401bdc:	d503201f 	nop
  401be0:	14000015 	b	401c34 <generic_FH_TUERMODUL_CTRL+0xbd0>
  401be4:	f00000e0 	adrp	x0, 420000 <__libc_start_main@GLIBC_2.34>
  401be8:	91040000 	add	x0, x0, #0x100
  401bec:	3900001f 	strb	wzr, [x0]
  401bf0:	f00000e0 	adrp	x0, 420000 <__libc_start_main@GLIBC_2.34>
  401bf4:	91043400 	add	x0, x0, #0x10d
  401bf8:	52800041 	mov	w1, #0x2                   	// #2
  401bfc:	39000001 	strb	w1, [x0]
  401c00:	f00000e0 	adrp	x0, 420000 <__libc_start_main@GLIBC_2.34>
  401c04:	91042c00 	add	x0, x0, #0x10b
  401c08:	52800041 	mov	w1, #0x2                   	// #2
  401c0c:	39000001 	strb	w1, [x0]
  401c10:	f00000e0 	adrp	x0, 420000 <__libc_start_main@GLIBC_2.34>
  401c14:	91046000 	add	x0, x0, #0x118
  401c18:	52800021 	mov	w1, #0x1                   	// #1
  401c1c:	39004401 	strb	w1, [x0, #17]
  401c20:	f00000e0 	adrp	x0, 420000 <__libc_start_main@GLIBC_2.34>
  401c24:	91033400 	add	x0, x0, #0xcd
  401c28:	52800021 	mov	w1, #0x1                   	// #1
  401c2c:	39000001 	strb	w1, [x0]
  401c30:	d503201f 	nop
  401c34:	14000050 	b	401d74 <generic_FH_TUERMODUL_CTRL+0xd10>
  401c38:	f00000e0 	adrp	x0, 420000 <__libc_start_main@GLIBC_2.34>
  401c3c:	91031800 	add	x0, x0, #0xc6
  401c40:	39400000 	ldrb	w0, [x0]
  401c44:	7100001f 	cmp	w0, #0x0
  401c48:	54000460 	b.eq	401cd4 <generic_FH_TUERMODUL_CTRL+0xc70>  // b.none
  401c4c:	f00000e0 	adrp	x0, 420000 <__libc_start_main@GLIBC_2.34>
  401c50:	91032000 	add	x0, x0, #0xc8
  401c54:	39400000 	ldrb	w0, [x0]
  401c58:	7100001f 	cmp	w0, #0x0
  401c5c:	540003c1 	b.ne	401cd4 <generic_FH_TUERMODUL_CTRL+0xc70>  // b.any
  401c60:	f00000e0 	adrp	x0, 420000 <__libc_start_main@GLIBC_2.34>
  401c64:	91020000 	add	x0, x0, #0x80
  401c68:	b9400000 	ldr	w0, [x0]
  401c6c:	7100001f 	cmp	w0, #0x0
  401c70:	5400032d 	b.le	401cd4 <generic_FH_TUERMODUL_CTRL+0xc70>
  401c74:	f00000e0 	adrp	x0, 420000 <__libc_start_main@GLIBC_2.34>
  401c78:	91040000 	add	x0, x0, #0x100
  401c7c:	3900001f 	strb	wzr, [x0]
  401c80:	f00000e0 	adrp	x0, 420000 <__libc_start_main@GLIBC_2.34>
  401c84:	91042400 	add	x0, x0, #0x109
  401c88:	52800041 	mov	w1, #0x2                   	// #2
  401c8c:	39000001 	strb	w1, [x0]
  401c90:	f00000e0 	adrp	x0, 420000 <__libc_start_main@GLIBC_2.34>
  401c94:	91043400 	add	x0, x0, #0x10d
  401c98:	52800041 	mov	w1, #0x2                   	// #2
  401c9c:	39000001 	strb	w1, [x0]
  401ca0:	f00000e0 	adrp	x0, 420000 <__libc_start_main@GLIBC_2.34>
  401ca4:	91042c00 	add	x0, x0, #0x10b
  401ca8:	52800041 	mov	w1, #0x2                   	// #2
  401cac:	39000001 	strb	w1, [x0]
  401cb0:	f00000e0 	adrp	x0, 420000 <__libc_start_main@GLIBC_2.34>
  401cb4:	91046000 	add	x0, x0, #0x118
  401cb8:	52800021 	mov	w1, #0x1                   	// #1
  401cbc:	39004401 	strb	w1, [x0, #17]
  401cc0:	f00000e0 	adrp	x0, 420000 <__libc_start_main@GLIBC_2.34>
  401cc4:	91033400 	add	x0, x0, #0xcd
  401cc8:	52800021 	mov	w1, #0x1                   	// #1
  401ccc:	39000001 	strb	w1, [x0]
  401cd0:	14000029 	b	401d74 <generic_FH_TUERMODUL_CTRL+0xd10>
  401cd4:	f00000e0 	adrp	x0, 420000 <__libc_start_main@GLIBC_2.34>
  401cd8:	91032400 	add	x0, x0, #0xc9
  401cdc:	39400000 	ldrb	w0, [x0]
  401ce0:	7100001f 	cmp	w0, #0x0
  401ce4:	54000460 	b.eq	401d70 <generic_FH_TUERMODUL_CTRL+0xd0c>  // b.none
  401ce8:	f00000e0 	adrp	x0, 420000 <__libc_start_main@GLIBC_2.34>
  401cec:	91032c00 	add	x0, x0, #0xcb
  401cf0:	39400000 	ldrb	w0, [x0]
  401cf4:	7100001f 	cmp	w0, #0x0
  401cf8:	540003c1 	b.ne	401d70 <generic_FH_TUERMODUL_CTRL+0xd0c>  // b.any
  401cfc:	f00000e0 	adrp	x0, 420000 <__libc_start_main@GLIBC_2.34>
  401d00:	91020000 	add	x0, x0, #0x80
  401d04:	b9400000 	ldr	w0, [x0]
  401d08:	7106501f 	cmp	w0, #0x194
  401d0c:	5400032c 	b.gt	401d70 <generic_FH_TUERMODUL_CTRL+0xd0c>
  401d10:	f00000e0 	adrp	x0, 420000 <__libc_start_main@GLIBC_2.34>
  401d14:	91040000 	add	x0, x0, #0x100
  401d18:	3900001f 	strb	wzr, [x0]
  401d1c:	f00000e0 	adrp	x0, 420000 <__libc_start_main@GLIBC_2.34>
  401d20:	91034000 	add	x0, x0, #0xd0
  401d24:	52800021 	mov	w1, #0x1                   	// #1
  401d28:	39000001 	strb	w1, [x0]
  401d2c:	f00000e0 	adrp	x0, 420000 <__libc_start_main@GLIBC_2.34>
  401d30:	91042400 	add	x0, x0, #0x109
  401d34:	52800021 	mov	w1, #0x1                   	// #1
  401d38:	39000001 	strb	w1, [x0]
  401d3c:	f00000e0 	adrp	x0, 420000 <__libc_start_main@GLIBC_2.34>
  401d40:	91043000 	add	x0, x0, #0x10c
  401d44:	52800041 	mov	w1, #0x2                   	// #2
  401d48:	39000001 	strb	w1, [x0]
  401d4c:	1400000a 	b	401d74 <generic_FH_TUERMODUL_CTRL+0xd10>
  401d50:	f00000e0 	adrp	x0, 420000 <__libc_start_main@GLIBC_2.34>
  401d54:	91040000 	add	x0, x0, #0x100
  401d58:	3900001f 	strb	wzr, [x0]
  401d5c:	f00000e0 	adrp	x0, 420000 <__libc_start_main@GLIBC_2.34>
  401d60:	91042400 	add	x0, x0, #0x109
  401d64:	52800061 	mov	w1, #0x3                   	// #3
  401d68:	39000001 	strb	w1, [x0]
  401d6c:	14000002 	b	401d74 <generic_FH_TUERMODUL_CTRL+0xd10>
  401d70:	d503201f 	nop
  401d74:	1400000a 	b	401d9c <generic_FH_TUERMODUL_CTRL+0xd38>
  401d78:	f00000e0 	adrp	x0, 420000 <__libc_start_main@GLIBC_2.34>
  401d7c:	91040000 	add	x0, x0, #0x100
  401d80:	3900001f 	strb	wzr, [x0]
  401d84:	f00000e0 	adrp	x0, 420000 <__libc_start_main@GLIBC_2.34>
  401d88:	91041800 	add	x0, x0, #0x106
  401d8c:	52800041 	mov	w1, #0x2                   	// #2
  401d90:	39000001 	strb	w1, [x0]
  401d94:	14000002 	b	401d9c <generic_FH_TUERMODUL_CTRL+0xd38>
  401d98:	d503201f 	nop
  401d9c:	f00000e0 	adrp	x0, 420000 <__libc_start_main@GLIBC_2.34>
  401da0:	91041c00 	add	x0, x0, #0x107
  401da4:	39400000 	ldrb	w0, [x0]
  401da8:	7100041f 	cmp	w0, #0x1
  401dac:	54000f81 	b.ne	401f9c <generic_FH_TUERMODUL_CTRL+0xf38>  // b.any
  401db0:	f00000e0 	adrp	x0, 420000 <__libc_start_main@GLIBC_2.34>
  401db4:	91046000 	add	x0, x0, #0x118
  401db8:	3900141f 	strb	wzr, [x0, #5]
  401dbc:	f00000e0 	adrp	x0, 420000 <__libc_start_main@GLIBC_2.34>
  401dc0:	91040400 	add	x0, x0, #0x101
  401dc4:	39400000 	ldrb	w0, [x0]
  401dc8:	7100041f 	cmp	w0, #0x1
  401dcc:	54000601 	b.ne	401e8c <generic_FH_TUERMODUL_CTRL+0xe28>  // b.any
  401dd0:	f00000e0 	adrp	x0, 420000 <__libc_start_main@GLIBC_2.34>
  401dd4:	9100e000 	add	x0, x0, #0x38
  401dd8:	f9400000 	ldr	x0, [x0]
  401ddc:	f100001f 	cmp	x0, #0x0
  401de0:	54000560 	b.eq	401e8c <generic_FH_TUERMODUL_CTRL+0xe28>  // b.none
  401de4:	f00000e0 	adrp	x0, 420000 <__libc_start_main@GLIBC_2.34>
  401de8:	9103e000 	add	x0, x0, #0xf8
  401dec:	f9400001 	ldr	x1, [x0]
  401df0:	f00000e0 	adrp	x0, 420000 <__libc_start_main@GLIBC_2.34>
  401df4:	9100e000 	add	x0, x0, #0x38
  401df8:	f9400000 	ldr	x0, [x0]
  401dfc:	cb000020 	sub	x0, x1, x0
  401e00:	f100041f 	cmp	x0, #0x1
  401e04:	54000441 	b.ne	401e8c <generic_FH_TUERMODUL_CTRL+0xe28>  // b.any
  401e08:	f00000e0 	adrp	x0, 420000 <__libc_start_main@GLIBC_2.34>
  401e0c:	91033000 	add	x0, x0, #0xcc
  401e10:	39400000 	ldrb	w0, [x0]
  401e14:	7100001f 	cmp	w0, #0x0
  401e18:	540000c1 	b.ne	401e30 <generic_FH_TUERMODUL_CTRL+0xdcc>  // b.any
  401e1c:	f00000e0 	adrp	x0, 420000 <__libc_start_main@GLIBC_2.34>
  401e20:	91033c00 	add	x0, x0, #0xcf
  401e24:	39400000 	ldrb	w0, [x0]
  401e28:	7100001f 	cmp	w0, #0x0
  401e2c:	54000300 	b.eq	401e8c <generic_FH_TUERMODUL_CTRL+0xe28>  // b.none
  401e30:	f00000e0 	adrp	x0, 420000 <__libc_start_main@GLIBC_2.34>
  401e34:	91040000 	add	x0, x0, #0x100
  401e38:	3900001f 	strb	wzr, [x0]
  401e3c:	f00000e0 	adrp	x0, 420000 <__libc_start_main@GLIBC_2.34>
  401e40:	91018000 	add	x0, x0, #0x60
  401e44:	b9400000 	ldr	w0, [x0]
  401e48:	11000401 	add	w1, w0, #0x1
  401e4c:	f00000e0 	adrp	x0, 420000 <__libc_start_main@GLIBC_2.34>
  401e50:	91018000 	add	x0, x0, #0x60
  401e54:	b9000001 	str	w1, [x0]
  401e58:	f00000e0 	adrp	x0, 420000 <__libc_start_main@GLIBC_2.34>
  401e5c:	91041c00 	add	x0, x0, #0x107
  401e60:	52800021 	mov	w1, #0x1                   	// #1
  401e64:	39000001 	strb	w1, [x0]
  401e68:	f00000e0 	adrp	x0, 420000 <__libc_start_main@GLIBC_2.34>
  401e6c:	91046000 	add	x0, x0, #0x118
  401e70:	52800021 	mov	w1, #0x1                   	// #1
  401e74:	39001401 	strb	w1, [x0, #5]
  401e78:	f00000e0 	adrp	x0, 420000 <__libc_start_main@GLIBC_2.34>
  401e7c:	91042000 	add	x0, x0, #0x108
  401e80:	52800021 	mov	w1, #0x1                   	// #1
  401e84:	39000001 	strb	w1, [x0]
  401e88:	14000058 	b	401fe8 <generic_FH_TUERMODUL_CTRL+0xf84>
  401e8c:	f00000e0 	adrp	x0, 420000 <__libc_start_main@GLIBC_2.34>
  401e90:	91042000 	add	x0, x0, #0x108
  401e94:	39400000 	ldrb	w0, [x0]
  401e98:	7100041f 	cmp	w0, #0x1
  401e9c:	54000641 	b.ne	401f64 <generic_FH_TUERMODUL_CTRL+0xf00>  // b.any
  401ea0:	f00000e0 	adrp	x0, 420000 <__libc_start_main@GLIBC_2.34>
  401ea4:	91040400 	add	x0, x0, #0x101
  401ea8:	39400000 	ldrb	w0, [x0]
  401eac:	7100041f 	cmp	w0, #0x1
  401eb0:	54000721 	b.ne	401f94 <generic_FH_TUERMODUL_CTRL+0xf30>  // b.any
  401eb4:	f00000e0 	adrp	x0, 420000 <__libc_start_main@GLIBC_2.34>
  401eb8:	91010000 	add	x0, x0, #0x40
  401ebc:	f9400000 	ldr	x0, [x0]
  401ec0:	f100001f 	cmp	x0, #0x0
  401ec4:	54000680 	b.eq	401f94 <generic_FH_TUERMODUL_CTRL+0xf30>  // b.none
  401ec8:	f00000e0 	adrp	x0, 420000 <__libc_start_main@GLIBC_2.34>
  401ecc:	9103e000 	add	x0, x0, #0xf8
  401ed0:	f9400001 	ldr	x1, [x0]
  401ed4:	f00000e0 	adrp	x0, 420000 <__libc_start_main@GLIBC_2.34>
  401ed8:	91010000 	add	x0, x0, #0x40
  401edc:	f9400000 	ldr	x0, [x0]
  401ee0:	cb000020 	sub	x0, x1, x0
  401ee4:	f1000c1f 	cmp	x0, #0x3
  401ee8:	54000561 	b.ne	401f94 <generic_FH_TUERMODUL_CTRL+0xf30>  // b.any
  401eec:	f00000e0 	adrp	x0, 420000 <__libc_start_main@GLIBC_2.34>
  401ef0:	91033000 	add	x0, x0, #0xcc
  401ef4:	39400000 	ldrb	w0, [x0]
  401ef8:	7100001f 	cmp	w0, #0x0
  401efc:	540004c1 	b.ne	401f94 <generic_FH_TUERMODUL_CTRL+0xf30>  // b.any
  401f00:	f00000e0 	adrp	x0, 420000 <__libc_start_main@GLIBC_2.34>
  401f04:	91033c00 	add	x0, x0, #0xcf
  401f08:	39400000 	ldrb	w0, [x0]
  401f0c:	7100001f 	cmp	w0, #0x0
  401f10:	54000421 	b.ne	401f94 <generic_FH_TUERMODUL_CTRL+0xf30>  // b.any
  401f14:	f00000e0 	adrp	x0, 420000 <__libc_start_main@GLIBC_2.34>
  401f18:	91018000 	add	x0, x0, #0x60
  401f1c:	b9400000 	ldr	w0, [x0]
  401f20:	7100001f 	cmp	w0, #0x0
  401f24:	5400038d 	b.le	401f94 <generic_FH_TUERMODUL_CTRL+0xf30>
  401f28:	f00000e0 	adrp	x0, 420000 <__libc_start_main@GLIBC_2.34>
  401f2c:	91040000 	add	x0, x0, #0x100
  401f30:	3900001f 	strb	wzr, [x0]
  401f34:	f00000e0 	adrp	x0, 420000 <__libc_start_main@GLIBC_2.34>
  401f38:	91018000 	add	x0, x0, #0x60
  401f3c:	b9400000 	ldr	w0, [x0]
  401f40:	51000401 	sub	w1, w0, #0x1
  401f44:	f00000e0 	adrp	x0, 420000 <__libc_start_main@GLIBC_2.34>
  401f48:	91018000 	add	x0, x0, #0x60
  401f4c:	b9000001 	str	w1, [x0]
  401f50:	f00000e0 	adrp	x0, 420000 <__libc_start_main@GLIBC_2.34>
  401f54:	91042000 	add	x0, x0, #0x108
  401f58:	52800021 	mov	w1, #0x1                   	// #1
  401f5c:	39000001 	strb	w1, [x0]
  401f60:	1400000e 	b	401f98 <generic_FH_TUERMODUL_CTRL+0xf34>
  401f64:	f00000e0 	adrp	x0, 420000 <__libc_start_main@GLIBC_2.34>
  401f68:	91040000 	add	x0, x0, #0x100
  401f6c:	3900001f 	strb	wzr, [x0]
  401f70:	f00000e0 	adrp	x0, 420000 <__libc_start_main@GLIBC_2.34>
  401f74:	91046000 	add	x0, x0, #0x118
  401f78:	52800021 	mov	w1, #0x1                   	// #1
  401f7c:	39001401 	strb	w1, [x0, #5]
  401f80:	f00000e0 	adrp	x0, 420000 <__libc_start_main@GLIBC_2.34>
  401f84:	91042000 	add	x0, x0, #0x108
  401f88:	52800021 	mov	w1, #0x1                   	// #1
  401f8c:	39000001 	strb	w1, [x0]
  401f90:	14000002 	b	401f98 <generic_FH_TUERMODUL_CTRL+0xf34>
  401f94:	d503201f 	nop
  401f98:	14000014 	b	401fe8 <generic_FH_TUERMODUL_CTRL+0xf84>
  401f9c:	f00000e0 	adrp	x0, 420000 <__libc_start_main@GLIBC_2.34>
  401fa0:	91040000 	add	x0, x0, #0x100
  401fa4:	3900001f 	strb	wzr, [x0]
  401fa8:	f00000e0 	adrp	x0, 420000 <__libc_start_main@GLIBC_2.34>
  401fac:	91018000 	add	x0, x0, #0x60
  401fb0:	b900001f 	str	wzr, [x0]
  401fb4:	f00000e0 	adrp	x0, 420000 <__libc_start_main@GLIBC_2.34>
  401fb8:	91041c00 	add	x0, x0, #0x107
  401fbc:	52800021 	mov	w1, #0x1                   	// #1
  401fc0:	39000001 	strb	w1, [x0]
  401fc4:	f00000e0 	adrp	x0, 420000 <__libc_start_main@GLIBC_2.34>
  401fc8:	91046000 	add	x0, x0, #0x118
  401fcc:	52800021 	mov	w1, #0x1                   	// #1
  401fd0:	39001401 	strb	w1, [x0, #5]
  401fd4:	f00000e0 	adrp	x0, 420000 <__libc_start_main@GLIBC_2.34>
  401fd8:	91042000 	add	x0, x0, #0x108
  401fdc:	52800021 	mov	w1, #0x1                   	// #1
  401fe0:	39000001 	strb	w1, [x0]
  401fe4:	d503201f 	nop
  401fe8:	f00000e0 	adrp	x0, 420000 <__libc_start_main@GLIBC_2.34>
  401fec:	91046000 	add	x0, x0, #0x118
  401ff0:	39401001 	ldrb	w1, [x0, #4]
  401ff4:	f00000e0 	adrp	x0, 420000 <__libc_start_main@GLIBC_2.34>
  401ff8:	91046000 	add	x0, x0, #0x118
  401ffc:	39001401 	strb	w1, [x0, #5]
  402000:	d00000e0 	adrp	x0, 420000 <__libc_start_main@GLIBC_2.34>
  402004:	91046000 	add	x0, x0, #0x118
  402008:	39401801 	ldrb	w1, [x0, #6]
  40200c:	d00000e0 	adrp	x0, 420000 <__libc_start_main@GLIBC_2.34>
  402010:	91046000 	add	x0, x0, #0x118
  402014:	39001c01 	strb	w1, [x0, #7]
  402018:	d503201f 	nop
  40201c:	d65f03c0 	ret

0000000000402020 <generic_EINKLEMMSCHUTZ_CTRL>:
  402020:	d00000e0 	adrp	x0, 420000 <__libc_start_main@GLIBC_2.34>
  402024:	91046000 	add	x0, x0, #0x118
  402028:	39404000 	ldrb	w0, [x0, #16]
  40202c:	7100001f 	cmp	w0, #0x0
  402030:	540008c0 	b.eq	402148 <generic_EINKLEMMSCHUTZ_CTRL+0x128>  // b.none
  402034:	d00000e0 	adrp	x0, 420000 <__libc_start_main@GLIBC_2.34>
  402038:	91043c00 	add	x0, x0, #0x10f
  40203c:	39400000 	ldrb	w0, [x0]
  402040:	7100041f 	cmp	w0, #0x1
  402044:	54000080 	b.eq	402054 <generic_EINKLEMMSCHUTZ_CTRL+0x34>  // b.none
  402048:	7100081f 	cmp	w0, #0x2
  40204c:	54000440 	b.eq	4020d4 <generic_EINKLEMMSCHUTZ_CTRL+0xb4>  // b.none
  402050:	14000036 	b	402128 <generic_EINKLEMMSCHUTZ_CTRL+0x108>
  402054:	d00000e0 	adrp	x0, 420000 <__libc_start_main@GLIBC_2.34>
  402058:	91034800 	add	x0, x0, #0xd2
  40205c:	39400000 	ldrb	w0, [x0]
  402060:	7100001f 	cmp	w0, #0x0
  402064:	54000760 	b.eq	402150 <generic_EINKLEMMSCHUTZ_CTRL+0x130>  // b.none
  402068:	d00000e0 	adrp	x0, 420000 <__libc_start_main@GLIBC_2.34>
  40206c:	91034c00 	add	x0, x0, #0xd3
  402070:	39400000 	ldrb	w0, [x0]
  402074:	7100001f 	cmp	w0, #0x0
  402078:	540006c1 	b.ne	402150 <generic_EINKLEMMSCHUTZ_CTRL+0x130>  // b.any
  40207c:	d00000e0 	adrp	x0, 420000 <__libc_start_main@GLIBC_2.34>
  402080:	91031800 	add	x0, x0, #0xc6
  402084:	39400000 	ldrb	w0, [x0]
  402088:	7100001f 	cmp	w0, #0x0
  40208c:	540000c0 	b.eq	4020a4 <generic_EINKLEMMSCHUTZ_CTRL+0x84>  // b.none
  402090:	d00000e0 	adrp	x0, 420000 <__libc_start_main@GLIBC_2.34>
  402094:	91032400 	add	x0, x0, #0xc9
  402098:	39400000 	ldrb	w0, [x0]
  40209c:	7100001f 	cmp	w0, #0x0
  4020a0:	54000581 	b.ne	402150 <generic_EINKLEMMSCHUTZ_CTRL+0x130>  // b.any
  4020a4:	d00000e0 	adrp	x0, 420000 <__libc_start_main@GLIBC_2.34>
  4020a8:	91040000 	add	x0, x0, #0x100
  4020ac:	3900001f 	strb	wzr, [x0]
  4020b0:	d00000e0 	adrp	x0, 420000 <__libc_start_main@GLIBC_2.34>
  4020b4:	91046000 	add	x0, x0, #0x118
  4020b8:	52800021 	mov	w1, #0x1                   	// #1
  4020bc:	39006001 	strb	w1, [x0, #24]
  4020c0:	d00000e0 	adrp	x0, 420000 <__libc_start_main@GLIBC_2.34>
  4020c4:	91043c00 	add	x0, x0, #0x10f
  4020c8:	52800041 	mov	w1, #0x2                   	// #2
  4020cc:	39000001 	strb	w1, [x0]
  4020d0:	14000023 	b	40215c <generic_EINKLEMMSCHUTZ_CTRL+0x13c>
  4020d4:	d00000e0 	adrp	x0, 420000 <__libc_start_main@GLIBC_2.34>
  4020d8:	91046000 	add	x0, x0, #0x118
  4020dc:	3900601f 	strb	wzr, [x0, #24]
  4020e0:	d00000e0 	adrp	x0, 420000 <__libc_start_main@GLIBC_2.34>
  4020e4:	91034800 	add	x0, x0, #0xd2
  4020e8:	39400000 	ldrb	w0, [x0]
  4020ec:	7100001f 	cmp	w0, #0x0
  4020f0:	54000341 	b.ne	402158 <generic_EINKLEMMSCHUTZ_CTRL+0x138>  // b.any
  4020f4:	d00000e0 	adrp	x0, 420000 <__libc_start_main@GLIBC_2.34>
  4020f8:	91034c00 	add	x0, x0, #0xd3
  4020fc:	39400000 	ldrb	w0, [x0]
  402100:	7100001f 	cmp	w0, #0x0
  402104:	540002a0 	b.eq	402158 <generic_EINKLEMMSCHUTZ_CTRL+0x138>  // b.none
  402108:	d00000e0 	adrp	x0, 420000 <__libc_start_main@GLIBC_2.34>
  40210c:	91040000 	add	x0, x0, #0x100
  402110:	3900001f 	strb	wzr, [x0]
  402114:	d00000e0 	adrp	x0, 420000 <__libc_start_main@GLIBC_2.34>
  402118:	91043c00 	add	x0, x0, #0x10f
  40211c:	52800021 	mov	w1, #0x1                   	// #1
  402120:	39000001 	strb	w1, [x0]
  402124:	1400000e 	b	40215c <generic_EINKLEMMSCHUTZ_CTRL+0x13c>
  402128:	d00000e0 	adrp	x0, 420000 <__libc_start_main@GLIBC_2.34>
  40212c:	91040000 	add	x0, x0, #0x100
  402130:	3900001f 	strb	wzr, [x0]
  402134:	d00000e0 	adrp	x0, 420000 <__libc_start_main@GLIBC_2.34>
  402138:	91043c00 	add	x0, x0, #0x10f
  40213c:	52800021 	mov	w1, #0x1                   	// #1
  402140:	39000001 	strb	w1, [x0]
  402144:	14000006 	b	40215c <generic_EINKLEMMSCHUTZ_CTRL+0x13c>
  402148:	d503201f 	nop
  40214c:	14000004 	b	40215c <generic_EINKLEMMSCHUTZ_CTRL+0x13c>
  402150:	d503201f 	nop
  402154:	14000002 	b	40215c <generic_EINKLEMMSCHUTZ_CTRL+0x13c>
  402158:	d503201f 	nop
  40215c:	d503201f 	nop
  402160:	d65f03c0 	ret

0000000000402164 <generic_BLOCK_ERKENNUNG_CTRL>:
  402164:	d00000e0 	adrp	x0, 420000 <__libc_start_main@GLIBC_2.34>
  402168:	91046000 	add	x0, x0, #0x118
  40216c:	39404c00 	ldrb	w0, [x0, #19]
  402170:	7100001f 	cmp	w0, #0x0
  402174:	540001c1 	b.ne	4021ac <generic_BLOCK_ERKENNUNG_CTRL+0x48>  // b.any
  402178:	d00000e0 	adrp	x0, 420000 <__libc_start_main@GLIBC_2.34>
  40217c:	91046000 	add	x0, x0, #0x118
  402180:	39405400 	ldrb	w0, [x0, #21]
  402184:	7100001f 	cmp	w0, #0x0
  402188:	54000120 	b.eq	4021ac <generic_BLOCK_ERKENNUNG_CTRL+0x48>  // b.none
  40218c:	d00000e0 	adrp	x0, 420000 <__libc_start_main@GLIBC_2.34>
  402190:	91046000 	add	x0, x0, #0x118
  402194:	39405000 	ldrb	w0, [x0, #20]
  402198:	7100001f 	cmp	w0, #0x0
  40219c:	54000081 	b.ne	4021ac <generic_BLOCK_ERKENNUNG_CTRL+0x48>  // b.any
  4021a0:	d00000e0 	adrp	x0, 420000 <__libc_start_main@GLIBC_2.34>
  4021a4:	91046000 	add	x0, x0, #0x118
  4021a8:	3900001f 	strb	wzr, [x0]
  4021ac:	d00000e0 	adrp	x0, 420000 <__libc_start_main@GLIBC_2.34>
  4021b0:	91046000 	add	x0, x0, #0x118
  4021b4:	39404c00 	ldrb	w0, [x0, #19]
  4021b8:	7100001f 	cmp	w0, #0x0
  4021bc:	54001ae0 	b.eq	402518 <generic_BLOCK_ERKENNUNG_CTRL+0x3b4>  // b.none
  4021c0:	d00000e0 	adrp	x0, 420000 <__libc_start_main@GLIBC_2.34>
  4021c4:	91044400 	add	x0, x0, #0x111
  4021c8:	39400000 	ldrb	w0, [x0]
  4021cc:	7100041f 	cmp	w0, #0x1
  4021d0:	54000080 	b.eq	4021e0 <generic_BLOCK_ERKENNUNG_CTRL+0x7c>  // b.none
  4021d4:	7100081f 	cmp	w0, #0x2
  4021d8:	54000520 	b.eq	40227c <generic_BLOCK_ERKENNUNG_CTRL+0x118>  // b.none
  4021dc:	140000c7 	b	4024f8 <generic_BLOCK_ERKENNUNG_CTRL+0x394>
  4021e0:	d00000e0 	adrp	x0, 420000 <__libc_start_main@GLIBC_2.34>
  4021e4:	91021000 	add	x0, x0, #0x84
  4021e8:	b9400001 	ldr	w1, [x0]
  4021ec:	d00000e0 	adrp	x0, 420000 <__libc_start_main@GLIBC_2.34>
  4021f0:	91022000 	add	x0, x0, #0x88
  4021f4:	b9400000 	ldr	w0, [x0]
  4021f8:	6b00003f 	cmp	w1, w0
  4021fc:	54001920 	b.eq	402520 <generic_BLOCK_ERKENNUNG_CTRL+0x3bc>  // b.none
  402200:	d00000e0 	adrp	x0, 420000 <__libc_start_main@GLIBC_2.34>
  402204:	91021000 	add	x0, x0, #0x84
  402208:	b9400000 	ldr	w0, [x0]
  40220c:	7100001f 	cmp	w0, #0x0
  402210:	5400188d 	b.le	402520 <generic_BLOCK_ERKENNUNG_CTRL+0x3bc>
  402214:	d00000e0 	adrp	x0, 420000 <__libc_start_main@GLIBC_2.34>
  402218:	91040000 	add	x0, x0, #0x100
  40221c:	3900001f 	strb	wzr, [x0]
  402220:	d00000e0 	adrp	x0, 420000 <__libc_start_main@GLIBC_2.34>
  402224:	91030c00 	add	x0, x0, #0xc3
  402228:	3900001f 	strb	wzr, [x0]
  40222c:	d00000e0 	adrp	x0, 420000 <__libc_start_main@GLIBC_2.34>
  402230:	91044400 	add	x0, x0, #0x111
  402234:	52800041 	mov	w1, #0x2                   	// #2
  402238:	39000001 	strb	w1, [x0]
  40223c:	d00000e0 	adrp	x0, 420000 <__libc_start_main@GLIBC_2.34>
  402240:	9102a000 	add	x0, x0, #0xa8
  402244:	b900001f 	str	wzr, [x0]
  402248:	d00000e0 	adrp	x0, 420000 <__libc_start_main@GLIBC_2.34>
  40224c:	91028000 	add	x0, x0, #0xa0
  402250:	52800041 	mov	w1, #0x2                   	// #2
  402254:	b9000001 	str	w1, [x0]
  402258:	d00000e0 	adrp	x0, 420000 <__libc_start_main@GLIBC_2.34>
  40225c:	91044000 	add	x0, x0, #0x110
  402260:	52800061 	mov	w1, #0x3                   	// #3
  402264:	39000001 	strb	w1, [x0]
  402268:	d00000e0 	adrp	x0, 420000 <__libc_start_main@GLIBC_2.34>
  40226c:	91046000 	add	x0, x0, #0x118
  402270:	52800021 	mov	w1, #0x1                   	// #1
  402274:	39000001 	strb	w1, [x0]
  402278:	140000ab 	b	402524 <generic_BLOCK_ERKENNUNG_CTRL+0x3c0>
  40227c:	d00000e0 	adrp	x0, 420000 <__libc_start_main@GLIBC_2.34>
  402280:	91033c00 	add	x0, x0, #0xcf
  402284:	39400000 	ldrb	w0, [x0]
  402288:	7100001f 	cmp	w0, #0x0
  40228c:	540000c1 	b.ne	4022a4 <generic_BLOCK_ERKENNUNG_CTRL+0x140>  // b.any
  402290:	d00000e0 	adrp	x0, 420000 <__libc_start_main@GLIBC_2.34>
  402294:	91034400 	add	x0, x0, #0xd1
  402298:	39400000 	ldrb	w0, [x0]
  40229c:	7100001f 	cmp	w0, #0x0
  4022a0:	54000161 	b.ne	4022cc <generic_BLOCK_ERKENNUNG_CTRL+0x168>  // b.any
  4022a4:	d00000e0 	adrp	x0, 420000 <__libc_start_main@GLIBC_2.34>
  4022a8:	91033000 	add	x0, x0, #0xcc
  4022ac:	39400000 	ldrb	w0, [x0]
  4022b0:	7100001f 	cmp	w0, #0x0
  4022b4:	54000221 	b.ne	4022f8 <generic_BLOCK_ERKENNUNG_CTRL+0x194>  // b.any
  4022b8:	d00000e0 	adrp	x0, 420000 <__libc_start_main@GLIBC_2.34>
  4022bc:	91033800 	add	x0, x0, #0xce
  4022c0:	39400000 	ldrb	w0, [x0]
  4022c4:	7100001f 	cmp	w0, #0x0
  4022c8:	54000180 	b.eq	4022f8 <generic_BLOCK_ERKENNUNG_CTRL+0x194>  // b.none
  4022cc:	d00000e0 	adrp	x0, 420000 <__libc_start_main@GLIBC_2.34>
  4022d0:	91040000 	add	x0, x0, #0x100
  4022d4:	3900001f 	strb	wzr, [x0]
  4022d8:	d00000e0 	adrp	x0, 420000 <__libc_start_main@GLIBC_2.34>
  4022dc:	91044400 	add	x0, x0, #0x111
  4022e0:	52800021 	mov	w1, #0x1                   	// #1
  4022e4:	39000001 	strb	w1, [x0]
  4022e8:	d00000e0 	adrp	x0, 420000 <__libc_start_main@GLIBC_2.34>
  4022ec:	91044000 	add	x0, x0, #0x110
  4022f0:	3900001f 	strb	wzr, [x0]
  4022f4:	1400008c 	b	402524 <generic_BLOCK_ERKENNUNG_CTRL+0x3c0>
  4022f8:	d00000e0 	adrp	x0, 420000 <__libc_start_main@GLIBC_2.34>
  4022fc:	91044000 	add	x0, x0, #0x110
  402300:	39400000 	ldrb	w0, [x0]
  402304:	71000c1f 	cmp	w0, #0x3
  402308:	54000380 	b.eq	402378 <generic_BLOCK_ERKENNUNG_CTRL+0x214>  // b.none
  40230c:	71000c1f 	cmp	w0, #0x3
  402310:	54000c2c 	b.gt	402494 <generic_BLOCK_ERKENNUNG_CTRL+0x330>
  402314:	7100041f 	cmp	w0, #0x1
  402318:	54000e40 	b.eq	4024e0 <generic_BLOCK_ERKENNUNG_CTRL+0x37c>  // b.none
  40231c:	7100081f 	cmp	w0, #0x2
  402320:	54000ba1 	b.ne	402494 <generic_BLOCK_ERKENNUNG_CTRL+0x330>  // b.any
  402324:	d00000e0 	adrp	x0, 420000 <__libc_start_main@GLIBC_2.34>
  402328:	91028000 	add	x0, x0, #0xa0
  40232c:	b9400000 	ldr	w0, [x0]
  402330:	51000401 	sub	w1, w0, #0x1
  402334:	d00000e0 	adrp	x0, 420000 <__libc_start_main@GLIBC_2.34>
  402338:	91021000 	add	x0, x0, #0x84
  40233c:	b9400000 	ldr	w0, [x0]
  402340:	6b00003f 	cmp	w1, w0
  402344:	54000d2c 	b.gt	4024e8 <generic_BLOCK_ERKENNUNG_CTRL+0x384>
  402348:	d00000e0 	adrp	x0, 420000 <__libc_start_main@GLIBC_2.34>
  40234c:	91040000 	add	x0, x0, #0x100
  402350:	3900001f 	strb	wzr, [x0]
  402354:	d00000e0 	adrp	x0, 420000 <__libc_start_main@GLIBC_2.34>
  402358:	91030c00 	add	x0, x0, #0xc3
  40235c:	52800021 	mov	w1, #0x1                   	// #1
  402360:	39000001 	strb	w1, [x0]
  402364:	d00000e0 	adrp	x0, 420000 <__libc_start_main@GLIBC_2.34>
  402368:	91044000 	add	x0, x0, #0x110
  40236c:	52800021 	mov	w1, #0x1                   	// #1
  402370:	39000001 	strb	w1, [x0]
  402374:	14000060 	b	4024f4 <generic_BLOCK_ERKENNUNG_CTRL+0x390>
  402378:	d00000e0 	adrp	x0, 420000 <__libc_start_main@GLIBC_2.34>
  40237c:	91046000 	add	x0, x0, #0x118
  402380:	3900001f 	strb	wzr, [x0]
  402384:	d00000e0 	adrp	x0, 420000 <__libc_start_main@GLIBC_2.34>
  402388:	9102a000 	add	x0, x0, #0xa8
  40238c:	b9400000 	ldr	w0, [x0]
  402390:	71002c1f 	cmp	w0, #0xb
  402394:	540001c1 	b.ne	4023cc <generic_BLOCK_ERKENNUNG_CTRL+0x268>  // b.any
  402398:	d00000e0 	adrp	x0, 420000 <__libc_start_main@GLIBC_2.34>
  40239c:	9102c000 	add	x0, x0, #0xb0
  4023a0:	b9400000 	ldr	w0, [x0]
  4023a4:	71002c1f 	cmp	w0, #0xb
  4023a8:	54000120 	b.eq	4023cc <generic_BLOCK_ERKENNUNG_CTRL+0x268>  // b.none
  4023ac:	d00000e0 	adrp	x0, 420000 <__libc_start_main@GLIBC_2.34>
  4023b0:	91040000 	add	x0, x0, #0x100
  4023b4:	3900001f 	strb	wzr, [x0]
  4023b8:	d00000e0 	adrp	x0, 420000 <__libc_start_main@GLIBC_2.34>
  4023bc:	91044000 	add	x0, x0, #0x110
  4023c0:	52800041 	mov	w1, #0x2                   	// #2
  4023c4:	39000001 	strb	w1, [x0]
  4023c8:	1400004b 	b	4024f4 <generic_BLOCK_ERKENNUNG_CTRL+0x390>
  4023cc:	d00000e0 	adrp	x0, 420000 <__libc_start_main@GLIBC_2.34>
  4023d0:	91044000 	add	x0, x0, #0x110
  4023d4:	39400000 	ldrb	w0, [x0]
  4023d8:	71000c1f 	cmp	w0, #0x3
  4023dc:	540008a1 	b.ne	4024f0 <generic_BLOCK_ERKENNUNG_CTRL+0x38c>  // b.any
  4023e0:	d00000e0 	adrp	x0, 420000 <__libc_start_main@GLIBC_2.34>
  4023e4:	91040400 	add	x0, x0, #0x101
  4023e8:	39400000 	ldrb	w0, [x0]
  4023ec:	7100041f 	cmp	w0, #0x1
  4023f0:	54000801 	b.ne	4024f0 <generic_BLOCK_ERKENNUNG_CTRL+0x38c>  // b.any
  4023f4:	d00000e0 	adrp	x0, 420000 <__libc_start_main@GLIBC_2.34>
  4023f8:	9100c000 	add	x0, x0, #0x30
  4023fc:	f9400000 	ldr	x0, [x0]
  402400:	f100001f 	cmp	x0, #0x0
  402404:	54000760 	b.eq	4024f0 <generic_BLOCK_ERKENNUNG_CTRL+0x38c>  // b.none
  402408:	d00000e0 	adrp	x0, 420000 <__libc_start_main@GLIBC_2.34>
  40240c:	9103e000 	add	x0, x0, #0xf8
  402410:	f9400001 	ldr	x1, [x0]
  402414:	d00000e0 	adrp	x0, 420000 <__libc_start_main@GLIBC_2.34>
  402418:	9100c000 	add	x0, x0, #0x30
  40241c:	f9400000 	ldr	x0, [x0]
  402420:	cb000020 	sub	x0, x1, x0
  402424:	9e670000 	fmov	d0, x0
  402428:	7e61d800 	ucvtf	d0, d0
  40242c:	b0000000 	adrp	x0, 403000 <FH_DU+0xad4>
  402430:	fd420001 	ldr	d1, [x0, #1024]
  402434:	1e612000 	fcmp	d0, d1
  402438:	540005c1 	b.ne	4024f0 <generic_BLOCK_ERKENNUNG_CTRL+0x38c>  // b.any
  40243c:	d00000e0 	adrp	x0, 420000 <__libc_start_main@GLIBC_2.34>
  402440:	9102a000 	add	x0, x0, #0xa8
  402444:	b9400000 	ldr	w0, [x0]
  402448:	11000401 	add	w1, w0, #0x1
  40244c:	d00000e0 	adrp	x0, 420000 <__libc_start_main@GLIBC_2.34>
  402450:	9102a000 	add	x0, x0, #0xa8
  402454:	b9000001 	str	w1, [x0]
  402458:	d00000e0 	adrp	x0, 420000 <__libc_start_main@GLIBC_2.34>
  40245c:	91021000 	add	x0, x0, #0x84
  402460:	b9400001 	ldr	w1, [x0]
  402464:	d00000e0 	adrp	x0, 420000 <__libc_start_main@GLIBC_2.34>
  402468:	91028000 	add	x0, x0, #0xa0
  40246c:	b9400000 	ldr	w0, [x0]
  402470:	6b00003f 	cmp	w1, w0
  402474:	540003ed 	b.le	4024f0 <generic_BLOCK_ERKENNUNG_CTRL+0x38c>
  402478:	d00000e0 	adrp	x0, 420000 <__libc_start_main@GLIBC_2.34>
  40247c:	91021000 	add	x0, x0, #0x84
  402480:	b9400001 	ldr	w1, [x0]
  402484:	d00000e0 	adrp	x0, 420000 <__libc_start_main@GLIBC_2.34>
  402488:	91028000 	add	x0, x0, #0xa0
  40248c:	b9000001 	str	w1, [x0]
  402490:	14000018 	b	4024f0 <generic_BLOCK_ERKENNUNG_CTRL+0x38c>
  402494:	d00000e0 	adrp	x0, 420000 <__libc_start_main@GLIBC_2.34>
  402498:	91040000 	add	x0, x0, #0x100
  40249c:	3900001f 	strb	wzr, [x0]
  4024a0:	d00000e0 	adrp	x0, 420000 <__libc_start_main@GLIBC_2.34>
  4024a4:	9102a000 	add	x0, x0, #0xa8
  4024a8:	b900001f 	str	wzr, [x0]
  4024ac:	d00000e0 	adrp	x0, 420000 <__libc_start_main@GLIBC_2.34>
  4024b0:	91028000 	add	x0, x0, #0xa0
  4024b4:	52800041 	mov	w1, #0x2                   	// #2
  4024b8:	b9000001 	str	w1, [x0]
  4024bc:	d00000e0 	adrp	x0, 420000 <__libc_start_main@GLIBC_2.34>
  4024c0:	91044000 	add	x0, x0, #0x110
  4024c4:	52800061 	mov	w1, #0x3                   	// #3
  4024c8:	39000001 	strb	w1, [x0]
  4024cc:	d00000e0 	adrp	x0, 420000 <__libc_start_main@GLIBC_2.34>
  4024d0:	91046000 	add	x0, x0, #0x118
  4024d4:	52800021 	mov	w1, #0x1                   	// #1
  4024d8:	39000001 	strb	w1, [x0]
  4024dc:	14000006 	b	4024f4 <generic_BLOCK_ERKENNUNG_CTRL+0x390>
  4024e0:	d503201f 	nop
  4024e4:	14000010 	b	402524 <generic_BLOCK_ERKENNUNG_CTRL+0x3c0>
  4024e8:	d503201f 	nop
  4024ec:	1400000e 	b	402524 <generic_BLOCK_ERKENNUNG_CTRL+0x3c0>
  4024f0:	d503201f 	nop
  4024f4:	1400000c 	b	402524 <generic_BLOCK_ERKENNUNG_CTRL+0x3c0>
  4024f8:	d00000e0 	adrp	x0, 420000 <__libc_start_main@GLIBC_2.34>
  4024fc:	91040000 	add	x0, x0, #0x100
  402500:	3900001f 	strb	wzr, [x0]
  402504:	d00000e0 	adrp	x0, 420000 <__libc_start_main@GLIBC_2.34>
  402508:	91044400 	add	x0, x0, #0x111
  40250c:	52800021 	mov	w1, #0x1                   	// #1
  402510:	39000001 	strb	w1, [x0]
  402514:	14000004 	b	402524 <generic_BLOCK_ERKENNUNG_CTRL+0x3c0>
  402518:	d503201f 	nop
  40251c:	14000002 	b	402524 <generic_BLOCK_ERKENNUNG_CTRL+0x3c0>
  402520:	d503201f 	nop
  402524:	d503201f 	nop
  402528:	d65f03c0 	ret

000000000040252c <FH_DU>:
  40252c:	a9bf7bfd 	stp	x29, x30, [sp, #-16]!
  402530:	910003fd 	mov	x29, sp
  402534:	d00000e0 	adrp	x0, 420000 <__libc_start_main@GLIBC_2.34>
  402538:	9103e000 	add	x0, x0, #0xf8
  40253c:	d2800021 	mov	x1, #0x1                   	// #1
  402540:	f9000001 	str	x1, [x0]
  402544:	d00000e0 	adrp	x0, 420000 <__libc_start_main@GLIBC_2.34>
  402548:	91040000 	add	x0, x0, #0x100
  40254c:	3900001f 	strb	wzr, [x0]
  402550:	d00000e0 	adrp	x0, 420000 <__libc_start_main@GLIBC_2.34>
  402554:	91040400 	add	x0, x0, #0x101
  402558:	3900001f 	strb	wzr, [x0]
  40255c:	14000391 	b	4033a0 <FH_DU+0xe74>
  402560:	d00000e0 	adrp	x0, 420000 <__libc_start_main@GLIBC_2.34>
  402564:	91040000 	add	x0, x0, #0x100
  402568:	52800021 	mov	w1, #0x1                   	// #1
  40256c:	39000001 	strb	w1, [x0]
  402570:	d00000e0 	adrp	x0, 420000 <__libc_start_main@GLIBC_2.34>
  402574:	91040400 	add	x0, x0, #0x101
  402578:	39400000 	ldrb	w0, [x0]
  40257c:	11000400 	add	w0, w0, #0x1
  402580:	12001c01 	and	w1, w0, #0xff
  402584:	d00000e0 	adrp	x0, 420000 <__libc_start_main@GLIBC_2.34>
  402588:	91040400 	add	x0, x0, #0x101
  40258c:	39000001 	strb	w1, [x0]
  402590:	d00000e0 	adrp	x0, 420000 <__libc_start_main@GLIBC_2.34>
  402594:	91043800 	add	x0, x0, #0x10e
  402598:	39400000 	ldrb	w0, [x0]
  40259c:	71000c1f 	cmp	w0, #0x3
  4025a0:	54000920 	b.eq	4026c4 <FH_DU+0x198>  // b.none
  4025a4:	71000c1f 	cmp	w0, #0x3
  4025a8:	54000b8c 	b.gt	402718 <FH_DU+0x1ec>
  4025ac:	7100041f 	cmp	w0, #0x1
  4025b0:	54000080 	b.eq	4025c0 <FH_DU+0x94>  // b.none
  4025b4:	7100081f 	cmp	w0, #0x2
  4025b8:	540002e0 	b.eq	402614 <FH_DU+0xe8>  // b.none
  4025bc:	14000057 	b	402718 <FH_DU+0x1ec>
  4025c0:	d00000e0 	adrp	x0, 420000 <__libc_start_main@GLIBC_2.34>
  4025c4:	9103b000 	add	x0, x0, #0xec
  4025c8:	39400000 	ldrb	w0, [x0]
  4025cc:	7100001f 	cmp	w0, #0x0
  4025d0:	54000ba1 	b.ne	402744 <FH_DU+0x218>  // b.any
  4025d4:	d00000e0 	adrp	x0, 420000 <__libc_start_main@GLIBC_2.34>
  4025d8:	9103b800 	add	x0, x0, #0xee
  4025dc:	39400000 	ldrb	w0, [x0]
  4025e0:	7100001f 	cmp	w0, #0x0
  4025e4:	54000b00 	b.eq	402744 <FH_DU+0x218>  // b.none
  4025e8:	d00000e0 	adrp	x0, 420000 <__libc_start_main@GLIBC_2.34>
  4025ec:	91040000 	add	x0, x0, #0x100
  4025f0:	3900001f 	strb	wzr, [x0]
  4025f4:	d00000e0 	adrp	x0, 420000 <__libc_start_main@GLIBC_2.34>
  4025f8:	91023000 	add	x0, x0, #0x8c
  4025fc:	b900001f 	str	wzr, [x0]
  402600:	d00000e0 	adrp	x0, 420000 <__libc_start_main@GLIBC_2.34>
  402604:	91043800 	add	x0, x0, #0x10e
  402608:	52800041 	mov	w1, #0x2                   	// #2
  40260c:	39000001 	strb	w1, [x0]
  402610:	14000052 	b	402758 <FH_DU+0x22c>
  402614:	d00000e0 	adrp	x0, 420000 <__libc_start_main@GLIBC_2.34>
  402618:	9103b000 	add	x0, x0, #0xec
  40261c:	39400000 	ldrb	w0, [x0]
  402620:	7100001f 	cmp	w0, #0x0
  402624:	54000240 	b.eq	40266c <FH_DU+0x140>  // b.none
  402628:	d00000e0 	adrp	x0, 420000 <__libc_start_main@GLIBC_2.34>
  40262c:	9103b800 	add	x0, x0, #0xee
  402630:	39400000 	ldrb	w0, [x0]
  402634:	7100001f 	cmp	w0, #0x0
  402638:	540001a1 	b.ne	40266c <FH_DU+0x140>  // b.any
  40263c:	d00000e0 	adrp	x0, 420000 <__libc_start_main@GLIBC_2.34>
  402640:	91040000 	add	x0, x0, #0x100
  402644:	3900001f 	strb	wzr, [x0]
  402648:	d00000e0 	adrp	x0, 420000 <__libc_start_main@GLIBC_2.34>
  40264c:	91023000 	add	x0, x0, #0x8c
  402650:	12800c61 	mov	w1, #0xffffff9c            	// #-100
  402654:	b9000001 	str	w1, [x0]
  402658:	d00000e0 	adrp	x0, 420000 <__libc_start_main@GLIBC_2.34>
  40265c:	91043800 	add	x0, x0, #0x10e
  402660:	52800021 	mov	w1, #0x1                   	// #1
  402664:	39000001 	strb	w1, [x0]
  402668:	1400003c 	b	402758 <FH_DU+0x22c>
  40266c:	d00000e0 	adrp	x0, 420000 <__libc_start_main@GLIBC_2.34>
  402670:	9103bc00 	add	x0, x0, #0xef
  402674:	39400000 	ldrb	w0, [x0]
  402678:	7100001f 	cmp	w0, #0x0
  40267c:	54000680 	b.eq	40274c <FH_DU+0x220>  // b.none
  402680:	d00000e0 	adrp	x0, 420000 <__libc_start_main@GLIBC_2.34>
  402684:	9103c400 	add	x0, x0, #0xf1
  402688:	39400000 	ldrb	w0, [x0]
  40268c:	7100001f 	cmp	w0, #0x0
  402690:	540005e1 	b.ne	40274c <FH_DU+0x220>  // b.any
  402694:	d00000e0 	adrp	x0, 420000 <__libc_start_main@GLIBC_2.34>
  402698:	91040000 	add	x0, x0, #0x100
  40269c:	3900001f 	strb	wzr, [x0]
  4026a0:	d00000e0 	adrp	x0, 420000 <__libc_start_main@GLIBC_2.34>
  4026a4:	91023000 	add	x0, x0, #0x8c
  4026a8:	52800c81 	mov	w1, #0x64                  	// #100
  4026ac:	b9000001 	str	w1, [x0]
  4026b0:	d00000e0 	adrp	x0, 420000 <__libc_start_main@GLIBC_2.34>
  4026b4:	91043800 	add	x0, x0, #0x10e
  4026b8:	52800061 	mov	w1, #0x3                   	// #3
  4026bc:	39000001 	strb	w1, [x0]
  4026c0:	14000026 	b	402758 <FH_DU+0x22c>
  4026c4:	d00000e0 	adrp	x0, 420000 <__libc_start_main@GLIBC_2.34>
  4026c8:	9103bc00 	add	x0, x0, #0xef
  4026cc:	39400000 	ldrb	w0, [x0]
  4026d0:	7100001f 	cmp	w0, #0x0
  4026d4:	54000401 	b.ne	402754 <FH_DU+0x228>  // b.any
  4026d8:	d00000e0 	adrp	x0, 420000 <__libc_start_main@GLIBC_2.34>
  4026dc:	9103c400 	add	x0, x0, #0xf1
  4026e0:	39400000 	ldrb	w0, [x0]
  4026e4:	7100001f 	cmp	w0, #0x0
  4026e8:	54000360 	b.eq	402754 <FH_DU+0x228>  // b.none
  4026ec:	d00000e0 	adrp	x0, 420000 <__libc_start_main@GLIBC_2.34>
  4026f0:	91040000 	add	x0, x0, #0x100
  4026f4:	3900001f 	strb	wzr, [x0]
  4026f8:	d00000e0 	adrp	x0, 420000 <__libc_start_main@GLIBC_2.34>
  4026fc:	91023000 	add	x0, x0, #0x8c
  402700:	b900001f 	str	wzr, [x0]
  402704:	d00000e0 	adrp	x0, 420000 <__libc_start_main@GLIBC_2.34>
  402708:	91043800 	add	x0, x0, #0x10e
  40270c:	52800041 	mov	w1, #0x2                   	// #2
  402710:	39000001 	strb	w1, [x0]
  402714:	14000011 	b	402758 <FH_DU+0x22c>
  402718:	d00000e0 	adrp	x0, 420000 <__libc_start_main@GLIBC_2.34>
  40271c:	91040000 	add	x0, x0, #0x100
  402720:	3900001f 	strb	wzr, [x0]
  402724:	d00000e0 	adrp	x0, 420000 <__libc_start_main@GLIBC_2.34>
  402728:	91023000 	add	x0, x0, #0x8c
  40272c:	b900001f 	str	wzr, [x0]
  402730:	d00000e0 	adrp	x0, 420000 <__libc_start_main@GLIBC_2.34>
  402734:	91043800 	add	x0, x0, #0x10e
  402738:	52800041 	mov	w1, #0x2                   	// #2
  40273c:	39000001 	strb	w1, [x0]
  402740:	14000006 	b	402758 <FH_DU+0x22c>
  402744:	d503201f 	nop
  402748:	14000004 	b	402758 <FH_DU+0x22c>
  40274c:	d503201f 	nop
  402750:	14000002 	b	402758 <FH_DU+0x22c>
  402754:	d503201f 	nop
  402758:	d00000e0 	adrp	x0, 420000 <__libc_start_main@GLIBC_2.34>
  40275c:	91046000 	add	x0, x0, #0x118
  402760:	39402800 	ldrb	w0, [x0, #10]
  402764:	7100001f 	cmp	w0, #0x0
  402768:	540000a1 	b.ne	40277c <FH_DU+0x250>  // b.any
  40276c:	d00000e0 	adrp	x0, 420000 <__libc_start_main@GLIBC_2.34>
  402770:	91041400 	add	x0, x0, #0x105
  402774:	52800061 	mov	w1, #0x3                   	// #3
  402778:	39000001 	strb	w1, [x0]
  40277c:	d00000e0 	adrp	x0, 420000 <__libc_start_main@GLIBC_2.34>
  402780:	91046000 	add	x0, x0, #0x118
  402784:	39002c1f 	strb	wzr, [x0, #11]
  402788:	d00000e0 	adrp	x0, 420000 <__libc_start_main@GLIBC_2.34>
  40278c:	91046000 	add	x0, x0, #0x118
  402790:	39404000 	ldrb	w0, [x0, #16]
  402794:	7100001f 	cmp	w0, #0x0
  402798:	540000a1 	b.ne	4027ac <FH_DU+0x280>  // b.any
  40279c:	d00000e0 	adrp	x0, 420000 <__libc_start_main@GLIBC_2.34>
  4027a0:	91043c00 	add	x0, x0, #0x10f
  4027a4:	52800021 	mov	w1, #0x1                   	// #1
  4027a8:	39000001 	strb	w1, [x0]
  4027ac:	d00000e0 	adrp	x0, 420000 <__libc_start_main@GLIBC_2.34>
  4027b0:	91046000 	add	x0, x0, #0x118
  4027b4:	3900441f 	strb	wzr, [x0, #17]
  4027b8:	d00000e0 	adrp	x0, 420000 <__libc_start_main@GLIBC_2.34>
  4027bc:	91046000 	add	x0, x0, #0x118
  4027c0:	39404c00 	ldrb	w0, [x0, #19]
  4027c4:	7100001f 	cmp	w0, #0x0
  4027c8:	54000101 	b.ne	4027e8 <FH_DU+0x2bc>  // b.any
  4027cc:	d00000e0 	adrp	x0, 420000 <__libc_start_main@GLIBC_2.34>
  4027d0:	91046000 	add	x0, x0, #0x118
  4027d4:	3900001f 	strb	wzr, [x0]
  4027d8:	d00000e0 	adrp	x0, 420000 <__libc_start_main@GLIBC_2.34>
  4027dc:	91044400 	add	x0, x0, #0x111
  4027e0:	52800021 	mov	w1, #0x1                   	// #1
  4027e4:	39000001 	strb	w1, [x0]
  4027e8:	d00000e0 	adrp	x0, 420000 <__libc_start_main@GLIBC_2.34>
  4027ec:	91046000 	add	x0, x0, #0x118
  4027f0:	3900501f 	strb	wzr, [x0, #20]
  4027f4:	d00000e0 	adrp	x0, 420000 <__libc_start_main@GLIBC_2.34>
  4027f8:	91046000 	add	x0, x0, #0x118
  4027fc:	39403400 	ldrb	w0, [x0, #13]
  402800:	7100001f 	cmp	w0, #0x0
  402804:	54000341 	b.ne	40286c <FH_DU+0x340>  // b.any
  402808:	d00000e0 	adrp	x0, 420000 <__libc_start_main@GLIBC_2.34>
  40280c:	91046000 	add	x0, x0, #0x118
  402810:	3900101f 	strb	wzr, [x0, #4]
  402814:	d00000e0 	adrp	x0, 420000 <__libc_start_main@GLIBC_2.34>
  402818:	91046000 	add	x0, x0, #0x118
  40281c:	3900181f 	strb	wzr, [x0, #6]
  402820:	d00000e0 	adrp	x0, 420000 <__libc_start_main@GLIBC_2.34>
  402824:	91041800 	add	x0, x0, #0x106
  402828:	52800041 	mov	w1, #0x2                   	// #2
  40282c:	39000001 	strb	w1, [x0]
  402830:	d00000e0 	adrp	x0, 420000 <__libc_start_main@GLIBC_2.34>
  402834:	91018000 	add	x0, x0, #0x60
  402838:	b900001f 	str	wzr, [x0]
  40283c:	d00000e0 	adrp	x0, 420000 <__libc_start_main@GLIBC_2.34>
  402840:	91041c00 	add	x0, x0, #0x107
  402844:	52800021 	mov	w1, #0x1                   	// #1
  402848:	39000001 	strb	w1, [x0]
  40284c:	d00000e0 	adrp	x0, 420000 <__libc_start_main@GLIBC_2.34>
  402850:	91046000 	add	x0, x0, #0x118
  402854:	52800021 	mov	w1, #0x1                   	// #1
  402858:	39001401 	strb	w1, [x0, #5]
  40285c:	d00000e0 	adrp	x0, 420000 <__libc_start_main@GLIBC_2.34>
  402860:	91042000 	add	x0, x0, #0x108
  402864:	52800021 	mov	w1, #0x1                   	// #1
  402868:	39000001 	strb	w1, [x0]
  40286c:	d00000e0 	adrp	x0, 420000 <__libc_start_main@GLIBC_2.34>
  402870:	91046000 	add	x0, x0, #0x118
  402874:	3900381f 	strb	wzr, [x0, #14]
  402878:	d00000e0 	adrp	x0, 420000 <__libc_start_main@GLIBC_2.34>
  40287c:	91046000 	add	x0, x0, #0x118
  402880:	52800021 	mov	w1, #0x1                   	// #1
  402884:	39002c01 	strb	w1, [x0, #11]
  402888:	d00000e0 	adrp	x0, 420000 <__libc_start_main@GLIBC_2.34>
  40288c:	91046000 	add	x0, x0, #0x118
  402890:	52800021 	mov	w1, #0x1                   	// #1
  402894:	39004401 	strb	w1, [x0, #17]
  402898:	d00000e0 	adrp	x0, 420000 <__libc_start_main@GLIBC_2.34>
  40289c:	91046000 	add	x0, x0, #0x118
  4028a0:	52800021 	mov	w1, #0x1                   	// #1
  4028a4:	39005001 	strb	w1, [x0, #20]
  4028a8:	d00000e0 	adrp	x0, 420000 <__libc_start_main@GLIBC_2.34>
  4028ac:	91046000 	add	x0, x0, #0x118
  4028b0:	52800021 	mov	w1, #0x1                   	// #1
  4028b4:	39003801 	strb	w1, [x0, #14]
  4028b8:	d00000e0 	adrp	x0, 420000 <__libc_start_main@GLIBC_2.34>
  4028bc:	91037c00 	add	x0, x0, #0xdf
  4028c0:	39400001 	ldrb	w1, [x0]
  4028c4:	d00000e0 	adrp	x0, 420000 <__libc_start_main@GLIBC_2.34>
  4028c8:	91038400 	add	x0, x0, #0xe1
  4028cc:	39400000 	ldrb	w0, [x0]
  4028d0:	6b00003f 	cmp	w1, w0
  4028d4:	54000180 	b.eq	402904 <FH_DU+0x3d8>  // b.none
  4028d8:	d00000e0 	adrp	x0, 420000 <__libc_start_main@GLIBC_2.34>
  4028dc:	9103a000 	add	x0, x0, #0xe8
  4028e0:	39400000 	ldrb	w0, [x0]
  4028e4:	7100001f 	cmp	w0, #0x0
  4028e8:	540000e1 	b.ne	402904 <FH_DU+0x3d8>  // b.any
  4028ec:	d00000e0 	adrp	x0, 420000 <__libc_start_main@GLIBC_2.34>
  4028f0:	91037c00 	add	x0, x0, #0xdf
  4028f4:	39400001 	ldrb	w1, [x0]
  4028f8:	d00000e0 	adrp	x0, 420000 <__libc_start_main@GLIBC_2.34>
  4028fc:	91035c00 	add	x0, x0, #0xd7
  402900:	39000001 	strb	w1, [x0]
  402904:	d00000e0 	adrp	x0, 420000 <__libc_start_main@GLIBC_2.34>
  402908:	91038800 	add	x0, x0, #0xe2
  40290c:	39400001 	ldrb	w1, [x0]
  402910:	d00000e0 	adrp	x0, 420000 <__libc_start_main@GLIBC_2.34>
  402914:	91038c00 	add	x0, x0, #0xe3
  402918:	39400000 	ldrb	w0, [x0]
  40291c:	6b00003f 	cmp	w1, w0
  402920:	54000180 	b.eq	402950 <FH_DU+0x424>  // b.none
  402924:	d00000e0 	adrp	x0, 420000 <__libc_start_main@GLIBC_2.34>
  402928:	9103a000 	add	x0, x0, #0xe8
  40292c:	39400000 	ldrb	w0, [x0]
  402930:	7100001f 	cmp	w0, #0x0
  402934:	540000e0 	b.eq	402950 <FH_DU+0x424>  // b.none
  402938:	d00000e0 	adrp	x0, 420000 <__libc_start_main@GLIBC_2.34>
  40293c:	91038800 	add	x0, x0, #0xe2
  402940:	39400001 	ldrb	w1, [x0]
  402944:	d00000e0 	adrp	x0, 420000 <__libc_start_main@GLIBC_2.34>
  402948:	91037c00 	add	x0, x0, #0xdf
  40294c:	39000001 	strb	w1, [x0]
  402950:	d00000e0 	adrp	x0, 420000 <__libc_start_main@GLIBC_2.34>
  402954:	91037000 	add	x0, x0, #0xdc
  402958:	39400001 	ldrb	w1, [x0]
  40295c:	d00000e0 	adrp	x0, 420000 <__libc_start_main@GLIBC_2.34>
  402960:	91037800 	add	x0, x0, #0xde
  402964:	39400000 	ldrb	w0, [x0]
  402968:	6b00003f 	cmp	w1, w0
  40296c:	54000180 	b.eq	40299c <FH_DU+0x470>  // b.none
  402970:	d00000e0 	adrp	x0, 420000 <__libc_start_main@GLIBC_2.34>
  402974:	9103a000 	add	x0, x0, #0xe8
  402978:	39400000 	ldrb	w0, [x0]
  40297c:	7100001f 	cmp	w0, #0x0
  402980:	540000e1 	b.ne	40299c <FH_DU+0x470>  // b.any
  402984:	d00000e0 	adrp	x0, 420000 <__libc_start_main@GLIBC_2.34>
  402988:	91037000 	add	x0, x0, #0xdc
  40298c:	39400001 	ldrb	w1, [x0]
  402990:	d00000e0 	adrp	x0, 420000 <__libc_start_main@GLIBC_2.34>
  402994:	91036000 	add	x0, x0, #0xd8
  402998:	39000001 	strb	w1, [x0]
  40299c:	d00000e0 	adrp	x0, 420000 <__libc_start_main@GLIBC_2.34>
  4029a0:	91039000 	add	x0, x0, #0xe4
  4029a4:	39400001 	ldrb	w1, [x0]
  4029a8:	d00000e0 	adrp	x0, 420000 <__libc_start_main@GLIBC_2.34>
  4029ac:	91039400 	add	x0, x0, #0xe5
  4029b0:	39400000 	ldrb	w0, [x0]
  4029b4:	6b00003f 	cmp	w1, w0
  4029b8:	54000180 	b.eq	4029e8 <FH_DU+0x4bc>  // b.none
  4029bc:	d00000e0 	adrp	x0, 420000 <__libc_start_main@GLIBC_2.34>
  4029c0:	9103a000 	add	x0, x0, #0xe8
  4029c4:	39400000 	ldrb	w0, [x0]
  4029c8:	7100001f 	cmp	w0, #0x0
  4029cc:	540000e0 	b.eq	4029e8 <FH_DU+0x4bc>  // b.none
  4029d0:	d00000e0 	adrp	x0, 420000 <__libc_start_main@GLIBC_2.34>
  4029d4:	91039000 	add	x0, x0, #0xe4
  4029d8:	39400001 	ldrb	w1, [x0]
  4029dc:	d00000e0 	adrp	x0, 420000 <__libc_start_main@GLIBC_2.34>
  4029e0:	91037000 	add	x0, x0, #0xdc
  4029e4:	39000001 	strb	w1, [x0]
  4029e8:	d00000e0 	adrp	x0, 420000 <__libc_start_main@GLIBC_2.34>
  4029ec:	91046000 	add	x0, x0, #0x118
  4029f0:	39403001 	ldrb	w1, [x0, #12]
  4029f4:	d00000e0 	adrp	x0, 420000 <__libc_start_main@GLIBC_2.34>
  4029f8:	91046000 	add	x0, x0, #0x118
  4029fc:	39002801 	strb	w1, [x0, #10]
  402a00:	d00000e0 	adrp	x0, 420000 <__libc_start_main@GLIBC_2.34>
  402a04:	91046000 	add	x0, x0, #0x118
  402a08:	39403c01 	ldrb	w1, [x0, #15]
  402a0c:	d00000e0 	adrp	x0, 420000 <__libc_start_main@GLIBC_2.34>
  402a10:	91046000 	add	x0, x0, #0x118
  402a14:	39003401 	strb	w1, [x0, #13]
  402a18:	d00000e0 	adrp	x0, 420000 <__libc_start_main@GLIBC_2.34>
  402a1c:	91046000 	add	x0, x0, #0x118
  402a20:	39404801 	ldrb	w1, [x0, #18]
  402a24:	d00000e0 	adrp	x0, 420000 <__libc_start_main@GLIBC_2.34>
  402a28:	91046000 	add	x0, x0, #0x118
  402a2c:	39004001 	strb	w1, [x0, #16]
  402a30:	d00000e0 	adrp	x0, 420000 <__libc_start_main@GLIBC_2.34>
  402a34:	91046000 	add	x0, x0, #0x118
  402a38:	39405401 	ldrb	w1, [x0, #21]
  402a3c:	d00000e0 	adrp	x0, 420000 <__libc_start_main@GLIBC_2.34>
  402a40:	91046000 	add	x0, x0, #0x118
  402a44:	39004c01 	strb	w1, [x0, #19]
  402a48:	d00000e0 	adrp	x0, 420000 <__libc_start_main@GLIBC_2.34>
  402a4c:	91039c00 	add	x0, x0, #0xe7
  402a50:	39400001 	ldrb	w1, [x0]
  402a54:	d00000e0 	adrp	x0, 420000 <__libc_start_main@GLIBC_2.34>
  402a58:	9102fc00 	add	x0, x0, #0xbf
  402a5c:	39000001 	strb	w1, [x0]
  402a60:	d00000e0 	adrp	x0, 420000 <__libc_start_main@GLIBC_2.34>
  402a64:	91036000 	add	x0, x0, #0xd8
  402a68:	39400001 	ldrb	w1, [x0]
  402a6c:	d00000e0 	adrp	x0, 420000 <__libc_start_main@GLIBC_2.34>
  402a70:	9102f400 	add	x0, x0, #0xbd
  402a74:	39000001 	strb	w1, [x0]
  402a78:	d00000e0 	adrp	x0, 420000 <__libc_start_main@GLIBC_2.34>
  402a7c:	91039800 	add	x0, x0, #0xe6
  402a80:	39400001 	ldrb	w1, [x0]
  402a84:	d00000e0 	adrp	x0, 420000 <__libc_start_main@GLIBC_2.34>
  402a88:	9102ec00 	add	x0, x0, #0xbb
  402a8c:	39000001 	strb	w1, [x0]
  402a90:	d00000e0 	adrp	x0, 420000 <__libc_start_main@GLIBC_2.34>
  402a94:	91035c00 	add	x0, x0, #0xd7
  402a98:	39400001 	ldrb	w1, [x0]
  402a9c:	d00000e0 	adrp	x0, 420000 <__libc_start_main@GLIBC_2.34>
  402aa0:	9102e400 	add	x0, x0, #0xb9
  402aa4:	39000001 	strb	w1, [x0]
  402aa8:	97fff7b4 	bl	400978 <generic_KINDERSICHERUNG_CTRL>
  402aac:	d00000e0 	adrp	x0, 420000 <__libc_start_main@GLIBC_2.34>
  402ab0:	91033c00 	add	x0, x0, #0xcf
  402ab4:	39400001 	ldrb	w1, [x0]
  402ab8:	d00000e0 	adrp	x0, 420000 <__libc_start_main@GLIBC_2.34>
  402abc:	9103bc00 	add	x0, x0, #0xef
  402ac0:	39000001 	strb	w1, [x0]
  402ac4:	d00000e0 	adrp	x0, 420000 <__libc_start_main@GLIBC_2.34>
  402ac8:	91033000 	add	x0, x0, #0xcc
  402acc:	39400001 	ldrb	w1, [x0]
  402ad0:	d00000e0 	adrp	x0, 420000 <__libc_start_main@GLIBC_2.34>
  402ad4:	9103b000 	add	x0, x0, #0xec
  402ad8:	39000001 	strb	w1, [x0]
  402adc:	d00000e0 	adrp	x0, 420000 <__libc_start_main@GLIBC_2.34>
  402ae0:	91021000 	add	x0, x0, #0x84
  402ae4:	b9400001 	ldr	w1, [x0]
  402ae8:	d00000e0 	adrp	x0, 420000 <__libc_start_main@GLIBC_2.34>
  402aec:	91026000 	add	x0, x0, #0x98
  402af0:	b9000001 	str	w1, [x0]
  402af4:	d00000e0 	adrp	x0, 420000 <__libc_start_main@GLIBC_2.34>
  402af8:	91034800 	add	x0, x0, #0xd2
  402afc:	39400001 	ldrb	w1, [x0]
  402b00:	d00000e0 	adrp	x0, 420000 <__libc_start_main@GLIBC_2.34>
  402b04:	91036800 	add	x0, x0, #0xda
  402b08:	39000001 	strb	w1, [x0]
  402b0c:	d00000e0 	adrp	x0, 420000 <__libc_start_main@GLIBC_2.34>
  402b10:	91020000 	add	x0, x0, #0x80
  402b14:	b9400001 	ldr	w1, [x0]
  402b18:	d00000e0 	adrp	x0, 420000 <__libc_start_main@GLIBC_2.34>
  402b1c:	91025000 	add	x0, x0, #0x94
  402b20:	b9000001 	str	w1, [x0]
  402b24:	d00000e0 	adrp	x0, 420000 <__libc_start_main@GLIBC_2.34>
  402b28:	91031400 	add	x0, x0, #0xc5
  402b2c:	39400001 	ldrb	w1, [x0]
  402b30:	d00000e0 	adrp	x0, 420000 <__libc_start_main@GLIBC_2.34>
  402b34:	91036400 	add	x0, x0, #0xd9
  402b38:	39000001 	strb	w1, [x0]
  402b3c:	d00000e0 	adrp	x0, 420000 <__libc_start_main@GLIBC_2.34>
  402b40:	9102fc00 	add	x0, x0, #0xbf
  402b44:	39400001 	ldrb	w1, [x0]
  402b48:	d00000e0 	adrp	x0, 420000 <__libc_start_main@GLIBC_2.34>
  402b4c:	91039c00 	add	x0, x0, #0xe7
  402b50:	39000001 	strb	w1, [x0]
  402b54:	d00000e0 	adrp	x0, 420000 <__libc_start_main@GLIBC_2.34>
  402b58:	9102f400 	add	x0, x0, #0xbd
  402b5c:	39400001 	ldrb	w1, [x0]
  402b60:	d00000e0 	adrp	x0, 420000 <__libc_start_main@GLIBC_2.34>
  402b64:	91036000 	add	x0, x0, #0xd8
  402b68:	39000001 	strb	w1, [x0]
  402b6c:	d00000e0 	adrp	x0, 420000 <__libc_start_main@GLIBC_2.34>
  402b70:	9102ec00 	add	x0, x0, #0xbb
  402b74:	39400001 	ldrb	w1, [x0]
  402b78:	d00000e0 	adrp	x0, 420000 <__libc_start_main@GLIBC_2.34>
  402b7c:	91039800 	add	x0, x0, #0xe6
  402b80:	39000001 	strb	w1, [x0]
  402b84:	d00000e0 	adrp	x0, 420000 <__libc_start_main@GLIBC_2.34>
  402b88:	9102e400 	add	x0, x0, #0xb9
  402b8c:	39400001 	ldrb	w1, [x0]
  402b90:	d00000e0 	adrp	x0, 420000 <__libc_start_main@GLIBC_2.34>
  402b94:	91035c00 	add	x0, x0, #0xd7
  402b98:	39000001 	strb	w1, [x0]
  402b9c:	d00000e0 	adrp	x0, 420000 <__libc_start_main@GLIBC_2.34>
  402ba0:	91030400 	add	x0, x0, #0xc1
  402ba4:	39400001 	ldrb	w1, [x0]
  402ba8:	d00000e0 	adrp	x0, 420000 <__libc_start_main@GLIBC_2.34>
  402bac:	91035800 	add	x0, x0, #0xd6
  402bb0:	39000001 	strb	w1, [x0]
  402bb4:	d00000e0 	adrp	x0, 420000 <__libc_start_main@GLIBC_2.34>
  402bb8:	91030800 	add	x0, x0, #0xc2
  402bbc:	39400001 	ldrb	w1, [x0]
  402bc0:	d00000e0 	adrp	x0, 420000 <__libc_start_main@GLIBC_2.34>
  402bc4:	9103a400 	add	x0, x0, #0xe9
  402bc8:	39000001 	strb	w1, [x0]
  402bcc:	d00000e0 	adrp	x0, 420000 <__libc_start_main@GLIBC_2.34>
  402bd0:	91039c00 	add	x0, x0, #0xe7
  402bd4:	39400001 	ldrb	w1, [x0]
  402bd8:	d00000e0 	adrp	x0, 420000 <__libc_start_main@GLIBC_2.34>
  402bdc:	9102fc00 	add	x0, x0, #0xbf
  402be0:	39000001 	strb	w1, [x0]
  402be4:	d00000e0 	adrp	x0, 420000 <__libc_start_main@GLIBC_2.34>
  402be8:	91036000 	add	x0, x0, #0xd8
  402bec:	39400001 	ldrb	w1, [x0]
  402bf0:	d00000e0 	adrp	x0, 420000 <__libc_start_main@GLIBC_2.34>
  402bf4:	9102f400 	add	x0, x0, #0xbd
  402bf8:	39000001 	strb	w1, [x0]
  402bfc:	d00000e0 	adrp	x0, 420000 <__libc_start_main@GLIBC_2.34>
  402c00:	91039800 	add	x0, x0, #0xe6
  402c04:	39400001 	ldrb	w1, [x0]
  402c08:	d00000e0 	adrp	x0, 420000 <__libc_start_main@GLIBC_2.34>
  402c0c:	9102ec00 	add	x0, x0, #0xbb
  402c10:	39000001 	strb	w1, [x0]
  402c14:	d00000e0 	adrp	x0, 420000 <__libc_start_main@GLIBC_2.34>
  402c18:	91035c00 	add	x0, x0, #0xd7
  402c1c:	39400001 	ldrb	w1, [x0]
  402c20:	d00000e0 	adrp	x0, 420000 <__libc_start_main@GLIBC_2.34>
  402c24:	9102e400 	add	x0, x0, #0xb9
  402c28:	39000001 	strb	w1, [x0]
  402c2c:	97fff90e 	bl	401064 <generic_FH_TUERMODUL_CTRL>
  402c30:	d00000e0 	adrp	x0, 420000 <__libc_start_main@GLIBC_2.34>
  402c34:	91033c00 	add	x0, x0, #0xcf
  402c38:	39400001 	ldrb	w1, [x0]
  402c3c:	d00000e0 	adrp	x0, 420000 <__libc_start_main@GLIBC_2.34>
  402c40:	9103bc00 	add	x0, x0, #0xef
  402c44:	39000001 	strb	w1, [x0]
  402c48:	d00000e0 	adrp	x0, 420000 <__libc_start_main@GLIBC_2.34>
  402c4c:	91033000 	add	x0, x0, #0xcc
  402c50:	39400001 	ldrb	w1, [x0]
  402c54:	d00000e0 	adrp	x0, 420000 <__libc_start_main@GLIBC_2.34>
  402c58:	9103b000 	add	x0, x0, #0xec
  402c5c:	39000001 	strb	w1, [x0]
  402c60:	d00000e0 	adrp	x0, 420000 <__libc_start_main@GLIBC_2.34>
  402c64:	91021000 	add	x0, x0, #0x84
  402c68:	b9400001 	ldr	w1, [x0]
  402c6c:	d00000e0 	adrp	x0, 420000 <__libc_start_main@GLIBC_2.34>
  402c70:	91026000 	add	x0, x0, #0x98
  402c74:	b9000001 	str	w1, [x0]
  402c78:	d00000e0 	adrp	x0, 420000 <__libc_start_main@GLIBC_2.34>
  402c7c:	91034800 	add	x0, x0, #0xd2
  402c80:	39400001 	ldrb	w1, [x0]
  402c84:	d00000e0 	adrp	x0, 420000 <__libc_start_main@GLIBC_2.34>
  402c88:	91036800 	add	x0, x0, #0xda
  402c8c:	39000001 	strb	w1, [x0]
  402c90:	d00000e0 	adrp	x0, 420000 <__libc_start_main@GLIBC_2.34>
  402c94:	91020000 	add	x0, x0, #0x80
  402c98:	b9400001 	ldr	w1, [x0]
  402c9c:	d00000e0 	adrp	x0, 420000 <__libc_start_main@GLIBC_2.34>
  402ca0:	91025000 	add	x0, x0, #0x94
  402ca4:	b9000001 	str	w1, [x0]
  402ca8:	d00000e0 	adrp	x0, 420000 <__libc_start_main@GLIBC_2.34>
  402cac:	91031400 	add	x0, x0, #0xc5
  402cb0:	39400001 	ldrb	w1, [x0]
  402cb4:	d00000e0 	adrp	x0, 420000 <__libc_start_main@GLIBC_2.34>
  402cb8:	91036400 	add	x0, x0, #0xd9
  402cbc:	39000001 	strb	w1, [x0]
  402cc0:	d00000e0 	adrp	x0, 420000 <__libc_start_main@GLIBC_2.34>
  402cc4:	9102fc00 	add	x0, x0, #0xbf
  402cc8:	39400001 	ldrb	w1, [x0]
  402ccc:	d00000e0 	adrp	x0, 420000 <__libc_start_main@GLIBC_2.34>
  402cd0:	91039c00 	add	x0, x0, #0xe7
  402cd4:	39000001 	strb	w1, [x0]
  402cd8:	d00000e0 	adrp	x0, 420000 <__libc_start_main@GLIBC_2.34>
  402cdc:	9102f400 	add	x0, x0, #0xbd
  402ce0:	39400001 	ldrb	w1, [x0]
  402ce4:	d00000e0 	adrp	x0, 420000 <__libc_start_main@GLIBC_2.34>
  402ce8:	91036000 	add	x0, x0, #0xd8
  402cec:	39000001 	strb	w1, [x0]
  402cf0:	d00000e0 	adrp	x0, 420000 <__libc_start_main@GLIBC_2.34>
  402cf4:	9102ec00 	add	x0, x0, #0xbb
  402cf8:	39400001 	ldrb	w1, [x0]
  402cfc:	d00000e0 	adrp	x0, 420000 <__libc_start_main@GLIBC_2.34>
  402d00:	91039800 	add	x0, x0, #0xe6
  402d04:	39000001 	strb	w1, [x0]
  402d08:	d00000e0 	adrp	x0, 420000 <__libc_start_main@GLIBC_2.34>
  402d0c:	9102e400 	add	x0, x0, #0xb9
  402d10:	39400001 	ldrb	w1, [x0]
  402d14:	d00000e0 	adrp	x0, 420000 <__libc_start_main@GLIBC_2.34>
  402d18:	91035c00 	add	x0, x0, #0xd7
  402d1c:	39000001 	strb	w1, [x0]
  402d20:	d00000e0 	adrp	x0, 420000 <__libc_start_main@GLIBC_2.34>
  402d24:	91030400 	add	x0, x0, #0xc1
  402d28:	39400001 	ldrb	w1, [x0]
  402d2c:	d00000e0 	adrp	x0, 420000 <__libc_start_main@GLIBC_2.34>
  402d30:	91035800 	add	x0, x0, #0xd6
  402d34:	39000001 	strb	w1, [x0]
  402d38:	d00000e0 	adrp	x0, 420000 <__libc_start_main@GLIBC_2.34>
  402d3c:	91030800 	add	x0, x0, #0xc2
  402d40:	39400001 	ldrb	w1, [x0]
  402d44:	d00000e0 	adrp	x0, 420000 <__libc_start_main@GLIBC_2.34>
  402d48:	9103a400 	add	x0, x0, #0xe9
  402d4c:	39000001 	strb	w1, [x0]
  402d50:	d00000e0 	adrp	x0, 420000 <__libc_start_main@GLIBC_2.34>
  402d54:	91039c00 	add	x0, x0, #0xe7
  402d58:	39400001 	ldrb	w1, [x0]
  402d5c:	d00000e0 	adrp	x0, 420000 <__libc_start_main@GLIBC_2.34>
  402d60:	9102fc00 	add	x0, x0, #0xbf
  402d64:	39000001 	strb	w1, [x0]
  402d68:	d00000e0 	adrp	x0, 420000 <__libc_start_main@GLIBC_2.34>
  402d6c:	91036000 	add	x0, x0, #0xd8
  402d70:	39400001 	ldrb	w1, [x0]
  402d74:	d00000e0 	adrp	x0, 420000 <__libc_start_main@GLIBC_2.34>
  402d78:	9102f400 	add	x0, x0, #0xbd
  402d7c:	39000001 	strb	w1, [x0]
  402d80:	d00000e0 	adrp	x0, 420000 <__libc_start_main@GLIBC_2.34>
  402d84:	91039800 	add	x0, x0, #0xe6
  402d88:	39400001 	ldrb	w1, [x0]
  402d8c:	d00000e0 	adrp	x0, 420000 <__libc_start_main@GLIBC_2.34>
  402d90:	9102ec00 	add	x0, x0, #0xbb
  402d94:	39000001 	strb	w1, [x0]
  402d98:	d00000e0 	adrp	x0, 420000 <__libc_start_main@GLIBC_2.34>
  402d9c:	91035c00 	add	x0, x0, #0xd7
  402da0:	39400001 	ldrb	w1, [x0]
  402da4:	d00000e0 	adrp	x0, 420000 <__libc_start_main@GLIBC_2.34>
  402da8:	9102e400 	add	x0, x0, #0xb9
  402dac:	39000001 	strb	w1, [x0]
  402db0:	97fffc9c 	bl	402020 <generic_EINKLEMMSCHUTZ_CTRL>
  402db4:	d00000e0 	adrp	x0, 420000 <__libc_start_main@GLIBC_2.34>
  402db8:	91033c00 	add	x0, x0, #0xcf
  402dbc:	39400001 	ldrb	w1, [x0]
  402dc0:	d00000e0 	adrp	x0, 420000 <__libc_start_main@GLIBC_2.34>
  402dc4:	9103bc00 	add	x0, x0, #0xef
  402dc8:	39000001 	strb	w1, [x0]
  402dcc:	d00000e0 	adrp	x0, 420000 <__libc_start_main@GLIBC_2.34>
  402dd0:	91033000 	add	x0, x0, #0xcc
  402dd4:	39400001 	ldrb	w1, [x0]
  402dd8:	d00000e0 	adrp	x0, 420000 <__libc_start_main@GLIBC_2.34>
  402ddc:	9103b000 	add	x0, x0, #0xec
  402de0:	39000001 	strb	w1, [x0]
  402de4:	d00000e0 	adrp	x0, 420000 <__libc_start_main@GLIBC_2.34>
  402de8:	91021000 	add	x0, x0, #0x84
  402dec:	b9400001 	ldr	w1, [x0]
  402df0:	d00000e0 	adrp	x0, 420000 <__libc_start_main@GLIBC_2.34>
  402df4:	91026000 	add	x0, x0, #0x98
  402df8:	b9000001 	str	w1, [x0]
  402dfc:	d00000e0 	adrp	x0, 420000 <__libc_start_main@GLIBC_2.34>
  402e00:	91034800 	add	x0, x0, #0xd2
  402e04:	39400001 	ldrb	w1, [x0]
  402e08:	d00000e0 	adrp	x0, 420000 <__libc_start_main@GLIBC_2.34>
  402e0c:	91036800 	add	x0, x0, #0xda
  402e10:	39000001 	strb	w1, [x0]
  402e14:	d00000e0 	adrp	x0, 420000 <__libc_start_main@GLIBC_2.34>
  402e18:	91020000 	add	x0, x0, #0x80
  402e1c:	b9400001 	ldr	w1, [x0]
  402e20:	d00000e0 	adrp	x0, 420000 <__libc_start_main@GLIBC_2.34>
  402e24:	91025000 	add	x0, x0, #0x94
  402e28:	b9000001 	str	w1, [x0]
  402e2c:	d00000e0 	adrp	x0, 420000 <__libc_start_main@GLIBC_2.34>
  402e30:	91031400 	add	x0, x0, #0xc5
  402e34:	39400001 	ldrb	w1, [x0]
  402e38:	d00000e0 	adrp	x0, 420000 <__libc_start_main@GLIBC_2.34>
  402e3c:	91036400 	add	x0, x0, #0xd9
  402e40:	39000001 	strb	w1, [x0]
  402e44:	d00000e0 	adrp	x0, 420000 <__libc_start_main@GLIBC_2.34>
  402e48:	9102fc00 	add	x0, x0, #0xbf
  402e4c:	39400001 	ldrb	w1, [x0]
  402e50:	d00000e0 	adrp	x0, 420000 <__libc_start_main@GLIBC_2.34>
  402e54:	91039c00 	add	x0, x0, #0xe7
  402e58:	39000001 	strb	w1, [x0]
  402e5c:	d00000e0 	adrp	x0, 420000 <__libc_start_main@GLIBC_2.34>
  402e60:	9102f400 	add	x0, x0, #0xbd
  402e64:	39400001 	ldrb	w1, [x0]
  402e68:	d00000e0 	adrp	x0, 420000 <__libc_start_main@GLIBC_2.34>
  402e6c:	91036000 	add	x0, x0, #0xd8
  402e70:	39000001 	strb	w1, [x0]
  402e74:	d00000e0 	adrp	x0, 420000 <__libc_start_main@GLIBC_2.34>
  402e78:	9102ec00 	add	x0, x0, #0xbb
  402e7c:	39400001 	ldrb	w1, [x0]
  402e80:	d00000e0 	adrp	x0, 420000 <__libc_start_main@GLIBC_2.34>
  402e84:	91039800 	add	x0, x0, #0xe6
  402e88:	39000001 	strb	w1, [x0]
  402e8c:	d00000e0 	adrp	x0, 420000 <__libc_start_main@GLIBC_2.34>
  402e90:	9102e400 	add	x0, x0, #0xb9
  402e94:	39400001 	ldrb	w1, [x0]
  402e98:	d00000e0 	adrp	x0, 420000 <__libc_start_main@GLIBC_2.34>
  402e9c:	91035c00 	add	x0, x0, #0xd7
  402ea0:	39000001 	strb	w1, [x0]
  402ea4:	d00000e0 	adrp	x0, 420000 <__libc_start_main@GLIBC_2.34>
  402ea8:	91030400 	add	x0, x0, #0xc1
  402eac:	39400001 	ldrb	w1, [x0]
  402eb0:	d00000e0 	adrp	x0, 420000 <__libc_start_main@GLIBC_2.34>
  402eb4:	91035800 	add	x0, x0, #0xd6
  402eb8:	39000001 	strb	w1, [x0]
  402ebc:	d00000e0 	adrp	x0, 420000 <__libc_start_main@GLIBC_2.34>
  402ec0:	91030800 	add	x0, x0, #0xc2
  402ec4:	39400001 	ldrb	w1, [x0]
  402ec8:	d00000e0 	adrp	x0, 420000 <__libc_start_main@GLIBC_2.34>
  402ecc:	9103a400 	add	x0, x0, #0xe9
  402ed0:	39000001 	strb	w1, [x0]
  402ed4:	d00000e0 	adrp	x0, 420000 <__libc_start_main@GLIBC_2.34>
  402ed8:	91039c00 	add	x0, x0, #0xe7
  402edc:	39400001 	ldrb	w1, [x0]
  402ee0:	d00000e0 	adrp	x0, 420000 <__libc_start_main@GLIBC_2.34>
  402ee4:	9102fc00 	add	x0, x0, #0xbf
  402ee8:	39000001 	strb	w1, [x0]
  402eec:	d00000e0 	adrp	x0, 420000 <__libc_start_main@GLIBC_2.34>
  402ef0:	91036000 	add	x0, x0, #0xd8
  402ef4:	39400001 	ldrb	w1, [x0]
  402ef8:	d00000e0 	adrp	x0, 420000 <__libc_start_main@GLIBC_2.34>
  402efc:	9102f400 	add	x0, x0, #0xbd
  402f00:	39000001 	strb	w1, [x0]
  402f04:	d00000e0 	adrp	x0, 420000 <__libc_start_main@GLIBC_2.34>
  402f08:	91039800 	add	x0, x0, #0xe6
  402f0c:	39400001 	ldrb	w1, [x0]
  402f10:	d00000e0 	adrp	x0, 420000 <__libc_start_main@GLIBC_2.34>
  402f14:	9102ec00 	add	x0, x0, #0xbb
  402f18:	39000001 	strb	w1, [x0]
  402f1c:	d00000e0 	adrp	x0, 420000 <__libc_start_main@GLIBC_2.34>
  402f20:	91035c00 	add	x0, x0, #0xd7
  402f24:	39400001 	ldrb	w1, [x0]
  402f28:	d00000e0 	adrp	x0, 420000 <__libc_start_main@GLIBC_2.34>
  402f2c:	9102e400 	add	x0, x0, #0xb9
  402f30:	39000001 	strb	w1, [x0]
  402f34:	97fffc8c 	bl	402164 <generic_BLOCK_ERKENNUNG_CTRL>
  402f38:	d00000e0 	adrp	x0, 420000 <__libc_start_main@GLIBC_2.34>
  402f3c:	91033c00 	add	x0, x0, #0xcf
  402f40:	39400001 	ldrb	w1, [x0]
  402f44:	d00000e0 	adrp	x0, 420000 <__libc_start_main@GLIBC_2.34>
  402f48:	9103bc00 	add	x0, x0, #0xef
  402f4c:	39000001 	strb	w1, [x0]
  402f50:	d00000e0 	adrp	x0, 420000 <__libc_start_main@GLIBC_2.34>
  402f54:	91033000 	add	x0, x0, #0xcc
  402f58:	39400001 	ldrb	w1, [x0]
  402f5c:	d00000e0 	adrp	x0, 420000 <__libc_start_main@GLIBC_2.34>
  402f60:	9103b000 	add	x0, x0, #0xec
  402f64:	39000001 	strb	w1, [x0]
  402f68:	d00000e0 	adrp	x0, 420000 <__libc_start_main@GLIBC_2.34>
  402f6c:	91021000 	add	x0, x0, #0x84
  402f70:	b9400001 	ldr	w1, [x0]
  402f74:	d00000e0 	adrp	x0, 420000 <__libc_start_main@GLIBC_2.34>
  402f78:	91026000 	add	x0, x0, #0x98
  402f7c:	b9000001 	str	w1, [x0]
  402f80:	d00000e0 	adrp	x0, 420000 <__libc_start_main@GLIBC_2.34>
  402f84:	91034800 	add	x0, x0, #0xd2
  402f88:	39400001 	ldrb	w1, [x0]
  402f8c:	d00000e0 	adrp	x0, 420000 <__libc_start_main@GLIBC_2.34>
  402f90:	91036800 	add	x0, x0, #0xda
  402f94:	39000001 	strb	w1, [x0]
  402f98:	d00000e0 	adrp	x0, 420000 <__libc_start_main@GLIBC_2.34>
  402f9c:	91020000 	add	x0, x0, #0x80
  402fa0:	b9400001 	ldr	w1, [x0]
  402fa4:	d00000e0 	adrp	x0, 420000 <__libc_start_main@GLIBC_2.34>
  402fa8:	91025000 	add	x0, x0, #0x94
  402fac:	b9000001 	str	w1, [x0]
  402fb0:	d00000e0 	adrp	x0, 420000 <__libc_start_main@GLIBC_2.34>
  402fb4:	91031400 	add	x0, x0, #0xc5
  402fb8:	39400001 	ldrb	w1, [x0]
  402fbc:	d00000e0 	adrp	x0, 420000 <__libc_start_main@GLIBC_2.34>
  402fc0:	91036400 	add	x0, x0, #0xd9
  402fc4:	39000001 	strb	w1, [x0]
  402fc8:	d00000e0 	adrp	x0, 420000 <__libc_start_main@GLIBC_2.34>
  402fcc:	9102fc00 	add	x0, x0, #0xbf
  402fd0:	39400001 	ldrb	w1, [x0]
  402fd4:	d00000e0 	adrp	x0, 420000 <__libc_start_main@GLIBC_2.34>
  402fd8:	91039c00 	add	x0, x0, #0xe7
  402fdc:	39000001 	strb	w1, [x0]
  402fe0:	d00000e0 	adrp	x0, 420000 <__libc_start_main@GLIBC_2.34>
  402fe4:	9102f400 	add	x0, x0, #0xbd
  402fe8:	39400001 	ldrb	w1, [x0]
  402fec:	d00000e0 	adrp	x0, 420000 <__libc_start_main@GLIBC_2.34>
  402ff0:	91036000 	add	x0, x0, #0xd8
  402ff4:	39000001 	strb	w1, [x0]
  402ff8:	d00000e0 	adrp	x0, 420000 <__libc_start_main@GLIBC_2.34>
  402ffc:	9102ec00 	add	x0, x0, #0xbb
  403000:	39400001 	ldrb	w1, [x0]
  403004:	b00000e0 	adrp	x0, 420000 <__libc_start_main@GLIBC_2.34>
  403008:	91039800 	add	x0, x0, #0xe6
  40300c:	39000001 	strb	w1, [x0]
  403010:	b00000e0 	adrp	x0, 420000 <__libc_start_main@GLIBC_2.34>
  403014:	9102e400 	add	x0, x0, #0xb9
  403018:	39400001 	ldrb	w1, [x0]
  40301c:	b00000e0 	adrp	x0, 420000 <__libc_start_main@GLIBC_2.34>
  403020:	91035c00 	add	x0, x0, #0xd7
  403024:	39000001 	strb	w1, [x0]
  403028:	b00000e0 	adrp	x0, 420000 <__libc_start_main@GLIBC_2.34>
  40302c:	91030400 	add	x0, x0, #0xc1
  403030:	39400001 	ldrb	w1, [x0]
  403034:	b00000e0 	adrp	x0, 420000 <__libc_start_main@GLIBC_2.34>
  403038:	91035800 	add	x0, x0, #0xd6
  40303c:	39000001 	strb	w1, [x0]
  403040:	b00000e0 	adrp	x0, 420000 <__libc_start_main@GLIBC_2.34>
  403044:	91030800 	add	x0, x0, #0xc2
  403048:	39400001 	ldrb	w1, [x0]
  40304c:	b00000e0 	adrp	x0, 420000 <__libc_start_main@GLIBC_2.34>
  403050:	9103a400 	add	x0, x0, #0xe9
  403054:	39000001 	strb	w1, [x0]
  403058:	b00000e0 	adrp	x0, 420000 <__libc_start_main@GLIBC_2.34>
  40305c:	91046000 	add	x0, x0, #0x118
  403060:	39402801 	ldrb	w1, [x0, #10]
  403064:	b00000e0 	adrp	x0, 420000 <__libc_start_main@GLIBC_2.34>
  403068:	91046000 	add	x0, x0, #0x118
  40306c:	39002c01 	strb	w1, [x0, #11]
  403070:	b00000e0 	adrp	x0, 420000 <__libc_start_main@GLIBC_2.34>
  403074:	91046000 	add	x0, x0, #0x118
  403078:	39403401 	ldrb	w1, [x0, #13]
  40307c:	b00000e0 	adrp	x0, 420000 <__libc_start_main@GLIBC_2.34>
  403080:	91046000 	add	x0, x0, #0x118
  403084:	39003801 	strb	w1, [x0, #14]
  403088:	b00000e0 	adrp	x0, 420000 <__libc_start_main@GLIBC_2.34>
  40308c:	91046000 	add	x0, x0, #0x118
  403090:	39404001 	ldrb	w1, [x0, #16]
  403094:	b00000e0 	adrp	x0, 420000 <__libc_start_main@GLIBC_2.34>
  403098:	91046000 	add	x0, x0, #0x118
  40309c:	39004401 	strb	w1, [x0, #17]
  4030a0:	b00000e0 	adrp	x0, 420000 <__libc_start_main@GLIBC_2.34>
  4030a4:	91046000 	add	x0, x0, #0x118
  4030a8:	39404c01 	ldrb	w1, [x0, #19]
  4030ac:	b00000e0 	adrp	x0, 420000 <__libc_start_main@GLIBC_2.34>
  4030b0:	91046000 	add	x0, x0, #0x118
  4030b4:	39005001 	strb	w1, [x0, #20]
  4030b8:	b00000e0 	adrp	x0, 420000 <__libc_start_main@GLIBC_2.34>
  4030bc:	91018000 	add	x0, x0, #0x60
  4030c0:	b9400001 	ldr	w1, [x0]
  4030c4:	b00000e0 	adrp	x0, 420000 <__libc_start_main@GLIBC_2.34>
  4030c8:	9101a000 	add	x0, x0, #0x68
  4030cc:	b9000001 	str	w1, [x0]
  4030d0:	b00000e0 	adrp	x0, 420000 <__libc_start_main@GLIBC_2.34>
  4030d4:	91021000 	add	x0, x0, #0x84
  4030d8:	b9400001 	ldr	w1, [x0]
  4030dc:	b00000e0 	adrp	x0, 420000 <__libc_start_main@GLIBC_2.34>
  4030e0:	91022000 	add	x0, x0, #0x88
  4030e4:	b9000001 	str	w1, [x0]
  4030e8:	b00000e0 	adrp	x0, 420000 <__libc_start_main@GLIBC_2.34>
  4030ec:	91024000 	add	x0, x0, #0x90
  4030f0:	b9400001 	ldr	w1, [x0]
  4030f4:	b00000e0 	adrp	x0, 420000 <__libc_start_main@GLIBC_2.34>
  4030f8:	91023000 	add	x0, x0, #0x8c
  4030fc:	b9000001 	str	w1, [x0]
  403100:	b00000e0 	adrp	x0, 420000 <__libc_start_main@GLIBC_2.34>
  403104:	91026000 	add	x0, x0, #0x98
  403108:	b9400001 	ldr	w1, [x0]
  40310c:	b00000e0 	adrp	x0, 420000 <__libc_start_main@GLIBC_2.34>
  403110:	91027000 	add	x0, x0, #0x9c
  403114:	b9000001 	str	w1, [x0]
  403118:	b00000e0 	adrp	x0, 420000 <__libc_start_main@GLIBC_2.34>
  40311c:	9102a000 	add	x0, x0, #0xa8
  403120:	b9400001 	ldr	w1, [x0]
  403124:	b00000e0 	adrp	x0, 420000 <__libc_start_main@GLIBC_2.34>
  403128:	9102c000 	add	x0, x0, #0xb0
  40312c:	b9000001 	str	w1, [x0]
  403130:	b00000e0 	adrp	x0, 420000 <__libc_start_main@GLIBC_2.34>
  403134:	9102e400 	add	x0, x0, #0xb9
  403138:	39400001 	ldrb	w1, [x0]
  40313c:	b00000e0 	adrp	x0, 420000 <__libc_start_main@GLIBC_2.34>
  403140:	9102e800 	add	x0, x0, #0xba
  403144:	39000001 	strb	w1, [x0]
  403148:	b00000e0 	adrp	x0, 420000 <__libc_start_main@GLIBC_2.34>
  40314c:	9102ec00 	add	x0, x0, #0xbb
  403150:	39400001 	ldrb	w1, [x0]
  403154:	b00000e0 	adrp	x0, 420000 <__libc_start_main@GLIBC_2.34>
  403158:	9102f000 	add	x0, x0, #0xbc
  40315c:	39000001 	strb	w1, [x0]
  403160:	b00000e0 	adrp	x0, 420000 <__libc_start_main@GLIBC_2.34>
  403164:	9102f400 	add	x0, x0, #0xbd
  403168:	39400001 	ldrb	w1, [x0]
  40316c:	b00000e0 	adrp	x0, 420000 <__libc_start_main@GLIBC_2.34>
  403170:	9102f800 	add	x0, x0, #0xbe
  403174:	39000001 	strb	w1, [x0]
  403178:	b00000e0 	adrp	x0, 420000 <__libc_start_main@GLIBC_2.34>
  40317c:	9102fc00 	add	x0, x0, #0xbf
  403180:	39400001 	ldrb	w1, [x0]
  403184:	b00000e0 	adrp	x0, 420000 <__libc_start_main@GLIBC_2.34>
  403188:	91030000 	add	x0, x0, #0xc0
  40318c:	39000001 	strb	w1, [x0]
  403190:	b00000e0 	adrp	x0, 420000 <__libc_start_main@GLIBC_2.34>
  403194:	91030c00 	add	x0, x0, #0xc3
  403198:	39400001 	ldrb	w1, [x0]
  40319c:	b00000e0 	adrp	x0, 420000 <__libc_start_main@GLIBC_2.34>
  4031a0:	91030800 	add	x0, x0, #0xc2
  4031a4:	39000001 	strb	w1, [x0]
  4031a8:	b00000e0 	adrp	x0, 420000 <__libc_start_main@GLIBC_2.34>
  4031ac:	91030800 	add	x0, x0, #0xc2
  4031b0:	39400001 	ldrb	w1, [x0]
  4031b4:	b00000e0 	adrp	x0, 420000 <__libc_start_main@GLIBC_2.34>
  4031b8:	91031000 	add	x0, x0, #0xc4
  4031bc:	39000001 	strb	w1, [x0]
  4031c0:	b00000e0 	adrp	x0, 420000 <__libc_start_main@GLIBC_2.34>
  4031c4:	91031c00 	add	x0, x0, #0xc7
  4031c8:	39400001 	ldrb	w1, [x0]
  4031cc:	b00000e0 	adrp	x0, 420000 <__libc_start_main@GLIBC_2.34>
  4031d0:	91031800 	add	x0, x0, #0xc6
  4031d4:	39000001 	strb	w1, [x0]
  4031d8:	b00000e0 	adrp	x0, 420000 <__libc_start_main@GLIBC_2.34>
  4031dc:	91031800 	add	x0, x0, #0xc6
  4031e0:	39400001 	ldrb	w1, [x0]
  4031e4:	b00000e0 	adrp	x0, 420000 <__libc_start_main@GLIBC_2.34>
  4031e8:	91032000 	add	x0, x0, #0xc8
  4031ec:	39000001 	strb	w1, [x0]
  4031f0:	b00000e0 	adrp	x0, 420000 <__libc_start_main@GLIBC_2.34>
  4031f4:	91032800 	add	x0, x0, #0xca
  4031f8:	39400001 	ldrb	w1, [x0]
  4031fc:	b00000e0 	adrp	x0, 420000 <__libc_start_main@GLIBC_2.34>
  403200:	91032400 	add	x0, x0, #0xc9
  403204:	39000001 	strb	w1, [x0]
  403208:	b00000e0 	adrp	x0, 420000 <__libc_start_main@GLIBC_2.34>
  40320c:	91032400 	add	x0, x0, #0xc9
  403210:	39400001 	ldrb	w1, [x0]
  403214:	b00000e0 	adrp	x0, 420000 <__libc_start_main@GLIBC_2.34>
  403218:	91032c00 	add	x0, x0, #0xcb
  40321c:	39000001 	strb	w1, [x0]
  403220:	b00000e0 	adrp	x0, 420000 <__libc_start_main@GLIBC_2.34>
  403224:	91033400 	add	x0, x0, #0xcd
  403228:	39400001 	ldrb	w1, [x0]
  40322c:	b00000e0 	adrp	x0, 420000 <__libc_start_main@GLIBC_2.34>
  403230:	91033000 	add	x0, x0, #0xcc
  403234:	39000001 	strb	w1, [x0]
  403238:	b00000e0 	adrp	x0, 420000 <__libc_start_main@GLIBC_2.34>
  40323c:	91033000 	add	x0, x0, #0xcc
  403240:	39400001 	ldrb	w1, [x0]
  403244:	b00000e0 	adrp	x0, 420000 <__libc_start_main@GLIBC_2.34>
  403248:	91033800 	add	x0, x0, #0xce
  40324c:	39000001 	strb	w1, [x0]
  403250:	b00000e0 	adrp	x0, 420000 <__libc_start_main@GLIBC_2.34>
  403254:	91034000 	add	x0, x0, #0xd0
  403258:	39400001 	ldrb	w1, [x0]
  40325c:	b00000e0 	adrp	x0, 420000 <__libc_start_main@GLIBC_2.34>
  403260:	91033c00 	add	x0, x0, #0xcf
  403264:	39000001 	strb	w1, [x0]
  403268:	b00000e0 	adrp	x0, 420000 <__libc_start_main@GLIBC_2.34>
  40326c:	91033c00 	add	x0, x0, #0xcf
  403270:	39400001 	ldrb	w1, [x0]
  403274:	b00000e0 	adrp	x0, 420000 <__libc_start_main@GLIBC_2.34>
  403278:	91034400 	add	x0, x0, #0xd1
  40327c:	39000001 	strb	w1, [x0]
  403280:	b00000e0 	adrp	x0, 420000 <__libc_start_main@GLIBC_2.34>
  403284:	91034800 	add	x0, x0, #0xd2
  403288:	39400001 	ldrb	w1, [x0]
  40328c:	b00000e0 	adrp	x0, 420000 <__libc_start_main@GLIBC_2.34>
  403290:	91034c00 	add	x0, x0, #0xd3
  403294:	39000001 	strb	w1, [x0]
  403298:	b00000e0 	adrp	x0, 420000 <__libc_start_main@GLIBC_2.34>
  40329c:	91036800 	add	x0, x0, #0xda
  4032a0:	39400001 	ldrb	w1, [x0]
  4032a4:	b00000e0 	adrp	x0, 420000 <__libc_start_main@GLIBC_2.34>
  4032a8:	91036c00 	add	x0, x0, #0xdb
  4032ac:	39000001 	strb	w1, [x0]
  4032b0:	b00000e0 	adrp	x0, 420000 <__libc_start_main@GLIBC_2.34>
  4032b4:	91037000 	add	x0, x0, #0xdc
  4032b8:	39400001 	ldrb	w1, [x0]
  4032bc:	b00000e0 	adrp	x0, 420000 <__libc_start_main@GLIBC_2.34>
  4032c0:	91037800 	add	x0, x0, #0xde
  4032c4:	39000001 	strb	w1, [x0]
  4032c8:	b00000e0 	adrp	x0, 420000 <__libc_start_main@GLIBC_2.34>
  4032cc:	91037c00 	add	x0, x0, #0xdf
  4032d0:	39400001 	ldrb	w1, [x0]
  4032d4:	b00000e0 	adrp	x0, 420000 <__libc_start_main@GLIBC_2.34>
  4032d8:	91038400 	add	x0, x0, #0xe1
  4032dc:	39000001 	strb	w1, [x0]
  4032e0:	b00000e0 	adrp	x0, 420000 <__libc_start_main@GLIBC_2.34>
  4032e4:	91038800 	add	x0, x0, #0xe2
  4032e8:	39400001 	ldrb	w1, [x0]
  4032ec:	b00000e0 	adrp	x0, 420000 <__libc_start_main@GLIBC_2.34>
  4032f0:	91038c00 	add	x0, x0, #0xe3
  4032f4:	39000001 	strb	w1, [x0]
  4032f8:	b00000e0 	adrp	x0, 420000 <__libc_start_main@GLIBC_2.34>
  4032fc:	91039000 	add	x0, x0, #0xe4
  403300:	39400001 	ldrb	w1, [x0]
  403304:	b00000e0 	adrp	x0, 420000 <__libc_start_main@GLIBC_2.34>
  403308:	91039400 	add	x0, x0, #0xe5
  40330c:	39000001 	strb	w1, [x0]
  403310:	b00000e0 	adrp	x0, 420000 <__libc_start_main@GLIBC_2.34>
  403314:	9103a800 	add	x0, x0, #0xea
  403318:	39400001 	ldrb	w1, [x0]
  40331c:	b00000e0 	adrp	x0, 420000 <__libc_start_main@GLIBC_2.34>
  403320:	9103a400 	add	x0, x0, #0xe9
  403324:	39000001 	strb	w1, [x0]
  403328:	b00000e0 	adrp	x0, 420000 <__libc_start_main@GLIBC_2.34>
  40332c:	9103a400 	add	x0, x0, #0xe9
  403330:	39400001 	ldrb	w1, [x0]
  403334:	b00000e0 	adrp	x0, 420000 <__libc_start_main@GLIBC_2.34>
  403338:	9103ac00 	add	x0, x0, #0xeb
  40333c:	39000001 	strb	w1, [x0]
  403340:	b00000e0 	adrp	x0, 420000 <__libc_start_main@GLIBC_2.34>
  403344:	9103b400 	add	x0, x0, #0xed
  403348:	39400001 	ldrb	w1, [x0]
  40334c:	b00000e0 	adrp	x0, 420000 <__libc_start_main@GLIBC_2.34>
  403350:	9103b000 	add	x0, x0, #0xec
  403354:	39000001 	strb	w1, [x0]
  403358:	b00000e0 	adrp	x0, 420000 <__libc_start_main@GLIBC_2.34>
  40335c:	9103b000 	add	x0, x0, #0xec
  403360:	39400001 	ldrb	w1, [x0]
  403364:	b00000e0 	adrp	x0, 420000 <__libc_start_main@GLIBC_2.34>
  403368:	9103b800 	add	x0, x0, #0xee
  40336c:	39000001 	strb	w1, [x0]
  403370:	b00000e0 	adrp	x0, 420000 <__libc_start_main@GLIBC_2.34>
  403374:	9103c000 	add	x0, x0, #0xf0
  403378:	39400001 	ldrb	w1, [x0]
  40337c:	b00000e0 	adrp	x0, 420000 <__libc_start_main@GLIBC_2.34>
  403380:	9103bc00 	add	x0, x0, #0xef
  403384:	39000001 	strb	w1, [x0]
  403388:	b00000e0 	adrp	x0, 420000 <__libc_start_main@GLIBC_2.34>
  40338c:	9103bc00 	add	x0, x0, #0xef
  403390:	39400001 	ldrb	w1, [x0]
  403394:	b00000e0 	adrp	x0, 420000 <__libc_start_main@GLIBC_2.34>
  403398:	9103c400 	add	x0, x0, #0xf1
  40339c:	39000001 	strb	w1, [x0]
  4033a0:	b00000e0 	adrp	x0, 420000 <__libc_start_main@GLIBC_2.34>
  4033a4:	91040000 	add	x0, x0, #0x100
  4033a8:	39400000 	ldrb	w0, [x0]
  4033ac:	7100001f 	cmp	w0, #0x0
  4033b0:	54ff8d80 	b.eq	402560 <FH_DU+0x34>  // b.none
  4033b4:	d503201f 	nop
  4033b8:	d503201f 	nop
  4033bc:	a8c17bfd 	ldp	x29, x30, [sp], #16
  4033c0:	d65f03c0 	ret

00000000004033c4 <main>:
  4033c4:	a9bf7bfd 	stp	x29, x30, [sp, #-16]!
  4033c8:	910003fd 	mov	x29, sp
  4033cc:	97fff530 	bl	40088c <init>
  4033d0:	97fff48d 	bl	400604 <interface>
  4033d4:	97fffc56 	bl	40252c <FH_DU>
  4033d8:	52800000 	mov	w0, #0x0                   	// #0
  4033dc:	a8c17bfd 	ldp	x29, x30, [sp], #16
  4033e0:	d65f03c0 	ret

Disassembly of section .fini:

00000000004033e4 <_fini>:
  4033e4:	d503201f 	nop
  4033e8:	a9bf7bfd 	stp	x29, x30, [sp, #-16]!
  4033ec:	910003fd 	mov	x29, sp
  4033f0:	a8c17bfd 	ldp	x29, x30, [sp], #16
  4033f4:	d65f03c0 	ret

Disassembly of section .rodata:

00000000004033f8 <_IO_stdin_used>:
  4033f8:	00020001 	.inst	0x00020001 ; undefined
  4033fc:	00000000 	udf	#0
  403400:	d2f1a9fc 	mov	x28, #0x8d4f000000000000    	// #-8264386791201570816
  403404:	3f60624d 	.inst	0x3f60624d ; undefined

Disassembly of section .eh_frame_hdr:

0000000000403408 <__GNU_EH_FRAME_HDR>:
  403408:	3b031b01 	.inst	0x3b031b01 ; undefined
  40340c:	0000007c 	udf	#124
  403410:	0000000e 	udf	#14
  403414:	ffffd0f8 	.inst	0xffffd0f8 ; undefined
  403418:	00000094 	udf	#148
  40341c:	ffffd138 	.inst	0xffffd138 ; undefined
  403420:	000000a8 	udf	#168
  403424:	ffffd158 	.inst	0xffffd158 ; undefined
  403428:	000000c0 	udf	#192
  40342c:	ffffd188 	.inst	0xffffd188 ; undefined
  403430:	000000d4 	udf	#212
  403434:	ffffd1c8 	.inst	0xffffd1c8 ; undefined
  403438:	000000e8 	udf	#232
  40343c:	ffffd1f8 	.inst	0xffffd1f8 ; undefined
  403440:	0000010c 	udf	#268
  403444:	ffffd1fc 	.inst	0xffffd1fc ; undefined
  403448:	00000120 	udf	#288
  40344c:	ffffd484 	.inst	0xffffd484 ; undefined
  403450:	00000134 	udf	#308
  403454:	ffffd570 	.inst	0xffffd570 ; undefined
  403458:	00000148 	udf	#328
  40345c:	ffffdc5c 	.inst	0xffffdc5c ; undefined
  403460:	0000015c 	udf	#348
  403464:	ffffec18 	.inst	0xffffec18 ; undefined
  403468:	00000170 	udf	#368
  40346c:	ffffed5c 	.inst	0xffffed5c ; undefined
  403470:	00000184 	udf	#388
  403474:	fffff124 	.inst	0xfffff124 ; undefined
  403478:	00000198 	udf	#408
  40347c:	ffffffbc 	.inst	0xffffffbc ; undefined
  403480:	000001b8 	udf	#440

Disassembly of section .eh_frame:

0000000000403488 <__FRAME_END__-0x158>:
  403488:	00000010 	udf	#16
  40348c:	00000000 	udf	#0
  403490:	00527a01 	.inst	0x00527a01 ; undefined
  403494:	011e7804 	.inst	0x011e7804 ; undefined
  403498:	001f0c1b 	.inst	0x001f0c1b ; undefined
  40349c:	00000010 	udf	#16
  4034a0:	00000018 	udf	#24
  4034a4:	ffffd05c 	.inst	0xffffd05c ; undefined
  4034a8:	0000003c 	udf	#60
  4034ac:	1e074100 	.inst	0x1e074100 ; undefined
  4034b0:	00000014 	udf	#20
  4034b4:	0000002c 	udf	#44
  4034b8:	ffffd088 	.inst	0xffffd088 ; undefined
  4034bc:	00000004 	udf	#4
	...
  4034c8:	00000010 	udf	#16
  4034cc:	00000044 	udf	#68
  4034d0:	ffffd090 	.inst	0xffffd090 ; undefined
  4034d4:	00000030 	udf	#48
  4034d8:	00000000 	udf	#0
  4034dc:	00000010 	udf	#16
  4034e0:	00000058 	udf	#88
  4034e4:	ffffd0ac 	.inst	0xffffd0ac ; undefined
  4034e8:	0000003c 	udf	#60
  4034ec:	00000000 	udf	#0
  4034f0:	00000020 	udf	#32
  4034f4:	0000006c 	udf	#108
  4034f8:	ffffd0d8 	.inst	0xffffd0d8 ; undefined
  4034fc:	00000030 	udf	#48
  403500:	200e4100 	.inst	0x200e4100 ; undefined
  403504:	039e049d 	.inst	0x039e049d ; undefined
  403508:	48029342 	stlxrh	w2, w2, [x26]
  40350c:	0ed3ddde 	.inst	0x0ed3ddde ; undefined
  403510:	00000000 	udf	#0
  403514:	00000010 	udf	#16
  403518:	00000090 	udf	#144
  40351c:	ffffd0e4 	.inst	0xffffd0e4 ; undefined
  403520:	00000004 	udf	#4
  403524:	00000000 	udf	#0
  403528:	00000010 	udf	#16
  40352c:	000000a4 	udf	#164
  403530:	ffffd0d4 	.inst	0xffffd0d4 ; undefined
  403534:	00000288 	udf	#648
  403538:	00000000 	udf	#0
  40353c:	00000010 	udf	#16
  403540:	000000b8 	udf	#184
  403544:	ffffd348 	.inst	0xffffd348 ; undefined
  403548:	000000ec 	udf	#236
  40354c:	00000000 	udf	#0
  403550:	00000010 	udf	#16
  403554:	000000cc 	udf	#204
  403558:	ffffd420 	.inst	0xffffd420 ; undefined
  40355c:	000006ec 	udf	#1772
  403560:	00000000 	udf	#0
  403564:	00000010 	udf	#16
  403568:	000000e0 	udf	#224
  40356c:	ffffdaf8 	.inst	0xffffdaf8 ; undefined
  403570:	00000fbc 	udf	#4028
  403574:	00000000 	udf	#0
  403578:	00000010 	udf	#16
  40357c:	000000f4 	udf	#244
  403580:	ffffeaa0 	.inst	0xffffeaa0 ; undefined
  403584:	00000144 	udf	#324
  403588:	00000000 	udf	#0
  40358c:	00000010 	udf	#16
  403590:	00000108 	udf	#264
  403594:	ffffebd0 	.inst	0xffffebd0 ; undefined
  403598:	000003c8 	udf	#968
  40359c:	00000000 	udf	#0
  4035a0:	0000001c 	udf	#28
  4035a4:	0000011c 	udf	#284
  4035a8:	ffffef84 	.inst	0xffffef84 ; undefined
  4035ac:	00000e98 	udf	#3736
  4035b0:	100e4100 	adr	x0, 41fdd0 <__FRAME_END__+0x1c7f0>
  4035b4:	019e029d 	.inst	0x019e029d ; undefined
  4035b8:	de03a403 	.inst	0xde03a403 ; undefined
  4035bc:	00000edd 	udf	#3805
  4035c0:	0000001c 	udf	#28
  4035c4:	0000013c 	udf	#316
  4035c8:	fffffdfc 	.inst	0xfffffdfc ; undefined
  4035cc:	00000020 	udf	#32
  4035d0:	100e4100 	adr	x0, 41fdf0 <__do_global_dtors_aux_fini_array_entry>
  4035d4:	019e029d 	.inst	0x019e029d ; undefined
  4035d8:	0eddde46 	.inst	0x0eddde46 ; undefined
  4035dc:	00000000 	udf	#0

00000000004035e0 <__FRAME_END__>:
  4035e0:	00000000 	udf	#0

Disassembly of section .init_array:

000000000041fde8 <__frame_dummy_init_array_entry>:
  41fde8:	00400600 	.inst	0x00400600 ; undefined
  41fdec:	00000000 	udf	#0

Disassembly of section .fini_array:

000000000041fdf0 <__do_global_dtors_aux_fini_array_entry>:
  41fdf0:	004005d0 	.inst	0x004005d0 ; undefined
  41fdf4:	00000000 	udf	#0

Disassembly of section .dynamic:

000000000041fdf8 <_DYNAMIC>:
  41fdf8:	00000001 	udf	#1
  41fdfc:	00000000 	udf	#0
  41fe00:	00000019 	udf	#25
  41fe04:	00000000 	udf	#0
  41fe08:	0000000c 	udf	#12
  41fe0c:	00000000 	udf	#0
  41fe10:	00400498 	.inst	0x00400498 ; undefined
  41fe14:	00000000 	udf	#0
  41fe18:	0000000d 	udf	#13
  41fe1c:	00000000 	udf	#0
  41fe20:	004033e4 	.inst	0x004033e4 ; undefined
  41fe24:	00000000 	udf	#0
  41fe28:	00000019 	udf	#25
  41fe2c:	00000000 	udf	#0
  41fe30:	0041fde8 	.inst	0x0041fde8 ; undefined
  41fe34:	00000000 	udf	#0
  41fe38:	0000001b 	udf	#27
  41fe3c:	00000000 	udf	#0
  41fe40:	00000008 	udf	#8
  41fe44:	00000000 	udf	#0
  41fe48:	0000001a 	udf	#26
  41fe4c:	00000000 	udf	#0
  41fe50:	0041fdf0 	.inst	0x0041fdf0 ; undefined
  41fe54:	00000000 	udf	#0
  41fe58:	0000001c 	udf	#28
  41fe5c:	00000000 	udf	#0
  41fe60:	00000008 	udf	#8
  41fe64:	00000000 	udf	#0
  41fe68:	6ffffef5 	.inst	0x6ffffef5 ; undefined
  41fe6c:	00000000 	udf	#0
  41fe70:	00400298 	.inst	0x00400298 ; undefined
  41fe74:	00000000 	udf	#0
  41fe78:	00000005 	udf	#5
  41fe7c:	00000000 	udf	#0
  41fe80:	00400348 	.inst	0x00400348 ; undefined
  41fe84:	00000000 	udf	#0
  41fe88:	00000006 	udf	#6
  41fe8c:	00000000 	udf	#0
  41fe90:	004002b8 	.inst	0x004002b8 ; undefined
  41fe94:	00000000 	udf	#0
  41fe98:	0000000a 	udf	#10
  41fe9c:	00000000 	udf	#0
  41fea0:	0000007e 	udf	#126
  41fea4:	00000000 	udf	#0
  41fea8:	0000000b 	udf	#11
  41feac:	00000000 	udf	#0
  41feb0:	00000018 	udf	#24
  41feb4:	00000000 	udf	#0
  41feb8:	00000015 	udf	#21
	...
  41fec8:	00000003 	udf	#3
  41fecc:	00000000 	udf	#0
  41fed0:	0041ffe8 	.inst	0x0041ffe8 ; undefined
  41fed4:	00000000 	udf	#0
  41fed8:	00000002 	udf	#2
  41fedc:	00000000 	udf	#0
  41fee0:	00000048 	udf	#72
  41fee4:	00000000 	udf	#0
  41fee8:	00000014 	udf	#20
  41feec:	00000000 	udf	#0
  41fef0:	00000007 	udf	#7
  41fef4:	00000000 	udf	#0
  41fef8:	00000017 	udf	#23
  41fefc:	00000000 	udf	#0
  41ff00:	00400450 	.inst	0x00400450 ; undefined
  41ff04:	00000000 	udf	#0
  41ff08:	00000007 	udf	#7
  41ff0c:	00000000 	udf	#0
  41ff10:	00400408 	.inst	0x00400408 ; undefined
  41ff14:	00000000 	udf	#0
  41ff18:	00000008 	udf	#8
  41ff1c:	00000000 	udf	#0
  41ff20:	00000048 	udf	#72
  41ff24:	00000000 	udf	#0
  41ff28:	00000009 	udf	#9
  41ff2c:	00000000 	udf	#0
  41ff30:	00000018 	udf	#24
  41ff34:	00000000 	udf	#0
  41ff38:	6ffffffe 	.inst	0x6ffffffe ; undefined
  41ff3c:	00000000 	udf	#0
  41ff40:	004003d8 	.inst	0x004003d8 ; undefined
  41ff44:	00000000 	udf	#0
  41ff48:	6fffffff 	.inst	0x6fffffff ; undefined
  41ff4c:	00000000 	udf	#0
  41ff50:	00000001 	udf	#1
  41ff54:	00000000 	udf	#0
  41ff58:	6ffffff0 	.inst	0x6ffffff0 ; undefined
  41ff5c:	00000000 	udf	#0
  41ff60:	004003c6 	.inst	0x004003c6 ; undefined
	...

Disassembly of section .got:

000000000041ffc8 <_GLOBAL_OFFSET_TABLE_>:
  41ffc8:	0041fdf8 	.inst	0x0041fdf8 ; undefined
	...

Disassembly of section .got.plt:

000000000041ffe8 <.got.plt>:
	...
  420000:	004004b0 	.inst	0x004004b0 ; undefined
  420004:	00000000 	udf	#0
  420008:	004004b0 	.inst	0x004004b0 ; undefined
  42000c:	00000000 	udf	#0
  420010:	004004b0 	.inst	0x004004b0 ; undefined
  420014:	00000000 	udf	#0

Disassembly of section .data:

0000000000420018 <__data_start>:
	...

0000000000420020 <__dso_handle>:
	...

Disassembly of section .bss:

0000000000420028 <completed.0>:
	...

0000000000420030 <tm_entered_EINSCHALTSTROM_MESSEN_BLOCK_ERKENNUNG_CTRLch_BLOCK_ERKENNUNG_CTRL__N_copy>:
	...

0000000000420038 <tm_entered_WIEDERHOLSPERRE_FH_TUERMODUL_CTRLexited_BEREIT_FH_TUERMODUL_CTRL>:
	...

0000000000420040 <tm_entered_WIEDERHOLSPERRE_FH_TUERMODUL_CTRL>:
	...

0000000000420048 <sc_FH_TUERMODUL_CTRL_2375_2>:
	...

0000000000420050 <sc_FH_TUERMODUL_CTRL_2352_1>:
	...

0000000000420058 <sc_FH_TUERMODUL_CTRL_2329_1>:
	...

0000000000420060 <FH_TUERMODUL_CTRL__N>:
  420060:	00000000 	udf	#0

0000000000420064 <FH_TUERMODUL_CTRL__N_copy>:
  420064:	00000000 	udf	#0

0000000000420068 <FH_TUERMODUL_CTRL__N_old>:
	...

0000000000420070 <sc_FH_TUERMODUL_CTRL_1781_10>:
	...

0000000000420078 <sc_FH_TUERMODUL_CTRL_1739_10>:
	...

0000000000420080 <FH_TUERMODUL__POSITION>:
  420080:	00000000 	udf	#0

0000000000420084 <FH_TUERMODUL__I_EIN>:
  420084:	00000000 	udf	#0

0000000000420088 <FH_TUERMODUL__I_EIN_old>:
  420088:	00000000 	udf	#0

000000000042008c <FH_DU__MFH>:
  42008c:	00000000 	udf	#0

0000000000420090 <FH_DU__MFH_copy>:
  420090:	00000000 	udf	#0

0000000000420094 <FH_DU__POSITION>:
  420094:	00000000 	udf	#0

0000000000420098 <FH_DU__I_EIN>:
  420098:	00000000 	udf	#0

000000000042009c <FH_DU__I_EIN_old>:
  42009c:	00000000 	udf	#0

00000000004200a0 <BLOCK_ERKENNUNG_CTRL__I_EIN_MAX>:
  4200a0:	00000000 	udf	#0

00000000004200a4 <BLOCK_ERKENNUNG_CTRL__I_EIN_MAX_copy>:
  4200a4:	00000000 	udf	#0

00000000004200a8 <BLOCK_ERKENNUNG_CTRL__N>:
  4200a8:	00000000 	udf	#0

00000000004200ac <BLOCK_ERKENNUNG_CTRL__N_copy>:
  4200ac:	00000000 	udf	#0

00000000004200b0 <BLOCK_ERKENNUNG_CTRL__N_old>:
  4200b0:	00000000 	udf	#0

00000000004200b4 <FH_TUERMODUL_CTRL__INREVERS2>:
	...

00000000004200b5 <FH_TUERMODUL_CTRL__INREVERS2_copy>:
	...

00000000004200b6 <FH_TUERMODUL_CTRL__INREVERS1>:
	...

00000000004200b7 <FH_TUERMODUL_CTRL__INREVERS1_copy>:
	...

00000000004200b8 <FH_TUERMODUL_CTRL__FT>:
	...

00000000004200b9 <FH_TUERMODUL__SFHZ_ZENTRAL>:
	...

00000000004200ba <FH_TUERMODUL__SFHZ_ZENTRAL_old>:
	...

00000000004200bb <FH_TUERMODUL__SFHZ_MEC>:
	...

00000000004200bc <FH_TUERMODUL__SFHZ_MEC_old>:
	...

00000000004200bd <FH_TUERMODUL__SFHA_ZENTRAL>:
	...

00000000004200be <FH_TUERMODUL__SFHA_ZENTRAL_old>:
	...

00000000004200bf <FH_TUERMODUL__SFHA_MEC>:
	...

00000000004200c0 <FH_TUERMODUL__SFHA_MEC_old>:
	...

00000000004200c1 <FH_TUERMODUL__KL_50>:
	...

00000000004200c2 <FH_TUERMODUL__BLOCK>:
	...

00000000004200c3 <FH_TUERMODUL__BLOCK_copy>:
	...

00000000004200c4 <FH_TUERMODUL__BLOCK_old>:
	...

00000000004200c5 <FH_TUERMODUL__FT>:
	...

00000000004200c6 <FH_TUERMODUL__SFHZ>:
	...

00000000004200c7 <FH_TUERMODUL__SFHZ_copy>:
	...

00000000004200c8 <FH_TUERMODUL__SFHZ_old>:
	...

00000000004200c9 <FH_TUERMODUL__SFHA>:
	...

00000000004200ca <FH_TUERMODUL__SFHA_copy>:
	...

00000000004200cb <FH_TUERMODUL__SFHA_old>:
	...

00000000004200cc <FH_TUERMODUL__MFHZ>:
	...

00000000004200cd <FH_TUERMODUL__MFHZ_copy>:
	...

00000000004200ce <FH_TUERMODUL__MFHZ_old>:
	...

00000000004200cf <FH_TUERMODUL__MFHA>:
	...

00000000004200d0 <FH_TUERMODUL__MFHA_copy>:
	...

00000000004200d1 <FH_TUERMODUL__MFHA_old>:
	...

00000000004200d2 <FH_TUERMODUL__EKS_LEISTE_AKTIV>:
	...

00000000004200d3 <FH_TUERMODUL__EKS_LEISTE_AKTIV_old>:
	...

00000000004200d4 <FH_TUERMODUL__COM_OPEN>:
	...

00000000004200d5 <FH_TUERMODUL__COM_CLOSE>:
	...

00000000004200d6 <FH_DU__KL_50>:
	...

00000000004200d7 <FH_DU__S_FH_FTZU>:
	...

00000000004200d8 <FH_DU__S_FH_FTAUF>:
	...

00000000004200d9 <FH_DU__FT>:
	...

00000000004200da <FH_DU__EKS_LEISTE_AKTIV>:
	...

00000000004200db <FH_DU__EKS_LEISTE_AKTIV_old>:
	...

00000000004200dc <FH_DU__S_FH_TMBFAUFCAN>:
	...

00000000004200dd <FH_DU__S_FH_TMBFAUFCAN_copy>:
	...

00000000004200de <FH_DU__S_FH_TMBFAUFCAN_old>:
	...

00000000004200df <FH_DU__S_FH_TMBFZUCAN>:
	...

00000000004200e0 <FH_DU__S_FH_TMBFZUCAN_copy>:
	...

00000000004200e1 <FH_DU__S_FH_TMBFZUCAN_old>:
	...

00000000004200e2 <FH_DU__S_FH_TMBFZUDISC>:
	...

00000000004200e3 <FH_DU__S_FH_TMBFZUDISC_old>:
	...

00000000004200e4 <FH_DU__S_FH_TMBFAUFDISC>:
	...

00000000004200e5 <FH_DU__S_FH_TMBFAUFDISC_old>:
	...

00000000004200e6 <FH_DU__S_FH_ZUDISC>:
	...

00000000004200e7 <FH_DU__S_FH_AUFDISC>:
	...

00000000004200e8 <FH_DU__DOOR_ID>:
	...

00000000004200e9 <FH_DU__BLOCK>:
	...

00000000004200ea <FH_DU__BLOCK_copy>:
	...

00000000004200eb <FH_DU__BLOCK_old>:
	...

00000000004200ec <FH_DU__MFHZ>:
	...

00000000004200ed <FH_DU__MFHZ_copy>:
	...

00000000004200ee <FH_DU__MFHZ_old>:
	...

00000000004200ef <FH_DU__MFHA>:
	...

00000000004200f0 <FH_DU__MFHA_copy>:
	...

00000000004200f1 <FH_DU__MFHA_old>:
  4200f1:	00000000 	udf	#0
  4200f5:	 	udf	#0

00000000004200f8 <time>:
	...

0000000000420100 <stable>:
	...

0000000000420101 <step>:
	...

0000000000420102 <NICHT_INITIALISIERT_NICHT_INITIALISIERT_next_state>:
	...

0000000000420103 <ZENTRAL_KINDERSICHERUNG_CTRL_next_state>:
	...

0000000000420104 <MEC_KINDERSICHERUNG_CTRL_next_state>:
	...

0000000000420105 <KINDERSICHERUNG_CTRL_KINDERSICHERUNG_CTRL_next_state>:
	...

0000000000420106 <B_FH_TUERMODUL_CTRL_next_state>:
	...

0000000000420107 <A_FH_TUERMODUL_CTRL_next_state>:
	...

0000000000420108 <WIEDERHOLSPERRE_FH_TUERMODUL_CTRL_next_state>:
	...

0000000000420109 <INITIALISIERT_FH_TUERMODUL_CTRL_next_state>:
	...

000000000042010a <TIPP_SCHLIESSEN_FH_TUERMODUL_CTRL_next_state>:
	...

000000000042010b <MANUELL_SCHLIESSEN_FH_TUERMODUL_CTRL_next_state>:
	...

000000000042010c <OEFFNEN_FH_TUERMODUL_CTRL_next_state>:
	...

000000000042010d <SCHLIESSEN_FH_TUERMODUL_CTRL_next_state>:
	...

000000000042010e <FH_STEUERUNG_DUMMY_FH_STEUERUNG_DUMMY_next_state>:
	...

000000000042010f <EINKLEMMSCHUTZ_CTRL_EINKLEMMSCHUTZ_CTRL_next_state>:
	...

0000000000420110 <BEWEGUNG_BLOCK_ERKENNUNG_CTRL_next_state>:
	...

0000000000420111 <BLOCK_ERKENNUNG_CTRL_BLOCK_ERKENNUNG_CTRL_next_state>:
  420111:	00000000 	udf	#0
  420115:	 	udf	#0

0000000000420118 <Bitlist>:
	...

Disassembly of section .comment:

0000000000000000 <.comment>:
   0:	3a434347 	ccmn	w26, w3, #0x7, mi  // mi = first
   4:	4e472820 	trn1	v0.8h, v1.8h, v7.8h
   8:	31202955 	adds	w21, w10, #0x80a
   c:	2e332e30 	uqsub	v16.8b, v17.8b, v19.8b
  10:	地址 0x0000000000000010 越界。


Disassembly of section .gnu.build.attributes:

0000000000420158 <.gnu.build.attributes>:
  420158:	00000008 	udf	#8
  42015c:	00000010 	udf	#16
  420160:	00000100 	udf	#256
  420164:	01244147 	.inst	0x01244147 ; undefined
  420168:	00316133 	.inst	0x00316133 ; NYI
  42016c:	00400500 	.inst	0x00400500 ; undefined
  420170:	00000000 	udf	#0
  420174:	0040053c 	.inst	0x0040053c ; undefined
  420178:	00000000 	udf	#0
  42017c:	00000008 	udf	#8
  420180:	00000010 	udf	#16
  420184:	00000100 	udf	#256
  420188:	01244147 	.inst	0x01244147 ; undefined
  42018c:	00316133 	.inst	0x00316133 ; NYI
  420190:	00400544 	.inst	0x00400544 ; undefined
  420194:	00000000 	udf	#0
  420198:	00400558 	.inst	0x00400558 ; undefined
  42019c:	00000000 	udf	#0
  4201a0:	00000008 	udf	#8
  4201a4:	00000010 	udf	#16
  4201a8:	00000100 	udf	#256
  4201ac:	01244147 	.inst	0x01244147 ; undefined
  4201b0:	00316133 	.inst	0x00316133 ; NYI
  4201b4:	00400498 	.inst	0x00400498 ; undefined
  4201b8:	00000000 	udf	#0
  4201bc:	004004a8 	.inst	0x004004a8 ; undefined
  4201c0:	00000000 	udf	#0
  4201c4:	00000008 	udf	#8
  4201c8:	00000010 	udf	#16
  4201cc:	00000100 	udf	#256
  4201d0:	01244147 	.inst	0x01244147 ; undefined
  4201d4:	00316133 	.inst	0x00316133 ; NYI
  4201d8:	004033e4 	.inst	0x004033e4 ; undefined
  4201dc:	00000000 	udf	#0
  4201e0:	004033f0 	.inst	0x004033f0 ; undefined
  4201e4:	00000000 	udf	#0
  4201e8:	00000008 	udf	#8
  4201ec:	00000010 	udf	#16
  4201f0:	00000100 	udf	#256
  4201f4:	01244147 	.inst	0x01244147 ; undefined
  4201f8:	00316133 	.inst	0x00316133 ; NYI
  4201fc:	004033e4 	.inst	0x004033e4 ; undefined
  420200:	00000000 	udf	#0
  420204:	004033e4 	.inst	0x004033e4 ; undefined
  420208:	00000000 	udf	#0
  42020c:	00000008 	udf	#8
  420210:	00000010 	udf	#16
  420214:	00000100 	udf	#256
  420218:	01244147 	.inst	0x01244147 ; undefined
  42021c:	00316133 	.inst	0x00316133 ; NYI
  420220:	004004a8 	.inst	0x004004a8 ; undefined
  420224:	00000000 	udf	#0
  420228:	004004b0 	.inst	0x004004b0 ; undefined
  42022c:	00000000 	udf	#0
  420230:	00000008 	udf	#8
  420234:	00000010 	udf	#16
  420238:	00000100 	udf	#256
  42023c:	01244147 	.inst	0x01244147 ; undefined
  420240:	00316133 	.inst	0x00316133 ; NYI
  420244:	004033f0 	.inst	0x004033f0 ; undefined
  420248:	00000000 	udf	#0
  42024c:	004033f8 	.inst	0x004033f8 ; undefined
  420250:	00000000 	udf	#0

Disassembly of section .debug_aranges:

0000000000000000 <.debug_aranges>:
   0:	0000002c 	udf	#44
   4:	00000002 	udf	#2
   8:	00080000 	.inst	0x00080000 ; undefined
   c:	00000000 	udf	#0
  10:	00400604 	.inst	0x00400604 ; undefined
  14:	00000000 	udf	#0
  18:	00002de0 	udf	#11744
	...

Disassembly of section .debug_info:

0000000000000000 <.debug_info>:
   0:	00000a44 	udf	#2628
   4:	00000004 	udf	#4
   8:	01080000 	.inst	0x01080000 ; undefined
   c:	00000a8a 	udf	#2698
  10:	0006c20c 	.inst	0x0006c20c ; undefined
  14:	0000c000 	udf	#49152
  18:	40060400 	.inst	0x40060400 ; undefined
  1c:	00000000 	udf	#0
  20:	002de000 	.inst	0x002de000 ; NYI
	...
  2c:	00440200 	.inst	0x00440200 ; undefined
  30:	003d0000 	.inst	0x003d0000 ; NYI
  34:	3d030000 	str	b0, [x0, #192]
  38:	3f000000 	.inst	0x3f000000 ; undefined
  3c:	07080400 	.inst	0x07080400 ; undefined
  40:	000008b9 	udf	#2233
  44:	38080104 	sturb	w4, [x8, #128]
  48:	05000007 	orr	z7.s, z7.s, #0x1
  4c:	0000093c 	udf	#2364
  50:	2d0d2301 	stp	s1, s8, [x24, #104]
  54:	09000000 	.inst	0x09000000 ; undefined
  58:	42011803 	.inst	0x42011803 ; undefined
  5c:	00000000 	udf	#0
  60:	01fa0600 	.inst	0x01fa0600 ; undefined
  64:	38010000 	sturb	w0, [x0, #16]
  68:	00003d0f 	udf	#15631
  6c:	30030900 	adr	x0, 618d <__abi_tag-0x3fa0eb>
  70:	00004200 	udf	#16896
  74:	06000000 	.inst	0x06000000 ; undefined
  78:	00000855 	udf	#2133
  7c:	3d0f3d01 	str	b1, [x8, #975]
  80:	09000000 	.inst	0x09000000 ; undefined
  84:	42003803 	.inst	0x42003803 ; undefined
  88:	00000000 	udf	#0
  8c:	0b4f0600 	add	w0, w16, w15, lsr #1
  90:	3e010000 	.inst	0x3e010000 ; undefined
  94:	00003d0f 	udf	#15631
  98:	40030900 	.inst	0x40030900 ; undefined
  9c:	00004200 	udf	#16896
  a0:	06000000 	.inst	0x06000000 ; undefined
  a4:	000006a1 	udf	#1697
  a8:	3d113f01 	str	b1, [x24, #1103]
  ac:	09000000 	.inst	0x09000000 ; undefined
  b0:	42004803 	.inst	0x42004803 ; undefined
  b4:	00000000 	udf	#0
  b8:	04880600 	smax	z0.s, p1/m, z0.s, z16.s
  bc:	40010000 	.inst	0x40010000 ; undefined
  c0:	00003d11 	udf	#15633
  c4:	50030900 	adr	x0, 61e6 <__abi_tag-0x3fa092>
  c8:	00004200 	udf	#16896
  cc:	06000000 	.inst	0x06000000 ; undefined
  d0:	000009e9 	udf	#2537
  d4:	3d114101 	str	b1, [x8, #1104]
  d8:	09000000 	.inst	0x09000000 ; undefined
  dc:	42005803 	.inst	0x42005803 ; undefined
  e0:	00000000 	udf	#0
  e4:	039d0600 	.inst	0x039d0600 ; undefined
  e8:	42010000 	.inst	0x42010000 ; undefined
  ec:	0000fb05 	udf	#64261
  f0:	60030900 	.inst	0x60030900 ; undefined
  f4:	00004200 	udf	#16896
  f8:	07000000 	.inst	0x07000000 ; undefined
  fc:	6e690504 	uhadd	v4.8h, v8.8h, v9.8h
 100:	b0060074 	adrp	x20, c00d000 <__bss_end__+0xbbecea8>
 104:	01000001 	.inst	0x01000001 ; undefined
 108:	00fb0543 	.inst	0x00fb0543 ; undefined
 10c:	03090000 	.inst	0x03090000 ; undefined
 110:	00420064 	.inst	0x00420064 ; undefined
 114:	00000000 	udf	#0
 118:	000a1f06 	.inst	0x000a1f06 ; undefined
 11c:	05440100 	.inst	0x05440100 ; undefined
 120:	000000fb 	udf	#251
 124:	00680309 	.inst	0x00680309 ; undefined
 128:	00000042 	udf	#66
 12c:	7c060000 	stur	h0, [x0, #96]
 130:	0100000b 	.inst	0x0100000b ; undefined
 134:	003d1145 	.inst	0x003d1145 ; NYI
 138:	03090000 	.inst	0x03090000 ; undefined
 13c:	00420070 	.inst	0x00420070 ; undefined
 140:	00000000 	udf	#0
 144:	00028406 	.inst	0x00028406 ; undefined
 148:	11460100 	add	w0, w8, #0x180, lsl #12
 14c:	0000003d 	udf	#61
 150:	00780309 	.inst	0x00780309 ; undefined
 154:	00000042 	udf	#66
 158:	0d060000 	.inst	0x0d060000 ; undefined
 15c:	01000003 	.inst	0x01000003 ; undefined
 160:	00fb0947 	.inst	0x00fb0947 ; undefined
 164:	03090000 	.inst	0x03090000 ; undefined
 168:	00420080 	.inst	0x00420080 ; undefined
 16c:	00000000 	udf	#0
 170:	0000d806 	udf	#55302
 174:	09480100 	.inst	0x09480100 ; undefined
 178:	000000fb 	udf	#251
 17c:	00840309 	.inst	0x00840309 ; undefined
 180:	00000042 	udf	#66
 184:	50060000 	adr	x0, c186 <__abi_tag-0x3f40f2>
 188:	0100000a 	.inst	0x0100000a ; undefined
 18c:	00fb0749 	.inst	0x00fb0749 ; undefined
 190:	03090000 	.inst	0x03090000 ; undefined
 194:	00420088 	.inst	0x00420088 ; undefined
 198:	00000000 	udf	#0
 19c:	0007af06 	.inst	0x0007af06 ; undefined
 1a0:	054a0100 	.inst	0x054a0100 ; undefined
 1a4:	000000fb 	udf	#251
 1a8:	008c0309 	.inst	0x008c0309 ; undefined
 1ac:	00000042 	udf	#66
 1b0:	0e060000 	tbl	v0.8b, {v0.16b}, v6.8b
 1b4:	01000008 	.inst	0x01000008 ; undefined
 1b8:	00fb054b 	.inst	0x00fb054b ; undefined
 1bc:	03090000 	.inst	0x03090000 ; undefined
 1c0:	00420090 	.inst	0x00420090 ; undefined
 1c4:	00000000 	udf	#0
 1c8:	00094406 	.inst	0x00094406 ; undefined
 1cc:	094c0100 	.inst	0x094c0100 ; undefined
 1d0:	000000fb 	udf	#251
 1d4:	00940309 	.inst	0x00940309 ; undefined
 1d8:	00000042 	udf	#66
 1dc:	3d060000 	str	b0, [x0, #384]
 1e0:	01000005 	.inst	0x01000005 ; undefined
 1e4:	00fb094d 	.inst	0x00fb094d ; undefined
 1e8:	03090000 	.inst	0x03090000 ; undefined
 1ec:	00420098 	.inst	0x00420098 ; undefined
 1f0:	00000000 	udf	#0
 1f4:	00064b06 	.inst	0x00064b06 ; undefined
 1f8:	074e0100 	.inst	0x074e0100 ; undefined
 1fc:	000000fb 	udf	#251
 200:	009c0309 	.inst	0x009c0309 ; undefined
 204:	00000042 	udf	#66
 208:	20060000 	.inst	0x20060000 ; undefined
 20c:	01000001 	.inst	0x01000001 ; undefined
 210:	00fb074f 	.inst	0x00fb074f ; undefined
 214:	03090000 	.inst	0x03090000 ; undefined
 218:	004200a0 	.inst	0x004200a0 ; undefined
 21c:	00000000 	udf	#0
 220:	00097406 	.inst	0x00097406 ; undefined
 224:	07500100 	.inst	0x07500100 ; undefined
 228:	000000fb 	udf	#251
 22c:	00a40309 	.inst	0x00a40309 ; undefined
 230:	00000042 	udf	#66
 234:	c8060000 	stxr	w6, x0, [x0]
 238:	01000005 	.inst	0x01000005 ; undefined
 23c:	00fb0551 	.inst	0x00fb0551 ; undefined
 240:	03090000 	.inst	0x03090000 ; undefined
 244:	004200a8 	.inst	0x004200a8 ; undefined
 248:	00000000 	udf	#0
 24c:	00023206 	.inst	0x00023206 ; undefined
 250:	05520100 	mov	z0.h, p2/z, #8
 254:	000000fb 	udf	#251
 258:	00ac0309 	.inst	0x00ac0309 ; undefined
 25c:	00000042 	udf	#66
 260:	21060000 	.inst	0x21060000 ; undefined
 264:	01000005 	.inst	0x01000005 ; undefined
 268:	00fb0553 	.inst	0x00fb0553 ; undefined
 26c:	03090000 	.inst	0x03090000 ; undefined
 270:	004200b0 	.inst	0x004200b0 ; undefined
 274:	00000000 	udf	#0
 278:	0005ab06 	.inst	0x0005ab06 ; undefined
 27c:	06540100 	.inst	0x06540100 ; undefined
 280:	00000044 	udf	#68
 284:	00b40309 	.inst	0x00b40309 ; undefined
 288:	00000042 	udf	#66
 28c:	68060000 	.inst	0x68060000 ; undefined
 290:	0100000a 	.inst	0x0100000a ; undefined
 294:	00440655 	.inst	0x00440655 ; undefined
 298:	03090000 	.inst	0x03090000 ; undefined
 29c:	004200b5 	.inst	0x004200b5 ; undefined
 2a0:	00000000 	udf	#0
 2a4:	00058e06 	.inst	0x00058e06 ; undefined
 2a8:	06560100 	.inst	0x06560100 ; undefined
 2ac:	00000044 	udf	#68
 2b0:	00b60309 	.inst	0x00b60309 ; undefined
 2b4:	00000042 	udf	#66
 2b8:	4b060000 	sub	w0, w0, w6
 2bc:	01000004 	.inst	0x01000004 ; undefined
 2c0:	00440657 	.inst	0x00440657 ; undefined
 2c4:	03090000 	.inst	0x03090000 ; undefined
 2c8:	004200b7 	.inst	0x004200b7 ; undefined
 2cc:	00000000 	udf	#0
 2d0:	00014006 	.inst	0x00014006 ; undefined
 2d4:	08580100 	ldxrb	w0, [x8]
 2d8:	00000044 	udf	#68
 2dc:	00b80309 	.inst	0x00b80309 ; undefined
 2e0:	00000042 	udf	#66
 2e4:	16060000 	b	fffffffff81802e4 <__bss_end__+0xfffffffff7d6018c>
 2e8:	0100000b 	.inst	0x0100000b ; undefined
 2ec:	00440859 	.inst	0x00440859 ; undefined
 2f0:	03090000 	.inst	0x03090000 ; undefined
 2f4:	004200b9 	.inst	0x004200b9 ; undefined
 2f8:	00000000 	udf	#0
 2fc:	0000a106 	udf	#41222
 300:	065a0100 	.inst	0x065a0100 ; undefined
 304:	00000044 	udf	#68
 308:	00ba0309 	.inst	0x00ba0309 ; undefined
 30c:	00000042 	udf	#66
 310:	71060000 	subs	w0, w0, #0x180
 314:	01000001 	.inst	0x01000001 ; undefined
 318:	0044085b 	.inst	0x0044085b ; undefined
 31c:	03090000 	.inst	0x03090000 ; undefined
 320:	004200bb 	.inst	0x004200bb ; undefined
 324:	00000000 	udf	#0
 328:	00099906 	.inst	0x00099906 ; undefined
 32c:	065c0100 	.inst	0x065c0100 ; undefined
 330:	00000044 	udf	#68
 334:	00bc0309 	.inst	0x00bc0309 ; undefined
 338:	00000042 	udf	#66
 33c:	3a060000 	adcs	w0, w0, w6
 340:	01000008 	.inst	0x01000008 ; undefined
 344:	0044085d 	.inst	0x0044085d ; undefined
 348:	03090000 	.inst	0x03090000 ; undefined
 34c:	004200bd 	.inst	0x004200bd ; undefined
 350:	00000000 	udf	#0
 354:	000ad806 	.inst	0x000ad806 ; undefined
 358:	065e0100 	.inst	0x065e0100 ; undefined
 35c:	00000044 	udf	#68
 360:	00be0309 	.inst	0x00be0309 ; undefined
 364:	00000042 	udf	#66
 368:	c1060000 	.inst	0xc1060000 ; undefined
 36c:	0100000a 	.inst	0x0100000a ; undefined
 370:	0044085f 	.inst	0x0044085f ; undefined
 374:	03090000 	.inst	0x03090000 ; undefined
 378:	004200bf 	.inst	0x004200bf ; undefined
 37c:	00000000 	udf	#0
 380:	00046d06 	.inst	0x00046d06 ; undefined
 384:	06600100 	.inst	0x06600100 ; undefined
 388:	00000044 	udf	#68
 38c:	00c00309 	.inst	0x00c00309 ; undefined
 390:	00000042 	udf	#66
 394:	f5060000 	.inst	0xf5060000 ; undefined
 398:	01000004 	.inst	0x01000004 ; undefined
 39c:	00440861 	.inst	0x00440861 ; undefined
 3a0:	03090000 	.inst	0x03090000 ; undefined
 3a4:	004200c1 	.inst	0x004200c1 ; undefined
 3a8:	00000000 	udf	#0
 3ac:	000b3b06 	.inst	0x000b3b06 ; undefined
 3b0:	06620100 	.inst	0x06620100 ; undefined
 3b4:	00000044 	udf	#68
 3b8:	00c20309 	.inst	0x00c20309 ; undefined
 3bc:	00000042 	udf	#66
 3c0:	b4060000 	cbz	x0, c3c0 <__abi_tag-0x3f3eb8>
 3c4:	01000009 	.inst	0x01000009 ; undefined
 3c8:	00440663 	.inst	0x00440663 ; undefined
 3cc:	03090000 	.inst	0x03090000 ; undefined
 3d0:	004200c3 	.inst	0x004200c3 ; undefined
 3d4:	00000000 	udf	#0
 3d8:	00006706 	udf	#26374
 3dc:	06640100 	.inst	0x06640100 ; undefined
 3e0:	00000044 	udf	#68
 3e4:	00c40309 	.inst	0x00c40309 ; undefined
 3e8:	00000042 	udf	#66
 3ec:	56060000 	.inst	0x56060000 ; undefined
 3f0:	01000000 	.inst	0x01000000 ; undefined
 3f4:	00440865 	.inst	0x00440865 ; undefined
 3f8:	03090000 	.inst	0x03090000 ; undefined
 3fc:	004200c5 	.inst	0x004200c5 ; undefined
 400:	00000000 	udf	#0
 404:	0008ea06 	.inst	0x0008ea06 ; undefined
 408:	06660100 	.inst	0x06660100 ; undefined
 40c:	00000044 	udf	#68
 410:	00c60309 	.inst	0x00c60309 ; undefined
 414:	00000042 	udf	#66
 418:	20060000 	.inst	0x20060000 ; undefined
 41c:	01000007 	.inst	0x01000007 ; undefined
 420:	00440667 	.inst	0x00440667 ; undefined
 424:	03090000 	.inst	0x03090000 ; undefined
 428:	004200c7 	.inst	0x004200c7 ; undefined
 42c:	00000000 	udf	#0
 430:	0009cd06 	.inst	0x0009cd06 ; undefined
 434:	06680100 	.inst	0x06680100 ; undefined
 438:	00000044 	udf	#68
 43c:	00c80309 	.inst	0x00c80309 ; undefined
 440:	00000042 	udf	#66
 444:	21060000 	.inst	0x21060000 ; undefined
 448:	01000006 	.inst	0x01000006 ; undefined
 44c:	00440669 	.inst	0x00440669 ; undefined
 450:	03090000 	.inst	0x03090000 ; undefined
 454:	004200c9 	.inst	0x004200c9 ; undefined
 458:	00000000 	udf	#0
 45c:	00050906 	.inst	0x00050906 ; undefined
 460:	066a0100 	.inst	0x066a0100 ; undefined
 464:	00000044 	udf	#68
 468:	00ca0309 	.inst	0x00ca0309 ; undefined
 46c:	00000042 	udf	#66
 470:	34060000 	cbz	w0, c470 <__abi_tag-0x3f3e08>
 474:	01000006 	.inst	0x01000006 ; undefined
 478:	0044066b 	.inst	0x0044066b ; undefined
 47c:	03090000 	.inst	0x03090000 ; undefined
 480:	004200cb 	.inst	0x004200cb ; undefined
 484:	00000000 	udf	#0
 488:	00007f06 	udf	#32518
 48c:	066c0100 	.inst	0x066c0100 ; undefined
 490:	00000044 	udf	#68
 494:	00cc0309 	.inst	0x00cc0309 ; undefined
 498:	00000042 	udf	#66
 49c:	6d060000 	stp	d0, d0, [x0, #96]
 4a0:	01000006 	.inst	0x01000006 ; undefined
 4a4:	0044066d 	.inst	0x0044066d ; undefined
 4a8:	03090000 	.inst	0x03090000 ; undefined
 4ac:	004200cd 	.inst	0x004200cd ; undefined
 4b0:	00000000 	udf	#0
 4b4:	0001dc06 	.inst	0x0001dc06 ; undefined
 4b8:	066e0100 	.inst	0x066e0100 ; undefined
 4bc:	00000044 	udf	#68
 4c0:	00ce0309 	.inst	0x00ce0309 ; undefined
 4c4:	00000042 	udf	#66
 4c8:	99060000 	stlur	w0, [x0, #96]
 4cc:	0100000b 	.inst	0x0100000b ; undefined
 4d0:	0044066f 	.inst	0x0044066f ; undefined
 4d4:	03090000 	.inst	0x03090000 ; undefined
 4d8:	004200cf 	.inst	0x004200cf ; undefined
 4dc:	00000000 	udf	#0
 4e0:	0006ce06 	.inst	0x0006ce06 ; undefined
 4e4:	06700100 	.inst	0x06700100 ; undefined
 4e8:	00000044 	udf	#68
 4ec:	00d00309 	.inst	0x00d00309 ; undefined
 4f0:	00000042 	udf	#66
 4f4:	77060000 	.inst	0x77060000 ; undefined
 4f8:	01000005 	.inst	0x01000005 ; undefined
 4fc:	00440671 	.inst	0x00440671 ; undefined
 500:	03090000 	.inst	0x03090000 ; undefined
 504:	004200d1 	.inst	0x004200d1 ; undefined
 508:	00000000 	udf	#0
 50c:	000af706 	.inst	0x000af706 ; undefined
 510:	08720100 	.inst	0x08720100 ; undefined
 514:	00000044 	udf	#68
 518:	00d20309 	.inst	0x00d20309 ; undefined
 51c:	00000042 	udf	#66
 520:	dd060000 	.inst	0xdd060000 ; undefined
 524:	01000002 	.inst	0x01000002 ; undefined
 528:	00440673 	.inst	0x00440673 ; undefined
 52c:	03090000 	.inst	0x03090000 ; undefined
 530:	004200d3 	.inst	0x004200d3 ; undefined
 534:	00000000 	udf	#0
 538:	00035106 	.inst	0x00035106 ; undefined
 53c:	08740100 	.inst	0x08740100 ; undefined
 540:	00000044 	udf	#68
 544:	00d40309 	.inst	0x00d40309 ; undefined
 548:	00000042 	udf	#66
 54c:	a1060000 	.inst	0xa1060000 ; undefined
 550:	01000008 	.inst	0x01000008 ; undefined
 554:	00440875 	.inst	0x00440875 ; undefined
 558:	03090000 	.inst	0x03090000 ; undefined
 55c:	004200d5 	.inst	0x004200d5 ; undefined
 560:	00000000 	udf	#0
 564:	00095406 	.inst	0x00095406 ; undefined
 568:	08760100 	.inst	0x08760100 ; undefined
 56c:	00000044 	udf	#68
 570:	00d60309 	.inst	0x00d60309 ; undefined
 574:	00000042 	udf	#66
 578:	ba060000 	adcs	x0, x0, x6
 57c:	01000007 	.inst	0x01000007 ; undefined
 580:	00440677 	.inst	0x00440677 ; undefined
 584:	03090000 	.inst	0x03090000 ; undefined
 588:	004200d7 	.inst	0x004200d7 ; undefined
 58c:	00000000 	udf	#0
 590:	0001ca06 	.inst	0x0001ca06 ; undefined
 594:	06780100 	.inst	0x06780100 ; undefined
 598:	00000044 	udf	#68
 59c:	00d80309 	.inst	0x00d80309 ; undefined
 5a0:	00000042 	udf	#66
 5a4:	b7060000 	tbnz	x0, #32, ffffffffffffc5a4 <__bss_end__+0xffffffffffbdc44c>
 5a8:	0100000a 	.inst	0x0100000a ; undefined
 5ac:	00440879 	.inst	0x00440879 ; undefined
 5b0:	03090000 	.inst	0x03090000 ; undefined
 5b4:	004200d9 	.inst	0x004200d9 ; undefined
 5b8:	00000000 	udf	#0
 5bc:	00010306 	.inst	0x00010306 ; undefined
 5c0:	087a0100 	.inst	0x087a0100 ; undefined
 5c4:	00000044 	udf	#68
 5c8:	00da0309 	.inst	0x00da0309 ; undefined
 5cc:	00000042 	udf	#66
 5d0:	e0060000 	.inst	0xe0060000 ; undefined
 5d4:	01000005 	.inst	0x01000005 ; undefined
 5d8:	0044067b 	.inst	0x0044067b ; undefined
 5dc:	03090000 	.inst	0x03090000 ; undefined
 5e0:	004200db 	.inst	0x004200db ; undefined
 5e4:	00000000 	udf	#0
 5e8:	00019906 	.inst	0x00019906 ; undefined
 5ec:	067c0100 	.inst	0x067c0100 ; undefined
 5f0:	00000044 	udf	#68
 5f4:	00dc0309 	.inst	0x00dc0309 ; undefined
 5f8:	00000042 	udf	#66
 5fc:	85060000 	.inst	0x85060000 ; undefined
 600:	01000006 	.inst	0x01000006 ; undefined
 604:	0044067d 	.inst	0x0044067d ; undefined
 608:	03090000 	.inst	0x03090000 ; undefined
 60c:	004200dd 	.inst	0x004200dd ; undefined
 610:	00000000 	udf	#0
 614:	00015606 	.inst	0x00015606 ; undefined
 618:	067e0100 	.inst	0x067e0100 ; undefined
 61c:	00000044 	udf	#68
 620:	00de0309 	.inst	0x00de0309 ; undefined
 624:	00000042 	udf	#66
 628:	35060000 	cbnz	w0, c628 <__abi_tag-0x3f3c50>
 62c:	01000004 	.inst	0x01000004 ; undefined
 630:	0044067f 	.inst	0x0044067f ; undefined
 634:	03090000 	.inst	0x03090000 ; undefined
 638:	004200df 	.inst	0x004200df ; undefined
 63c:	00000000 	udf	#0
 640:	00079406 	.inst	0x00079406 ; undefined
 644:	06800100 	.inst	0x06800100 ; undefined
 648:	00000044 	udf	#68
 64c:	00e00309 	.inst	0x00e00309 ; undefined
 650:	00000042 	udf	#66
 654:	5d060000 	.inst	0x5d060000 ; undefined
 658:	01000007 	.inst	0x01000007 ; undefined
 65c:	00440681 	.inst	0x00440681 ; undefined
 660:	03090000 	.inst	0x03090000 ; undefined
 664:	004200e1 	.inst	0x004200e1 ; undefined
 668:	00000000 	udf	#0
 66c:	0000ec06 	udf	#60422
 670:	08820100 	stllrb	w0, [x8]
 674:	00000044 	udf	#68
 678:	00e20309 	.inst	0x00e20309 ; undefined
 67c:	00000042 	udf	#66
 680:	42060000 	.inst	0x42060000 ; undefined
 684:	01000007 	.inst	0x01000007 ; undefined
 688:	00440683 	.inst	0x00440683 ; undefined
 68c:	03090000 	.inst	0x03090000 ; undefined
 690:	004200e3 	.inst	0x004200e3 ; undefined
 694:	00000000 	udf	#0
 698:	000a3806 	.inst	0x000a3806 ; undefined
 69c:	08840100 	stllrb	w0, [x8]
 6a0:	00000044 	udf	#68
 6a4:	00e40309 	.inst	0x00e40309 ; undefined
 6a8:	00000042 	udf	#66
 6ac:	1e060000 	.inst	0x1e060000 ; undefined
 6b0:	01000008 	.inst	0x01000008 ; undefined
 6b4:	00440685 	.inst	0x00440685 ; undefined
 6b8:	03090000 	.inst	0x03090000 ; undefined
 6bc:	004200e5 	.inst	0x004200e5 ; undefined
 6c0:	00000000 	udf	#0
 6c4:	00096106 	.inst	0x00096106 ; undefined
 6c8:	08860100 	stllrb	w0, [x8]
 6cc:	00000044 	udf	#68
 6d0:	00e60309 	.inst	0x00e60309 ; undefined
 6d4:	00000042 	udf	#66
 6d8:	28060000 	stnp	w0, w0, [x0, #48]
 6dc:	01000009 	.inst	0x01000009 ; undefined
 6e0:	00440887 	.inst	0x00440887 ; undefined
 6e4:	03090000 	.inst	0x03090000 ; undefined
 6e8:	004200e7 	.inst	0x004200e7 ; undefined
 6ec:	00000000 	udf	#0
 6f0:	00009206 	udf	#37382
 6f4:	08880100 	stllrb	w0, [x8]
 6f8:	00000044 	udf	#68
 6fc:	00e80309 	.inst	0x00e80309 ; undefined
 700:	00000042 	udf	#66
 704:	00060000 	.inst	0x00060000 ; undefined
 708:	01000003 	.inst	0x01000003 ; undefined
 70c:	00440689 	.inst	0x00440689 ; undefined
 710:	03090000 	.inst	0x03090000 ; undefined
 714:	004200e9 	.inst	0x004200e9 ; undefined
 718:	00000000 	udf	#0
 71c:	00000006 	udf	#6
 720:	068a0100 	.inst	0x068a0100 ; undefined
 724:	00000044 	udf	#68
 728:	00ea0309 	.inst	0x00ea0309 ; undefined
 72c:	00000042 	udf	#66
 730:	88060000 	stxr	w6, w0, [x0]
 734:	01000001 	.inst	0x01000001 ; undefined
 738:	0044068b 	.inst	0x0044068b ; undefined
 73c:	03090000 	.inst	0x03090000 ; undefined
 740:	004200eb 	.inst	0x004200eb ; undefined
 744:	00000000 	udf	#0
 748:	0002d106 	.inst	0x0002d106 ; undefined
 74c:	068c0100 	.inst	0x068c0100 ; undefined
 750:	00000044 	udf	#68
 754:	00ec0309 	.inst	0x00ec0309 ; undefined
 758:	00000042 	udf	#66
 75c:	5c060000 	ldr	d0, c75c <__abi_tag-0x3f3b1c>
 760:	01000006 	.inst	0x01000006 ; undefined
 764:	0044068d 	.inst	0x0044068d ; undefined
 768:	03090000 	.inst	0x03090000 ; undefined
 76c:	004200ed 	.inst	0x004200ed ; undefined
 770:	00000000 	udf	#0
 774:	0007cb06 	.inst	0x0007cb06 ; undefined
 778:	068e0100 	.inst	0x068e0100 ; undefined
 77c:	00000044 	udf	#68
 780:	00ee0309 	.inst	0x00ee0309 ; undefined
 784:	00000042 	udf	#66
 788:	b2060000 	orr	x0, x0, #0x400000004000000
 78c:	0100000b 	.inst	0x0100000b ; undefined
 790:	0044068f 	.inst	0x0044068f ; undefined
 794:	03090000 	.inst	0x03090000 ; undefined
 798:	004200ef 	.inst	0x004200ef ; undefined
 79c:	00000000 	udf	#0
 7a0:	00070f06 	.inst	0x00070f06 ; undefined
 7a4:	06900100 	.inst	0x06900100 ; undefined
 7a8:	00000044 	udf	#68
 7ac:	00f00309 	.inst	0x00f00309 ; undefined
 7b0:	00000042 	udf	#66
 7b4:	a4060000 	ld1rqb	{z0.b}, p0/z, [x0, x6]
 7b8:	01000004 	.inst	0x01000004 ; undefined
 7bc:	00440691 	.inst	0x00440691 ; undefined
 7c0:	03090000 	.inst	0x03090000 ; undefined
 7c4:	004200f1 	.inst	0x004200f1 ; undefined
 7c8:	00000000 	udf	#0
 7cc:	0006bd06 	.inst	0x0006bd06 ; undefined
 7d0:	0f960100 	fmlal	v0.2s, v8.2h, v6.h[1]
 7d4:	0000003d 	udf	#61
 7d8:	00f80309 	.inst	0x00f80309 ; undefined
 7dc:	00000042 	udf	#66
 7e0:	f3060000 	.inst	0xf3060000 ; undefined
 7e4:	01000001 	.inst	0x01000001 ; undefined
 7e8:	00440697 	.inst	0x00440697 ; undefined
 7ec:	03090000 	.inst	0x03090000 ; undefined
 7f0:	00420100 	.inst	0x00420100 ; undefined
 7f4:	00000000 	udf	#0
 7f8:	0009e406 	.inst	0x0009e406 ; undefined
 7fc:	06980100 	.inst	0x06980100 ; undefined
 800:	00000044 	udf	#68
 804:	01010309 	.inst	0x01010309 ; undefined
 808:	00000042 	udf	#66
 80c:	02060000 	.inst	0x02060000 ; undefined
 810:	01000004 	.inst	0x01000004 ; undefined
 814:	0044069a 	.inst	0x0044069a ; undefined
 818:	03090000 	.inst	0x03090000 ; undefined
 81c:	00420102 	.inst	0x00420102 ; undefined
 820:	00000000 	udf	#0
 824:	00002e06 	udf	#11782
 828:	069b0100 	.inst	0x069b0100 ; undefined
 82c:	00000044 	udf	#68
 830:	01030309 	.inst	0x01030309 ; undefined
 834:	00000042 	udf	#66
 838:	b4060000 	cbz	x0, c838 <__abi_tag-0x3f3a40>
 83c:	01000004 	.inst	0x01000004 ; undefined
 840:	0044069c 	.inst	0x0044069c ; undefined
 844:	03090000 	.inst	0x03090000 ; undefined
 848:	00420104 	.inst	0x00420104 ; undefined
 84c:	00000000 	udf	#0
 850:	00024f06 	.inst	0x00024f06 ; undefined
 854:	069d0100 	.inst	0x069d0100 ; undefined
 858:	00000044 	udf	#68
 85c:	01050309 	.inst	0x01050309 ; undefined
 860:	00000042 	udf	#66
 864:	cb060000 	sub	x0, x0, x6
 868:	01000008 	.inst	0x01000008 ; undefined
 86c:	0044069e 	.inst	0x0044069e ; undefined
 870:	03090000 	.inst	0x03090000 ; undefined
 874:	00420106 	.inst	0x00420106 ; undefined
 878:	00000000 	udf	#0
 87c:	0003b206 	.inst	0x0003b206 ; undefined
 880:	069f0100 	.inst	0x069f0100 ; undefined
 884:	00000044 	udf	#68
 888:	01070309 	.inst	0x01070309 ; undefined
 88c:	00000042 	udf	#66
 890:	4a060000 	eor	w0, w0, w6
 894:	01000005 	.inst	0x01000005 ; undefined
 898:	004406a0 	.inst	0x004406a0 ; undefined
 89c:	03090000 	.inst	0x03090000 ; undefined
 8a0:	00420108 	.inst	0x00420108 ; undefined
 8a4:	00000000 	udf	#0
 8a8:	0008fd06 	.inst	0x0008fd06 ; undefined
 8ac:	06a10100 	.inst	0x06a10100 ; undefined
 8b0:	00000044 	udf	#68
 8b4:	01090309 	.inst	0x01090309 ; undefined
 8b8:	00000042 	udf	#66
 8bc:	24060000 	cmphs	p0.b, p0/z, z0.b, z6.b
 8c0:	01000003 	.inst	0x01000003 ; undefined
 8c4:	004406a2 	.inst	0x004406a2 ; undefined
 8c8:	03090000 	.inst	0x03090000 ; undefined
 8cc:	0042010a 	.inst	0x0042010a ; undefined
 8d0:	00000000 	udf	#0
 8d4:	0002a106 	.inst	0x0002a106 ; undefined
 8d8:	06a30100 	.inst	0x06a30100 ; undefined
 8dc:	00000044 	udf	#68
 8e0:	010b0309 	.inst	0x010b0309 ; undefined
 8e4:	00000042 	udf	#66
 8e8:	fc060000 	stur	d0, [x0, #96]
 8ec:	01000005 	.inst	0x01000005 ; undefined
 8f0:	004406a4 	.inst	0x004406a4 ; undefined
 8f4:	03090000 	.inst	0x03090000 ; undefined
 8f8:	0042010c 	.inst	0x0042010c ; undefined
 8fc:	00000000 	udf	#0
 900:	0002a906 	.inst	0x0002a906 ; undefined
 904:	06a50100 	.inst	0x06a50100 ; undefined
 908:	00000044 	udf	#68
 90c:	010d0309 	.inst	0x010d0309 ; undefined
 910:	00000042 	udf	#66
 914:	d1060000 	sub	x0, x0, #0x180
 918:	01000003 	.inst	0x01000003 ; undefined
 91c:	004406a6 	.inst	0x004406a6 ; undefined
 920:	03090000 	.inst	0x03090000 ; undefined
 924:	0042010e 	.inst	0x0042010e ; undefined
 928:	00000000 	udf	#0
 92c:	0007db06 	.inst	0x0007db06 ; undefined
 930:	06a70100 	.inst	0x06a70100 ; undefined
 934:	00000044 	udf	#68
 938:	010f0309 	.inst	0x010f0309 ; undefined
 93c:	00000042 	udf	#66
 940:	e6060000 	.inst	0xe6060000 ; undefined
 944:	01000006 	.inst	0x01000006 ; undefined
 948:	004406a8 	.inst	0x004406a8 ; undefined
 94c:	03090000 	.inst	0x03090000 ; undefined
 950:	00420110 	.inst	0x00420110 ; undefined
 954:	00000000 	udf	#0
 958:	00036806 	.inst	0x00036806 ; undefined
 95c:	06a90100 	.inst	0x06a90100 ; undefined
 960:	00000044 	udf	#68
 964:	01110309 	.inst	0x01110309 ; undefined
 968:	00000042 	udf	#66
 96c:	1b080000 	madd	w0, w0, w8, w0
 970:	01000001 	.inst	0x01000001 ; undefined
 974:	fb0504f2 	.inst	0xfb0504f2 ; undefined
 978:	c4000000 	ld1sb	{z0.d}, p0/z, [x0, z0.d, uxtw]
 97c:	00004033 	udf	#16435
 980:	20000000 	.inst	0x20000000 ; undefined
 984:	00000000 	udf	#0
 988:	01000000 	.inst	0x01000000 ; undefined
 98c:	0bac099c 	.inst	0x0bac099c ; undefined
 990:	ea010000 	ands	x0, x0, x1
 994:	252c0603 	whilelt	p3.b, w16, w12
 998:	00000040 	udf	#64
 99c:	0e980000 	.inst	0x0e980000 ; undefined
 9a0:	00000000 	udf	#0
 9a4:	9c010000 	ldr	q0, 29a4 <__abi_tag-0x3fd8d4>
 9a8:	0007770a 	.inst	0x0007770a ; undefined
 9ac:	03810100 	.inst	0x03810100 ; undefined
 9b0:	40216406 	.inst	0x40216406 ; undefined
 9b4:	00000000 	udf	#0
 9b8:	0003c800 	.inst	0x0003c800 ; undefined
 9bc:	00000000 	udf	#0
 9c0:	0a9c0100 	and	w0, w8, w28, asr #0
 9c4:	00000012 	udf	#18
 9c8:	06035901 	.inst	0x06035901 ; undefined
 9cc:	00402020 	.inst	0x00402020 ; undefined
 9d0:	00000000 	udf	#0
 9d4:	00000144 	udf	#324
 9d8:	00000000 	udf	#0
 9dc:	050a9c01 	.inst	0x050a9c01 ; undefined
 9e0:	0100000a 	.inst	0x0100000a ; undefined
 9e4:	640601aa 	.inst	0x640601aa ; undefined
 9e8:	00004010 	udf	#16400
 9ec:	bc000000 	stur	s0, [x0]
 9f0:	0000000f 	udf	#15
 9f4:	01000000 	.inst	0x01000000 ; undefined
 9f8:	04d80b9c 	orr	z28.d, p2/m, z28.d, z28.d
 9fc:	f0010000 	adrp	x0, 2003000 <__bss_end__+0x1be2ea8>
 a00:	40097806 	.inst	0x40097806 ; undefined
 a04:	00000000 	udf	#0
 a08:	0006ec00 	.inst	0x0006ec00 ; undefined
 a0c:	00000000 	udf	#0
 a10:	0b9c0100 	add	w0, w8, w28, asr #0
 a14:	0000073d 	udf	#1853
 a18:	8c06d501 	.inst	0x8c06d501 ; undefined
 a1c:	00004008 	udf	#16392
 a20:	ec000000 	.inst	0xec000000 ; undefined
 a24:	00000000 	udf	#0
 a28:	01000000 	.inst	0x01000000 ; undefined
 a2c:	0b310b9c 	add	w28, w28, w17, uxtb #2
 a30:	ac010000 	stnp	q0, q0, [x0, #32]
 a34:	40060406 	.inst	0x40060406 ; undefined
 a38:	00000000 	udf	#0
 a3c:	00028800 	.inst	0x00028800 ; undefined
 a40:	00000000 	udf	#0
 a44:	009c0100 	.inst	0x009c0100 ; undefined

Disassembly of section .debug_abbrev:

0000000000000000 <.debug_abbrev>:
   0:	25011101 	cmpge	p1.b, p4/z, z8.b, #1
   4:	030b130e 	.inst	0x030b130e ; undefined
   8:	110e1b0e 	add	w14, w24, #0x386
   c:	10071201 	adr	x1, e24c <__abi_tag-0x3f202c>
  10:	02000017 	.inst	0x02000017 ; undefined
  14:	13490101 	.inst	0x13490101 ; undefined
  18:	00001301 	udf	#4865
  1c:	49002103 	.inst	0x49002103 ; undefined
  20:	000b2f13 	.inst	0x000b2f13 ; undefined
  24:	00240400 	.inst	0x00240400 ; NYI
  28:	0b3e0b0b 	add	w11, w24, w30, uxtb #2
  2c:	00000e03 	udf	#3587
  30:	03003405 	.inst	0x03003405 ; undefined
  34:	3b0b3a0e 	.inst	0x3b0b3a0e ; undefined
  38:	490b390b 	.inst	0x490b390b ; undefined
  3c:	00180213 	.inst	0x00180213 ; undefined
  40:	00340600 	.inst	0x00340600 ; NYI
  44:	0b3a0e03 	add	w3, w16, w26, uxtb #3
  48:	0b390b3b 	add	w27, w25, w25, uxtb #2
  4c:	193f1349 	.inst	0x193f1349 ; undefined
  50:	00001802 	udf	#6146
  54:	0b002407 	add	w7, w0, w0, lsl #9
  58:	030b3e0b 	.inst	0x030b3e0b ; undefined
  5c:	08000008 	stxrb	w0, w8, [x0]
  60:	193f002e 	.inst	0x193f002e ; undefined
  64:	0b3a0e03 	add	w3, w16, w26, uxtb #3
  68:	0b39053b 	add	w27, w9, w25, uxtb #1
  6c:	13491927 	.inst	0x13491927 ; undefined
  70:	07120111 	.inst	0x07120111 ; undefined
  74:	42961840 	.inst	0x42961840 ; undefined
  78:	09000019 	.inst	0x09000019 ; undefined
  7c:	193f002e 	.inst	0x193f002e ; undefined
  80:	0b3a0e03 	add	w3, w16, w26, uxtb #3
  84:	0b39053b 	add	w27, w9, w25, uxtb #1
  88:	01111927 	.inst	0x01111927 ; undefined
  8c:	18400712 	ldr	w18, 8016c <__abi_tag-0x38010c>
  90:	00194296 	.inst	0x00194296 ; undefined
  94:	002e0a00 	.inst	0x002e0a00 ; NYI
  98:	0e03193f 	uzp1	v31.8b, v9.8b, v3.8b
  9c:	053b0b3a 	ext	z26.b, z26.b, z25.b, #218
  a0:	19270b39 	.inst	0x19270b39 ; undefined
  a4:	07120111 	.inst	0x07120111 ; undefined
  a8:	42971840 	.inst	0x42971840 ; undefined
  ac:	0b000019 	add	w25, w0, w0
  b0:	193f002e 	.inst	0x193f002e ; undefined
  b4:	0b3a0e03 	add	w3, w16, w26, uxtb #3
  b8:	0b390b3b 	add	w27, w25, w25, uxtb #2
  bc:	01111927 	.inst	0x01111927 ; undefined
  c0:	18400712 	ldr	w18, 801a0 <__abi_tag-0x3800d8>
  c4:	00194297 	.inst	0x00194297 ; undefined
	...

Disassembly of section .debug_line:

0000000000000000 <.debug_line>:
   0:	00000cb0 	udf	#3248
   4:	00220003 	.inst	0x00220003 ; NYI
   8:	01040000 	.inst	0x01040000 ; undefined
   c:	000d0efb 	.inst	0x000d0efb ; undefined
  10:	01010101 	.inst	0x01010101 ; undefined
  14:	01000000 	.inst	0x01000000 ; undefined
  18:	00010000 	.inst	0x00010000 ; undefined
  1c:	74617473 	.inst	0x74617473 ; undefined
  20:	74616d65 	.inst	0x74616d65 ; undefined
  24:	00632e65 	.inst	0x00632e65 ; undefined
  28:	00000000 	udf	#0
  2c:	09000105 	.inst	0x09000105 ; undefined
  30:	40060402 	.inst	0x40060402 ; undefined
  34:	00000000 	udf	#0
  38:	01ac0300 	.inst	0x01ac0300 ; undefined
  3c:	13080501 	sbfiz	w1, w8, #24, #2
  40:	053c0705 	ext	z5.b, z5.b, z24.b, #225
  44:	08052f31 	stxrb	w5, w17, [x25]
  48:	3c070567 	str	b7, [x11], #112
  4c:	02004f05 	.inst	0x02004f05 ; undefined
  50:	052e0104 	ext	z4.b, z4.b, z8.b, #112
  54:	0402004c 	.inst	0x0402004c ; undefined
  58:	50053c01 	adr	x1, a7da <__abi_tag-0x3f5a9e>
  5c:	6725052f 	.inst	0x6725052f ; undefined
  60:	053c0705 	ext	z5.b, z5.b, z24.b, #225
  64:	04020034 	.inst	0x04020034 ; undefined
  68:	52052e01 	eor	w1, w16, #0xf800007f
  6c:	01040200 	.inst	0x01040200 ; undefined
  70:	002b0582 	.inst	0x002b0582 ; NYI
  74:	20010402 	.inst	0x20010402 ; undefined
  78:	1f053c06 	fmadd	s6, s0, s5, s15
  7c:	23052206 	.inst	0x23052206 ; undefined
  80:	3f25053d 	.inst	0x3f25053d ; undefined
  84:	053c0705 	ext	z5.b, z5.b, z24.b, #225
  88:	04020034 	.inst	0x04020034 ; undefined
  8c:	52052e01 	eor	w1, w16, #0xf800007f
  90:	01040200 	.inst	0x01040200 ; undefined
  94:	002b0582 	.inst	0x002b0582 ; NYI
  98:	20010402 	.inst	0x20010402 ; undefined
  9c:	1f053c06 	fmadd	s6, s0, s5, s15
  a0:	23052206 	.inst	0x23052206 ; undefined
  a4:	3f25053d 	.inst	0x3f25053d ; undefined
  a8:	053c0705 	ext	z5.b, z5.b, z24.b, #225
  ac:	04020034 	.inst	0x04020034 ; undefined
  b0:	52052e01 	eor	w1, w16, #0xf800007f
  b4:	01040200 	.inst	0x01040200 ; undefined
  b8:	002b0582 	.inst	0x002b0582 ; NYI
  bc:	20010402 	.inst	0x20010402 ; undefined
  c0:	1f053c06 	fmadd	s6, s0, s5, s15
  c4:	23052206 	.inst	0x23052206 ; undefined
  c8:	3f26053d 	.inst	0x3f26053d ; undefined
  cc:	053c0705 	ext	z5.b, z5.b, z24.b, #225
  d0:	04020035 	.inst	0x04020035 ; undefined
  d4:	54052e01 	b.ne	a694 <__abi_tag-0x3f5be4>  // b.any
  d8:	01040200 	.inst	0x01040200 ; undefined
  dc:	002c0582 	.inst	0x002c0582 ; NYI
  e0:	20010402 	.inst	0x20010402 ; undefined
  e4:	24053c06 	cmpeq	p6.b, p7/z, z0.b, z5.d
  e8:	26052206 	.inst	0x26052206 ; undefined
  ec:	3c07053f 	str	b31, [x9], #112
  f0:	02003505 	.inst	0x02003505 ; undefined
  f4:	052e0104 	ext	z4.b, z4.b, z8.b, #112
  f8:	04020054 	.inst	0x04020054 ; undefined
  fc:	2c058201 	stnp	s1, s0, [x16, #44]
 100:	01040200 	.inst	0x01040200 ; undefined
 104:	053c0620 	ext	z0.b, z0.b, z17.b, #225
 108:	05220624 	ext	z4.b, z4.b, z17.b, #17
 10c:	07053f09 	.inst	0x07053f09 ; undefined
 110:	0071053c 	.inst	0x0071053c ; undefined
 114:	2e010402 	.inst	0x2e010402 ; undefined
 118:	02005605 	.inst	0x02005605 ; undefined
 11c:	05660104 	ext	z4.b, {z8.b, z9.b}, #48
 120:	01052f59 	.inst	0x01052f59 ; undefined
 124:	5a053269 	.inst	0x5a053269 ; undefined
 128:	3d510513 	ldr	b19, [x8, #1089]
 12c:	053d3205 	tbl	z5.b, {z16.b}, z29.b
 130:	2c053d37 	stnp	s23, s15, [x9, #40]
 134:	3d28053d 	str	b29, [x9, #2561]
 138:	053d3905 	.inst	0x053d3905 ; undefined
 13c:	053d3d23 	.inst	0x053d3d23 ; undefined
 140:	2f053d31 	.inst	0x2f053d31 ; undefined
 144:	3d31053d 	str	b29, [x9, #3137]
 148:	053d3405 	.inst	0x053d3405 ; undefined
 14c:	2c053d29 	stnp	s9, s15, [x9, #40]
 150:	3d35053d 	str	b29, [x9, #3393]
 154:	053d3705 	.inst	0x053d3705 ; undefined
 158:	39053d2d 	strb	w13, [x9, #335]
 15c:	3f01053d 	.inst	0x3f01053d ; undefined
 160:	13080533 	sbfiz	w19, w9, #24, #2
 164:	303c0705 	adr	x5, 78245 <__abi_tag-0x388033>
 168:	05be1305 	.inst	0x05be1305 ; undefined
 16c:	2e053c10 	.inst	0x2e053c10 ; undefined
 170:	01040200 	.inst	0x01040200 ; undefined
 174:	0011052e 	.inst	0x0011052e ; undefined
 178:	3c010402 	str	b2, [x0], #16
 17c:	05301705 	ext	z5.b, z5.b, z24.b, #133
 180:	2a053d29 	orr	w9, w9, w5, lsl #15
 184:	3e45053d 	.inst	0x3e45053d ; undefined
 188:	054b3805 	.inst	0x054b3805 ; undefined
 18c:	0d053d10 	.inst	0x0d053d10 ; undefined
 190:	5c180522 	ldr	d2, 30234 <__abi_tag-0x3d0044>
 194:	053c1605 	ext	z5.b, z5.b, z16.b, #229
 198:	04020036 	.inst	0x04020036 ; undefined
 19c:	33052e01 	bfxil	w1, w16, #5, #7
 1a0:	01040200 	.inst	0x01040200 ; undefined
 1a4:	301d053c 	adr	x28, 3a249 <__abi_tag-0x3c602f>
 1a8:	053d2f05 	tbx	z5.b, z24.b, z29.b
 1ac:	16054c3e 	b	fffffffff81532a4 <__bss_end__+0xfffffffff7d3314c>
 1b0:	2218054b 	.inst	0x2218054b ; undefined
 1b4:	053c1605 	ext	z5.b, z5.b, z16.b, #229
 1b8:	04020036 	.inst	0x04020036 ; undefined
 1bc:	33052e01 	bfxil	w1, w16, #5, #7
 1c0:	01040200 	.inst	0x01040200 ; undefined
 1c4:	301d053c 	adr	x28, 3a269 <__abi_tag-0x3c600f>
 1c8:	053d2f05 	tbx	z5.b, z24.b, z29.b
 1cc:	16054c3e 	b	fffffffff81532c4 <__bss_end__+0xfffffffff7d3316c>
 1d0:	2218054b 	.inst	0x2218054b ; undefined
 1d4:	053c1605 	ext	z5.b, z5.b, z16.b, #229
 1d8:	04020036 	.inst	0x04020036 ; undefined
 1dc:	1d052e01 	.inst	0x1d052e01 ; undefined
 1e0:	3d2f055a 	str	b26, [x10, #3009]
 1e4:	053e3e05 	.inst	0x053e3e05 ; undefined
 1e8:	18054b16 	ldr	w22, ab48 <__abi_tag-0x3f5730>
 1ec:	3c160522 	str	b2, [x9], #-160
 1f0:	02003605 	.inst	0x02003605 ; undefined
 1f4:	052e0104 	ext	z4.b, z4.b, z8.b, #112
 1f8:	2f055a1d 	.inst	0x2f055a1d ; undefined
 1fc:	3e3e053d 	.inst	0x3e3e053d ; undefined
 200:	054b1605 	.inst	0x054b1605 ; undefined
 204:	1305261a 	sbfx	w26, w16, #5, #5
 208:	0d051b3d 	.inst	0x0d051b3d ; undefined
 20c:	24130528 	cmphs	p8.b, p1/z, z9.b, z19.b
 210:	053c1005 	ext	z5.b, z5.b, z0.b, #228
 214:	0402002a 	.inst	0x0402002a ; undefined
 218:	11052e01 	add	w1, w16, #0x14b
 21c:	01040200 	.inst	0x01040200 ; undefined
 220:	3017053c 	adr	x28, 2e2c5 <__abi_tag-0x3d1fb3>
 224:	053d2905 	tbl	z5.b, {z8.b, z9.b}, z29.b
 228:	45053d2a 	.inst	0x45053d2a ; undefined
 22c:	4b34053e 	sub	w30, w9, w20, uxtb #1
 230:	053d1005 	ext	z5.b, z5.b, z0.b, #236
 234:	1805220d 	ldr	w13, a674 <__abi_tag-0x3f5c04>
 238:	3c16055c 	str	b28, [x10], #-160
 23c:	02003205 	.inst	0x02003205 ; undefined
 240:	052e0104 	ext	z4.b, z4.b, z8.b, #112
 244:	0402002f 	.inst	0x0402002f ; undefined
 248:	1d053c01 	.inst	0x1d053c01 ; undefined
 24c:	3d2f0530 	str	b16, [x9, #3009]
 250:	054c3a05 	.inst	0x054c3a05 ; undefined
 254:	18054b16 	ldr	w22, abb4 <__abi_tag-0x3f56c4>
 258:	3c160522 	str	b2, [x9], #-160
 25c:	02003205 	.inst	0x02003205 ; undefined
 260:	052e0104 	ext	z4.b, z4.b, z8.b, #112
 264:	0402002f 	.inst	0x0402002f ; undefined
 268:	1d053c01 	.inst	0x1d053c01 ; undefined
 26c:	3d2f0530 	str	b16, [x9, #3009]
 270:	054c3a05 	.inst	0x054c3a05 ; undefined
 274:	18054b16 	ldr	w22, abd4 <__abi_tag-0x3f56a4>
 278:	3c160522 	str	b2, [x9], #-160
 27c:	02003205 	.inst	0x02003205 ; undefined
 280:	052e0104 	ext	z4.b, z4.b, z8.b, #112
 284:	2f055a1d 	.inst	0x2f055a1d ; undefined
 288:	3e3a053d 	.inst	0x3e3a053d ; undefined
 28c:	054b1605 	.inst	0x054b1605 ; undefined
 290:	16052218 	b	fffffffff8148af0 <__bss_end__+0xfffffffff7d28998>
 294:	0032053c 	.inst	0x0032053c ; NYI
 298:	2e010402 	.inst	0x2e010402 ; undefined
 29c:	055a1d05 	mov	z5.h, p10/z, #-24
 2a0:	3a053d2f 	.inst	0x3a053d2f ; undefined
 2a4:	4b16053e 	sub	w30, w9, w22, lsl #1
 2a8:	05261a05 	ext	z5.b, z5.b, z16.b, #54
 2ac:	051b3d13 	.inst	0x051b3d13 ; undefined
 2b0:	1205280d 	and	w13, w0, #0xf800003f
 2b4:	3c100524 	str	b4, [x9], #-256
 2b8:	02002c05 	.inst	0x02002c05 ; undefined
 2bc:	052e0104 	ext	z4.b, z4.b, z8.b, #112
 2c0:	04020028 	.inst	0x04020028 ; undefined
 2c4:	43053c01 	.inst	0x43053c01 ; undefined
 2c8:	02040200 	.inst	0x02040200 ; undefined
 2cc:	5a17052e 	.inst	0x5a17052e ; undefined
 2d0:	4b3d2a05 	sub	w5, w16, w29, uxth #2
 2d4:	054c4505 	.inst	0x054c4505 ; undefined
 2d8:	12054b10 	and	w16, w24, #0xf8003fff
 2dc:	3c100522 	str	b2, [x9], #-256
 2e0:	02002c05 	.inst	0x02002c05 ; undefined
 2e4:	052e0104 	ext	z4.b, z4.b, z8.b, #112
 2e8:	04020028 	.inst	0x04020028 ; undefined
 2ec:	46053c01 	.inst	0x46053c01 ; undefined
 2f0:	02040200 	.inst	0x02040200 ; undefined
 2f4:	0043052e 	.inst	0x0043052e ; undefined
 2f8:	3c020402 	str	b2, [x0], #32
 2fc:	05301705 	ext	z5.b, z5.b, z24.b, #133
 300:	45053d2a 	.inst	0x45053d2a ; undefined
 304:	4b10054c 	sub	w12, w10, w16, lsl #1
 308:	05221205 	ext	z5.b, z5.b, z16.b, #20
 30c:	2c053c10 	stnp	s16, s15, [x0, #40]
 310:	01040200 	.inst	0x01040200 ; undefined
 314:	0028052e 	.inst	0x0028052e ; NYI
 318:	3c010402 	str	b2, [x0], #16
 31c:	02004405 	.inst	0x02004405 ; undefined
 320:	052e0204 	ext	z4.b, z4.b, z16.b, #112
 324:	2a055a17 	orr	w23, w16, w5, lsl #22
 328:	4c45053d 	.inst	0x4c45053d ; undefined
 32c:	054b1005 	.inst	0x054b1005 ; undefined
 330:	10052212 	adr	x18, a770 <__abi_tag-0x3f5b08>
 334:	002e053c 	.inst	0x002e053c ; NYI
 338:	2e010402 	.inst	0x2e010402 ; undefined
 33c:	02004f05 	.inst	0x02004f05 ; undefined
 340:	05580204 	mov	z4.h, p8/z, #16
 344:	0402004c 	.inst	0x0402004c ; undefined
 348:	17053c02 	b	fffffffffc14f350 <__bss_end__+0xfffffffffbd2f1f8>
 34c:	3d290530 	str	b16, [x9, #2625]
 350:	054c4505 	.inst	0x054c4505 ; undefined
 354:	12054b10 	and	w16, w24, #0xf8003fff
 358:	3c100522 	str	b2, [x9], #-256
 35c:	02002d05 	.inst	0x02002d05 ; undefined
 360:	052e0104 	ext	z4.b, z4.b, z8.b, #112
 364:	29055a17 	stp	w23, w22, [x16, #40]
 368:	4b2a053d 	sub	w29, w9, w10, uxtb #1
 36c:	054c4505 	.inst	0x054c4505 ; undefined
 370:	12054b10 	and	w16, w24, #0xf8003fff
 374:	3c100522 	str	b2, [x9], #-256
 378:	02003005 	.inst	0x02003005 ; undefined
 37c:	052e0104 	ext	z4.b, z4.b, z8.b, #112
 380:	0402002d 	.inst	0x0402002d ; undefined
 384:	4f053c01 	.inst	0x4f053c01 ; undefined
 388:	02040200 	.inst	0x02040200 ; undefined
 38c:	004c052e 	.inst	0x004c052e ; undefined
 390:	3c020402 	str	b2, [x0], #32
 394:	05301705 	ext	z5.b, z5.b, z24.b, #133
 398:	45053d29 	.inst	0x45053d29 ; undefined
 39c:	4b10054c 	sub	w12, w10, w16, lsl #1
 3a0:	05261405 	ext	z5.b, z5.b, z0.b, #53
 3a4:	0d053d42 	.inst	0x0d053d42 ; undefined
 3a8:	2304054b 	.inst	0x2304054b ; undefined
 3ac:	77030d05 	.inst	0x77030d05 ; undefined
 3b0:	0301052e 	.inst	0x0301052e ; undefined
 3b4:	0531200a 	mov	z10.b, z0.b[8]
 3b8:	07051309 	.inst	0x07051309 ; undefined
 3bc:	003f053c 	.inst	0x003f053c ; NYI
 3c0:	2e010402 	.inst	0x2e010402 ; undefined
 3c4:	02003c05 	.inst	0x02003c05 ; undefined
 3c8:	053c0104 	ext	z4.b, z4.b, z8.b, #224
 3cc:	04020079 	.inst	0x04020079 ; undefined
 3d0:	75052e02 	.inst	0x75052e02 ; undefined
 3d4:	02040200 	.inst	0x02040200 ; undefined
 3d8:	3007053c 	adr	x28, e47d <__abi_tag-0x3f1dfb>
 3dc:	3e08053d 	.inst	0x3e08053d ; undefined
 3e0:	053c0705 	ext	z5.b, z5.b, z24.b, #225
 3e4:	0a05300c 	and	w12, w0, w5, lsl #12
 3e8:	303f053c 	adr	x28, 7e48d <__abi_tag-0x381deb>
 3ec:	054c0705 	.inst	0x054c0705 ; undefined
 3f0:	0a053d0c 	and	w12, w8, w5, lsl #15
 3f4:	3f05303c 	.inst	0x3f05303c ; undefined
 3f8:	4c07053d 	.inst	0x4c07053d ; undefined
 3fc:	054b4b3d 	.inst	0x054b4b3d ; undefined
 400:	1005be27 	adr	x7, bbc4 <__abi_tag-0x3f46b4>
 404:	0030053c 	.inst	0x0030053c ; NYI
 408:	2e010402 	.inst	0x2e010402 ; undefined
 40c:	02002d05 	.inst	0x02002d05 ; undefined
 410:	053c0104 	ext	z4.b, z4.b, z8.b, #224
 414:	2f053017 	.inst	0x2f053017 ; undefined
 418:	4b3b053e 	sub	w30, w9, w27, uxtb #1
 41c:	054b1005 	.inst	0x054b1005 ; undefined
 420:	10052613 	adr	x19, a8e0 <__abi_tag-0x3f5998>
 424:	002a053c 	.inst	0x002a053c ; NYI
 428:	2e010402 	.inst	0x2e010402 ; undefined
 42c:	02002705 	.inst	0x02002705 ; undefined
 430:	053c0104 	ext	z4.b, z4.b, z8.b, #224
 434:	04020047 	.inst	0x04020047 ; undefined
 438:	17052e02 	b	fffffffffc14bc40 <__bss_end__+0xfffffffffbd2bae8>
 43c:	3d28055a 	str	b26, [x10, #2561]
 440:	053d2c05 	tbx	z5.b, z0.b, z29.b
 444:	3b05682f 	.inst	0x3b05682f ; undefined
 448:	4b10054b 	sub	w11, w10, w16, lsl #1
 44c:	05220d05 	ext	z5.b, z5.b, z8.b, #19
 450:	1605be17 	b	fffffffff816fcac <__bss_end__+0xfffffffff7d4fb54>
 454:	301d053c 	adr	x28, 3a4f9 <__abi_tag-0x3c5d7f>
 458:	053d2e05 	tbx	z5.b, z16.b, z29.b
 45c:	16053e49 	b	fffffffff814fd80 <__bss_end__+0xfffffffff7d2fc28>
 460:	2617054b 	.inst	0x2617054b ; undefined
 464:	053c1605 	ext	z5.b, z5.b, z16.b, #229
 468:	2e05301d 	ext	v29.8b, v0.8b, v5.8b, #6
 46c:	3e49053d 	.inst	0x3e49053d ; undefined
 470:	054b1605 	.inst	0x054b1605 ; undefined
 474:	16052617 	b	fffffffff8149cd0 <__bss_end__+0xfffffffff7d29b78>
 478:	301d053c 	adr	x28, 3a51d <__abi_tag-0x3c5d5b>
 47c:	053d2e05 	tbx	z5.b, z16.b, z29.b
 480:	16054c49 	b	fffffffff81535a4 <__bss_end__+0xfffffffff7d3344c>
 484:	2217054b 	.inst	0x2217054b ; undefined
 488:	053c1605 	ext	z5.b, z5.b, z16.b, #229
 48c:	2e05301d 	ext	v29.8b, v0.8b, v5.8b, #6
 490:	4c49053d 	.inst	0x4c49053d ; undefined
 494:	054b1605 	.inst	0x054b1605 ; undefined
 498:	4605261a 	.inst	0x4605261a ; undefined
 49c:	4b13053d 	sub	w29, w9, w19, lsl #1
 4a0:	03205a03 	.inst	0x03205a03 ; undefined
 4a4:	14032e0c 	b	cbcd4 <__abi_tag-0x3345a4>
 4a8:	030d052e 	.inst	0x030d052e ; undefined
 4ac:	28052009 	stnp	w9, w8, [x0, #40]
 4b0:	3c100524 	str	b4, [x9], #-256
 4b4:	02003005 	.inst	0x02003005 ; undefined
 4b8:	052e0104 	ext	z4.b, z4.b, z8.b, #112
 4bc:	0402002d 	.inst	0x0402002d ; undefined
 4c0:	5a053c01 	.inst	0x5a053c01 ; undefined
 4c4:	02040200 	.inst	0x02040200 ; undefined
 4c8:	0053052e 	.inst	0x0053052e ; undefined
 4cc:	3c020402 	str	b2, [x0], #32
 4d0:	02007705 	.inst	0x02007705 ; undefined
 4d4:	052e0304 	ext	z4.b, z4.b, z24.b, #112
 4d8:	04020058 	.inst	0x04020058 ; undefined
 4dc:	17053c03 	b	fffffffffc14f4e8 <__bss_end__+0xfffffffffbd2f390>
 4e0:	3d280530 	str	b16, [x9, #2561]
 4e4:	3e2f053d 	.inst	0x3e2f053d ; undefined
 4e8:	054b1005 	.inst	0x054b1005 ; undefined
 4ec:	10052213 	adr	x19, a92c <__abi_tag-0x3f594c>
 4f0:	002a053c 	.inst	0x002a053c ; NYI
 4f4:	2e010402 	.inst	0x2e010402 ; undefined
 4f8:	02002705 	.inst	0x02002705 ; undefined
 4fc:	053c0104 	ext	z4.b, z4.b, z8.b, #224
 500:	04020047 	.inst	0x04020047 ; undefined
 504:	17052e02 	b	fffffffffc14bd0c <__bss_end__+0xfffffffffbd2bbb4>
 508:	3d28055a 	str	b26, [x10, #2561]
 50c:	053d2c05 	tbx	z5.b, z0.b, z29.b
 510:	4305682f 	.inst	0x4305682f ; undefined
 514:	4b10054b 	sub	w11, w10, w16, lsl #1
 518:	05221305 	ext	z5.b, z5.b, z24.b, #20
 51c:	2a053c10 	orr	w16, w0, w5, lsl #15
 520:	01040200 	.inst	0x01040200 ; undefined
 524:	0027052e 	.inst	0x0027052e ; NYI
 528:	3c010402 	str	b2, [x0], #16
 52c:	02004705 	.inst	0x02004705 ; undefined
 530:	052e0204 	ext	z4.b, z4.b, z16.b, #112
 534:	28055a17 	stnp	w23, w22, [x16, #40]
 538:	3d2c053d 	str	b29, [x9, #2817]
 53c:	05682f05 	tbx	z5.h, z24.h, z8.h
 540:	10054b43 	adr	x3, aea8 <__abi_tag-0x3f53d0>
 544:	220d054b 	.inst	0x220d054b ; undefined
 548:	05be2f05 	tbx	z5.s, z24.s, z30.s
 54c:	1d053c16 	.inst	0x1d053c16 ; undefined
 550:	3d2e0530 	str	b16, [x9, #2945]
 554:	053e4105 	.inst	0x053e4105 ; undefined
 558:	13054b16 	sbfx	w22, w24, #5, #14
 55c:	861e0522 	.inst	0x861e0522 ; undefined
 560:	053c1c05 	ext	z5.b, z5.b, z0.b, #231
 564:	04020034 	.inst	0x04020034 ; undefined
 568:	31052e01 	adds	w1, w16, #0x14b
 56c:	01040200 	.inst	0x01040200 ; undefined
 570:	0053053c 	.inst	0x0053053c ; undefined
 574:	2e030402 	.inst	0x2e030402 ; undefined
 578:	02004f05 	.inst	0x02004f05 ; undefined
 57c:	053c0304 	ext	z4.b, z4.b, z24.b, #224
 580:	04020069 	.inst	0x04020069 ; undefined
 584:	66052e04 	.inst	0x66052e04 ; undefined
 588:	04040200 	.inst	0x04040200 ; undefined
 58c:	3023053c 	adr	x28, 46631 <__abi_tag-0x3b9c47>
 590:	053d3405 	.inst	0x053d3405 ; undefined
 594:	41053e47 	.inst	0x41053e47 ; undefined
 598:	3d1c054b 	str	b11, [x10, #1793]
 59c:	05261e05 	ext	z5.b, z5.b, z16.b, #55
 5a0:	34053c1c 	cbz	w28, ad20 <__abi_tag-0x3f5558>
 5a4:	01040200 	.inst	0x01040200 ; undefined
 5a8:	0031052e 	.inst	0x0031052e ; NYI
 5ac:	3c010402 	str	b2, [x0], #16
 5b0:	05302305 	mov	z5.q, q24
 5b4:	1c053e41 	ldr	s1, ad7c <__abi_tag-0x3f54fc>
 5b8:	221e054b 	.inst	0x221e054b ; undefined
 5bc:	053c1c05 	ext	z5.b, z5.b, z0.b, #231
 5c0:	04020034 	.inst	0x04020034 ; undefined
 5c4:	23052e01 	.inst	0x23052e01 ; undefined
 5c8:	3d34055a 	str	b26, [x10, #3329]
 5cc:	053e4705 	.inst	0x053e4705 ; undefined
 5d0:	1c054b41 	ldr	s1, af38 <__abi_tag-0x3f5340>
 5d4:	2620053d 	.inst	0x2620053d ; undefined
 5d8:	053d3e05 	.inst	0x053d3e05 ; undefined
 5dc:	66034b19 	.inst	0x66034b19 ; undefined
 5e0:	2e140320 	ext	v0.8b, v25.8b, v20.8b, #0
 5e4:	09031305 	.inst	0x09031305 ; undefined
 5e8:	242f0520 	cmphs	p0.b, p1/z, z9.b, #60
 5ec:	053c1605 	ext	z5.b, z5.b, z16.b, #229
 5f0:	2e05301d 	ext	v29.8b, v0.8b, v5.8b, #6
 5f4:	3e41053d 	.inst	0x3e41053d ; undefined
 5f8:	054b1605 	.inst	0x054b1605 ; undefined
 5fc:	1e052213 	.inst	0x1e052213 ; undefined
 600:	3c1c0586 	str	b6, [x12], #-64
 604:	02003405 	.inst	0x02003405 ; undefined
 608:	052e0104 	ext	z4.b, z4.b, z8.b, #112
 60c:	04020031 	.inst	0x04020031 ; undefined
 610:	53053c01 	ubfx	w1, w0, #5, #11
 614:	03040200 	.inst	0x03040200 ; undefined
 618:	004f052e 	.inst	0x004f052e ; undefined
 61c:	3c030402 	str	b2, [x0], #48
 620:	02006905 	.inst	0x02006905 ; undefined
 624:	052e0404 	ext	z4.b, z4.b, z0.b, #113
 628:	04020066 	.inst	0x04020066 ; undefined
 62c:	23053c04 	.inst	0x23053c04 ; undefined
 630:	3d340530 	str	b16, [x9, #3329]
 634:	053e4705 	.inst	0x053e4705 ; undefined
 638:	19054b1c 	.inst	0x19054b1c ; undefined
 63c:	861f0522 	.inst	0x861f0522 ; undefined
 640:	053d2305 	mov	z5.b, z24.b[14]
 644:	29053c22 	stp	w2, w15, [x1, #40]
 648:	3d3a0530 	str	b16, [x9, #3713]
 64c:	054b4405 	.inst	0x054b4405 ; undefined
 650:	3b053e4f 	.inst	0x3b053e4f ; undefined
 654:	3e22054b 	.inst	0x3e22054b ; undefined
 658:	2623054b 	.inst	0x2623054b ; undefined
 65c:	053c2205 	mov	z5.s, z16.s[3]
 660:	44053029 	sqrdcmlah	z9.b, z1.b, z5.b, #0
 664:	4c22053d 	.inst	0x4c22053d ; undefined
 668:	054b4f05 	.inst	0x054b4f05 ; undefined
 66c:	3a054b23 	.inst	0x3a054b23 ; undefined
 670:	3e3f053d 	.inst	0x3e3f053d ; undefined
 674:	05673a05 	.inst	0x05673a05 ; undefined
 678:	26054b22 	.inst	0x26054b22 ; undefined
 67c:	3d4c0526 	ldr	b6, [x9, #769]
 680:	4b4b1f05 	sub	w5, w24, w11, lsr #7
 684:	03206703 	.inst	0x03206703 ; undefined
 688:	19052e12 	.inst	0x19052e12 ; undefined
 68c:	05200a03 	ext	z3.b, z3.b, z16.b, #2
 690:	1c05241e 	ldr	s30, ab10 <__abi_tag-0x3f5768>
 694:	0034053c 	.inst	0x0034053c ; NYI
 698:	2e010402 	.inst	0x2e010402 ; undefined
 69c:	055a2305 	mov	z5.h, p10/z, #6144
 6a0:	47053d34 	.inst	0x47053d34 ; undefined
 6a4:	4b1c053e 	sub	w30, w9, w28, lsl #1
 6a8:	05221905 	ext	z5.b, z5.b, z8.b, #22
 6ac:	2305861f 	.inst	0x2305861f ; undefined
 6b0:	3c22053d 	.inst	0x3c22053d ; undefined
 6b4:	05302905 	tbl	z5.b, {z8.b, z9.b}, z16.b
 6b8:	52053d44 	eor	w4, w10, #0xf80007ff
 6bc:	4b3b053e 	sub	w30, w9, w27, uxtb #1
 6c0:	053e2205 	mov	z5.h, z16.h[7]
 6c4:	22054b3a 	.inst	0x22054b3a ; undefined
 6c8:	2623054b 	.inst	0x2623054b ; undefined
 6cc:	053c2205 	mov	z5.s, z16.s[3]
 6d0:	3a053029 	.inst	0x3a053029 ; undefined
 6d4:	3d44053d 	ldr	b29, [x9, #257]
 6d8:	054c2205 	.inst	0x054c2205 ; undefined
 6dc:	23054b52 	.inst	0x23054b52 ; undefined
 6e0:	3e3f054b 	.inst	0x3e3f054b ; undefined
 6e4:	05673a05 	.inst	0x05673a05 ; undefined
 6e8:	24054b22 	cmpge	p2.b, p2/z, z25.b, z5.d
 6ec:	3c220522 	.inst	0x3c220522 ; undefined
 6f0:	02003a05 	.inst	0x02003a05 ; undefined
 6f4:	052e0104 	ext	z4.b, z4.b, z8.b, #112
 6f8:	04020037 	.inst	0x04020037 ; undefined
 6fc:	29053c01 	stp	w1, w15, [x0, #40]
 700:	3e4a0530 	.inst	0x3e4a0530 ; undefined
 704:	054b5205 	.inst	0x054b5205 ; undefined
 708:	26053d22 	.inst	0x26053d22 ; undefined
 70c:	3d4f0526 	ldr	b6, [x9, #961]
 710:	054b1f05 	.inst	0x054b1f05 ; undefined
 714:	1f054b37 	fmadd	s23, s25, s5, s18
 718:	205e034b 	.inst	0x205e034b ; undefined
 71c:	052e1a03 	ext	z3.b, z3.b, z16.b, #118
 720:	200b0319 	.inst	0x200b0319 ; undefined
 724:	05242005 	mov	z5.s, s0
 728:	49053d41 	.inst	0x49053d41 ; undefined
 72c:	4b19054b 	sub	w11, w10, w25, lsl #1
 730:	054b3105 	.inst	0x054b3105 ; undefined
 734:	13054b19 	sbfx	w25, w24, #5, #14
 738:	24190523 	cmphs	p3.b, p1/z, z9.b, z25.b
 73c:	053c1605 	ext	z5.b, z5.b, z16.b, #229
 740:	0402002f 	.inst	0x0402002f ; undefined
 744:	2c052e01 	stnp	s1, s11, [x16, #40]
 748:	01040200 	.inst	0x01040200 ; undefined
 74c:	0067053c 	.inst	0x0067053c ; undefined
 750:	2e020402 	.inst	0x2e020402 ; undefined
 754:	02004b05 	.inst	0x02004b05 ; undefined
 758:	053c0204 	ext	z4.b, z4.b, z16.b, #224
 75c:	4105301d 	.inst	0x4105301d ; undefined
 760:	4b3e053e 	sub	w30, w9, w30, uxtb #1
 764:	054b4605 	.inst	0x054b4605 ; undefined
 768:	2e054b16 	.inst	0x2e054b16 ; undefined
 76c:	4b16054b 	sub	w11, w10, w22, lsl #1
 770:	05221905 	ext	z5.b, z5.b, z8.b, #22
 774:	2f053c16 	.inst	0x2f053c16 ; undefined
 778:	01040200 	.inst	0x01040200 ; undefined
 77c:	002c052e 	.inst	0x002c052e ; NYI
 780:	3c010402 	str	b2, [x0], #16
 784:	02006705 	.inst	0x02006705 ; undefined
 788:	052e0204 	ext	z4.b, z4.b, z16.b, #112
 78c:	0402004b 	.inst	0x0402004b ; undefined
 790:	1d053c02 	.inst	0x1d053c02 ; undefined
 794:	3d2e0530 	str	b16, [x9, #2945]
 798:	054c4105 	.inst	0x054c4105 ; undefined
 79c:	16054b3b 	b	fffffffff8153488 <__bss_end__+0xfffffffff7d33330>
 7a0:	261a054b 	.inst	0x261a054b ; undefined
 7a4:	053d3e05 	.inst	0x053d3e05 ; undefined
 7a8:	7a034b13 	.inst	0x7a034b13 ; undefined
 7ac:	030d0520 	.inst	0x030d0520 ; undefined
 7b0:	14052009 	b	1487d4 <__abi_tag-0x2b7aa4>
 7b4:	3d2c0524 	str	b4, [x9, #2817]
 7b8:	034b0d05 	.inst	0x034b0d05 ; undefined
 7bc:	05207dac 	.inst	0x05207dac ; undefined
 7c0:	02d70307 	.inst	0x02d70307 ; undefined
 7c4:	5c0d0520 	ldr	d0, 1a868 <__abi_tag-0x3e5a10>
 7c8:	053d1705 	ext	z5.b, z5.b, z24.b, #237
 7cc:	6b053c10 	subs	w16, w0, w5, lsl #15
 7d0:	01040200 	.inst	0x01040200 ; undefined
 7d4:	001c052e 	.inst	0x001c052e ; undefined
 7d8:	3c010402 	str	b2, [x0], #16
 7dc:	02007905 	.inst	0x02007905 ; undefined
 7e0:	052e0204 	ext	z4.b, z4.b, z16.b, #112
 7e4:	04020070 	.inst	0x04020070 ; undefined
 7e8:	d3057402 	.inst	0xd3057402 ; undefined
 7ec:	04020001 	.inst	0x04020001 ; undefined
 7f0:	ce052e03 	eor3	v3.16b, v16.16b, v5.16b, v11.16b
 7f4:	04020001 	.inst	0x04020001 ; undefined
 7f8:	e6053c03 	.inst	0xe6053c03 ; undefined
 7fc:	04020001 	.inst	0x04020001 ; undefined
 800:	17052e04 	b	fffffffffc14c010 <__bss_end__+0xfffffffffbd2beb8>
 804:	3d3c055a 	str	b26, [x10, #3841]
 808:	054a2505 	.inst	0x054a2505 ; undefined
 80c:	10053e2f 	adr	x15, afd0 <__abi_tag-0x3f52a8>
 810:	4b3d054b 	sub	w11, w10, w29, uxtb #1
 814:	054b1005 	.inst	0x054b1005 ; undefined
 818:	1d05220d 	.inst	0x1d05220d ; undefined
 81c:	3c16055c 	str	b28, [x10], #-160
 820:	02005205 	.inst	0x02005205 ; undefined
 824:	052e0104 	ext	z4.b, z4.b, z8.b, #112
 828:	04020022 	.inst	0x04020022 ; undefined
 82c:	60053c01 	.inst	0x60053c01 ; undefined
 830:	02040200 	.inst	0x02040200 ; undefined
 834:	0057052e 	.inst	0x0057052e ; undefined
 838:	74020402 	.inst	0x74020402 ; undefined
 83c:	00019e05 	.inst	0x00019e05 ; undefined
 840:	2e030402 	.inst	0x2e030402 ; undefined
 844:	00019605 	.inst	0x00019605 ; undefined
 848:	3c030402 	str	b2, [x0], #48
 84c:	0001b105 	.inst	0x0001b105 ; undefined
 850:	2e040402 	.inst	0x2e040402 ; undefined
 854:	00019c05 	.inst	0x00019c05 ; undefined
 858:	3c040402 	str	b2, [x0], #64
 85c:	0001e105 	.inst	0x0001e105 ; undefined
 860:	2e050402 	.inst	0x2e050402 ; undefined
 864:	0001c905 	.inst	0x0001c905 ; undefined
 868:	3c050402 	str	b2, [x0], #80
 86c:	05301d05 	ext	z5.b, z5.b, z8.b, #135
 870:	2b053d42 	adds	w2, w10, w5, lsl #15
 874:	3e43054a 	.inst	0x3e43054a ; undefined
 878:	054b1605 	.inst	0x054b1605 ; undefined
 87c:	1305261a 	sbfx	w26, w16, #5, #5
 880:	4b40053d 	sub	w29, w9, w0, lsr #1
 884:	034b1305 	.inst	0x034b1305 ; undefined
 888:	0d052079 	.inst	0x0d052079 ; undefined
 88c:	05200a03 	ext	z3.b, z3.b, z16.b, #2
 890:	23052414 	.inst	0x23052414 ; undefined
 894:	3d2c053d 	str	b29, [x9, #2817]
 898:	054b0d05 	.inst	0x054b0d05 ; undefined
 89c:	0d054b3a 	.inst	0x0d054b3a ; undefined
 8a0:	2307054b 	.inst	0x2307054b ; undefined
 8a4:	68010567 	.inst	0x68010567 ; undefined
 8a8:	13080531 	sbfiz	w17, w9, #24, #2
 8ac:	303c0705 	adr	x5, 7898d <__abi_tag-0x3878eb>
 8b0:	05861305 	.inst	0x05861305 ; undefined
 8b4:	35053c10 	cbnz	w16, b034 <__abi_tag-0x3f5244>
 8b8:	01040200 	.inst	0x01040200 ; undefined
 8bc:	0032052e 	.inst	0x0032052e ; NYI
 8c0:	3c010402 	str	b2, [x0], #16
 8c4:	02006405 	.inst	0x02006405 ; undefined
 8c8:	052e0204 	ext	z4.b, z4.b, z16.b, #112
 8cc:	0402005d 	.inst	0x0402005d ; undefined
 8d0:	77053c02 	.inst	0x77053c02 ; undefined
 8d4:	03040200 	.inst	0x03040200 ; undefined
 8d8:	0062052e 	.inst	0x0062052e ; undefined
 8dc:	3c030402 	str	b2, [x0], #48
 8e0:	05301705 	ext	z5.b, z5.b, z24.b, #133
 8e4:	43053e10 	.inst	0x43053e10 ; undefined
 8e8:	4b10054b 	sub	w11, w10, w16, lsl #1
 8ec:	05260d05 	ext	z5.b, z5.b, z8.b, #51
 8f0:	10053d12 	adr	x18, b090 <__abi_tag-0x3f51e8>
 8f4:	0034053c 	.inst	0x0034053c ; NYI
 8f8:	2e010402 	.inst	0x2e010402 ; undefined
 8fc:	055a1705 	mov	z5.h, p10/z, #-72
 900:	10053e43 	adr	x3, b0c8 <__abi_tag-0x3f51b0>
 904:	2614054b 	.inst	0x2614054b ; undefined
 908:	053d4005 	.inst	0x053d4005 ; undefined
 90c:	04054b0d 	mla	z13.b, p2/m, z24.b, z5.b
 910:	030d0523 	.inst	0x030d0523 ; undefined
 914:	0c032e6b 	.inst	0x0c032e6b ; undefined
 918:	0301052e 	.inst	0x0301052e ; undefined
 91c:	0531200a 	mov	z10.b, z0.b[8]
 920:	07051309 	.inst	0x07051309 ; undefined
 924:	0042053c 	.inst	0x0042053c ; undefined
 928:	2e010402 	.inst	0x2e010402 ; undefined
 92c:	02003f05 	.inst	0x02003f05 ; undefined
 930:	053c0104 	ext	z4.b, z4.b, z8.b, #224
 934:	0402007f 	.inst	0x0402007f ; undefined
 938:	7b052e02 	.inst	0x7b052e02 ; undefined
 93c:	02040200 	.inst	0x02040200 ; undefined
 940:	3007053c 	adr	x28, e9e5 <__abi_tag-0x3f1893>
 944:	053e0805 	ext	z5.b, z5.b, z0.b, #242
 948:	05303c07 	.inst	0x05303c07 ; undefined
 94c:	10058626 	adr	x6, ba10 <__abi_tag-0x3f4868>
 950:	005b0566 	.inst	0x005b0566 ; undefined
 954:	2e010402 	.inst	0x2e010402 ; undefined
 958:	02004205 	.inst	0x02004205 ; undefined
 95c:	053c0104 	ext	z4.b, z4.b, z8.b, #224
 960:	2a053017 	orr	w23, w0, w5, lsl #12
 964:	3e45053d 	.inst	0x3e45053d ; undefined
 968:	054b2905 	.inst	0x054b2905 ; undefined
 96c:	39053d32 	strb	w18, [x9, #335]
 970:	4b10054b 	sub	w11, w10, w16, lsl #1
 974:	2612054b 	.inst	0x2612054b ; undefined
 978:	053c1005 	ext	z5.b, z5.b, z0.b, #228
 97c:	04020028 	.inst	0x04020028 ; undefined
 980:	47052e01 	.inst	0x47052e01 ; undefined
 984:	03040200 	.inst	0x03040200 ; undefined
 988:	00430558 	.inst	0x00430558 ; undefined
 98c:	3c030402 	str	b2, [x0], #48
 990:	02005d05 	.inst	0x02005d05 ; undefined
 994:	052e0404 	ext	z4.b, z4.b, z0.b, #113
 998:	45055a17 	.inst	0x45055a17 ; undefined
 99c:	4b39053e 	sub	w30, w9, w25, uxtb #1
 9a0:	053d1005 	ext	z5.b, z5.b, z0.b, #236
 9a4:	2c05220d 	stnp	s13, s8, [x16, #40]
 9a8:	741605b4 	.inst	0x741605b4 ; undefined
 9ac:	05301d05 	ext	z5.b, z5.b, z8.b, #135
 9b0:	3f053d30 	.inst	0x3f053d30 ; undefined
 9b4:	4b16054c 	sub	w12, w10, w22, lsl #1
 9b8:	05261305 	ext	z5.b, z5.b, z24.b, #52
 9bc:	16053d30 	b	fffffffff814fe7c <__bss_end__+0xfffffffff7d2fd24>
 9c0:	0039053c 	.inst	0x0039053c ; NYI
 9c4:	2e010402 	.inst	0x2e010402 ; undefined
 9c8:	02003605 	.inst	0x02003605 ; undefined
 9cc:	053c0104 	ext	z4.b, z4.b, z8.b, #224
 9d0:	3f05301d 	.inst	0x3f05301d ; undefined
 9d4:	4b16053e 	sub	w30, w9, w22, lsl #1
 9d8:	05234005 	zip1	p5.b, p0.b, p3.b
 9dc:	24053c16 	cmpne	p6.b, p7/z, z0.b, z5.d
 9e0:	3c1e0530 	str	b16, [x9], #-32
 9e4:	00018105 	.inst	0x00018105 ; undefined
 9e8:	2e010402 	.inst	0x2e010402 ; undefined
 9ec:	02002905 	.inst	0x02002905 ; undefined
 9f0:	053c0104 	ext	z4.b, z4.b, z8.b, #224
 9f4:	0200018f 	.inst	0x0200018f ; undefined
 9f8:	052e0204 	ext	z4.b, z4.b, z16.b, #112
 9fc:	020001e6 	.inst	0x020001e6 ; undefined
 a00:	05820204 	and	z4.d, z4.d, #0x1ffff
 a04:	02000186 	.inst	0x02000186 ; undefined
 a08:	05200204 	ext	z4.b, z4.b, z16.b, #0
 a0c:	32054c4c 	orr	w12, w2, #0xf8007fff
 a10:	3d34054a 	str	b10, [x10, #3329]
 a14:	05661e05 	ext	z5.b, {z16.b, z17.b}, #55
 a18:	1305303c 	sbfx	w28, w1, #5, #8
 a1c:	241a056d 	cmphs	p13.b, p1/z, z11.b, z26.b
 a20:	053d2c05 	tbx	z5.b, z0.b, z29.b
 a24:	3c053d35 	str	b21, [x9, #83]!
 a28:	4b13054b 	sub	w11, w10, w19, lsl #1
 a2c:	2050034b 	.inst	0x2050034b ; undefined
 a30:	032e0c03 	.inst	0x032e0c03 ; undefined
 a34:	0d052e1b 	.inst	0x0d052e1b ; undefined
 a38:	05200c03 	ext	z3.b, z3.b, z0.b, #3
 a3c:	42052414 	.inst	0x42052414 ; undefined
 a40:	4b0d053d 	sub	w29, w9, w13, lsl #1
 a44:	05230405 	ext	z5.b, z5.b, z0.b, #25
 a48:	7fb4030d 	.inst	0x7fb4030d ; undefined
 a4c:	0301052e 	.inst	0x0301052e ; undefined
 a50:	332000cd 	.inst	0x332000cd ; undefined
 a54:	052f0905 	ext	z5.b, z5.b, z8.b, #122
 a58:	053d4b0b 	.inst	0x053d4b0b ; undefined
 a5c:	0e053d0a 	umov	w10, v8.b[2]
 a60:	4b0b0522 	sub	w2, w9, w11, lsl #1
 a64:	05840a05 	.inst	0x05840a05 ; undefined
 a68:	1305be15 	.inst	0x1305be15 ; undefined
 a6c:	0024053c 	.inst	0x0024053c ; NYI
 a70:	2e010402 	.inst	0x2e010402 ; undefined
 a74:	055a1a05 	mov	z5.h, p10/z, #-48
 a78:	44053d1e 	sqrdcmlah	z30.b, z8.b, z5.b, #270
 a7c:	4b13053e 	sub	w30, w9, w19, lsl #1
 a80:	05261505 	ext	z5.b, z5.b, z8.b, #53
 a84:	24053c13 	cmpne	p3.b, p7/z, z0.b, z5.d
 a88:	01040200 	.inst	0x01040200 ; undefined
 a8c:	0021052e 	.inst	0x0021052e ; NYI
 a90:	3c010402 	str	b2, [x0], #16
 a94:	05301a05 	ext	z5.b, z5.b, z16.b, #134
 a98:	44053d1e 	sqrdcmlah	z30.b, z8.b, z5.b, #270
 a9c:	4b13054c 	sub	w12, w10, w19, lsl #1
 aa0:	05221505 	ext	z5.b, z5.b, z8.b, #21
 aa4:	24053c13 	cmpne	p3.b, p7/z, z0.b, z5.d
 aa8:	01040200 	.inst	0x01040200 ; undefined
 aac:	0021052e 	.inst	0x0021052e ; NYI
 ab0:	3c010402 	str	b2, [x0], #16
 ab4:	05301a05 	ext	z5.b, z5.b, z16.b, #134
 ab8:	44053d1e 	sqrdcmlah	z30.b, z8.b, z5.b, #270
 abc:	4b13054c 	sub	w12, w10, w19, lsl #1
 ac0:	05261505 	ext	z5.b, z5.b, z8.b, #53
 ac4:	24053c13 	cmpne	p3.b, p7/z, z0.b, z5.d
 ac8:	01040200 	.inst	0x01040200 ; undefined
 acc:	5a1a052e 	.inst	0x5a1a052e ; undefined
 ad0:	053d1e05 	ext	z5.b, z5.b, z16.b, #239
 ad4:	13053e44 	sbfx	w4, w18, #5, #11
 ad8:	2617054b 	.inst	0x2617054b ; undefined
 adc:	053d1c05 	ext	z5.b, z5.b, z0.b, #239
 ae0:	10053d41 	adr	x1, b288 <__abi_tag-0x3f4ff0>
 ae4:	2059034b 	.inst	0x2059034b ; undefined
 ae8:	032e1403 	.inst	0x032e1403 ; undefined
 aec:	12052e0c 	and	w12, w16, #0xf800007f
 af0:	05200d03 	ext	z3.b, z3.b, z8.b, #3
 af4:	45053c10 	.inst	0x45053c10 ; undefined
 af8:	4c0d0530 	.inst	0x4c0d0530 ; undefined
 afc:	053d1205 	ext	z5.b, z5.b, z16.b, #236
 b00:	43053c10 	.inst	0x43053c10 ; undefined
 b04:	4c0d0530 	.inst	0x4c0d0530 ; undefined
 b08:	053d1205 	ext	z5.b, z5.b, z16.b, #236
 b0c:	05303c10 	.inst	0x05303c10 ; undefined
 b10:	0d053d45 	.inst	0x0d053d45 ; undefined
 b14:	3d12054c 	str	b12, [x10, #1153]
 b18:	303c1005 	adr	x5, 78d19 <__abi_tag-0x38755f>
 b1c:	3d2f053d 	str	b29, [x9, #3009]
 b20:	054b2605 	.inst	0x054b2605 ; undefined
 b24:	10053d2f 	adr	x15, b2c8 <__abi_tag-0x3f4fb0>
 b28:	4b3d054b 	sub	w11, w10, w29, uxtb #1
 b2c:	3d4c0d05 	ldr	b5, [x8, #771]
 b30:	054b4b4b 	.inst	0x054b4b4b ; undefined
 b34:	10054c27 	adr	x7, b4b8 <__abi_tag-0x3f4dc0>
 b38:	30160566 	adr	x6, 2cbe5 <__abi_tag-0x3d3693>
 b3c:	053c1405 	ext	z5.b, z5.b, z0.b, #229
 b40:	28053024 	stnp	w4, w12, [x1, #40]
 b44:	6610056b 	.inst	0x6610056b ; undefined
 b48:	05301505 	ext	z5.b, z5.b, z8.b, #133
 b4c:	29053c14 	stp	w20, w15, [x0, #40]
 b50:	6b280530 	subs	w16, w9, w8, uxtb #1
 b54:	05661005 	ext	z5.b, {z0.b, z1.b}, #52
 b58:	14053016 	b	14cbb0 <__abi_tag-0x2b36c8>
 b5c:	3025053c 	adr	x28, 4ac01 <__abi_tag-0x3b5677>
 b60:	056b2905 	tbl	z5.h, {z8.h, z9.h}, z11.h
 b64:	15056610 	b	415a3a4 <__bss_end__+0x3d3a24c>
 b68:	3c140530 	str	b16, [x9], #-192
 b6c:	05302a05 	tbl	z5.b, {z16.b, z17.b}, z16.b
 b70:	67676e07 	.inst	0x67676e07 ; undefined
 b74:	671f0567 	.inst	0x671f0567 ; undefined
 b78:	05672305 	mov	z5.b, z24.b[19]
 b7c:	2305671f 	.inst	0x2305671f ; undefined
 b80:	68070567 	.inst	0x68070567 ; undefined
 b84:	67221405 	.inst	0x67221405 ; undefined
 b88:	05671505 	ext	z5.b, {z8.b, z9.b}, #61
 b8c:	18056720 	ldr	w0, b870 <__abi_tag-0x3f4a08>
 b90:	67120567 	.inst	0x67120567 ; undefined
 b94:	05671c05 	ext	z5.b, {z0.b, z1.b}, #63
 b98:	1b05671a 	madd	w26, w24, w5, w25
 b9c:	67190567 	.inst	0x67190567 ; undefined
 ba0:	67671505 	.inst	0x67671505 ; undefined
 ba4:	05681f05 	ext	z5.b, {z24.b, z25.b}, #71
 ba8:	1f056723 	fmadd	s3, s25, s5, s25
 bac:	67230567 	.inst	0x67230567 ; undefined
 bb0:	05680705 	ext	z5.b, {z24.b, z25.b}, #65
 bb4:	05672214 	mov	z20.b, z16.b[19]
 bb8:	20056715 	.inst	0x20056715 ; undefined
 bbc:	67180567 	.inst	0x67180567 ; undefined
 bc0:	05671205 	ext	z5.b, {z16.b, z17.b}, #60
 bc4:	1a05671c 	.inst	0x1a05671c ; undefined
 bc8:	671b0567 	.inst	0x671b0567 ; undefined
 bcc:	05671905 	ext	z5.b, {z8.b, z9.b}, #62
 bd0:	05676715 	zip2	z21.h, z24.h, z7.h
 bd4:	2305681f 	.inst	0x2305681f ; undefined
 bd8:	671f0567 	.inst	0x671f0567 ; undefined
 bdc:	05672305 	mov	z5.b, z24.b[19]
 be0:	14056807 	b	15abfc <__abi_tag-0x2a567c>
 be4:	15056722 	b	415a86c <__bss_end__+0x3d3a714>
 be8:	67200567 	.inst	0x67200567 ; undefined
 bec:	05671805 	ext	z5.b, {z0.b, z1.b}, #62
 bf0:	1c056712 	ldr	s18, b8d0 <__abi_tag-0x3f49a8>
 bf4:	671a0567 	.inst	0x671a0567 ; undefined
 bf8:	05671b05 	ext	z5.b, {z24.b, z25.b}, #62
 bfc:	15056719 	b	415a860 <__bss_end__+0x3d3a708>
 c00:	1f056767 	fmadd	s7, s27, s5, s25
 c04:	67230568 	.inst	0x67230568 ; undefined
 c08:	05671f05 	ext	z5.b, {z24.b, z25.b}, #63
 c0c:	07056723 	.inst	0x07056723 ; undefined
 c10:	22140568 	.inst	0x22140568 ; undefined
 c14:	67150567 	.inst	0x67150567 ; undefined
 c18:	05672005 	mov	z5.b, z0.b[19]
 c1c:	12056718 	and	w24, w24, #0xf81fffff
 c20:	671c0567 	.inst	0x671c0567 ; undefined
 c24:	05671a05 	ext	z5.b, {z16.b, z17.b}, #62
 c28:	1905671b 	.inst	0x1905671b ; undefined
 c2c:	67150567 	.inst	0x67150567 ; undefined
 c30:	68070567 	.inst	0x68070567 ; undefined
 c34:	05676767 	zip2	z7.h, z27.h, z7.h
 c38:	1f056720 	fmadd	s0, s25, s5, s25
 c3c:	67120567 	.inst	0x67120567 ; undefined
 c40:	05671805 	ext	z5.b, {z0.b, z1.b}, #62
 c44:	26056723 	.inst	0x26056723 ; undefined
 c48:	67220567 	.inst	0x67220567 ; undefined
 c4c:	05672605 	.inst	0x05672605 ; undefined
 c50:	1b056722 	madd	w2, w25, w5, w25
 c54:	671f0567 	.inst	0x671f0567 ; undefined
 c58:	05671a05 	ext	z5.b, {z16.b, z17.b}, #62
 c5c:	1a05671e 	.inst	0x1a05671e ; undefined
 c60:	671e0567 	.inst	0x671e0567 ; undefined
 c64:	05671a05 	ext	z5.b, {z16.b, z17.b}, #62
 c68:	1a05671e 	.inst	0x1a05671e ; undefined
 c6c:	671e0567 	.inst	0x671e0567 ; undefined
 c70:	05672a05 	tbl	z5.h, {z16.h, z17.h}, z7.h
 c74:	22056723 	.inst	0x22056723 ; undefined
 c78:	67210567 	.inst	0x67210567 ; undefined
 c7c:	05672205 	mov	z5.b, z16.b[19]
 c80:	14056723 	b	15a90c <__abi_tag-0x2a596c>
 c84:	67180567 	.inst	0x67180567 ; undefined
 c88:	05671305 	ext	z5.b, {z24.b, z25.b}, #60
 c8c:	13056717 	sbfx	w23, w24, #5, #21
 c90:	67170567 	.inst	0x67170567 ; undefined
 c94:	85030b05 	.inst	0x85030b05 ; undefined
 c98:	0a05667e 	and	w30, w19, w5, lsl #25
 c9c:	0301053c 	.inst	0x0301053c ; undefined
 ca0:	4f2e01ff 	.inst	0x4f2e01ff ; undefined
 ca4:	212f0305 	.inst	0x212f0305 ; undefined
 ca8:	220a0521 	.inst	0x220a0521 ; undefined
 cac:	02210105 	.inst	0x02210105 ; undefined
 cb0:	01010002 	.inst	0x01010002 ; undefined

Disassembly of section .debug_str:

0000000000000000 <.debug_str>:
   0:	445f4846 	umlalb	z6.h, z2.b, z31.b
   4:	425f5f55 	.inst	0x425f5f55 ; undefined
   8:	4b434f4c 	sub	w12, w26, w3, lsr #19
   c:	706f635f 	adr	xzr, dec77 <__abi_tag-0x321601>
  10:	65670079 	fmla	z25.h, p0/m, z3.h, z7.h
  14:	6972656e 	ldpsw	x14, x25, [x11, #-112]
  18:	49455f63 	.inst	0x49455f63 ; undefined
  1c:	454c4b4e 	uaddwb	z14.h, z26.h, z12.b
  20:	43534d4d 	.inst	0x43534d4d ; undefined
  24:	5a545548 	.inst	0x5a545548 ; undefined
  28:	5254435f 	.inst	0x5254435f ; undefined
  2c:	455a004c 	saddlb	z12.h, z2.b, z26.b
  30:	4152544e 	.inst	0x4152544e ; undefined
  34:	494b5f4c 	.inst	0x494b5f4c ; undefined
  38:	5245444e 	.inst	0x5245444e ; undefined
  3c:	48434953 	ldxrh	w19, [x10]
  40:	4e555245 	.inst	0x4e555245 ; undefined
  44:	54435f47 	b.vc	86c2c <__abi_tag-0x37964c>
  48:	6e5f4c52 	.inst	0x6e5f4c52 ; undefined
  4c:	5f747865 	sqdmlsl	s5, h3, v4.h[7]
  50:	74617473 	.inst	0x74617473 ; undefined
  54:	48460065 	ldxrh	w5, [x3]
  58:	4555545f 	ssubwt	z31.h, z2.h, z21.b
  5c:	444f4d52 	umlalt	z18.h, z10.b, z15.b
  60:	5f5f4c55 	.inst	0x5f5f4c55 ; undefined
  64:	46005446 	.inst	0x46005446 ; undefined
  68:	55545f48 	.inst	0x55545f48 ; undefined
  6c:	4f4d5245 	.inst	0x4f4d5245 ; undefined
  70:	5f4c5544 	shl	d4, d10, #12
  74:	4f4c425f 	.inst	0x4f4c425f ; undefined
  78:	6f5f4b43 	mls	v3.8h, v26.8h, v15.h[5]
  7c:	4600646c 	.inst	0x4600646c ; undefined
  80:	55545f48 	.inst	0x55545f48 ; undefined
  84:	4f4d5245 	.inst	0x4f4d5245 ; undefined
  88:	5f4c5544 	shl	d4, d10, #12
  8c:	48464d5f 	ldxrh	wzr, [x10]
  90:	4846005a 	ldxrh	w26, [x2]
  94:	5f55445f 	.inst	0x5f55445f ; undefined
  98:	4f4f445f 	.inst	0x4f4f445f ; undefined
  9c:	44495f52 	umlslt	z18.h, z26.b, z9.b
  a0:	5f484600 	.inst	0x5f484600 ; undefined
  a4:	52455554 	.inst	0x52455554 ; undefined
  a8:	55444f4d 	.inst	0x55444f4d ; undefined
  ac:	535f5f4c 	.inst	0x535f5f4c ; undefined
  b0:	5f5a4846 	.inst	0x5f5a4846 ; undefined
  b4:	544e455a 	.inst	0x544e455a ; undefined
  b8:	5f4c4152 	.inst	0x5f4c4152 ; undefined
  bc:	00646c6f 	.inst	0x00646c6f ; undefined
  c0:	6d6f682f 	ldp	d15, d26, [x1, #-272]
  c4:	75672f65 	.inst	0x75672f65 ; undefined
  c8:	696a7567 	ldpsw	x7, x29, [x11, #-176]
  cc:	6c614d2f 	ldnp	d15, d19, [x9, #-496]
  d0:	61647261 	.inst	0x61647261 ; undefined
  d4:	006e656c 	.inst	0x006e656c ; undefined
  d8:	545f4846 	b.vs	be9e0 <__abi_tag-0x341898>
  dc:	4d524555 	.inst	0x4d524555 ; undefined
  e0:	4c55444f 	.inst	0x4c55444f ; undefined
  e4:	5f495f5f 	.inst	0x5f495f5f ; undefined
  e8:	004e4945 	.inst	0x004e4945 ; undefined
  ec:	445f4846 	umlalb	z6.h, z2.b, z31.b
  f0:	535f5f55 	.inst	0x535f5f55 ; undefined
  f4:	5f48465f 	.inst	0x5f48465f ; undefined
  f8:	46424d54 	.inst	0x46424d54 ; undefined
  fc:	4944555a 	.inst	0x4944555a ; undefined
 100:	46004353 	.inst	0x46004353 ; undefined
 104:	55445f48 	.inst	0x55445f48 ; undefined
 108:	4b455f5f 	sub	wzr, w26, w5, lsr #23
 10c:	454c5f53 	usubwt	z19.h, z26.h, z12.b
 110:	45545349 	ssubwb	z9.h, z26.h, z20.b
 114:	544b415f 	.inst	0x544b415f ; undefined
 118:	6d005649 	stp	d9, d21, [x18]
 11c:	006e6961 	.inst	0x006e6961 ; undefined
 120:	434f4c42 	.inst	0x434f4c42 ; undefined
 124:	52455f4b 	.inst	0x52455f4b ; undefined
 128:	4e4e454b 	.inst	0x4e4e454b ; undefined
 12c:	5f474e55 	.inst	0x5f474e55 ; undefined
 130:	4c525443 	.inst	0x4c525443 ; undefined
 134:	5f495f5f 	.inst	0x5f495f5f ; undefined
 138:	5f4e4945 	.inst	0x5f4e4945 ; undefined
 13c:	0058414d 	.inst	0x0058414d ; undefined
 140:	545f4846 	b.vs	bea48 <__abi_tag-0x341830>
 144:	4d524555 	.inst	0x4d524555 ; undefined
 148:	4c55444f 	.inst	0x4c55444f ; undefined
 14c:	5254435f 	.inst	0x5254435f ; undefined
 150:	465f5f4c 	.inst	0x465f5f4c ; undefined
 154:	48460054 	ldxrh	w20, [x2]
 158:	5f55445f 	.inst	0x5f55445f ; undefined
 15c:	465f535f 	.inst	0x465f535f ; undefined
 160:	4d545f48 	.inst	0x4d545f48 ; undefined
 164:	55414642 	.inst	0x55414642 ; undefined
 168:	4e414346 	.inst	0x4e414346 ; undefined
 16c:	646c6f5f 	.inst	0x646c6f5f ; undefined
 170:	5f484600 	.inst	0x5f484600 ; undefined
 174:	52455554 	.inst	0x52455554 ; undefined
 178:	55444f4d 	.inst	0x55444f4d ; undefined
 17c:	535f5f4c 	.inst	0x535f5f4c ; undefined
 180:	5f5a4846 	.inst	0x5f5a4846 ; undefined
 184:	0043454d 	.inst	0x0043454d ; undefined
 188:	445f4846 	umlalb	z6.h, z2.b, z31.b
 18c:	425f5f55 	.inst	0x425f5f55 ; undefined
 190:	4b434f4c 	sub	w12, w26, w3, lsr #19
 194:	646c6f5f 	.inst	0x646c6f5f ; undefined
 198:	5f484600 	.inst	0x5f484600 ; undefined
 19c:	5f5f5544 	shl	d4, d10, #31
 1a0:	48465f53 	ldxrh	w19, [x26]
 1a4:	424d545f 	.inst	0x424d545f ; undefined
 1a8:	46554146 	.inst	0x46554146 ; undefined
 1ac:	004e4143 	.inst	0x004e4143 ; undefined
 1b0:	545f4846 	b.vs	beab8 <__abi_tag-0x3417c0>
 1b4:	4d524555 	.inst	0x4d524555 ; undefined
 1b8:	4c55444f 	.inst	0x4c55444f ; undefined
 1bc:	5254435f 	.inst	0x5254435f ; undefined
 1c0:	4e5f5f4c 	.inst	0x4e5f5f4c ; undefined
 1c4:	706f635f 	adr	xzr, dee2f <__abi_tag-0x321449>
 1c8:	48460079 	ldxrh	w25, [x3]
 1cc:	5f55445f 	.inst	0x5f55445f ; undefined
 1d0:	465f535f 	.inst	0x465f535f ; undefined
 1d4:	54465f48 	b.hi	8cdbc <__abi_tag-0x3734bc>  // b.pmore
 1d8:	00465541 	.inst	0x00465541 ; undefined
 1dc:	545f4846 	b.vs	beae4 <__abi_tag-0x341794>
 1e0:	4d524555 	.inst	0x4d524555 ; undefined
 1e4:	4c55444f 	.inst	0x4c55444f ; undefined
 1e8:	464d5f5f 	.inst	0x464d5f5f ; undefined
 1ec:	6f5f5a48 	fcmla	v8.8h, v18.8h, v31.h[2], #180
 1f0:	7300646c 	.inst	0x7300646c ; undefined
 1f4:	6c626174 	ldnp	d20, d24, [x11, #-480]
 1f8:	6d740065 	ldp	d5, d0, [x3, #-192]
 1fc:	746e655f 	.inst	0x746e655f ; undefined
 200:	64657265 	.inst	0x64657265 ; undefined
 204:	4e49455f 	.inst	0x4e49455f ; undefined
 208:	41484353 	.inst	0x41484353 ; undefined
 20c:	5453544c 	b.gt	a6c94 <__abi_tag-0x3595e4>
 210:	5f4d4f52 	.inst	0x5f4d4f52 ; undefined
 214:	5353454d 	.inst	0x5353454d ; undefined
 218:	425f4e45 	.inst	0x425f4e45 ; undefined
 21c:	4b434f4c 	sub	w12, w26, w3, lsr #19
 220:	4b52455f 	sub	wzr, w10, w18, lsr #17
 224:	554e4e45 	.inst	0x554e4e45 ; undefined
 228:	435f474e 	.inst	0x435f474e ; undefined
 22c:	634c5254 	.inst	0x634c5254 ; undefined
 230:	4c425f68 	.inst	0x4c425f68 ; undefined
 234:	5f4b434f 	.inst	0x5f4b434f ; undefined
 238:	454b5245 	ssubwb	z5.h, z18.h, z11.b
 23c:	4e554e4e 	.inst	0x4e554e4e ; undefined
 240:	54435f47 	b.vc	86e28 <__abi_tag-0x379450>
 244:	5f5f4c52 	.inst	0x5f5f4c52 ; undefined
 248:	6f635f4e 	.inst	0x6f635f4e ; undefined
 24c:	4b007970 	sub	w16, w11, w0, lsl #30
 250:	45444e49 	uaddwt	z9.h, z18.h, z4.b
 254:	43495352 	.inst	0x43495352 ; undefined
 258:	55524548 	.inst	0x55524548 ; undefined
 25c:	435f474e 	.inst	0x435f474e ; undefined
 260:	5f4c5254 	.inst	0x5f4c5254 ; undefined
 264:	444e494b 	umlalb	z11.h, z10.b, z14.b
 268:	49535245 	.inst	0x49535245 ; undefined
 26c:	52454843 	.inst	0x52454843 ; undefined
 270:	5f474e55 	.inst	0x5f474e55 ; undefined
 274:	4c525443 	.inst	0x4c525443 ; undefined
 278:	78656e5f 	.inst	0x78656e5f ; undefined
 27c:	74735f74 	.inst	0x74735f74 ; undefined
 280:	00657461 	.inst	0x00657461 ; undefined
 284:	465f6373 	.inst	0x465f6373 ; undefined
 288:	55545f48 	.inst	0x55545f48 ; undefined
 28c:	4f4d5245 	.inst	0x4f4d5245 ; undefined
 290:	5f4c5544 	shl	d4, d10, #12
 294:	4c525443 	.inst	0x4c525443 ; undefined
 298:	3337315f 	.inst	0x3337315f ; undefined
 29c:	30315f39 	adr	x25, 62e81 <__abi_tag-0x39d3f7>
 2a0:	4e414d00 	.inst	0x4e414d00 ; undefined
 2a4:	4c4c4555 	.inst	0x4c4c4555 ; undefined
 2a8:	4843535f 	ldxrh	wzr, [x26]
 2ac:	5345494c 	.inst	0x5345494c ; undefined
 2b0:	5f4e4553 	.inst	0x5f4e4553 ; undefined
 2b4:	545f4846 	b.vs	bebbc <__abi_tag-0x3416bc>
 2b8:	4d524555 	.inst	0x4d524555 ; undefined
 2bc:	4c55444f 	.inst	0x4c55444f ; undefined
 2c0:	5254435f 	.inst	0x5254435f ; undefined
 2c4:	656e5f4c 	fnmla	z12.h, p7/m, z26.h, z14.h
 2c8:	735f7478 	.inst	0x735f7478 ; undefined
 2cc:	65746174 	fnmls	z20.h, p0/m, z11.h, z20.h
 2d0:	5f484600 	.inst	0x5f484600 ; undefined
 2d4:	5f5f5544 	shl	d4, d10, #31
 2d8:	5a48464d 	.inst	0x5a48464d ; undefined
 2dc:	5f484600 	.inst	0x5f484600 ; undefined
 2e0:	52455554 	.inst	0x52455554 ; undefined
 2e4:	55444f4d 	.inst	0x55444f4d ; undefined
 2e8:	455f5f4c 	usubwt	z12.h, z26.h, z31.b
 2ec:	4c5f534b 	.inst	0x4c5f534b ; undefined
 2f0:	54534945 	b.pl	a6c18 <__abi_tag-0x359660>  // b.nfrst
 2f4:	4b415f45 	sub	w5, w26, w1, lsr #23
 2f8:	5f564954 	.inst	0x5f564954 ; undefined
 2fc:	00646c6f 	.inst	0x00646c6f ; undefined
 300:	445f4846 	umlalb	z6.h, z2.b, z31.b
 304:	425f5f55 	.inst	0x425f5f55 ; undefined
 308:	4b434f4c 	sub	w12, w26, w3, lsr #19
 30c:	5f484600 	.inst	0x5f484600 ; undefined
 310:	52455554 	.inst	0x52455554 ; undefined
 314:	55444f4d 	.inst	0x55444f4d ; undefined
 318:	505f5f4c 	adr	x12, bef02 <__abi_tag-0x341376>
 31c:	5449534f 	b.nv	92d84 <__abi_tag-0x36d4f4>
 320:	004e4f49 	.inst	0x004e4f49 ; undefined
 324:	50504954 	adr	x20, a0c4e <__abi_tag-0x35f62a>
 328:	4843535f 	ldxrh	wzr, [x26]
 32c:	5345494c 	.inst	0x5345494c ; undefined
 330:	5f4e4553 	.inst	0x5f4e4553 ; undefined
 334:	545f4846 	b.vs	bec3c <__abi_tag-0x34163c>
 338:	4d524555 	.inst	0x4d524555 ; undefined
 33c:	4c55444f 	.inst	0x4c55444f ; undefined
 340:	5254435f 	.inst	0x5254435f ; undefined
 344:	656e5f4c 	fnmla	z12.h, p7/m, z26.h, z14.h
 348:	735f7478 	.inst	0x735f7478 ; undefined
 34c:	65746174 	fnmls	z20.h, p0/m, z11.h, z20.h
 350:	5f484600 	.inst	0x5f484600 ; undefined
 354:	52455554 	.inst	0x52455554 ; undefined
 358:	55444f4d 	.inst	0x55444f4d ; undefined
 35c:	435f5f4c 	.inst	0x435f5f4c ; undefined
 360:	4f5f4d4f 	.inst	0x4f5f4d4f ; undefined
 364:	004e4550 	.inst	0x004e4550 ; undefined
 368:	434f4c42 	.inst	0x434f4c42 ; undefined
 36c:	52455f4b 	.inst	0x52455f4b ; undefined
 370:	4e4e454b 	.inst	0x4e4e454b ; undefined
 374:	5f474e55 	.inst	0x5f474e55 ; undefined
 378:	4c525443 	.inst	0x4c525443 ; undefined
 37c:	4f4c425f 	.inst	0x4f4c425f ; undefined
 380:	455f4b43 	uaddwb	z3.h, z26.h, z31.b
 384:	4e454b52 	.inst	0x4e454b52 ; undefined
 388:	474e554e 	.inst	0x474e554e ; undefined
 38c:	5254435f 	.inst	0x5254435f ; undefined
 390:	656e5f4c 	fnmla	z12.h, p7/m, z26.h, z14.h
 394:	735f7478 	.inst	0x735f7478 ; undefined
 398:	65746174 	fnmls	z20.h, p0/m, z11.h, z20.h
 39c:	5f484600 	.inst	0x5f484600 ; undefined
 3a0:	52455554 	.inst	0x52455554 ; undefined
 3a4:	55444f4d 	.inst	0x55444f4d ; undefined
 3a8:	54435f4c 	b.gt	86f90 <__abi_tag-0x3792e8>
 3ac:	5f5f4c52 	.inst	0x5f5f4c52 ; undefined
 3b0:	5f41004e 	.inst	0x5f41004e ; undefined
 3b4:	545f4846 	b.vs	becbc <__abi_tag-0x3415bc>
 3b8:	4d524555 	.inst	0x4d524555 ; undefined
 3bc:	4c55444f 	.inst	0x4c55444f ; undefined
 3c0:	5254435f 	.inst	0x5254435f ; undefined
 3c4:	656e5f4c 	fnmla	z12.h, p7/m, z26.h, z14.h
 3c8:	735f7478 	.inst	0x735f7478 ; undefined
 3cc:	65746174 	fnmls	z20.h, p0/m, z11.h, z20.h
 3d0:	5f484600 	.inst	0x5f484600 ; undefined
 3d4:	55455453 	.inst	0x55455453 ; undefined
 3d8:	4e555245 	.inst	0x4e555245 ; undefined
 3dc:	55445f47 	.inst	0x55445f47 ; undefined
 3e0:	5f594d4d 	.inst	0x5f594d4d ; undefined
 3e4:	535f4846 	.inst	0x535f4846 ; undefined
 3e8:	45554554 	saddwt	z20.h, z10.h, z21.b
 3ec:	474e5552 	.inst	0x474e5552 ; undefined
 3f0:	4d55445f 	.inst	0x4d55445f ; undefined
 3f4:	6e5f594d 	.inst	0x6e5f594d ; undefined
 3f8:	5f747865 	sqdmlsl	s5, h3, v4.h[7]
 3fc:	74617473 	.inst	0x74617473 ; undefined
 400:	494e0065 	.inst	0x494e0065 ; undefined
 404:	5f544843 	.inst	0x5f544843 ; undefined
 408:	54494e49 	b.ls	92dd0 <__abi_tag-0x36d4a8>  // b.plast
 40c:	494c4149 	.inst	0x494c4149 ; undefined
 410:	52454953 	.inst	0x52454953 ; undefined
 414:	494e5f54 	.inst	0x494e5f54 ; undefined
 418:	5f544843 	.inst	0x5f544843 ; undefined
 41c:	54494e49 	b.ls	92de4 <__abi_tag-0x36d494>  // b.plast
 420:	494c4149 	.inst	0x494c4149 ; undefined
 424:	52454953 	.inst	0x52454953 ; undefined
 428:	656e5f54 	fnmla	z20.h, p7/m, z26.h, z14.h
 42c:	735f7478 	.inst	0x735f7478 ; undefined
 430:	65746174 	fnmls	z20.h, p0/m, z11.h, z20.h
 434:	5f484600 	.inst	0x5f484600 ; undefined
 438:	5f5f5544 	shl	d4, d10, #31
 43c:	48465f53 	ldxrh	w19, [x26]
 440:	424d545f 	.inst	0x424d545f ; undefined
 444:	43555a46 	.inst	0x43555a46 ; undefined
 448:	46004e41 	.inst	0x46004e41 ; undefined
 44c:	55545f48 	.inst	0x55545f48 ; undefined
 450:	4f4d5245 	.inst	0x4f4d5245 ; undefined
 454:	5f4c5544 	shl	d4, d10, #12
 458:	4c525443 	.inst	0x4c525443 ; undefined
 45c:	4e495f5f 	.inst	0x4e495f5f ; undefined
 460:	45564552 	saddwt	z18.h, z10.h, z22.b
 464:	5f315352 	fmls	h18, h26, v1.h[3]
 468:	79706f63 	ldrh	w3, [x27, #6198]
 46c:	5f484600 	.inst	0x5f484600 ; undefined
 470:	52455554 	.inst	0x52455554 ; undefined
 474:	55444f4d 	.inst	0x55444f4d ; undefined
 478:	535f5f4c 	.inst	0x535f5f4c ; undefined
 47c:	5f414846 	.inst	0x5f414846 ; undefined
 480:	5f43454d 	.inst	0x5f43454d ; undefined
 484:	00646c6f 	.inst	0x00646c6f ; undefined
 488:	465f6373 	.inst	0x465f6373 ; undefined
 48c:	55545f48 	.inst	0x55545f48 ; undefined
 490:	4f4d5245 	.inst	0x4f4d5245 ; undefined
 494:	5f4c5544 	shl	d4, d10, #12
 498:	4c525443 	.inst	0x4c525443 ; undefined
 49c:	3533325f 	cbnz	wzr, 66ae4 <__abi_tag-0x399794>
 4a0:	00315f32 	.inst	0x00315f32 ; NYI
 4a4:	445f4846 	umlalb	z6.h, z2.b, z31.b
 4a8:	4d5f5f55 	.inst	0x4d5f5f55 ; undefined
 4ac:	5f414846 	.inst	0x5f414846 ; undefined
 4b0:	00646c6f 	.inst	0x00646c6f ; undefined
 4b4:	5f43454d 	.inst	0x5f43454d ; undefined
 4b8:	444e494b 	umlalb	z11.h, z10.b, z14.b
 4bc:	49535245 	.inst	0x49535245 ; undefined
 4c0:	52454843 	.inst	0x52454843 ; undefined
 4c4:	5f474e55 	.inst	0x5f474e55 ; undefined
 4c8:	4c525443 	.inst	0x4c525443 ; undefined
 4cc:	78656e5f 	.inst	0x78656e5f ; undefined
 4d0:	74735f74 	.inst	0x74735f74 ; undefined
 4d4:	00657461 	.inst	0x00657461 ; undefined
 4d8:	656e6567 	fnmls	z7.h, p1/m, z11.h, z14.h
 4dc:	5f636972 	.inst	0x5f636972 ; undefined
 4e0:	444e494b 	umlalb	z11.h, z10.b, z14.b
 4e4:	49535245 	.inst	0x49535245 ; undefined
 4e8:	52454843 	.inst	0x52454843 ; undefined
 4ec:	5f474e55 	.inst	0x5f474e55 ; undefined
 4f0:	4c525443 	.inst	0x4c525443 ; undefined
 4f4:	5f484600 	.inst	0x5f484600 ; undefined
 4f8:	52455554 	.inst	0x52455554 ; undefined
 4fc:	55444f4d 	.inst	0x55444f4d ; undefined
 500:	4b5f5f4c 	sub	w12, w26, wzr, lsr #23
 504:	30355f4c 	adr	x12, 6b0ed <__abi_tag-0x39518b>
 508:	5f484600 	.inst	0x5f484600 ; undefined
 50c:	52455554 	.inst	0x52455554 ; undefined
 510:	55444f4d 	.inst	0x55444f4d ; undefined
 514:	535f5f4c 	.inst	0x535f5f4c ; undefined
 518:	5f414846 	.inst	0x5f414846 ; undefined
 51c:	79706f63 	ldrh	w3, [x27, #6198]
 520:	4f4c4200 	.inst	0x4f4c4200 ; undefined
 524:	455f4b43 	uaddwb	z3.h, z26.h, z31.b
 528:	4e454b52 	.inst	0x4e454b52 ; undefined
 52c:	474e554e 	.inst	0x474e554e ; undefined
 530:	5254435f 	.inst	0x5254435f ; undefined
 534:	4e5f5f4c 	.inst	0x4e5f5f4c ; undefined
 538:	646c6f5f 	.inst	0x646c6f5f ; undefined
 53c:	5f484600 	.inst	0x5f484600 ; undefined
 540:	5f5f5544 	shl	d4, d10, #31
 544:	49455f49 	.inst	0x49455f49 ; undefined
 548:	4957004e 	.inst	0x4957004e ; undefined
 54c:	52454445 	.inst	0x52454445 ; undefined
 550:	534c4f48 	.inst	0x534c4f48 ; undefined
 554:	52524550 	.inst	0x52524550 ; undefined
 558:	48465f45 	ldxrh	w5, [x26]
 55c:	4555545f 	ssubwt	z31.h, z2.h, z21.b
 560:	444f4d52 	umlalt	z18.h, z10.b, z15.b
 564:	435f4c55 	.inst	0x435f4c55 ; undefined
 568:	5f4c5254 	.inst	0x5f4c5254 ; undefined
 56c:	7478656e 	.inst	0x7478656e ; undefined
 570:	6174735f 	.inst	0x6174735f ; undefined
 574:	46006574 	.inst	0x46006574 ; undefined
 578:	55545f48 	.inst	0x55545f48 ; undefined
 57c:	4f4d5245 	.inst	0x4f4d5245 ; undefined
 580:	5f4c5544 	shl	d4, d10, #12
 584:	48464d5f 	ldxrh	wzr, [x10]
 588:	6c6f5f41 	ldnp	d1, d23, [x26, #-272]
 58c:	48460064 	ldxrh	w4, [x3]
 590:	4555545f 	ssubwt	z31.h, z2.h, z21.b
 594:	444f4d52 	umlalt	z18.h, z10.b, z15.b
 598:	435f4c55 	.inst	0x435f4c55 ; undefined
 59c:	5f4c5254 	.inst	0x5f4c5254 ; undefined
 5a0:	524e495f 	.inst	0x524e495f ; undefined
 5a4:	52455645 	.inst	0x52455645 ; undefined
 5a8:	46003153 	.inst	0x46003153 ; undefined
 5ac:	55545f48 	.inst	0x55545f48 ; undefined
 5b0:	4f4d5245 	.inst	0x4f4d5245 ; undefined
 5b4:	5f4c5544 	shl	d4, d10, #12
 5b8:	4c525443 	.inst	0x4c525443 ; undefined
 5bc:	4e495f5f 	.inst	0x4e495f5f ; undefined
 5c0:	45564552 	saddwt	z18.h, z10.h, z22.b
 5c4:	00325352 	.inst	0x00325352 ; NYI
 5c8:	434f4c42 	.inst	0x434f4c42 ; undefined
 5cc:	52455f4b 	.inst	0x52455f4b ; undefined
 5d0:	4e4e454b 	.inst	0x4e4e454b ; undefined
 5d4:	5f474e55 	.inst	0x5f474e55 ; undefined
 5d8:	4c525443 	.inst	0x4c525443 ; undefined
 5dc:	004e5f5f 	.inst	0x004e5f5f ; undefined
 5e0:	445f4846 	umlalb	z6.h, z2.b, z31.b
 5e4:	455f5f55 	usubwt	z21.h, z26.h, z31.b
 5e8:	4c5f534b 	.inst	0x4c5f534b ; undefined
 5ec:	54534945 	b.pl	a6f14 <__abi_tag-0x359364>  // b.nfrst
 5f0:	4b415f45 	sub	w5, w26, w1, lsr #23
 5f4:	5f564954 	.inst	0x5f564954 ; undefined
 5f8:	00646c6f 	.inst	0x00646c6f ; undefined
 5fc:	4646454f 	.inst	0x4646454f ; undefined
 600:	5f4e454e 	.inst	0x5f4e454e ; undefined
 604:	545f4846 	b.vs	bef0c <__abi_tag-0x34136c>
 608:	4d524555 	.inst	0x4d524555 ; undefined
 60c:	4c55444f 	.inst	0x4c55444f ; undefined
 610:	5254435f 	.inst	0x5254435f ; undefined
 614:	656e5f4c 	fnmla	z12.h, p7/m, z26.h, z14.h
 618:	735f7478 	.inst	0x735f7478 ; undefined
 61c:	65746174 	fnmls	z20.h, p0/m, z11.h, z20.h
 620:	5f484600 	.inst	0x5f484600 ; undefined
 624:	52455554 	.inst	0x52455554 ; undefined
 628:	55444f4d 	.inst	0x55444f4d ; undefined
 62c:	535f5f4c 	.inst	0x535f5f4c ; undefined
 630:	00414846 	.inst	0x00414846 ; undefined
 634:	545f4846 	b.vs	bef3c <__abi_tag-0x34133c>
 638:	4d524555 	.inst	0x4d524555 ; undefined
 63c:	4c55444f 	.inst	0x4c55444f ; undefined
 640:	46535f5f 	.inst	0x46535f5f ; undefined
 644:	6f5f4148 	mls	v8.8h, v10.8h, v15.h[1]
 648:	4600646c 	.inst	0x4600646c ; undefined
 64c:	55445f48 	.inst	0x55445f48 ; undefined
 650:	5f495f5f 	.inst	0x5f495f5f ; undefined
 654:	5f4e4945 	.inst	0x5f4e4945 ; undefined
 658:	00646c6f 	.inst	0x00646c6f ; undefined
 65c:	445f4846 	umlalb	z6.h, z2.b, z31.b
 660:	4d5f5f55 	.inst	0x4d5f5f55 ; undefined
 664:	5f5a4846 	.inst	0x5f5a4846 ; undefined
 668:	79706f63 	ldrh	w3, [x27, #6198]
 66c:	5f484600 	.inst	0x5f484600 ; undefined
 670:	52455554 	.inst	0x52455554 ; undefined
 674:	55444f4d 	.inst	0x55444f4d ; undefined
 678:	4d5f5f4c 	.inst	0x4d5f5f4c ; undefined
 67c:	5f5a4846 	.inst	0x5f5a4846 ; undefined
 680:	79706f63 	ldrh	w3, [x27, #6198]
 684:	5f484600 	.inst	0x5f484600 ; undefined
 688:	5f5f5544 	shl	d4, d10, #31
 68c:	48465f53 	ldxrh	w19, [x26]
 690:	424d545f 	.inst	0x424d545f ; undefined
 694:	46554146 	.inst	0x46554146 ; undefined
 698:	5f4e4143 	.inst	0x5f4e4143 ; undefined
 69c:	79706f63 	ldrh	w3, [x27, #6198]
 6a0:	5f637300 	sqdmlsl	s0, h24, v3.h[2]
 6a4:	545f4846 	b.vs	befac <__abi_tag-0x3412cc>
 6a8:	4d524555 	.inst	0x4d524555 ; undefined
 6ac:	4c55444f 	.inst	0x4c55444f ; undefined
 6b0:	5254435f 	.inst	0x5254435f ; undefined
 6b4:	33325f4c 	.inst	0x33325f4c ; undefined
 6b8:	325f3537 	.inst	0x325f3537 ; undefined
 6bc:	6d697400 	ldp	d0, d29, [x0, #-368]
 6c0:	74730065 	.inst	0x74730065 ; undefined
 6c4:	6d657461 	ldp	d1, d29, [x3, #-432]
 6c8:	2e657461 	uabd	v1.4h, v3.4h, v5.4h
 6cc:	48460063 	ldxrh	w3, [x3]
 6d0:	4555545f 	ssubwt	z31.h, z2.h, z21.b
 6d4:	444f4d52 	umlalt	z18.h, z10.b, z15.b
 6d8:	5f5f4c55 	.inst	0x5f5f4c55 ; undefined
 6dc:	4148464d 	.inst	0x4148464d ; undefined
 6e0:	706f635f 	adr	xzr, df34b <__abi_tag-0x320f2d>
 6e4:	45420079 	saddlb	z25.h, z3.b, z2.b
 6e8:	55474557 	.inst	0x55474557 ; undefined
 6ec:	425f474e 	.inst	0x425f474e ; undefined
 6f0:	4b434f4c 	sub	w12, w26, w3, lsr #19
 6f4:	4b52455f 	sub	wzr, w10, w18, lsr #17
 6f8:	554e4e45 	.inst	0x554e4e45 ; undefined
 6fc:	435f474e 	.inst	0x435f474e ; undefined
 700:	5f4c5254 	.inst	0x5f4c5254 ; undefined
 704:	7478656e 	.inst	0x7478656e ; undefined
 708:	6174735f 	.inst	0x6174735f ; undefined
 70c:	46006574 	.inst	0x46006574 ; undefined
 710:	55445f48 	.inst	0x55445f48 ; undefined
 714:	464d5f5f 	.inst	0x464d5f5f ; undefined
 718:	635f4148 	.inst	0x635f4148 ; undefined
 71c:	0079706f 	.inst	0x0079706f ; undefined
 720:	545f4846 	b.vs	bf028 <__abi_tag-0x341250>
 724:	4d524555 	.inst	0x4d524555 ; undefined
 728:	4c55444f 	.inst	0x4c55444f ; undefined
 72c:	46535f5f 	.inst	0x46535f5f ; undefined
 730:	635f5a48 	.inst	0x635f5a48 ; undefined
 734:	0079706f 	.inst	0x0079706f ; undefined
 738:	72616863 	.inst	0x72616863 ; undefined
 73c:	696e6900 	ldpsw	x0, x26, [x8, #-144]
 740:	48460074 	ldxrh	w20, [x3]
 744:	5f55445f 	.inst	0x5f55445f ; undefined
 748:	465f535f 	.inst	0x465f535f ; undefined
 74c:	4d545f48 	.inst	0x4d545f48 ; undefined
 750:	555a4642 	.inst	0x555a4642 ; undefined
 754:	43534944 	.inst	0x43534944 ; undefined
 758:	646c6f5f 	.inst	0x646c6f5f ; undefined
 75c:	5f484600 	.inst	0x5f484600 ; undefined
 760:	5f5f5544 	shl	d4, d10, #31
 764:	48465f53 	ldxrh	w19, [x26]
 768:	424d545f 	.inst	0x424d545f ; undefined
 76c:	43555a46 	.inst	0x43555a46 ; undefined
 770:	6f5f4e41 	.inst	0x6f5f4e41 ; undefined
 774:	6700646c 	.inst	0x6700646c ; undefined
 778:	72656e65 	.inst	0x72656e65 ; undefined
 77c:	425f6369 	.inst	0x425f6369 ; undefined
 780:	4b434f4c 	sub	w12, w26, w3, lsr #19
 784:	4b52455f 	sub	wzr, w10, w18, lsr #17
 788:	554e4e45 	.inst	0x554e4e45 ; undefined
 78c:	435f474e 	.inst	0x435f474e ; undefined
 790:	004c5254 	.inst	0x004c5254 ; undefined
 794:	445f4846 	umlalb	z6.h, z2.b, z31.b
 798:	535f5f55 	.inst	0x535f5f55 ; undefined
 79c:	5f48465f 	.inst	0x5f48465f ; undefined
 7a0:	46424d54 	.inst	0x46424d54 ; undefined
 7a4:	4143555a 	.inst	0x4143555a ; undefined
 7a8:	6f635f4e 	.inst	0x6f635f4e ; undefined
 7ac:	46007970 	.inst	0x46007970 ; undefined
 7b0:	55445f48 	.inst	0x55445f48 ; undefined
 7b4:	464d5f5f 	.inst	0x464d5f5f ; undefined
 7b8:	48460048 	ldxrh	w8, [x2]
 7bc:	5f55445f 	.inst	0x5f55445f ; undefined
 7c0:	465f535f 	.inst	0x465f535f ; undefined
 7c4:	54465f48 	b.hi	8d3ac <__abi_tag-0x372ecc>  // b.pmore
 7c8:	4600555a 	.inst	0x4600555a ; undefined
 7cc:	55445f48 	.inst	0x55445f48 ; undefined
 7d0:	464d5f5f 	.inst	0x464d5f5f ; undefined
 7d4:	6f5f5a48 	fcmla	v8.8h, v18.8h, v31.h[2], #180
 7d8:	4500646c 	.inst	0x4500646c ; undefined
 7dc:	4c4b4e49 	.inst	0x4c4b4e49 ; undefined
 7e0:	534d4d45 	.inst	0x534d4d45 ; undefined
 7e4:	54554843 	b.cc	ab0ec <__abi_tag-0x35518c>  // b.lo, b.ul, b.last
 7e8:	54435f5a 	.inst	0x54435f5a ; undefined
 7ec:	455f4c52 	uaddwt	z18.h, z2.h, z31.b
 7f0:	4c4b4e49 	.inst	0x4c4b4e49 ; undefined
 7f4:	534d4d45 	.inst	0x534d4d45 ; undefined
 7f8:	54554843 	b.cc	ab100 <__abi_tag-0x355178>  // b.lo, b.ul, b.last
 7fc:	54435f5a 	.inst	0x54435f5a ; undefined
 800:	6e5f4c52 	.inst	0x6e5f4c52 ; undefined
 804:	5f747865 	sqdmlsl	s5, h3, v4.h[7]
 808:	74617473 	.inst	0x74617473 ; undefined
 80c:	48460065 	ldxrh	w5, [x3]
 810:	5f55445f 	.inst	0x5f55445f ; undefined
 814:	48464d5f 	ldxrh	wzr, [x10]
 818:	706f635f 	adr	xzr, df483 <__abi_tag-0x320df5>
 81c:	48460079 	ldxrh	w25, [x3]
 820:	5f55445f 	.inst	0x5f55445f ; undefined
 824:	465f535f 	.inst	0x465f535f ; undefined
 828:	4d545f48 	.inst	0x4d545f48 ; undefined
 82c:	55414642 	.inst	0x55414642 ; undefined
 830:	53494446 	.inst	0x53494446 ; undefined
 834:	6c6f5f43 	ldnp	d3, d23, [x26, #-272]
 838:	48460064 	ldxrh	w4, [x3]
 83c:	4555545f 	ssubwt	z31.h, z2.h, z21.b
 840:	444f4d52 	umlalt	z18.h, z10.b, z15.b
 844:	5f5f4c55 	.inst	0x5f5f4c55 ; undefined
 848:	41484653 	.inst	0x41484653 ; undefined
 84c:	4e455a5f 	uzp2	v31.8h, v18.8h, v5.8h
 850:	4c415254 	.inst	0x4c415254 ; undefined
 854:	5f6d7400 	sqshl	d0, d0, #45
 858:	65746e65 	fnmls	z5.h, p3/m, z19.h, z20.h
 85c:	5f646572 	.inst	0x5f646572 ; undefined
 860:	44454957 	umlalb	z23.h, z10.b, z5.b
 864:	4f485245 	.inst	0x4f485245 ; undefined
 868:	4550534c 	ssubwb	z12.h, z26.h, z16.b
 86c:	5f455252 	.inst	0x5f455252 ; undefined
 870:	545f4846 	b.vs	bf178 <__abi_tag-0x341100>
 874:	4d524555 	.inst	0x4d524555 ; undefined
 878:	4c55444f 	.inst	0x4c55444f ; undefined
 87c:	5254435f 	.inst	0x5254435f ; undefined
 880:	6978654c 	ldpsw	x12, x25, [x10, #-64]
 884:	5f646574 	.inst	0x5f646574 ; undefined
 888:	45524542 	saddwt	z2.h, z10.h, z18.b
 88c:	465f5449 	.inst	0x465f5449 ; undefined
 890:	55545f48 	.inst	0x55545f48 ; undefined
 894:	4f4d5245 	.inst	0x4f4d5245 ; undefined
 898:	5f4c5544 	shl	d4, d10, #12
 89c:	4c525443 	.inst	0x4c525443 ; undefined
 8a0:	5f484600 	.inst	0x5f484600 ; undefined
 8a4:	52455554 	.inst	0x52455554 ; undefined
 8a8:	55444f4d 	.inst	0x55444f4d ; undefined
 8ac:	435f5f4c 	.inst	0x435f5f4c ; undefined
 8b0:	435f4d4f 	.inst	0x435f4d4f ; undefined
 8b4:	45534f4c 	uaddwt	z12.h, z26.h, z19.b
 8b8:	6e6f6c00 	umin	v0.8h, v0.8h, v15.8h
 8bc:	6e752067 	usubl2	v7.4s, v3.8h, v21.8h
 8c0:	6e676973 	.inst	0x6e676973 ; undefined
 8c4:	69206465 	stgp	x5, x25, [x3, #-1024]
 8c8:	4200746e 	.inst	0x4200746e ; undefined
 8cc:	5f48465f 	.inst	0x5f48465f ; undefined
 8d0:	52455554 	.inst	0x52455554 ; undefined
 8d4:	55444f4d 	.inst	0x55444f4d ; undefined
 8d8:	54435f4c 	b.gt	874c0 <__abi_tag-0x378db8>
 8dc:	6e5f4c52 	.inst	0x6e5f4c52 ; undefined
 8e0:	5f747865 	sqdmlsl	s5, h3, v4.h[7]
 8e4:	74617473 	.inst	0x74617473 ; undefined
 8e8:	48460065 	ldxrh	w5, [x3]
 8ec:	4555545f 	ssubwt	z31.h, z2.h, z21.b
 8f0:	444f4d52 	umlalt	z18.h, z10.b, z15.b
 8f4:	5f5f4c55 	.inst	0x5f5f4c55 ; undefined
 8f8:	5a484653 	.inst	0x5a484653 ; undefined
 8fc:	494e4900 	.inst	0x494e4900 ; undefined
 900:	4c414954 	.inst	0x4c414954 ; undefined
 904:	45495349 	ssubwb	z9.h, z26.h, z9.b
 908:	465f5452 	.inst	0x465f5452 ; undefined
 90c:	55545f48 	.inst	0x55545f48 ; undefined
 910:	4f4d5245 	.inst	0x4f4d5245 ; undefined
 914:	5f4c5544 	shl	d4, d10, #12
 918:	4c525443 	.inst	0x4c525443 ; undefined
 91c:	78656e5f 	.inst	0x78656e5f ; undefined
 920:	74735f74 	.inst	0x74735f74 ; undefined
 924:	00657461 	.inst	0x00657461 ; undefined
 928:	445f4846 	umlalb	z6.h, z2.b, z31.b
 92c:	535f5f55 	.inst	0x535f5f55 ; undefined
 930:	5f48465f 	.inst	0x5f48465f ; undefined
 934:	44465541 	smlslt	z1.h, z10.b, z6.b
 938:	00435349 	.inst	0x00435349 ; undefined
 93c:	6c746942 	ldnp	d2, d26, [x10, #-192]
 940:	00747369 	.inst	0x00747369 ; undefined
 944:	445f4846 	umlalb	z6.h, z2.b, z31.b
 948:	505f5f55 	adr	x21, bf532 <__abi_tag-0x340d46>
 94c:	5449534f 	b.nv	933b4 <__abi_tag-0x36cec4>
 950:	004e4f49 	.inst	0x004e4f49 ; undefined
 954:	445f4846 	umlalb	z6.h, z2.b, z31.b
 958:	4b5f5f55 	sub	w21, w26, wzr, lsr #23
 95c:	30355f4c 	adr	x12, 6b545 <__abi_tag-0x394d33>
 960:	5f484600 	.inst	0x5f484600 ; undefined
 964:	5f5f5544 	shl	d4, d10, #31
 968:	48465f53 	ldxrh	w19, [x26]
 96c:	44555a5f 	umlslb	z31.h, z18.b, z21.b
 970:	00435349 	.inst	0x00435349 ; undefined
 974:	434f4c42 	.inst	0x434f4c42 ; undefined
 978:	52455f4b 	.inst	0x52455f4b ; undefined
 97c:	4e4e454b 	.inst	0x4e4e454b ; undefined
 980:	5f474e55 	.inst	0x5f474e55 ; undefined
 984:	4c525443 	.inst	0x4c525443 ; undefined
 988:	5f495f5f 	.inst	0x5f495f5f ; undefined
 98c:	5f4e4945 	.inst	0x5f4e4945 ; undefined
 990:	5f58414d 	.inst	0x5f58414d ; undefined
 994:	79706f63 	ldrh	w3, [x27, #6198]
 998:	5f484600 	.inst	0x5f484600 ; undefined
 99c:	52455554 	.inst	0x52455554 ; undefined
 9a0:	55444f4d 	.inst	0x55444f4d ; undefined
 9a4:	535f5f4c 	.inst	0x535f5f4c ; undefined
 9a8:	5f5a4846 	.inst	0x5f5a4846 ; undefined
 9ac:	5f43454d 	.inst	0x5f43454d ; undefined
 9b0:	00646c6f 	.inst	0x00646c6f ; undefined
 9b4:	545f4846 	b.vs	bf2bc <__abi_tag-0x340fbc>
 9b8:	4d524555 	.inst	0x4d524555 ; undefined
 9bc:	4c55444f 	.inst	0x4c55444f ; undefined
 9c0:	4c425f5f 	.inst	0x4c425f5f ; undefined
 9c4:	5f4b434f 	.inst	0x5f4b434f ; undefined
 9c8:	79706f63 	ldrh	w3, [x27, #6198]
 9cc:	5f484600 	.inst	0x5f484600 ; undefined
 9d0:	52455554 	.inst	0x52455554 ; undefined
 9d4:	55444f4d 	.inst	0x55444f4d ; undefined
 9d8:	535f5f4c 	.inst	0x535f5f4c ; undefined
 9dc:	5f5a4846 	.inst	0x5f5a4846 ; undefined
 9e0:	00646c6f 	.inst	0x00646c6f ; undefined
 9e4:	70657473 	adr	x19, cb873 <__abi_tag-0x334a05>
 9e8:	5f637300 	sqdmlsl	s0, h24, v3.h[2]
 9ec:	545f4846 	b.vs	bf2f4 <__abi_tag-0x340f84>
 9f0:	4d524555 	.inst	0x4d524555 ; undefined
 9f4:	4c55444f 	.inst	0x4c55444f ; undefined
 9f8:	5254435f 	.inst	0x5254435f ; undefined
 9fc:	33325f4c 	.inst	0x33325f4c ; undefined
 a00:	315f3932 	adds	w18, w9, #0x7ce, lsl #12
 a04:	6e656700 	umax	v0.8h, v24.8h, v5.8h
 a08:	63697265 	.inst	0x63697265 ; undefined
 a0c:	5f48465f 	.inst	0x5f48465f ; undefined
 a10:	52455554 	.inst	0x52455554 ; undefined
 a14:	55444f4d 	.inst	0x55444f4d ; undefined
 a18:	54435f4c 	b.gt	87600 <__abi_tag-0x378c78>
 a1c:	46004c52 	.inst	0x46004c52 ; undefined
 a20:	55545f48 	.inst	0x55545f48 ; undefined
 a24:	4f4d5245 	.inst	0x4f4d5245 ; undefined
 a28:	5f4c5544 	shl	d4, d10, #12
 a2c:	4c525443 	.inst	0x4c525443 ; undefined
 a30:	5f4e5f5f 	.inst	0x5f4e5f5f ; undefined
 a34:	00646c6f 	.inst	0x00646c6f ; undefined
 a38:	445f4846 	umlalb	z6.h, z2.b, z31.b
 a3c:	535f5f55 	.inst	0x535f5f55 ; undefined
 a40:	5f48465f 	.inst	0x5f48465f ; undefined
 a44:	46424d54 	.inst	0x46424d54 ; undefined
 a48:	44465541 	smlslt	z1.h, z10.b, z6.b
 a4c:	00435349 	.inst	0x00435349 ; undefined
 a50:	545f4846 	b.vs	bf358 <__abi_tag-0x340f20>
 a54:	4d524555 	.inst	0x4d524555 ; undefined
 a58:	4c55444f 	.inst	0x4c55444f ; undefined
 a5c:	5f495f5f 	.inst	0x5f495f5f ; undefined
 a60:	5f4e4945 	.inst	0x5f4e4945 ; undefined
 a64:	00646c6f 	.inst	0x00646c6f ; undefined
 a68:	545f4846 	b.vs	bf370 <__abi_tag-0x340f08>
 a6c:	4d524555 	.inst	0x4d524555 ; undefined
 a70:	4c55444f 	.inst	0x4c55444f ; undefined
 a74:	5254435f 	.inst	0x5254435f ; undefined
 a78:	495f5f4c 	.inst	0x495f5f4c ; undefined
 a7c:	5645524e 	.inst	0x5645524e ; undefined
 a80:	32535245 	.inst	0x32535245 ; undefined
 a84:	706f635f 	adr	xzr, df6ef <__abi_tag-0x320b89>
 a88:	4e470079 	.inst	0x4e470079 ; undefined
 a8c:	31432055 	adds	w21, w2, #0xc8, lsl #12
 a90:	30312037 	adr	x23, 62e95 <__abi_tag-0x39d3e3>
 a94:	312e332e 	adds	w14, w25, #0xb8c
 a98:	6c6d2d20 	ldnp	d0, d11, [x9, #-304]
 a9c:	6c747469 	ldnp	d9, d29, [x3, #-192]
 aa0:	6e652d65 	uqsub	v5.8h, v11.8h, v5.8h
 aa4:	6e616964 	fcvtxn2	v4.4s, v11.2d
 aa8:	616d2d20 	.inst	0x616d2d20 ; undefined
 aac:	6c3d6962 	stnp	d2, d26, [x11, #-48]
 ab0:	20343670 	.inst	0x20343670 ; undefined
 ab4:	4600672d 	.inst	0x4600672d ; undefined
 ab8:	55445f48 	.inst	0x55445f48 ; undefined
 abc:	54465f5f 	.inst	0x54465f5f ; undefined
 ac0:	5f484600 	.inst	0x5f484600 ; undefined
 ac4:	52455554 	.inst	0x52455554 ; undefined
 ac8:	55444f4d 	.inst	0x55444f4d ; undefined
 acc:	535f5f4c 	.inst	0x535f5f4c ; undefined
 ad0:	5f414846 	.inst	0x5f414846 ; undefined
 ad4:	0043454d 	.inst	0x0043454d ; undefined
 ad8:	545f4846 	b.vs	bf3e0 <__abi_tag-0x340e98>
 adc:	4d524555 	.inst	0x4d524555 ; undefined
 ae0:	4c55444f 	.inst	0x4c55444f ; undefined
 ae4:	46535f5f 	.inst	0x46535f5f ; undefined
 ae8:	5a5f4148 	.inst	0x5a5f4148 ; undefined
 aec:	52544e45 	.inst	0x52544e45 ; undefined
 af0:	6f5f4c41 	.inst	0x6f5f4c41 ; undefined
 af4:	4600646c 	.inst	0x4600646c ; undefined
 af8:	55545f48 	.inst	0x55545f48 ; undefined
 afc:	4f4d5245 	.inst	0x4f4d5245 ; undefined
 b00:	5f4c5544 	shl	d4, d10, #12
 b04:	534b455f 	.inst	0x534b455f ; undefined
 b08:	49454c5f 	.inst	0x49454c5f ; undefined
 b0c:	5f455453 	shl	d19, d2, #5
 b10:	49544b41 	.inst	0x49544b41 ; undefined
 b14:	48460056 	ldxrh	w22, [x2]
 b18:	4555545f 	ssubwt	z31.h, z2.h, z21.b
 b1c:	444f4d52 	umlalt	z18.h, z10.b, z15.b
 b20:	5f5f4c55 	.inst	0x5f5f4c55 ; undefined
 b24:	5a484653 	.inst	0x5a484653 ; undefined
 b28:	4e455a5f 	uzp2	v31.8h, v18.8h, v5.8h
 b2c:	4c415254 	.inst	0x4c415254 ; undefined
 b30:	746e6900 	.inst	0x746e6900 ; undefined
 b34:	61667265 	.inst	0x61667265 ; undefined
 b38:	46006563 	.inst	0x46006563 ; undefined
 b3c:	55545f48 	.inst	0x55545f48 ; undefined
 b40:	4f4d5245 	.inst	0x4f4d5245 ; undefined
 b44:	5f4c5544 	shl	d4, d10, #12
 b48:	4f4c425f 	.inst	0x4f4c425f ; undefined
 b4c:	74004b43 	.inst	0x74004b43 ; undefined
 b50:	6e655f6d 	uqrshl	v13.8h, v27.8h, v5.8h
 b54:	65726574 	fnmls	z20.h, p1/m, z11.h, z18.h
 b58:	49575f64 	.inst	0x49575f64 ; undefined
 b5c:	52454445 	.inst	0x52454445 ; undefined
 b60:	534c4f48 	.inst	0x534c4f48 ; undefined
 b64:	52524550 	.inst	0x52524550 ; undefined
 b68:	48465f45 	ldxrh	w5, [x26]
 b6c:	4555545f 	ssubwt	z31.h, z2.h, z21.b
 b70:	444f4d52 	umlalt	z18.h, z10.b, z15.b
 b74:	435f4c55 	.inst	0x435f4c55 ; undefined
 b78:	004c5254 	.inst	0x004c5254 ; undefined
 b7c:	465f6373 	.inst	0x465f6373 ; undefined
 b80:	55545f48 	.inst	0x55545f48 ; undefined
 b84:	4f4d5245 	.inst	0x4f4d5245 ; undefined
 b88:	5f4c5544 	shl	d4, d10, #12
 b8c:	4c525443 	.inst	0x4c525443 ; undefined
 b90:	3837315f 	stsetb	w23, [x10]
 b94:	30315f31 	adr	x17, 63779 <__abi_tag-0x39caff>
 b98:	5f484600 	.inst	0x5f484600 ; undefined
 b9c:	52455554 	.inst	0x52455554 ; undefined
 ba0:	55444f4d 	.inst	0x55444f4d ; undefined
 ba4:	4d5f5f4c 	.inst	0x4d5f5f4c ; undefined
 ba8:	00414846 	.inst	0x00414846 ; undefined
 bac:	445f4846 	umlalb	z6.h, z2.b, z31.b
 bb0:	48460055 	ldxrh	w21, [x2]
 bb4:	5f55445f 	.inst	0x5f55445f ; undefined
 bb8:	48464d5f 	ldxrh	wzr, [x10]
 bbc:	地址 0x0000000000000bbc 越界。

