
nsichneu.elf:     file format elf64-littleriscv


Disassembly of section .plt:

00000000000005d0 <.plt>:
 5d0:	0000f397          	auipc	t2,0xf
 5d4:	41c30333          	sub	t1,t1,t3
 5d8:	a403be03          	ld	t3,-1472(t2) # f010 <__TMC_END__>
 5dc:	fd430313          	addi	t1,t1,-44
 5e0:	a4038293          	addi	t0,t2,-1472
 5e4:	00135313          	srli	t1,t1,0x1
 5e8:	0082b283          	ld	t0,8(t0)
 5ec:	000e0067          	jr	t3

00000000000005f0 <__libc_start_main@plt>:
 5f0:	0000fe17          	auipc	t3,0xf
 5f4:	a30e3e03          	ld	t3,-1488(t3) # f020 <__libc_start_main@GLIBC_2.27>
 5f8:	000e0367          	jalr	t1,t3
 5fc:	00000013          	nop

Disassembly of section .text:

0000000000000600 <_start>:
     600:	02e000ef          	jal	ra,62e <load_gp>
     604:	87aa                	mv	a5,a0
     606:	0000f517          	auipc	a0,0xf
     60a:	a3a53503          	ld	a0,-1478(a0) # f040 <_GLOBAL_OFFSET_TABLE_+0x18>
     60e:	6582                	ld	a1,0(sp)
     610:	0030                	addi	a2,sp,8
     612:	ff017113          	andi	sp,sp,-16
     616:	0000d697          	auipc	a3,0xd
     61a:	5ce68693          	addi	a3,a3,1486 # dbe4 <__libc_csu_init>
     61e:	0000d717          	auipc	a4,0xd
     622:	61e70713          	addi	a4,a4,1566 # dc3c <__libc_csu_fini>
     626:	880a                	mv	a6,sp
     628:	fc9ff0ef          	jal	ra,5f0 <__libc_start_main@plt>
     62c:	9002                	ebreak

000000000000062e <load_gp>:
     62e:	0000f197          	auipc	gp,0xf
     632:	1d218193          	addi	gp,gp,466 # f800 <__global_pointer$>
     636:	8082                	ret
	...

000000000000063a <deregister_tm_clones>:
     63a:	0000f517          	auipc	a0,0xf
     63e:	9d650513          	addi	a0,a0,-1578 # f010 <__TMC_END__>
     642:	0000f797          	auipc	a5,0xf
     646:	9ce78793          	addi	a5,a5,-1586 # f010 <__TMC_END__>
     64a:	00a78963          	beq	a5,a0,65c <deregister_tm_clones+0x22>
     64e:	0000f317          	auipc	t1,0xf
     652:	9e233303          	ld	t1,-1566(t1) # f030 <_ITM_deregisterTMCloneTable>
     656:	00030363          	beqz	t1,65c <deregister_tm_clones+0x22>
     65a:	8302                	jr	t1
     65c:	8082                	ret

000000000000065e <register_tm_clones>:
     65e:	0000f517          	auipc	a0,0xf
     662:	9b250513          	addi	a0,a0,-1614 # f010 <__TMC_END__>
     666:	0000f797          	auipc	a5,0xf
     66a:	9aa78793          	addi	a5,a5,-1622 # f010 <__TMC_END__>
     66e:	8f89                	sub	a5,a5,a0
     670:	4037d713          	srai	a4,a5,0x3
     674:	03f7d593          	srli	a1,a5,0x3f
     678:	95ba                	add	a1,a1,a4
     67a:	8585                	srai	a1,a1,0x1
     67c:	c981                	beqz	a1,68c <register_tm_clones+0x2e>
     67e:	0000f317          	auipc	t1,0xf
     682:	9da33303          	ld	t1,-1574(t1) # f058 <_ITM_registerTMCloneTable>
     686:	00030363          	beqz	t1,68c <register_tm_clones+0x2e>
     68a:	8302                	jr	t1
     68c:	8082                	ret

000000000000068e <__do_global_dtors_aux>:
     68e:	1141                	addi	sp,sp,-16
     690:	e022                	sd	s0,0(sp)
     692:	0000f417          	auipc	s0,0xf
     696:	9de40413          	addi	s0,s0,-1570 # f070 <completed.6761>
     69a:	00044783          	lbu	a5,0(s0)
     69e:	e406                	sd	ra,8(sp)
     6a0:	e385                	bnez	a5,6c0 <__do_global_dtors_aux+0x32>
     6a2:	0000f797          	auipc	a5,0xf
     6a6:	9a67b783          	ld	a5,-1626(a5) # f048 <__cxa_finalize@GLIBC_2.27>
     6aa:	c791                	beqz	a5,6b6 <__do_global_dtors_aux+0x28>
     6ac:	0000f517          	auipc	a0,0xf
     6b0:	95453503          	ld	a0,-1708(a0) # f000 <__dso_handle>
     6b4:	9782                	jalr	a5
     6b6:	f85ff0ef          	jal	ra,63a <deregister_tm_clones>
     6ba:	4785                	li	a5,1
     6bc:	00f40023          	sb	a5,0(s0)
     6c0:	60a2                	ld	ra,8(sp)
     6c2:	6402                	ld	s0,0(sp)
     6c4:	0141                	addi	sp,sp,16
     6c6:	8082                	ret

00000000000006c8 <frame_dummy>:
     6c8:	bf59                	j	65e <register_tm_clones>
	...

00000000000006cc <main>:
     6cc:	81010113          	addi	sp,sp,-2032
     6d0:	7e813423          	sd	s0,2024(sp)
     6d4:	7f010413          	addi	s0,sp,2032
     6d8:	c0010113          	addi	sp,sp,-1024
     6dc:	fffff7b7          	lui	a5,0xfffff
     6e0:	ff040713          	addi	a4,s0,-16
     6e4:	00f707b3          	add	a5,a4,a5
     6e8:	00200713          	li	a4,2
     6ec:	42e7a623          	sw	a4,1068(a5) # fffffffffffff42c <__global_pointer$+0xfffffffffffefc2c>
     6f0:	4a00d06f          	j	db90 <main+0xd4c4>
     6f4:	fffff7b7          	lui	a5,0xfffff
     6f8:	ff040713          	addi	a4,s0,-16
     6fc:	00f707b3          	add	a5,a4,a5
     700:	fffff737          	lui	a4,0xfffff
     704:	ff040693          	addi	a3,s0,-16
     708:	00e68733          	add	a4,a3,a4
     70c:	42c72703          	lw	a4,1068(a4) # fffffffffffff42c <__global_pointer$+0xfffffffffffefc2c>
     710:	fff7071b          	addiw	a4,a4,-1
     714:	42e7a623          	sw	a4,1068(a5) # fffffffffffff42c <__global_pointer$+0xfffffffffffefc2c>
     718:	0000f797          	auipc	a5,0xf
     71c:	8f078793          	addi	a5,a5,-1808 # f008 <P1_is_marked>
     720:	0007a783          	lw	a5,0(a5)
     724:	0007879b          	sext.w	a5,a5
     728:	00078713          	mv	a4,a5
     72c:	00200793          	li	a5,2
     730:	1ce7d063          	bge	a5,a4,8f0 <main+0x224>
     734:	0000f797          	auipc	a5,0xf
     738:	94078793          	addi	a5,a5,-1728 # f074 <P3_is_marked>
     73c:	0007a783          	lw	a5,0(a5)
     740:	0007879b          	sext.w	a5,a5
     744:	00078713          	mv	a4,a5
     748:	00300793          	li	a5,3
     74c:	1ae7c263          	blt	a5,a4,8f0 <main+0x224>
     750:	0000f797          	auipc	a5,0xf
     754:	9107b783          	ld	a5,-1776(a5) # f060 <_GLOBAL_OFFSET_TABLE_+0x38>
     758:	0087b703          	ld	a4,8(a5)
     75c:	0000f797          	auipc	a5,0xf
     760:	9047b783          	ld	a5,-1788(a5) # f060 <_GLOBAL_OFFSET_TABLE_+0x38>
     764:	0107b783          	ld	a5,16(a5)
     768:	18f71463          	bne	a4,a5,8f0 <main+0x224>
     76c:	fffff7b7          	lui	a5,0xfffff
     770:	ff040713          	addi	a4,s0,-16
     774:	00f707b3          	add	a5,a4,a5
     778:	0000f717          	auipc	a4,0xf
     77c:	8e873703          	ld	a4,-1816(a4) # f060 <_GLOBAL_OFFSET_TABLE_+0x38>
     780:	00073703          	ld	a4,0(a4)
     784:	42e7b823          	sd	a4,1072(a5) # fffffffffffff430 <__global_pointer$+0xfffffffffffefc30>
     788:	fffff7b7          	lui	a5,0xfffff
     78c:	ff040713          	addi	a4,s0,-16
     790:	00f707b3          	add	a5,a4,a5
     794:	0000f717          	auipc	a4,0xf
     798:	8cc73703          	ld	a4,-1844(a4) # f060 <_GLOBAL_OFFSET_TABLE_+0x38>
     79c:	00873703          	ld	a4,8(a4)
     7a0:	42e7bc23          	sd	a4,1080(a5) # fffffffffffff438 <__global_pointer$+0xfffffffffffefc38>
     7a4:	fffff7b7          	lui	a5,0xfffff
     7a8:	ff040713          	addi	a4,s0,-16
     7ac:	00f70733          	add	a4,a4,a5
     7b0:	fffff7b7          	lui	a5,0xfffff
     7b4:	ff040693          	addi	a3,s0,-16
     7b8:	00f687b3          	add	a5,a3,a5
     7bc:	43073703          	ld	a4,1072(a4)
     7c0:	4387b783          	ld	a5,1080(a5) # fffffffffffff438 <__global_pointer$+0xfffffffffffefc38>
     7c4:	12f75663          	bge	a4,a5,8f0 <main+0x224>
     7c8:	0000f797          	auipc	a5,0xf
     7cc:	84078793          	addi	a5,a5,-1984 # f008 <P1_is_marked>
     7d0:	0007a783          	lw	a5,0(a5)
     7d4:	0007879b          	sext.w	a5,a5
     7d8:	ffd7879b          	addiw	a5,a5,-3
     7dc:	0007871b          	sext.w	a4,a5
     7e0:	0000f797          	auipc	a5,0xf
     7e4:	82878793          	addi	a5,a5,-2008 # f008 <P1_is_marked>
     7e8:	00e7a023          	sw	a4,0(a5)
     7ec:	fffff7b7          	lui	a5,0xfffff
     7f0:	ff040713          	addi	a4,s0,-16
     7f4:	00f707b3          	add	a5,a4,a5
     7f8:	fffff737          	lui	a4,0xfffff
     7fc:	ff040693          	addi	a3,s0,-16
     800:	00e686b3          	add	a3,a3,a4
     804:	fffff737          	lui	a4,0xfffff
     808:	ff040613          	addi	a2,s0,-16
     80c:	00e60733          	add	a4,a2,a4
     810:	4306b683          	ld	a3,1072(a3)
     814:	43873703          	ld	a4,1080(a4) # fffffffffffff438 <__global_pointer$+0xfffffffffffefc38>
     818:	40e68733          	sub	a4,a3,a4
     81c:	44e7b023          	sd	a4,1088(a5) # fffffffffffff440 <__global_pointer$+0xfffffffffffefc40>
     820:	0000f797          	auipc	a5,0xf
     824:	85478793          	addi	a5,a5,-1964 # f074 <P3_is_marked>
     828:	0007a783          	lw	a5,0(a5)
     82c:	0007879b          	sext.w	a5,a5
     830:	0000f717          	auipc	a4,0xf
     834:	80873703          	ld	a4,-2040(a4) # f038 <_GLOBAL_OFFSET_TABLE_+0x10>
     838:	00379793          	slli	a5,a5,0x3
     83c:	00f707b3          	add	a5,a4,a5
     840:	fffff737          	lui	a4,0xfffff
     844:	ff040693          	addi	a3,s0,-16
     848:	00e68733          	add	a4,a3,a4
     84c:	43073703          	ld	a4,1072(a4) # fffffffffffff430 <__global_pointer$+0xfffffffffffefc30>
     850:	00e7b023          	sd	a4,0(a5)
     854:	0000f797          	auipc	a5,0xf
     858:	82078793          	addi	a5,a5,-2016 # f074 <P3_is_marked>
     85c:	0007a783          	lw	a5,0(a5)
     860:	0007879b          	sext.w	a5,a5
     864:	0017879b          	addiw	a5,a5,1
     868:	0007879b          	sext.w	a5,a5
     86c:	0000e717          	auipc	a4,0xe
     870:	7cc73703          	ld	a4,1996(a4) # f038 <_GLOBAL_OFFSET_TABLE_+0x10>
     874:	00379793          	slli	a5,a5,0x3
     878:	00f707b3          	add	a5,a4,a5
     87c:	fffff737          	lui	a4,0xfffff
     880:	ff040693          	addi	a3,s0,-16
     884:	00e68733          	add	a4,a3,a4
     888:	43873703          	ld	a4,1080(a4) # fffffffffffff438 <__global_pointer$+0xfffffffffffefc38>
     88c:	00e7b023          	sd	a4,0(a5)
     890:	0000e797          	auipc	a5,0xe
     894:	7e478793          	addi	a5,a5,2020 # f074 <P3_is_marked>
     898:	0007a783          	lw	a5,0(a5)
     89c:	0007879b          	sext.w	a5,a5
     8a0:	0027879b          	addiw	a5,a5,2
     8a4:	0007879b          	sext.w	a5,a5
     8a8:	0000e717          	auipc	a4,0xe
     8ac:	79073703          	ld	a4,1936(a4) # f038 <_GLOBAL_OFFSET_TABLE_+0x10>
     8b0:	00379793          	slli	a5,a5,0x3
     8b4:	00f707b3          	add	a5,a4,a5
     8b8:	fffff737          	lui	a4,0xfffff
     8bc:	ff040693          	addi	a3,s0,-16
     8c0:	00e68733          	add	a4,a3,a4
     8c4:	44073703          	ld	a4,1088(a4) # fffffffffffff440 <__global_pointer$+0xfffffffffffefc40>
     8c8:	00e7b023          	sd	a4,0(a5)
     8cc:	0000e797          	auipc	a5,0xe
     8d0:	7a878793          	addi	a5,a5,1960 # f074 <P3_is_marked>
     8d4:	0007a783          	lw	a5,0(a5)
     8d8:	0007879b          	sext.w	a5,a5
     8dc:	0037879b          	addiw	a5,a5,3
     8e0:	0007871b          	sext.w	a4,a5
     8e4:	0000e797          	auipc	a5,0xe
     8e8:	79078793          	addi	a5,a5,1936 # f074 <P3_is_marked>
     8ec:	00e7a023          	sw	a4,0(a5)
     8f0:	0000e797          	auipc	a5,0xe
     8f4:	71878793          	addi	a5,a5,1816 # f008 <P1_is_marked>
     8f8:	0007a783          	lw	a5,0(a5)
     8fc:	0007879b          	sext.w	a5,a5
     900:	00078713          	mv	a4,a5
     904:	00200793          	li	a5,2
     908:	1ce7d063          	bge	a5,a4,ac8 <main+0x3fc>
     90c:	0000e797          	auipc	a5,0xe
     910:	76878793          	addi	a5,a5,1896 # f074 <P3_is_marked>
     914:	0007a783          	lw	a5,0(a5)
     918:	0007879b          	sext.w	a5,a5
     91c:	00078713          	mv	a4,a5
     920:	00300793          	li	a5,3
     924:	1ae7c263          	blt	a5,a4,ac8 <main+0x3fc>
     928:	0000e797          	auipc	a5,0xe
     92c:	7387b783          	ld	a5,1848(a5) # f060 <_GLOBAL_OFFSET_TABLE_+0x38>
     930:	0107b703          	ld	a4,16(a5)
     934:	0000e797          	auipc	a5,0xe
     938:	72c7b783          	ld	a5,1836(a5) # f060 <_GLOBAL_OFFSET_TABLE_+0x38>
     93c:	0087b783          	ld	a5,8(a5)
     940:	18f71463          	bne	a4,a5,ac8 <main+0x3fc>
     944:	fffff7b7          	lui	a5,0xfffff
     948:	ff040713          	addi	a4,s0,-16
     94c:	00f707b3          	add	a5,a4,a5
     950:	0000e717          	auipc	a4,0xe
     954:	71073703          	ld	a4,1808(a4) # f060 <_GLOBAL_OFFSET_TABLE_+0x38>
     958:	00073703          	ld	a4,0(a4)
     95c:	44e7b423          	sd	a4,1096(a5) # fffffffffffff448 <__global_pointer$+0xfffffffffffefc48>
     960:	fffff7b7          	lui	a5,0xfffff
     964:	ff040713          	addi	a4,s0,-16
     968:	00f707b3          	add	a5,a4,a5
     96c:	0000e717          	auipc	a4,0xe
     970:	6f473703          	ld	a4,1780(a4) # f060 <_GLOBAL_OFFSET_TABLE_+0x38>
     974:	01073703          	ld	a4,16(a4)
     978:	44e7b823          	sd	a4,1104(a5) # fffffffffffff450 <__global_pointer$+0xfffffffffffefc50>
     97c:	fffff7b7          	lui	a5,0xfffff
     980:	ff040713          	addi	a4,s0,-16
     984:	00f70733          	add	a4,a4,a5
     988:	fffff7b7          	lui	a5,0xfffff
     98c:	ff040693          	addi	a3,s0,-16
     990:	00f687b3          	add	a5,a3,a5
     994:	44873703          	ld	a4,1096(a4)
     998:	4507b783          	ld	a5,1104(a5) # fffffffffffff450 <__global_pointer$+0xfffffffffffefc50>
     99c:	12f75663          	bge	a4,a5,ac8 <main+0x3fc>
     9a0:	0000e797          	auipc	a5,0xe
     9a4:	66878793          	addi	a5,a5,1640 # f008 <P1_is_marked>
     9a8:	0007a783          	lw	a5,0(a5)
     9ac:	0007879b          	sext.w	a5,a5
     9b0:	ffd7879b          	addiw	a5,a5,-3
     9b4:	0007871b          	sext.w	a4,a5
     9b8:	0000e797          	auipc	a5,0xe
     9bc:	65078793          	addi	a5,a5,1616 # f008 <P1_is_marked>
     9c0:	00e7a023          	sw	a4,0(a5)
     9c4:	fffff7b7          	lui	a5,0xfffff
     9c8:	ff040713          	addi	a4,s0,-16
     9cc:	00f707b3          	add	a5,a4,a5
     9d0:	fffff737          	lui	a4,0xfffff
     9d4:	ff040693          	addi	a3,s0,-16
     9d8:	00e686b3          	add	a3,a3,a4
     9dc:	fffff737          	lui	a4,0xfffff
     9e0:	ff040613          	addi	a2,s0,-16
     9e4:	00e60733          	add	a4,a2,a4
     9e8:	4486b683          	ld	a3,1096(a3)
     9ec:	45073703          	ld	a4,1104(a4) # fffffffffffff450 <__global_pointer$+0xfffffffffffefc50>
     9f0:	40e68733          	sub	a4,a3,a4
     9f4:	44e7bc23          	sd	a4,1112(a5) # fffffffffffff458 <__global_pointer$+0xfffffffffffefc58>
     9f8:	0000e797          	auipc	a5,0xe
     9fc:	67c78793          	addi	a5,a5,1660 # f074 <P3_is_marked>
     a00:	0007a783          	lw	a5,0(a5)
     a04:	0007879b          	sext.w	a5,a5
     a08:	0000e717          	auipc	a4,0xe
     a0c:	63073703          	ld	a4,1584(a4) # f038 <_GLOBAL_OFFSET_TABLE_+0x10>
     a10:	00379793          	slli	a5,a5,0x3
     a14:	00f707b3          	add	a5,a4,a5
     a18:	fffff737          	lui	a4,0xfffff
     a1c:	ff040693          	addi	a3,s0,-16
     a20:	00e68733          	add	a4,a3,a4
     a24:	44873703          	ld	a4,1096(a4) # fffffffffffff448 <__global_pointer$+0xfffffffffffefc48>
     a28:	00e7b023          	sd	a4,0(a5)
     a2c:	0000e797          	auipc	a5,0xe
     a30:	64878793          	addi	a5,a5,1608 # f074 <P3_is_marked>
     a34:	0007a783          	lw	a5,0(a5)
     a38:	0007879b          	sext.w	a5,a5
     a3c:	0017879b          	addiw	a5,a5,1
     a40:	0007879b          	sext.w	a5,a5
     a44:	0000e717          	auipc	a4,0xe
     a48:	5f473703          	ld	a4,1524(a4) # f038 <_GLOBAL_OFFSET_TABLE_+0x10>
     a4c:	00379793          	slli	a5,a5,0x3
     a50:	00f707b3          	add	a5,a4,a5
     a54:	fffff737          	lui	a4,0xfffff
     a58:	ff040693          	addi	a3,s0,-16
     a5c:	00e68733          	add	a4,a3,a4
     a60:	45073703          	ld	a4,1104(a4) # fffffffffffff450 <__global_pointer$+0xfffffffffffefc50>
     a64:	00e7b023          	sd	a4,0(a5)
     a68:	0000e797          	auipc	a5,0xe
     a6c:	60c78793          	addi	a5,a5,1548 # f074 <P3_is_marked>
     a70:	0007a783          	lw	a5,0(a5)
     a74:	0007879b          	sext.w	a5,a5
     a78:	0027879b          	addiw	a5,a5,2
     a7c:	0007879b          	sext.w	a5,a5
     a80:	0000e717          	auipc	a4,0xe
     a84:	5b873703          	ld	a4,1464(a4) # f038 <_GLOBAL_OFFSET_TABLE_+0x10>
     a88:	00379793          	slli	a5,a5,0x3
     a8c:	00f707b3          	add	a5,a4,a5
     a90:	fffff737          	lui	a4,0xfffff
     a94:	ff040693          	addi	a3,s0,-16
     a98:	00e68733          	add	a4,a3,a4
     a9c:	45873703          	ld	a4,1112(a4) # fffffffffffff458 <__global_pointer$+0xfffffffffffefc58>
     aa0:	00e7b023          	sd	a4,0(a5)
     aa4:	0000e797          	auipc	a5,0xe
     aa8:	5d078793          	addi	a5,a5,1488 # f074 <P3_is_marked>
     aac:	0007a783          	lw	a5,0(a5)
     ab0:	0007879b          	sext.w	a5,a5
     ab4:	0037879b          	addiw	a5,a5,3
     ab8:	0007871b          	sext.w	a4,a5
     abc:	0000e797          	auipc	a5,0xe
     ac0:	5b878793          	addi	a5,a5,1464 # f074 <P3_is_marked>
     ac4:	00e7a023          	sw	a4,0(a5)
     ac8:	0000e797          	auipc	a5,0xe
     acc:	54078793          	addi	a5,a5,1344 # f008 <P1_is_marked>
     ad0:	0007a783          	lw	a5,0(a5)
     ad4:	0007879b          	sext.w	a5,a5
     ad8:	00078713          	mv	a4,a5
     adc:	00200793          	li	a5,2
     ae0:	1ce7d063          	bge	a5,a4,ca0 <main+0x5d4>
     ae4:	0000e797          	auipc	a5,0xe
     ae8:	59078793          	addi	a5,a5,1424 # f074 <P3_is_marked>
     aec:	0007a783          	lw	a5,0(a5)
     af0:	0007879b          	sext.w	a5,a5
     af4:	00078713          	mv	a4,a5
     af8:	00300793          	li	a5,3
     afc:	1ae7c263          	blt	a5,a4,ca0 <main+0x5d4>
     b00:	0000e797          	auipc	a5,0xe
     b04:	5607b783          	ld	a5,1376(a5) # f060 <_GLOBAL_OFFSET_TABLE_+0x38>
     b08:	0007b703          	ld	a4,0(a5)
     b0c:	0000e797          	auipc	a5,0xe
     b10:	5547b783          	ld	a5,1364(a5) # f060 <_GLOBAL_OFFSET_TABLE_+0x38>
     b14:	0107b783          	ld	a5,16(a5)
     b18:	18f71463          	bne	a4,a5,ca0 <main+0x5d4>
     b1c:	fffff7b7          	lui	a5,0xfffff
     b20:	ff040713          	addi	a4,s0,-16
     b24:	00f707b3          	add	a5,a4,a5
     b28:	0000e717          	auipc	a4,0xe
     b2c:	53873703          	ld	a4,1336(a4) # f060 <_GLOBAL_OFFSET_TABLE_+0x38>
     b30:	00873703          	ld	a4,8(a4)
     b34:	46e7b023          	sd	a4,1120(a5) # fffffffffffff460 <__global_pointer$+0xfffffffffffefc60>
     b38:	fffff7b7          	lui	a5,0xfffff
     b3c:	ff040713          	addi	a4,s0,-16
     b40:	00f707b3          	add	a5,a4,a5
     b44:	0000e717          	auipc	a4,0xe
     b48:	51c73703          	ld	a4,1308(a4) # f060 <_GLOBAL_OFFSET_TABLE_+0x38>
     b4c:	00073703          	ld	a4,0(a4)
     b50:	46e7b423          	sd	a4,1128(a5) # fffffffffffff468 <__global_pointer$+0xfffffffffffefc68>
     b54:	fffff7b7          	lui	a5,0xfffff
     b58:	ff040713          	addi	a4,s0,-16
     b5c:	00f70733          	add	a4,a4,a5
     b60:	fffff7b7          	lui	a5,0xfffff
     b64:	ff040693          	addi	a3,s0,-16
     b68:	00f687b3          	add	a5,a3,a5
     b6c:	46073703          	ld	a4,1120(a4)
     b70:	4687b783          	ld	a5,1128(a5) # fffffffffffff468 <__global_pointer$+0xfffffffffffefc68>
     b74:	12f75663          	bge	a4,a5,ca0 <main+0x5d4>
     b78:	0000e797          	auipc	a5,0xe
     b7c:	49078793          	addi	a5,a5,1168 # f008 <P1_is_marked>
     b80:	0007a783          	lw	a5,0(a5)
     b84:	0007879b          	sext.w	a5,a5
     b88:	ffd7879b          	addiw	a5,a5,-3
     b8c:	0007871b          	sext.w	a4,a5
     b90:	0000e797          	auipc	a5,0xe
     b94:	47878793          	addi	a5,a5,1144 # f008 <P1_is_marked>
     b98:	00e7a023          	sw	a4,0(a5)
     b9c:	fffff7b7          	lui	a5,0xfffff
     ba0:	ff040713          	addi	a4,s0,-16
     ba4:	00f707b3          	add	a5,a4,a5
     ba8:	fffff737          	lui	a4,0xfffff
     bac:	ff040693          	addi	a3,s0,-16
     bb0:	00e686b3          	add	a3,a3,a4
     bb4:	fffff737          	lui	a4,0xfffff
     bb8:	ff040613          	addi	a2,s0,-16
     bbc:	00e60733          	add	a4,a2,a4
     bc0:	4606b683          	ld	a3,1120(a3)
     bc4:	46873703          	ld	a4,1128(a4) # fffffffffffff468 <__global_pointer$+0xfffffffffffefc68>
     bc8:	40e68733          	sub	a4,a3,a4
     bcc:	46e7b823          	sd	a4,1136(a5) # fffffffffffff470 <__global_pointer$+0xfffffffffffefc70>
     bd0:	0000e797          	auipc	a5,0xe
     bd4:	4a478793          	addi	a5,a5,1188 # f074 <P3_is_marked>
     bd8:	0007a783          	lw	a5,0(a5)
     bdc:	0007879b          	sext.w	a5,a5
     be0:	0000e717          	auipc	a4,0xe
     be4:	45873703          	ld	a4,1112(a4) # f038 <_GLOBAL_OFFSET_TABLE_+0x10>
     be8:	00379793          	slli	a5,a5,0x3
     bec:	00f707b3          	add	a5,a4,a5
     bf0:	fffff737          	lui	a4,0xfffff
     bf4:	ff040693          	addi	a3,s0,-16
     bf8:	00e68733          	add	a4,a3,a4
     bfc:	46073703          	ld	a4,1120(a4) # fffffffffffff460 <__global_pointer$+0xfffffffffffefc60>
     c00:	00e7b023          	sd	a4,0(a5)
     c04:	0000e797          	auipc	a5,0xe
     c08:	47078793          	addi	a5,a5,1136 # f074 <P3_is_marked>
     c0c:	0007a783          	lw	a5,0(a5)
     c10:	0007879b          	sext.w	a5,a5
     c14:	0017879b          	addiw	a5,a5,1
     c18:	0007879b          	sext.w	a5,a5
     c1c:	0000e717          	auipc	a4,0xe
     c20:	41c73703          	ld	a4,1052(a4) # f038 <_GLOBAL_OFFSET_TABLE_+0x10>
     c24:	00379793          	slli	a5,a5,0x3
     c28:	00f707b3          	add	a5,a4,a5
     c2c:	fffff737          	lui	a4,0xfffff
     c30:	ff040693          	addi	a3,s0,-16
     c34:	00e68733          	add	a4,a3,a4
     c38:	46873703          	ld	a4,1128(a4) # fffffffffffff468 <__global_pointer$+0xfffffffffffefc68>
     c3c:	00e7b023          	sd	a4,0(a5)
     c40:	0000e797          	auipc	a5,0xe
     c44:	43478793          	addi	a5,a5,1076 # f074 <P3_is_marked>
     c48:	0007a783          	lw	a5,0(a5)
     c4c:	0007879b          	sext.w	a5,a5
     c50:	0027879b          	addiw	a5,a5,2
     c54:	0007879b          	sext.w	a5,a5
     c58:	0000e717          	auipc	a4,0xe
     c5c:	3e073703          	ld	a4,992(a4) # f038 <_GLOBAL_OFFSET_TABLE_+0x10>
     c60:	00379793          	slli	a5,a5,0x3
     c64:	00f707b3          	add	a5,a4,a5
     c68:	fffff737          	lui	a4,0xfffff
     c6c:	ff040693          	addi	a3,s0,-16
     c70:	00e68733          	add	a4,a3,a4
     c74:	47073703          	ld	a4,1136(a4) # fffffffffffff470 <__global_pointer$+0xfffffffffffefc70>
     c78:	00e7b023          	sd	a4,0(a5)
     c7c:	0000e797          	auipc	a5,0xe
     c80:	3f878793          	addi	a5,a5,1016 # f074 <P3_is_marked>
     c84:	0007a783          	lw	a5,0(a5)
     c88:	0007879b          	sext.w	a5,a5
     c8c:	0037879b          	addiw	a5,a5,3
     c90:	0007871b          	sext.w	a4,a5
     c94:	0000e797          	auipc	a5,0xe
     c98:	3e078793          	addi	a5,a5,992 # f074 <P3_is_marked>
     c9c:	00e7a023          	sw	a4,0(a5)
     ca0:	0000e797          	auipc	a5,0xe
     ca4:	36878793          	addi	a5,a5,872 # f008 <P1_is_marked>
     ca8:	0007a783          	lw	a5,0(a5)
     cac:	0007879b          	sext.w	a5,a5
     cb0:	00078713          	mv	a4,a5
     cb4:	00200793          	li	a5,2
     cb8:	1ce7d063          	bge	a5,a4,e78 <main+0x7ac>
     cbc:	0000e797          	auipc	a5,0xe
     cc0:	3b878793          	addi	a5,a5,952 # f074 <P3_is_marked>
     cc4:	0007a783          	lw	a5,0(a5)
     cc8:	0007879b          	sext.w	a5,a5
     ccc:	00078713          	mv	a4,a5
     cd0:	00300793          	li	a5,3
     cd4:	1ae7c263          	blt	a5,a4,e78 <main+0x7ac>
     cd8:	0000e797          	auipc	a5,0xe
     cdc:	3887b783          	ld	a5,904(a5) # f060 <_GLOBAL_OFFSET_TABLE_+0x38>
     ce0:	0107b703          	ld	a4,16(a5)
     ce4:	0000e797          	auipc	a5,0xe
     ce8:	37c7b783          	ld	a5,892(a5) # f060 <_GLOBAL_OFFSET_TABLE_+0x38>
     cec:	0007b783          	ld	a5,0(a5)
     cf0:	18f71463          	bne	a4,a5,e78 <main+0x7ac>
     cf4:	fffff7b7          	lui	a5,0xfffff
     cf8:	ff040713          	addi	a4,s0,-16
     cfc:	00f707b3          	add	a5,a4,a5
     d00:	0000e717          	auipc	a4,0xe
     d04:	36073703          	ld	a4,864(a4) # f060 <_GLOBAL_OFFSET_TABLE_+0x38>
     d08:	00873703          	ld	a4,8(a4)
     d0c:	46e7bc23          	sd	a4,1144(a5) # fffffffffffff478 <__global_pointer$+0xfffffffffffefc78>
     d10:	fffff7b7          	lui	a5,0xfffff
     d14:	ff040713          	addi	a4,s0,-16
     d18:	00f707b3          	add	a5,a4,a5
     d1c:	0000e717          	auipc	a4,0xe
     d20:	34473703          	ld	a4,836(a4) # f060 <_GLOBAL_OFFSET_TABLE_+0x38>
     d24:	01073703          	ld	a4,16(a4)
     d28:	48e7b023          	sd	a4,1152(a5) # fffffffffffff480 <__global_pointer$+0xfffffffffffefc80>
     d2c:	fffff7b7          	lui	a5,0xfffff
     d30:	ff040713          	addi	a4,s0,-16
     d34:	00f70733          	add	a4,a4,a5
     d38:	fffff7b7          	lui	a5,0xfffff
     d3c:	ff040693          	addi	a3,s0,-16
     d40:	00f687b3          	add	a5,a3,a5
     d44:	47873703          	ld	a4,1144(a4)
     d48:	4807b783          	ld	a5,1152(a5) # fffffffffffff480 <__global_pointer$+0xfffffffffffefc80>
     d4c:	12f75663          	bge	a4,a5,e78 <main+0x7ac>
     d50:	0000e797          	auipc	a5,0xe
     d54:	2b878793          	addi	a5,a5,696 # f008 <P1_is_marked>
     d58:	0007a783          	lw	a5,0(a5)
     d5c:	0007879b          	sext.w	a5,a5
     d60:	ffd7879b          	addiw	a5,a5,-3
     d64:	0007871b          	sext.w	a4,a5
     d68:	0000e797          	auipc	a5,0xe
     d6c:	2a078793          	addi	a5,a5,672 # f008 <P1_is_marked>
     d70:	00e7a023          	sw	a4,0(a5)
     d74:	fffff7b7          	lui	a5,0xfffff
     d78:	ff040713          	addi	a4,s0,-16
     d7c:	00f707b3          	add	a5,a4,a5
     d80:	fffff737          	lui	a4,0xfffff
     d84:	ff040693          	addi	a3,s0,-16
     d88:	00e686b3          	add	a3,a3,a4
     d8c:	fffff737          	lui	a4,0xfffff
     d90:	ff040613          	addi	a2,s0,-16
     d94:	00e60733          	add	a4,a2,a4
     d98:	4786b683          	ld	a3,1144(a3)
     d9c:	48073703          	ld	a4,1152(a4) # fffffffffffff480 <__global_pointer$+0xfffffffffffefc80>
     da0:	40e68733          	sub	a4,a3,a4
     da4:	48e7b423          	sd	a4,1160(a5) # fffffffffffff488 <__global_pointer$+0xfffffffffffefc88>
     da8:	0000e797          	auipc	a5,0xe
     dac:	2cc78793          	addi	a5,a5,716 # f074 <P3_is_marked>
     db0:	0007a783          	lw	a5,0(a5)
     db4:	0007879b          	sext.w	a5,a5
     db8:	0000e717          	auipc	a4,0xe
     dbc:	28073703          	ld	a4,640(a4) # f038 <_GLOBAL_OFFSET_TABLE_+0x10>
     dc0:	00379793          	slli	a5,a5,0x3
     dc4:	00f707b3          	add	a5,a4,a5
     dc8:	fffff737          	lui	a4,0xfffff
     dcc:	ff040693          	addi	a3,s0,-16
     dd0:	00e68733          	add	a4,a3,a4
     dd4:	47873703          	ld	a4,1144(a4) # fffffffffffff478 <__global_pointer$+0xfffffffffffefc78>
     dd8:	00e7b023          	sd	a4,0(a5)
     ddc:	0000e797          	auipc	a5,0xe
     de0:	29878793          	addi	a5,a5,664 # f074 <P3_is_marked>
     de4:	0007a783          	lw	a5,0(a5)
     de8:	0007879b          	sext.w	a5,a5
     dec:	0017879b          	addiw	a5,a5,1
     df0:	0007879b          	sext.w	a5,a5
     df4:	0000e717          	auipc	a4,0xe
     df8:	24473703          	ld	a4,580(a4) # f038 <_GLOBAL_OFFSET_TABLE_+0x10>
     dfc:	00379793          	slli	a5,a5,0x3
     e00:	00f707b3          	add	a5,a4,a5
     e04:	fffff737          	lui	a4,0xfffff
     e08:	ff040693          	addi	a3,s0,-16
     e0c:	00e68733          	add	a4,a3,a4
     e10:	48073703          	ld	a4,1152(a4) # fffffffffffff480 <__global_pointer$+0xfffffffffffefc80>
     e14:	00e7b023          	sd	a4,0(a5)
     e18:	0000e797          	auipc	a5,0xe
     e1c:	25c78793          	addi	a5,a5,604 # f074 <P3_is_marked>
     e20:	0007a783          	lw	a5,0(a5)
     e24:	0007879b          	sext.w	a5,a5
     e28:	0027879b          	addiw	a5,a5,2
     e2c:	0007879b          	sext.w	a5,a5
     e30:	0000e717          	auipc	a4,0xe
     e34:	20873703          	ld	a4,520(a4) # f038 <_GLOBAL_OFFSET_TABLE_+0x10>
     e38:	00379793          	slli	a5,a5,0x3
     e3c:	00f707b3          	add	a5,a4,a5
     e40:	fffff737          	lui	a4,0xfffff
     e44:	ff040693          	addi	a3,s0,-16
     e48:	00e68733          	add	a4,a3,a4
     e4c:	48873703          	ld	a4,1160(a4) # fffffffffffff488 <__global_pointer$+0xfffffffffffefc88>
     e50:	00e7b023          	sd	a4,0(a5)
     e54:	0000e797          	auipc	a5,0xe
     e58:	22078793          	addi	a5,a5,544 # f074 <P3_is_marked>
     e5c:	0007a783          	lw	a5,0(a5)
     e60:	0007879b          	sext.w	a5,a5
     e64:	0037879b          	addiw	a5,a5,3
     e68:	0007871b          	sext.w	a4,a5
     e6c:	0000e797          	auipc	a5,0xe
     e70:	20878793          	addi	a5,a5,520 # f074 <P3_is_marked>
     e74:	00e7a023          	sw	a4,0(a5)
     e78:	0000e797          	auipc	a5,0xe
     e7c:	19078793          	addi	a5,a5,400 # f008 <P1_is_marked>
     e80:	0007a783          	lw	a5,0(a5)
     e84:	0007879b          	sext.w	a5,a5
     e88:	00078713          	mv	a4,a5
     e8c:	00200793          	li	a5,2
     e90:	1ce7d063          	bge	a5,a4,1050 <main+0x984>
     e94:	0000e797          	auipc	a5,0xe
     e98:	1e078793          	addi	a5,a5,480 # f074 <P3_is_marked>
     e9c:	0007a783          	lw	a5,0(a5)
     ea0:	0007879b          	sext.w	a5,a5
     ea4:	00078713          	mv	a4,a5
     ea8:	00300793          	li	a5,3
     eac:	1ae7c263          	blt	a5,a4,1050 <main+0x984>
     eb0:	0000e797          	auipc	a5,0xe
     eb4:	1b07b783          	ld	a5,432(a5) # f060 <_GLOBAL_OFFSET_TABLE_+0x38>
     eb8:	0007b703          	ld	a4,0(a5)
     ebc:	0000e797          	auipc	a5,0xe
     ec0:	1a47b783          	ld	a5,420(a5) # f060 <_GLOBAL_OFFSET_TABLE_+0x38>
     ec4:	0087b783          	ld	a5,8(a5)
     ec8:	18f71463          	bne	a4,a5,1050 <main+0x984>
     ecc:	fffff7b7          	lui	a5,0xfffff
     ed0:	ff040713          	addi	a4,s0,-16
     ed4:	00f707b3          	add	a5,a4,a5
     ed8:	0000e717          	auipc	a4,0xe
     edc:	18873703          	ld	a4,392(a4) # f060 <_GLOBAL_OFFSET_TABLE_+0x38>
     ee0:	01073703          	ld	a4,16(a4)
     ee4:	48e7b823          	sd	a4,1168(a5) # fffffffffffff490 <__global_pointer$+0xfffffffffffefc90>
     ee8:	fffff7b7          	lui	a5,0xfffff
     eec:	ff040713          	addi	a4,s0,-16
     ef0:	00f707b3          	add	a5,a4,a5
     ef4:	0000e717          	auipc	a4,0xe
     ef8:	16c73703          	ld	a4,364(a4) # f060 <_GLOBAL_OFFSET_TABLE_+0x38>
     efc:	00073703          	ld	a4,0(a4)
     f00:	48e7bc23          	sd	a4,1176(a5) # fffffffffffff498 <__global_pointer$+0xfffffffffffefc98>
     f04:	fffff7b7          	lui	a5,0xfffff
     f08:	ff040713          	addi	a4,s0,-16
     f0c:	00f70733          	add	a4,a4,a5
     f10:	fffff7b7          	lui	a5,0xfffff
     f14:	ff040693          	addi	a3,s0,-16
     f18:	00f687b3          	add	a5,a3,a5
     f1c:	49073703          	ld	a4,1168(a4)
     f20:	4987b783          	ld	a5,1176(a5) # fffffffffffff498 <__global_pointer$+0xfffffffffffefc98>
     f24:	12f75663          	bge	a4,a5,1050 <main+0x984>
     f28:	0000e797          	auipc	a5,0xe
     f2c:	0e078793          	addi	a5,a5,224 # f008 <P1_is_marked>
     f30:	0007a783          	lw	a5,0(a5)
     f34:	0007879b          	sext.w	a5,a5
     f38:	ffd7879b          	addiw	a5,a5,-3
     f3c:	0007871b          	sext.w	a4,a5
     f40:	0000e797          	auipc	a5,0xe
     f44:	0c878793          	addi	a5,a5,200 # f008 <P1_is_marked>
     f48:	00e7a023          	sw	a4,0(a5)
     f4c:	fffff7b7          	lui	a5,0xfffff
     f50:	ff040713          	addi	a4,s0,-16
     f54:	00f707b3          	add	a5,a4,a5
     f58:	fffff737          	lui	a4,0xfffff
     f5c:	ff040693          	addi	a3,s0,-16
     f60:	00e686b3          	add	a3,a3,a4
     f64:	fffff737          	lui	a4,0xfffff
     f68:	ff040613          	addi	a2,s0,-16
     f6c:	00e60733          	add	a4,a2,a4
     f70:	4906b683          	ld	a3,1168(a3)
     f74:	49873703          	ld	a4,1176(a4) # fffffffffffff498 <__global_pointer$+0xfffffffffffefc98>
     f78:	40e68733          	sub	a4,a3,a4
     f7c:	4ae7b023          	sd	a4,1184(a5) # fffffffffffff4a0 <__global_pointer$+0xfffffffffffefca0>
     f80:	0000e797          	auipc	a5,0xe
     f84:	0f478793          	addi	a5,a5,244 # f074 <P3_is_marked>
     f88:	0007a783          	lw	a5,0(a5)
     f8c:	0007879b          	sext.w	a5,a5
     f90:	0000e717          	auipc	a4,0xe
     f94:	0a873703          	ld	a4,168(a4) # f038 <_GLOBAL_OFFSET_TABLE_+0x10>
     f98:	00379793          	slli	a5,a5,0x3
     f9c:	00f707b3          	add	a5,a4,a5
     fa0:	fffff737          	lui	a4,0xfffff
     fa4:	ff040693          	addi	a3,s0,-16
     fa8:	00e68733          	add	a4,a3,a4
     fac:	49073703          	ld	a4,1168(a4) # fffffffffffff490 <__global_pointer$+0xfffffffffffefc90>
     fb0:	00e7b023          	sd	a4,0(a5)
     fb4:	0000e797          	auipc	a5,0xe
     fb8:	0c078793          	addi	a5,a5,192 # f074 <P3_is_marked>
     fbc:	0007a783          	lw	a5,0(a5)
     fc0:	0007879b          	sext.w	a5,a5
     fc4:	0017879b          	addiw	a5,a5,1
     fc8:	0007879b          	sext.w	a5,a5
     fcc:	0000e717          	auipc	a4,0xe
     fd0:	06c73703          	ld	a4,108(a4) # f038 <_GLOBAL_OFFSET_TABLE_+0x10>
     fd4:	00379793          	slli	a5,a5,0x3
     fd8:	00f707b3          	add	a5,a4,a5
     fdc:	fffff737          	lui	a4,0xfffff
     fe0:	ff040693          	addi	a3,s0,-16
     fe4:	00e68733          	add	a4,a3,a4
     fe8:	49873703          	ld	a4,1176(a4) # fffffffffffff498 <__global_pointer$+0xfffffffffffefc98>
     fec:	00e7b023          	sd	a4,0(a5)
     ff0:	0000e797          	auipc	a5,0xe
     ff4:	08478793          	addi	a5,a5,132 # f074 <P3_is_marked>
     ff8:	0007a783          	lw	a5,0(a5)
     ffc:	0007879b          	sext.w	a5,a5
    1000:	0027879b          	addiw	a5,a5,2
    1004:	0007879b          	sext.w	a5,a5
    1008:	0000e717          	auipc	a4,0xe
    100c:	03073703          	ld	a4,48(a4) # f038 <_GLOBAL_OFFSET_TABLE_+0x10>
    1010:	00379793          	slli	a5,a5,0x3
    1014:	00f707b3          	add	a5,a4,a5
    1018:	fffff737          	lui	a4,0xfffff
    101c:	ff040693          	addi	a3,s0,-16
    1020:	00e68733          	add	a4,a3,a4
    1024:	4a073703          	ld	a4,1184(a4) # fffffffffffff4a0 <__global_pointer$+0xfffffffffffefca0>
    1028:	00e7b023          	sd	a4,0(a5)
    102c:	0000e797          	auipc	a5,0xe
    1030:	04878793          	addi	a5,a5,72 # f074 <P3_is_marked>
    1034:	0007a783          	lw	a5,0(a5)
    1038:	0007879b          	sext.w	a5,a5
    103c:	0037879b          	addiw	a5,a5,3
    1040:	0007871b          	sext.w	a4,a5
    1044:	0000e797          	auipc	a5,0xe
    1048:	03078793          	addi	a5,a5,48 # f074 <P3_is_marked>
    104c:	00e7a023          	sw	a4,0(a5)
    1050:	0000e797          	auipc	a5,0xe
    1054:	fb878793          	addi	a5,a5,-72 # f008 <P1_is_marked>
    1058:	0007a783          	lw	a5,0(a5)
    105c:	0007879b          	sext.w	a5,a5
    1060:	00078713          	mv	a4,a5
    1064:	00200793          	li	a5,2
    1068:	1ce7d063          	bge	a5,a4,1228 <main+0xb5c>
    106c:	0000e797          	auipc	a5,0xe
    1070:	00878793          	addi	a5,a5,8 # f074 <P3_is_marked>
    1074:	0007a783          	lw	a5,0(a5)
    1078:	0007879b          	sext.w	a5,a5
    107c:	00078713          	mv	a4,a5
    1080:	00300793          	li	a5,3
    1084:	1ae7c263          	blt	a5,a4,1228 <main+0xb5c>
    1088:	0000e797          	auipc	a5,0xe
    108c:	fd87b783          	ld	a5,-40(a5) # f060 <_GLOBAL_OFFSET_TABLE_+0x38>
    1090:	0087b703          	ld	a4,8(a5)
    1094:	0000e797          	auipc	a5,0xe
    1098:	fcc7b783          	ld	a5,-52(a5) # f060 <_GLOBAL_OFFSET_TABLE_+0x38>
    109c:	0007b783          	ld	a5,0(a5)
    10a0:	18f71463          	bne	a4,a5,1228 <main+0xb5c>
    10a4:	fffff7b7          	lui	a5,0xfffff
    10a8:	ff040713          	addi	a4,s0,-16
    10ac:	00f707b3          	add	a5,a4,a5
    10b0:	0000e717          	auipc	a4,0xe
    10b4:	fb073703          	ld	a4,-80(a4) # f060 <_GLOBAL_OFFSET_TABLE_+0x38>
    10b8:	01073703          	ld	a4,16(a4)
    10bc:	4ae7b423          	sd	a4,1192(a5) # fffffffffffff4a8 <__global_pointer$+0xfffffffffffefca8>
    10c0:	fffff7b7          	lui	a5,0xfffff
    10c4:	ff040713          	addi	a4,s0,-16
    10c8:	00f707b3          	add	a5,a4,a5
    10cc:	0000e717          	auipc	a4,0xe
    10d0:	f9473703          	ld	a4,-108(a4) # f060 <_GLOBAL_OFFSET_TABLE_+0x38>
    10d4:	00873703          	ld	a4,8(a4)
    10d8:	4ae7b823          	sd	a4,1200(a5) # fffffffffffff4b0 <__global_pointer$+0xfffffffffffefcb0>
    10dc:	fffff7b7          	lui	a5,0xfffff
    10e0:	ff040713          	addi	a4,s0,-16
    10e4:	00f70733          	add	a4,a4,a5
    10e8:	fffff7b7          	lui	a5,0xfffff
    10ec:	ff040693          	addi	a3,s0,-16
    10f0:	00f687b3          	add	a5,a3,a5
    10f4:	4a873703          	ld	a4,1192(a4)
    10f8:	4b07b783          	ld	a5,1200(a5) # fffffffffffff4b0 <__global_pointer$+0xfffffffffffefcb0>
    10fc:	12f75663          	bge	a4,a5,1228 <main+0xb5c>
    1100:	0000e797          	auipc	a5,0xe
    1104:	f0878793          	addi	a5,a5,-248 # f008 <P1_is_marked>
    1108:	0007a783          	lw	a5,0(a5)
    110c:	0007879b          	sext.w	a5,a5
    1110:	ffd7879b          	addiw	a5,a5,-3
    1114:	0007871b          	sext.w	a4,a5
    1118:	0000e797          	auipc	a5,0xe
    111c:	ef078793          	addi	a5,a5,-272 # f008 <P1_is_marked>
    1120:	00e7a023          	sw	a4,0(a5)
    1124:	fffff7b7          	lui	a5,0xfffff
    1128:	ff040713          	addi	a4,s0,-16
    112c:	00f707b3          	add	a5,a4,a5
    1130:	fffff737          	lui	a4,0xfffff
    1134:	ff040693          	addi	a3,s0,-16
    1138:	00e686b3          	add	a3,a3,a4
    113c:	fffff737          	lui	a4,0xfffff
    1140:	ff040613          	addi	a2,s0,-16
    1144:	00e60733          	add	a4,a2,a4
    1148:	4a86b683          	ld	a3,1192(a3)
    114c:	4b073703          	ld	a4,1200(a4) # fffffffffffff4b0 <__global_pointer$+0xfffffffffffefcb0>
    1150:	40e68733          	sub	a4,a3,a4
    1154:	4ae7bc23          	sd	a4,1208(a5) # fffffffffffff4b8 <__global_pointer$+0xfffffffffffefcb8>
    1158:	0000e797          	auipc	a5,0xe
    115c:	f1c78793          	addi	a5,a5,-228 # f074 <P3_is_marked>
    1160:	0007a783          	lw	a5,0(a5)
    1164:	0007879b          	sext.w	a5,a5
    1168:	0000e717          	auipc	a4,0xe
    116c:	ed073703          	ld	a4,-304(a4) # f038 <_GLOBAL_OFFSET_TABLE_+0x10>
    1170:	00379793          	slli	a5,a5,0x3
    1174:	00f707b3          	add	a5,a4,a5
    1178:	fffff737          	lui	a4,0xfffff
    117c:	ff040693          	addi	a3,s0,-16
    1180:	00e68733          	add	a4,a3,a4
    1184:	4a873703          	ld	a4,1192(a4) # fffffffffffff4a8 <__global_pointer$+0xfffffffffffefca8>
    1188:	00e7b023          	sd	a4,0(a5)
    118c:	0000e797          	auipc	a5,0xe
    1190:	ee878793          	addi	a5,a5,-280 # f074 <P3_is_marked>
    1194:	0007a783          	lw	a5,0(a5)
    1198:	0007879b          	sext.w	a5,a5
    119c:	0017879b          	addiw	a5,a5,1
    11a0:	0007879b          	sext.w	a5,a5
    11a4:	0000e717          	auipc	a4,0xe
    11a8:	e9473703          	ld	a4,-364(a4) # f038 <_GLOBAL_OFFSET_TABLE_+0x10>
    11ac:	00379793          	slli	a5,a5,0x3
    11b0:	00f707b3          	add	a5,a4,a5
    11b4:	fffff737          	lui	a4,0xfffff
    11b8:	ff040693          	addi	a3,s0,-16
    11bc:	00e68733          	add	a4,a3,a4
    11c0:	4b073703          	ld	a4,1200(a4) # fffffffffffff4b0 <__global_pointer$+0xfffffffffffefcb0>
    11c4:	00e7b023          	sd	a4,0(a5)
    11c8:	0000e797          	auipc	a5,0xe
    11cc:	eac78793          	addi	a5,a5,-340 # f074 <P3_is_marked>
    11d0:	0007a783          	lw	a5,0(a5)
    11d4:	0007879b          	sext.w	a5,a5
    11d8:	0027879b          	addiw	a5,a5,2
    11dc:	0007879b          	sext.w	a5,a5
    11e0:	0000e717          	auipc	a4,0xe
    11e4:	e5873703          	ld	a4,-424(a4) # f038 <_GLOBAL_OFFSET_TABLE_+0x10>
    11e8:	00379793          	slli	a5,a5,0x3
    11ec:	00f707b3          	add	a5,a4,a5
    11f0:	fffff737          	lui	a4,0xfffff
    11f4:	ff040693          	addi	a3,s0,-16
    11f8:	00e68733          	add	a4,a3,a4
    11fc:	4b873703          	ld	a4,1208(a4) # fffffffffffff4b8 <__global_pointer$+0xfffffffffffefcb8>
    1200:	00e7b023          	sd	a4,0(a5)
    1204:	0000e797          	auipc	a5,0xe
    1208:	e7078793          	addi	a5,a5,-400 # f074 <P3_is_marked>
    120c:	0007a783          	lw	a5,0(a5)
    1210:	0007879b          	sext.w	a5,a5
    1214:	0037879b          	addiw	a5,a5,3
    1218:	0007871b          	sext.w	a4,a5
    121c:	0000e797          	auipc	a5,0xe
    1220:	e5878793          	addi	a5,a5,-424 # f074 <P3_is_marked>
    1224:	00e7a023          	sw	a4,0(a5)
    1228:	0000e797          	auipc	a5,0xe
    122c:	de478793          	addi	a5,a5,-540 # f00c <P2_is_marked>
    1230:	0007a783          	lw	a5,0(a5)
    1234:	0007879b          	sext.w	a5,a5
    1238:	00078713          	mv	a4,a5
    123c:	00300793          	li	a5,3
    1240:	1ce7de63          	bge	a5,a4,141c <main+0xd50>
    1244:	0000e797          	auipc	a5,0xe
    1248:	e3078793          	addi	a5,a5,-464 # f074 <P3_is_marked>
    124c:	0007a783          	lw	a5,0(a5)
    1250:	0007879b          	sext.w	a5,a5
    1254:	00078713          	mv	a4,a5
    1258:	00300793          	li	a5,3
    125c:	1ce7c063          	blt	a5,a4,141c <main+0xd50>
    1260:	0000e797          	auipc	a5,0xe
    1264:	df07b783          	ld	a5,-528(a5) # f050 <_GLOBAL_OFFSET_TABLE_+0x28>
    1268:	0087b703          	ld	a4,8(a5)
    126c:	0000e797          	auipc	a5,0xe
    1270:	de47b783          	ld	a5,-540(a5) # f050 <_GLOBAL_OFFSET_TABLE_+0x28>
    1274:	0107b783          	ld	a5,16(a5)
    1278:	1af71263          	bne	a4,a5,141c <main+0xd50>
    127c:	0000e797          	auipc	a5,0xe
    1280:	dd47b783          	ld	a5,-556(a5) # f050 <_GLOBAL_OFFSET_TABLE_+0x28>
    1284:	0087b703          	ld	a4,8(a5)
    1288:	0000e797          	auipc	a5,0xe
    128c:	dc87b783          	ld	a5,-568(a5) # f050 <_GLOBAL_OFFSET_TABLE_+0x28>
    1290:	0187b783          	ld	a5,24(a5)
    1294:	18f71463          	bne	a4,a5,141c <main+0xd50>
    1298:	fffff7b7          	lui	a5,0xfffff
    129c:	ff040713          	addi	a4,s0,-16
    12a0:	00f707b3          	add	a5,a4,a5
    12a4:	0000e717          	auipc	a4,0xe
    12a8:	dac73703          	ld	a4,-596(a4) # f050 <_GLOBAL_OFFSET_TABLE_+0x28>
    12ac:	00073703          	ld	a4,0(a4)
    12b0:	4ce7b023          	sd	a4,1216(a5) # fffffffffffff4c0 <__global_pointer$+0xfffffffffffefcc0>
    12b4:	fffff7b7          	lui	a5,0xfffff
    12b8:	ff040713          	addi	a4,s0,-16
    12bc:	00f707b3          	add	a5,a4,a5
    12c0:	0000e717          	auipc	a4,0xe
    12c4:	d9073703          	ld	a4,-624(a4) # f050 <_GLOBAL_OFFSET_TABLE_+0x28>
    12c8:	00873703          	ld	a4,8(a4)
    12cc:	4ce7b423          	sd	a4,1224(a5) # fffffffffffff4c8 <__global_pointer$+0xfffffffffffefcc8>
    12d0:	fffff7b7          	lui	a5,0xfffff
    12d4:	ff040713          	addi	a4,s0,-16
    12d8:	00f70733          	add	a4,a4,a5
    12dc:	fffff7b7          	lui	a5,0xfffff
    12e0:	ff040693          	addi	a3,s0,-16
    12e4:	00f687b3          	add	a5,a3,a5
    12e8:	4c873703          	ld	a4,1224(a4)
    12ec:	4c07b783          	ld	a5,1216(a5) # fffffffffffff4c0 <__global_pointer$+0xfffffffffffefcc0>
    12f0:	12e7d663          	bge	a5,a4,141c <main+0xd50>
    12f4:	0000e797          	auipc	a5,0xe
    12f8:	d1878793          	addi	a5,a5,-744 # f00c <P2_is_marked>
    12fc:	0007a783          	lw	a5,0(a5)
    1300:	0007879b          	sext.w	a5,a5
    1304:	ffc7879b          	addiw	a5,a5,-4
    1308:	0007871b          	sext.w	a4,a5
    130c:	0000e797          	auipc	a5,0xe
    1310:	d0078793          	addi	a5,a5,-768 # f00c <P2_is_marked>
    1314:	00e7a023          	sw	a4,0(a5)
    1318:	fffff7b7          	lui	a5,0xfffff
    131c:	ff040713          	addi	a4,s0,-16
    1320:	00f707b3          	add	a5,a4,a5
    1324:	fffff737          	lui	a4,0xfffff
    1328:	ff040693          	addi	a3,s0,-16
    132c:	00e686b3          	add	a3,a3,a4
    1330:	fffff737          	lui	a4,0xfffff
    1334:	ff040613          	addi	a2,s0,-16
    1338:	00e60733          	add	a4,a2,a4
    133c:	4c06b683          	ld	a3,1216(a3)
    1340:	4c873703          	ld	a4,1224(a4) # fffffffffffff4c8 <__global_pointer$+0xfffffffffffefcc8>
    1344:	00e68733          	add	a4,a3,a4
    1348:	4ce7b823          	sd	a4,1232(a5) # fffffffffffff4d0 <__global_pointer$+0xfffffffffffefcd0>
    134c:	0000e797          	auipc	a5,0xe
    1350:	d2878793          	addi	a5,a5,-728 # f074 <P3_is_marked>
    1354:	0007a783          	lw	a5,0(a5)
    1358:	0007879b          	sext.w	a5,a5
    135c:	0000e717          	auipc	a4,0xe
    1360:	cdc73703          	ld	a4,-804(a4) # f038 <_GLOBAL_OFFSET_TABLE_+0x10>
    1364:	00379793          	slli	a5,a5,0x3
    1368:	00f707b3          	add	a5,a4,a5
    136c:	fffff737          	lui	a4,0xfffff
    1370:	ff040693          	addi	a3,s0,-16
    1374:	00e68733          	add	a4,a3,a4
    1378:	4c073703          	ld	a4,1216(a4) # fffffffffffff4c0 <__global_pointer$+0xfffffffffffefcc0>
    137c:	00e7b023          	sd	a4,0(a5)
    1380:	0000e797          	auipc	a5,0xe
    1384:	cf478793          	addi	a5,a5,-780 # f074 <P3_is_marked>
    1388:	0007a783          	lw	a5,0(a5)
    138c:	0007879b          	sext.w	a5,a5
    1390:	0017879b          	addiw	a5,a5,1
    1394:	0007879b          	sext.w	a5,a5
    1398:	0000e717          	auipc	a4,0xe
    139c:	ca073703          	ld	a4,-864(a4) # f038 <_GLOBAL_OFFSET_TABLE_+0x10>
    13a0:	00379793          	slli	a5,a5,0x3
    13a4:	00f707b3          	add	a5,a4,a5
    13a8:	fffff737          	lui	a4,0xfffff
    13ac:	ff040693          	addi	a3,s0,-16
    13b0:	00e68733          	add	a4,a3,a4
    13b4:	4c873703          	ld	a4,1224(a4) # fffffffffffff4c8 <__global_pointer$+0xfffffffffffefcc8>
    13b8:	00e7b023          	sd	a4,0(a5)
    13bc:	0000e797          	auipc	a5,0xe
    13c0:	cb878793          	addi	a5,a5,-840 # f074 <P3_is_marked>
    13c4:	0007a783          	lw	a5,0(a5)
    13c8:	0007879b          	sext.w	a5,a5
    13cc:	0027879b          	addiw	a5,a5,2
    13d0:	0007879b          	sext.w	a5,a5
    13d4:	0000e717          	auipc	a4,0xe
    13d8:	c6473703          	ld	a4,-924(a4) # f038 <_GLOBAL_OFFSET_TABLE_+0x10>
    13dc:	00379793          	slli	a5,a5,0x3
    13e0:	00f707b3          	add	a5,a4,a5
    13e4:	fffff737          	lui	a4,0xfffff
    13e8:	ff040693          	addi	a3,s0,-16
    13ec:	00e68733          	add	a4,a3,a4
    13f0:	4d073703          	ld	a4,1232(a4) # fffffffffffff4d0 <__global_pointer$+0xfffffffffffefcd0>
    13f4:	00e7b023          	sd	a4,0(a5)
    13f8:	0000e797          	auipc	a5,0xe
    13fc:	c7c78793          	addi	a5,a5,-900 # f074 <P3_is_marked>
    1400:	0007a783          	lw	a5,0(a5)
    1404:	0007879b          	sext.w	a5,a5
    1408:	0037879b          	addiw	a5,a5,3
    140c:	0007871b          	sext.w	a4,a5
    1410:	0000e797          	auipc	a5,0xe
    1414:	c6478793          	addi	a5,a5,-924 # f074 <P3_is_marked>
    1418:	00e7a023          	sw	a4,0(a5)
    141c:	0000e797          	auipc	a5,0xe
    1420:	bf078793          	addi	a5,a5,-1040 # f00c <P2_is_marked>
    1424:	0007a783          	lw	a5,0(a5)
    1428:	0007879b          	sext.w	a5,a5
    142c:	00078713          	mv	a4,a5
    1430:	00300793          	li	a5,3
    1434:	1ce7de63          	bge	a5,a4,1610 <main+0xf44>
    1438:	0000e797          	auipc	a5,0xe
    143c:	c3c78793          	addi	a5,a5,-964 # f074 <P3_is_marked>
    1440:	0007a783          	lw	a5,0(a5)
    1444:	0007879b          	sext.w	a5,a5
    1448:	00078713          	mv	a4,a5
    144c:	00300793          	li	a5,3
    1450:	1ce7c063          	blt	a5,a4,1610 <main+0xf44>
    1454:	0000e797          	auipc	a5,0xe
    1458:	bfc7b783          	ld	a5,-1028(a5) # f050 <_GLOBAL_OFFSET_TABLE_+0x28>
    145c:	0087b703          	ld	a4,8(a5)
    1460:	0000e797          	auipc	a5,0xe
    1464:	bf07b783          	ld	a5,-1040(a5) # f050 <_GLOBAL_OFFSET_TABLE_+0x28>
    1468:	0187b783          	ld	a5,24(a5)
    146c:	1af71263          	bne	a4,a5,1610 <main+0xf44>
    1470:	0000e797          	auipc	a5,0xe
    1474:	be07b783          	ld	a5,-1056(a5) # f050 <_GLOBAL_OFFSET_TABLE_+0x28>
    1478:	0087b703          	ld	a4,8(a5)
    147c:	0000e797          	auipc	a5,0xe
    1480:	bd47b783          	ld	a5,-1068(a5) # f050 <_GLOBAL_OFFSET_TABLE_+0x28>
    1484:	0107b783          	ld	a5,16(a5)
    1488:	18f71463          	bne	a4,a5,1610 <main+0xf44>
    148c:	fffff7b7          	lui	a5,0xfffff
    1490:	ff040713          	addi	a4,s0,-16
    1494:	00f707b3          	add	a5,a4,a5
    1498:	0000e717          	auipc	a4,0xe
    149c:	bb873703          	ld	a4,-1096(a4) # f050 <_GLOBAL_OFFSET_TABLE_+0x28>
    14a0:	00073703          	ld	a4,0(a4)
    14a4:	4ce7bc23          	sd	a4,1240(a5) # fffffffffffff4d8 <__global_pointer$+0xfffffffffffefcd8>
    14a8:	fffff7b7          	lui	a5,0xfffff
    14ac:	ff040713          	addi	a4,s0,-16
    14b0:	00f707b3          	add	a5,a4,a5
    14b4:	0000e717          	auipc	a4,0xe
    14b8:	b9c73703          	ld	a4,-1124(a4) # f050 <_GLOBAL_OFFSET_TABLE_+0x28>
    14bc:	00873703          	ld	a4,8(a4)
    14c0:	4ee7b023          	sd	a4,1248(a5) # fffffffffffff4e0 <__global_pointer$+0xfffffffffffefce0>
    14c4:	fffff7b7          	lui	a5,0xfffff
    14c8:	ff040713          	addi	a4,s0,-16
    14cc:	00f70733          	add	a4,a4,a5
    14d0:	fffff7b7          	lui	a5,0xfffff
    14d4:	ff040693          	addi	a3,s0,-16
    14d8:	00f687b3          	add	a5,a3,a5
    14dc:	4e073703          	ld	a4,1248(a4)
    14e0:	4d87b783          	ld	a5,1240(a5) # fffffffffffff4d8 <__global_pointer$+0xfffffffffffefcd8>
    14e4:	12e7d663          	bge	a5,a4,1610 <main+0xf44>
    14e8:	0000e797          	auipc	a5,0xe
    14ec:	b2478793          	addi	a5,a5,-1244 # f00c <P2_is_marked>
    14f0:	0007a783          	lw	a5,0(a5)
    14f4:	0007879b          	sext.w	a5,a5
    14f8:	ffc7879b          	addiw	a5,a5,-4
    14fc:	0007871b          	sext.w	a4,a5
    1500:	0000e797          	auipc	a5,0xe
    1504:	b0c78793          	addi	a5,a5,-1268 # f00c <P2_is_marked>
    1508:	00e7a023          	sw	a4,0(a5)
    150c:	fffff7b7          	lui	a5,0xfffff
    1510:	ff040713          	addi	a4,s0,-16
    1514:	00f707b3          	add	a5,a4,a5
    1518:	fffff737          	lui	a4,0xfffff
    151c:	ff040693          	addi	a3,s0,-16
    1520:	00e686b3          	add	a3,a3,a4
    1524:	fffff737          	lui	a4,0xfffff
    1528:	ff040613          	addi	a2,s0,-16
    152c:	00e60733          	add	a4,a2,a4
    1530:	4d86b683          	ld	a3,1240(a3)
    1534:	4e073703          	ld	a4,1248(a4) # fffffffffffff4e0 <__global_pointer$+0xfffffffffffefce0>
    1538:	00e68733          	add	a4,a3,a4
    153c:	4ee7b423          	sd	a4,1256(a5) # fffffffffffff4e8 <__global_pointer$+0xfffffffffffefce8>
    1540:	0000e797          	auipc	a5,0xe
    1544:	b3478793          	addi	a5,a5,-1228 # f074 <P3_is_marked>
    1548:	0007a783          	lw	a5,0(a5)
    154c:	0007879b          	sext.w	a5,a5
    1550:	0000e717          	auipc	a4,0xe
    1554:	ae873703          	ld	a4,-1304(a4) # f038 <_GLOBAL_OFFSET_TABLE_+0x10>
    1558:	00379793          	slli	a5,a5,0x3
    155c:	00f707b3          	add	a5,a4,a5
    1560:	fffff737          	lui	a4,0xfffff
    1564:	ff040693          	addi	a3,s0,-16
    1568:	00e68733          	add	a4,a3,a4
    156c:	4d873703          	ld	a4,1240(a4) # fffffffffffff4d8 <__global_pointer$+0xfffffffffffefcd8>
    1570:	00e7b023          	sd	a4,0(a5)
    1574:	0000e797          	auipc	a5,0xe
    1578:	b0078793          	addi	a5,a5,-1280 # f074 <P3_is_marked>
    157c:	0007a783          	lw	a5,0(a5)
    1580:	0007879b          	sext.w	a5,a5
    1584:	0017879b          	addiw	a5,a5,1
    1588:	0007879b          	sext.w	a5,a5
    158c:	0000e717          	auipc	a4,0xe
    1590:	aac73703          	ld	a4,-1364(a4) # f038 <_GLOBAL_OFFSET_TABLE_+0x10>
    1594:	00379793          	slli	a5,a5,0x3
    1598:	00f707b3          	add	a5,a4,a5
    159c:	fffff737          	lui	a4,0xfffff
    15a0:	ff040693          	addi	a3,s0,-16
    15a4:	00e68733          	add	a4,a3,a4
    15a8:	4e073703          	ld	a4,1248(a4) # fffffffffffff4e0 <__global_pointer$+0xfffffffffffefce0>
    15ac:	00e7b023          	sd	a4,0(a5)
    15b0:	0000e797          	auipc	a5,0xe
    15b4:	ac478793          	addi	a5,a5,-1340 # f074 <P3_is_marked>
    15b8:	0007a783          	lw	a5,0(a5)
    15bc:	0007879b          	sext.w	a5,a5
    15c0:	0027879b          	addiw	a5,a5,2
    15c4:	0007879b          	sext.w	a5,a5
    15c8:	0000e717          	auipc	a4,0xe
    15cc:	a7073703          	ld	a4,-1424(a4) # f038 <_GLOBAL_OFFSET_TABLE_+0x10>
    15d0:	00379793          	slli	a5,a5,0x3
    15d4:	00f707b3          	add	a5,a4,a5
    15d8:	fffff737          	lui	a4,0xfffff
    15dc:	ff040693          	addi	a3,s0,-16
    15e0:	00e68733          	add	a4,a3,a4
    15e4:	4e873703          	ld	a4,1256(a4) # fffffffffffff4e8 <__global_pointer$+0xfffffffffffefce8>
    15e8:	00e7b023          	sd	a4,0(a5)
    15ec:	0000e797          	auipc	a5,0xe
    15f0:	a8878793          	addi	a5,a5,-1400 # f074 <P3_is_marked>
    15f4:	0007a783          	lw	a5,0(a5)
    15f8:	0007879b          	sext.w	a5,a5
    15fc:	0037879b          	addiw	a5,a5,3
    1600:	0007871b          	sext.w	a4,a5
    1604:	0000e797          	auipc	a5,0xe
    1608:	a7078793          	addi	a5,a5,-1424 # f074 <P3_is_marked>
    160c:	00e7a023          	sw	a4,0(a5)
    1610:	0000e797          	auipc	a5,0xe
    1614:	9fc78793          	addi	a5,a5,-1540 # f00c <P2_is_marked>
    1618:	0007a783          	lw	a5,0(a5)
    161c:	0007879b          	sext.w	a5,a5
    1620:	00078713          	mv	a4,a5
    1624:	00300793          	li	a5,3
    1628:	1ce7de63          	bge	a5,a4,1804 <main+0x1138>
    162c:	0000e797          	auipc	a5,0xe
    1630:	a4878793          	addi	a5,a5,-1464 # f074 <P3_is_marked>
    1634:	0007a783          	lw	a5,0(a5)
    1638:	0007879b          	sext.w	a5,a5
    163c:	00078713          	mv	a4,a5
    1640:	00300793          	li	a5,3
    1644:	1ce7c063          	blt	a5,a4,1804 <main+0x1138>
    1648:	0000e797          	auipc	a5,0xe
    164c:	a087b783          	ld	a5,-1528(a5) # f050 <_GLOBAL_OFFSET_TABLE_+0x28>
    1650:	0107b703          	ld	a4,16(a5)
    1654:	0000e797          	auipc	a5,0xe
    1658:	9fc7b783          	ld	a5,-1540(a5) # f050 <_GLOBAL_OFFSET_TABLE_+0x28>
    165c:	0087b783          	ld	a5,8(a5)
    1660:	1af71263          	bne	a4,a5,1804 <main+0x1138>
    1664:	0000e797          	auipc	a5,0xe
    1668:	9ec7b783          	ld	a5,-1556(a5) # f050 <_GLOBAL_OFFSET_TABLE_+0x28>
    166c:	0107b703          	ld	a4,16(a5)
    1670:	0000e797          	auipc	a5,0xe
    1674:	9e07b783          	ld	a5,-1568(a5) # f050 <_GLOBAL_OFFSET_TABLE_+0x28>
    1678:	0187b783          	ld	a5,24(a5)
    167c:	18f71463          	bne	a4,a5,1804 <main+0x1138>
    1680:	fffff7b7          	lui	a5,0xfffff
    1684:	ff040713          	addi	a4,s0,-16
    1688:	00f707b3          	add	a5,a4,a5
    168c:	0000e717          	auipc	a4,0xe
    1690:	9c473703          	ld	a4,-1596(a4) # f050 <_GLOBAL_OFFSET_TABLE_+0x28>
    1694:	00073703          	ld	a4,0(a4)
    1698:	4ee7b823          	sd	a4,1264(a5) # fffffffffffff4f0 <__global_pointer$+0xfffffffffffefcf0>
    169c:	fffff7b7          	lui	a5,0xfffff
    16a0:	ff040713          	addi	a4,s0,-16
    16a4:	00f707b3          	add	a5,a4,a5
    16a8:	0000e717          	auipc	a4,0xe
    16ac:	9a873703          	ld	a4,-1624(a4) # f050 <_GLOBAL_OFFSET_TABLE_+0x28>
    16b0:	01073703          	ld	a4,16(a4)
    16b4:	4ee7bc23          	sd	a4,1272(a5) # fffffffffffff4f8 <__global_pointer$+0xfffffffffffefcf8>
    16b8:	fffff7b7          	lui	a5,0xfffff
    16bc:	ff040713          	addi	a4,s0,-16
    16c0:	00f70733          	add	a4,a4,a5
    16c4:	fffff7b7          	lui	a5,0xfffff
    16c8:	ff040693          	addi	a3,s0,-16
    16cc:	00f687b3          	add	a5,a3,a5
    16d0:	4f873703          	ld	a4,1272(a4)
    16d4:	4f07b783          	ld	a5,1264(a5) # fffffffffffff4f0 <__global_pointer$+0xfffffffffffefcf0>
    16d8:	12e7d663          	bge	a5,a4,1804 <main+0x1138>
    16dc:	0000e797          	auipc	a5,0xe
    16e0:	93078793          	addi	a5,a5,-1744 # f00c <P2_is_marked>
    16e4:	0007a783          	lw	a5,0(a5)
    16e8:	0007879b          	sext.w	a5,a5
    16ec:	ffc7879b          	addiw	a5,a5,-4
    16f0:	0007871b          	sext.w	a4,a5
    16f4:	0000e797          	auipc	a5,0xe
    16f8:	91878793          	addi	a5,a5,-1768 # f00c <P2_is_marked>
    16fc:	00e7a023          	sw	a4,0(a5)
    1700:	fffff7b7          	lui	a5,0xfffff
    1704:	ff040713          	addi	a4,s0,-16
    1708:	00f707b3          	add	a5,a4,a5
    170c:	fffff737          	lui	a4,0xfffff
    1710:	ff040693          	addi	a3,s0,-16
    1714:	00e686b3          	add	a3,a3,a4
    1718:	fffff737          	lui	a4,0xfffff
    171c:	ff040613          	addi	a2,s0,-16
    1720:	00e60733          	add	a4,a2,a4
    1724:	4f06b683          	ld	a3,1264(a3)
    1728:	4f873703          	ld	a4,1272(a4) # fffffffffffff4f8 <__global_pointer$+0xfffffffffffefcf8>
    172c:	00e68733          	add	a4,a3,a4
    1730:	50e7b023          	sd	a4,1280(a5) # fffffffffffff500 <__global_pointer$+0xfffffffffffefd00>
    1734:	0000e797          	auipc	a5,0xe
    1738:	94078793          	addi	a5,a5,-1728 # f074 <P3_is_marked>
    173c:	0007a783          	lw	a5,0(a5)
    1740:	0007879b          	sext.w	a5,a5
    1744:	0000e717          	auipc	a4,0xe
    1748:	8f473703          	ld	a4,-1804(a4) # f038 <_GLOBAL_OFFSET_TABLE_+0x10>
    174c:	00379793          	slli	a5,a5,0x3
    1750:	00f707b3          	add	a5,a4,a5
    1754:	fffff737          	lui	a4,0xfffff
    1758:	ff040693          	addi	a3,s0,-16
    175c:	00e68733          	add	a4,a3,a4
    1760:	4f073703          	ld	a4,1264(a4) # fffffffffffff4f0 <__global_pointer$+0xfffffffffffefcf0>
    1764:	00e7b023          	sd	a4,0(a5)
    1768:	0000e797          	auipc	a5,0xe
    176c:	90c78793          	addi	a5,a5,-1780 # f074 <P3_is_marked>
    1770:	0007a783          	lw	a5,0(a5)
    1774:	0007879b          	sext.w	a5,a5
    1778:	0017879b          	addiw	a5,a5,1
    177c:	0007879b          	sext.w	a5,a5
    1780:	0000e717          	auipc	a4,0xe
    1784:	8b873703          	ld	a4,-1864(a4) # f038 <_GLOBAL_OFFSET_TABLE_+0x10>
    1788:	00379793          	slli	a5,a5,0x3
    178c:	00f707b3          	add	a5,a4,a5
    1790:	fffff737          	lui	a4,0xfffff
    1794:	ff040693          	addi	a3,s0,-16
    1798:	00e68733          	add	a4,a3,a4
    179c:	4f873703          	ld	a4,1272(a4) # fffffffffffff4f8 <__global_pointer$+0xfffffffffffefcf8>
    17a0:	00e7b023          	sd	a4,0(a5)
    17a4:	0000e797          	auipc	a5,0xe
    17a8:	8d078793          	addi	a5,a5,-1840 # f074 <P3_is_marked>
    17ac:	0007a783          	lw	a5,0(a5)
    17b0:	0007879b          	sext.w	a5,a5
    17b4:	0027879b          	addiw	a5,a5,2
    17b8:	0007879b          	sext.w	a5,a5
    17bc:	0000e717          	auipc	a4,0xe
    17c0:	87c73703          	ld	a4,-1924(a4) # f038 <_GLOBAL_OFFSET_TABLE_+0x10>
    17c4:	00379793          	slli	a5,a5,0x3
    17c8:	00f707b3          	add	a5,a4,a5
    17cc:	fffff737          	lui	a4,0xfffff
    17d0:	ff040693          	addi	a3,s0,-16
    17d4:	00e68733          	add	a4,a3,a4
    17d8:	50073703          	ld	a4,1280(a4) # fffffffffffff500 <__global_pointer$+0xfffffffffffefd00>
    17dc:	00e7b023          	sd	a4,0(a5)
    17e0:	0000e797          	auipc	a5,0xe
    17e4:	89478793          	addi	a5,a5,-1900 # f074 <P3_is_marked>
    17e8:	0007a783          	lw	a5,0(a5)
    17ec:	0007879b          	sext.w	a5,a5
    17f0:	0037879b          	addiw	a5,a5,3
    17f4:	0007871b          	sext.w	a4,a5
    17f8:	0000e797          	auipc	a5,0xe
    17fc:	87c78793          	addi	a5,a5,-1924 # f074 <P3_is_marked>
    1800:	00e7a023          	sw	a4,0(a5)
    1804:	0000e797          	auipc	a5,0xe
    1808:	80878793          	addi	a5,a5,-2040 # f00c <P2_is_marked>
    180c:	0007a783          	lw	a5,0(a5)
    1810:	0007879b          	sext.w	a5,a5
    1814:	00078713          	mv	a4,a5
    1818:	00300793          	li	a5,3
    181c:	1ce7de63          	bge	a5,a4,19f8 <main+0x132c>
    1820:	0000e797          	auipc	a5,0xe
    1824:	85478793          	addi	a5,a5,-1964 # f074 <P3_is_marked>
    1828:	0007a783          	lw	a5,0(a5)
    182c:	0007879b          	sext.w	a5,a5
    1830:	00078713          	mv	a4,a5
    1834:	00300793          	li	a5,3
    1838:	1ce7c063          	blt	a5,a4,19f8 <main+0x132c>
    183c:	0000e797          	auipc	a5,0xe
    1840:	8147b783          	ld	a5,-2028(a5) # f050 <_GLOBAL_OFFSET_TABLE_+0x28>
    1844:	0107b703          	ld	a4,16(a5)
    1848:	0000e797          	auipc	a5,0xe
    184c:	8087b783          	ld	a5,-2040(a5) # f050 <_GLOBAL_OFFSET_TABLE_+0x28>
    1850:	0187b783          	ld	a5,24(a5)
    1854:	1af71263          	bne	a4,a5,19f8 <main+0x132c>
    1858:	0000d797          	auipc	a5,0xd
    185c:	7f87b783          	ld	a5,2040(a5) # f050 <_GLOBAL_OFFSET_TABLE_+0x28>
    1860:	0107b703          	ld	a4,16(a5)
    1864:	0000d797          	auipc	a5,0xd
    1868:	7ec7b783          	ld	a5,2028(a5) # f050 <_GLOBAL_OFFSET_TABLE_+0x28>
    186c:	0087b783          	ld	a5,8(a5)
    1870:	18f71463          	bne	a4,a5,19f8 <main+0x132c>
    1874:	fffff7b7          	lui	a5,0xfffff
    1878:	ff040713          	addi	a4,s0,-16
    187c:	00f707b3          	add	a5,a4,a5
    1880:	0000d717          	auipc	a4,0xd
    1884:	7d073703          	ld	a4,2000(a4) # f050 <_GLOBAL_OFFSET_TABLE_+0x28>
    1888:	00073703          	ld	a4,0(a4)
    188c:	50e7b423          	sd	a4,1288(a5) # fffffffffffff508 <__global_pointer$+0xfffffffffffefd08>
    1890:	fffff7b7          	lui	a5,0xfffff
    1894:	ff040713          	addi	a4,s0,-16
    1898:	00f707b3          	add	a5,a4,a5
    189c:	0000d717          	auipc	a4,0xd
    18a0:	7b473703          	ld	a4,1972(a4) # f050 <_GLOBAL_OFFSET_TABLE_+0x28>
    18a4:	01073703          	ld	a4,16(a4)
    18a8:	50e7b823          	sd	a4,1296(a5) # fffffffffffff510 <__global_pointer$+0xfffffffffffefd10>
    18ac:	fffff7b7          	lui	a5,0xfffff
    18b0:	ff040713          	addi	a4,s0,-16
    18b4:	00f70733          	add	a4,a4,a5
    18b8:	fffff7b7          	lui	a5,0xfffff
    18bc:	ff040693          	addi	a3,s0,-16
    18c0:	00f687b3          	add	a5,a3,a5
    18c4:	51073703          	ld	a4,1296(a4)
    18c8:	5087b783          	ld	a5,1288(a5) # fffffffffffff508 <__global_pointer$+0xfffffffffffefd08>
    18cc:	12e7d663          	bge	a5,a4,19f8 <main+0x132c>
    18d0:	0000d797          	auipc	a5,0xd
    18d4:	73c78793          	addi	a5,a5,1852 # f00c <P2_is_marked>
    18d8:	0007a783          	lw	a5,0(a5)
    18dc:	0007879b          	sext.w	a5,a5
    18e0:	ffc7879b          	addiw	a5,a5,-4
    18e4:	0007871b          	sext.w	a4,a5
    18e8:	0000d797          	auipc	a5,0xd
    18ec:	72478793          	addi	a5,a5,1828 # f00c <P2_is_marked>
    18f0:	00e7a023          	sw	a4,0(a5)
    18f4:	fffff7b7          	lui	a5,0xfffff
    18f8:	ff040713          	addi	a4,s0,-16
    18fc:	00f707b3          	add	a5,a4,a5
    1900:	fffff737          	lui	a4,0xfffff
    1904:	ff040693          	addi	a3,s0,-16
    1908:	00e686b3          	add	a3,a3,a4
    190c:	fffff737          	lui	a4,0xfffff
    1910:	ff040613          	addi	a2,s0,-16
    1914:	00e60733          	add	a4,a2,a4
    1918:	5086b683          	ld	a3,1288(a3)
    191c:	51073703          	ld	a4,1296(a4) # fffffffffffff510 <__global_pointer$+0xfffffffffffefd10>
    1920:	00e68733          	add	a4,a3,a4
    1924:	50e7bc23          	sd	a4,1304(a5) # fffffffffffff518 <__global_pointer$+0xfffffffffffefd18>
    1928:	0000d797          	auipc	a5,0xd
    192c:	74c78793          	addi	a5,a5,1868 # f074 <P3_is_marked>
    1930:	0007a783          	lw	a5,0(a5)
    1934:	0007879b          	sext.w	a5,a5
    1938:	0000d717          	auipc	a4,0xd
    193c:	70073703          	ld	a4,1792(a4) # f038 <_GLOBAL_OFFSET_TABLE_+0x10>
    1940:	00379793          	slli	a5,a5,0x3
    1944:	00f707b3          	add	a5,a4,a5
    1948:	fffff737          	lui	a4,0xfffff
    194c:	ff040693          	addi	a3,s0,-16
    1950:	00e68733          	add	a4,a3,a4
    1954:	50873703          	ld	a4,1288(a4) # fffffffffffff508 <__global_pointer$+0xfffffffffffefd08>
    1958:	00e7b023          	sd	a4,0(a5)
    195c:	0000d797          	auipc	a5,0xd
    1960:	71878793          	addi	a5,a5,1816 # f074 <P3_is_marked>
    1964:	0007a783          	lw	a5,0(a5)
    1968:	0007879b          	sext.w	a5,a5
    196c:	0017879b          	addiw	a5,a5,1
    1970:	0007879b          	sext.w	a5,a5
    1974:	0000d717          	auipc	a4,0xd
    1978:	6c473703          	ld	a4,1732(a4) # f038 <_GLOBAL_OFFSET_TABLE_+0x10>
    197c:	00379793          	slli	a5,a5,0x3
    1980:	00f707b3          	add	a5,a4,a5
    1984:	fffff737          	lui	a4,0xfffff
    1988:	ff040693          	addi	a3,s0,-16
    198c:	00e68733          	add	a4,a3,a4
    1990:	51073703          	ld	a4,1296(a4) # fffffffffffff510 <__global_pointer$+0xfffffffffffefd10>
    1994:	00e7b023          	sd	a4,0(a5)
    1998:	0000d797          	auipc	a5,0xd
    199c:	6dc78793          	addi	a5,a5,1756 # f074 <P3_is_marked>
    19a0:	0007a783          	lw	a5,0(a5)
    19a4:	0007879b          	sext.w	a5,a5
    19a8:	0027879b          	addiw	a5,a5,2
    19ac:	0007879b          	sext.w	a5,a5
    19b0:	0000d717          	auipc	a4,0xd
    19b4:	68873703          	ld	a4,1672(a4) # f038 <_GLOBAL_OFFSET_TABLE_+0x10>
    19b8:	00379793          	slli	a5,a5,0x3
    19bc:	00f707b3          	add	a5,a4,a5
    19c0:	fffff737          	lui	a4,0xfffff
    19c4:	ff040693          	addi	a3,s0,-16
    19c8:	00e68733          	add	a4,a3,a4
    19cc:	51873703          	ld	a4,1304(a4) # fffffffffffff518 <__global_pointer$+0xfffffffffffefd18>
    19d0:	00e7b023          	sd	a4,0(a5)
    19d4:	0000d797          	auipc	a5,0xd
    19d8:	6a078793          	addi	a5,a5,1696 # f074 <P3_is_marked>
    19dc:	0007a783          	lw	a5,0(a5)
    19e0:	0007879b          	sext.w	a5,a5
    19e4:	0037879b          	addiw	a5,a5,3
    19e8:	0007871b          	sext.w	a4,a5
    19ec:	0000d797          	auipc	a5,0xd
    19f0:	68878793          	addi	a5,a5,1672 # f074 <P3_is_marked>
    19f4:	00e7a023          	sw	a4,0(a5)
    19f8:	0000d797          	auipc	a5,0xd
    19fc:	61478793          	addi	a5,a5,1556 # f00c <P2_is_marked>
    1a00:	0007a783          	lw	a5,0(a5)
    1a04:	0007879b          	sext.w	a5,a5
    1a08:	00078713          	mv	a4,a5
    1a0c:	00300793          	li	a5,3
    1a10:	1ce7de63          	bge	a5,a4,1bec <main+0x1520>
    1a14:	0000d797          	auipc	a5,0xd
    1a18:	66078793          	addi	a5,a5,1632 # f074 <P3_is_marked>
    1a1c:	0007a783          	lw	a5,0(a5)
    1a20:	0007879b          	sext.w	a5,a5
    1a24:	00078713          	mv	a4,a5
    1a28:	00300793          	li	a5,3
    1a2c:	1ce7c063          	blt	a5,a4,1bec <main+0x1520>
    1a30:	0000d797          	auipc	a5,0xd
    1a34:	6207b783          	ld	a5,1568(a5) # f050 <_GLOBAL_OFFSET_TABLE_+0x28>
    1a38:	0187b703          	ld	a4,24(a5)
    1a3c:	0000d797          	auipc	a5,0xd
    1a40:	6147b783          	ld	a5,1556(a5) # f050 <_GLOBAL_OFFSET_TABLE_+0x28>
    1a44:	0087b783          	ld	a5,8(a5)
    1a48:	1af71263          	bne	a4,a5,1bec <main+0x1520>
    1a4c:	0000d797          	auipc	a5,0xd
    1a50:	6047b783          	ld	a5,1540(a5) # f050 <_GLOBAL_OFFSET_TABLE_+0x28>
    1a54:	0187b703          	ld	a4,24(a5)
    1a58:	0000d797          	auipc	a5,0xd
    1a5c:	5f87b783          	ld	a5,1528(a5) # f050 <_GLOBAL_OFFSET_TABLE_+0x28>
    1a60:	0107b783          	ld	a5,16(a5)
    1a64:	18f71463          	bne	a4,a5,1bec <main+0x1520>
    1a68:	fffff7b7          	lui	a5,0xfffff
    1a6c:	ff040713          	addi	a4,s0,-16
    1a70:	00f707b3          	add	a5,a4,a5
    1a74:	0000d717          	auipc	a4,0xd
    1a78:	5dc73703          	ld	a4,1500(a4) # f050 <_GLOBAL_OFFSET_TABLE_+0x28>
    1a7c:	00073703          	ld	a4,0(a4)
    1a80:	52e7b023          	sd	a4,1312(a5) # fffffffffffff520 <__global_pointer$+0xfffffffffffefd20>
    1a84:	fffff7b7          	lui	a5,0xfffff
    1a88:	ff040713          	addi	a4,s0,-16
    1a8c:	00f707b3          	add	a5,a4,a5
    1a90:	0000d717          	auipc	a4,0xd
    1a94:	5c073703          	ld	a4,1472(a4) # f050 <_GLOBAL_OFFSET_TABLE_+0x28>
    1a98:	01873703          	ld	a4,24(a4)
    1a9c:	52e7b423          	sd	a4,1320(a5) # fffffffffffff528 <__global_pointer$+0xfffffffffffefd28>
    1aa0:	fffff7b7          	lui	a5,0xfffff
    1aa4:	ff040713          	addi	a4,s0,-16
    1aa8:	00f70733          	add	a4,a4,a5
    1aac:	fffff7b7          	lui	a5,0xfffff
    1ab0:	ff040693          	addi	a3,s0,-16
    1ab4:	00f687b3          	add	a5,a3,a5
    1ab8:	52873703          	ld	a4,1320(a4)
    1abc:	5207b783          	ld	a5,1312(a5) # fffffffffffff520 <__global_pointer$+0xfffffffffffefd20>
    1ac0:	12e7d663          	bge	a5,a4,1bec <main+0x1520>
    1ac4:	0000d797          	auipc	a5,0xd
    1ac8:	54878793          	addi	a5,a5,1352 # f00c <P2_is_marked>
    1acc:	0007a783          	lw	a5,0(a5)
    1ad0:	0007879b          	sext.w	a5,a5
    1ad4:	ffc7879b          	addiw	a5,a5,-4
    1ad8:	0007871b          	sext.w	a4,a5
    1adc:	0000d797          	auipc	a5,0xd
    1ae0:	53078793          	addi	a5,a5,1328 # f00c <P2_is_marked>
    1ae4:	00e7a023          	sw	a4,0(a5)
    1ae8:	fffff7b7          	lui	a5,0xfffff
    1aec:	ff040713          	addi	a4,s0,-16
    1af0:	00f707b3          	add	a5,a4,a5
    1af4:	fffff737          	lui	a4,0xfffff
    1af8:	ff040693          	addi	a3,s0,-16
    1afc:	00e686b3          	add	a3,a3,a4
    1b00:	fffff737          	lui	a4,0xfffff
    1b04:	ff040613          	addi	a2,s0,-16
    1b08:	00e60733          	add	a4,a2,a4
    1b0c:	5206b683          	ld	a3,1312(a3)
    1b10:	52873703          	ld	a4,1320(a4) # fffffffffffff528 <__global_pointer$+0xfffffffffffefd28>
    1b14:	00e68733          	add	a4,a3,a4
    1b18:	52e7b823          	sd	a4,1328(a5) # fffffffffffff530 <__global_pointer$+0xfffffffffffefd30>
    1b1c:	0000d797          	auipc	a5,0xd
    1b20:	55878793          	addi	a5,a5,1368 # f074 <P3_is_marked>
    1b24:	0007a783          	lw	a5,0(a5)
    1b28:	0007879b          	sext.w	a5,a5
    1b2c:	0000d717          	auipc	a4,0xd
    1b30:	50c73703          	ld	a4,1292(a4) # f038 <_GLOBAL_OFFSET_TABLE_+0x10>
    1b34:	00379793          	slli	a5,a5,0x3
    1b38:	00f707b3          	add	a5,a4,a5
    1b3c:	fffff737          	lui	a4,0xfffff
    1b40:	ff040693          	addi	a3,s0,-16
    1b44:	00e68733          	add	a4,a3,a4
    1b48:	52073703          	ld	a4,1312(a4) # fffffffffffff520 <__global_pointer$+0xfffffffffffefd20>
    1b4c:	00e7b023          	sd	a4,0(a5)
    1b50:	0000d797          	auipc	a5,0xd
    1b54:	52478793          	addi	a5,a5,1316 # f074 <P3_is_marked>
    1b58:	0007a783          	lw	a5,0(a5)
    1b5c:	0007879b          	sext.w	a5,a5
    1b60:	0017879b          	addiw	a5,a5,1
    1b64:	0007879b          	sext.w	a5,a5
    1b68:	0000d717          	auipc	a4,0xd
    1b6c:	4d073703          	ld	a4,1232(a4) # f038 <_GLOBAL_OFFSET_TABLE_+0x10>
    1b70:	00379793          	slli	a5,a5,0x3
    1b74:	00f707b3          	add	a5,a4,a5
    1b78:	fffff737          	lui	a4,0xfffff
    1b7c:	ff040693          	addi	a3,s0,-16
    1b80:	00e68733          	add	a4,a3,a4
    1b84:	52873703          	ld	a4,1320(a4) # fffffffffffff528 <__global_pointer$+0xfffffffffffefd28>
    1b88:	00e7b023          	sd	a4,0(a5)
    1b8c:	0000d797          	auipc	a5,0xd
    1b90:	4e878793          	addi	a5,a5,1256 # f074 <P3_is_marked>
    1b94:	0007a783          	lw	a5,0(a5)
    1b98:	0007879b          	sext.w	a5,a5
    1b9c:	0027879b          	addiw	a5,a5,2
    1ba0:	0007879b          	sext.w	a5,a5
    1ba4:	0000d717          	auipc	a4,0xd
    1ba8:	49473703          	ld	a4,1172(a4) # f038 <_GLOBAL_OFFSET_TABLE_+0x10>
    1bac:	00379793          	slli	a5,a5,0x3
    1bb0:	00f707b3          	add	a5,a4,a5
    1bb4:	fffff737          	lui	a4,0xfffff
    1bb8:	ff040693          	addi	a3,s0,-16
    1bbc:	00e68733          	add	a4,a3,a4
    1bc0:	53073703          	ld	a4,1328(a4) # fffffffffffff530 <__global_pointer$+0xfffffffffffefd30>
    1bc4:	00e7b023          	sd	a4,0(a5)
    1bc8:	0000d797          	auipc	a5,0xd
    1bcc:	4ac78793          	addi	a5,a5,1196 # f074 <P3_is_marked>
    1bd0:	0007a783          	lw	a5,0(a5)
    1bd4:	0007879b          	sext.w	a5,a5
    1bd8:	0037879b          	addiw	a5,a5,3
    1bdc:	0007871b          	sext.w	a4,a5
    1be0:	0000d797          	auipc	a5,0xd
    1be4:	49478793          	addi	a5,a5,1172 # f074 <P3_is_marked>
    1be8:	00e7a023          	sw	a4,0(a5)
    1bec:	0000d797          	auipc	a5,0xd
    1bf0:	42078793          	addi	a5,a5,1056 # f00c <P2_is_marked>
    1bf4:	0007a783          	lw	a5,0(a5)
    1bf8:	0007879b          	sext.w	a5,a5
    1bfc:	00078713          	mv	a4,a5
    1c00:	00300793          	li	a5,3
    1c04:	1ce7de63          	bge	a5,a4,1de0 <main+0x1714>
    1c08:	0000d797          	auipc	a5,0xd
    1c0c:	46c78793          	addi	a5,a5,1132 # f074 <P3_is_marked>
    1c10:	0007a783          	lw	a5,0(a5)
    1c14:	0007879b          	sext.w	a5,a5
    1c18:	00078713          	mv	a4,a5
    1c1c:	00300793          	li	a5,3
    1c20:	1ce7c063          	blt	a5,a4,1de0 <main+0x1714>
    1c24:	0000d797          	auipc	a5,0xd
    1c28:	42c7b783          	ld	a5,1068(a5) # f050 <_GLOBAL_OFFSET_TABLE_+0x28>
    1c2c:	0187b703          	ld	a4,24(a5)
    1c30:	0000d797          	auipc	a5,0xd
    1c34:	4207b783          	ld	a5,1056(a5) # f050 <_GLOBAL_OFFSET_TABLE_+0x28>
    1c38:	0107b783          	ld	a5,16(a5)
    1c3c:	1af71263          	bne	a4,a5,1de0 <main+0x1714>
    1c40:	0000d797          	auipc	a5,0xd
    1c44:	4107b783          	ld	a5,1040(a5) # f050 <_GLOBAL_OFFSET_TABLE_+0x28>
    1c48:	0187b703          	ld	a4,24(a5)
    1c4c:	0000d797          	auipc	a5,0xd
    1c50:	4047b783          	ld	a5,1028(a5) # f050 <_GLOBAL_OFFSET_TABLE_+0x28>
    1c54:	0087b783          	ld	a5,8(a5)
    1c58:	18f71463          	bne	a4,a5,1de0 <main+0x1714>
    1c5c:	fffff7b7          	lui	a5,0xfffff
    1c60:	ff040713          	addi	a4,s0,-16
    1c64:	00f707b3          	add	a5,a4,a5
    1c68:	0000d717          	auipc	a4,0xd
    1c6c:	3e873703          	ld	a4,1000(a4) # f050 <_GLOBAL_OFFSET_TABLE_+0x28>
    1c70:	00073703          	ld	a4,0(a4)
    1c74:	52e7bc23          	sd	a4,1336(a5) # fffffffffffff538 <__global_pointer$+0xfffffffffffefd38>
    1c78:	fffff7b7          	lui	a5,0xfffff
    1c7c:	ff040713          	addi	a4,s0,-16
    1c80:	00f707b3          	add	a5,a4,a5
    1c84:	0000d717          	auipc	a4,0xd
    1c88:	3cc73703          	ld	a4,972(a4) # f050 <_GLOBAL_OFFSET_TABLE_+0x28>
    1c8c:	01873703          	ld	a4,24(a4)
    1c90:	54e7b023          	sd	a4,1344(a5) # fffffffffffff540 <__global_pointer$+0xfffffffffffefd40>
    1c94:	fffff7b7          	lui	a5,0xfffff
    1c98:	ff040713          	addi	a4,s0,-16
    1c9c:	00f70733          	add	a4,a4,a5
    1ca0:	fffff7b7          	lui	a5,0xfffff
    1ca4:	ff040693          	addi	a3,s0,-16
    1ca8:	00f687b3          	add	a5,a3,a5
    1cac:	54073703          	ld	a4,1344(a4)
    1cb0:	5387b783          	ld	a5,1336(a5) # fffffffffffff538 <__global_pointer$+0xfffffffffffefd38>
    1cb4:	12e7d663          	bge	a5,a4,1de0 <main+0x1714>
    1cb8:	0000d797          	auipc	a5,0xd
    1cbc:	35478793          	addi	a5,a5,852 # f00c <P2_is_marked>
    1cc0:	0007a783          	lw	a5,0(a5)
    1cc4:	0007879b          	sext.w	a5,a5
    1cc8:	ffc7879b          	addiw	a5,a5,-4
    1ccc:	0007871b          	sext.w	a4,a5
    1cd0:	0000d797          	auipc	a5,0xd
    1cd4:	33c78793          	addi	a5,a5,828 # f00c <P2_is_marked>
    1cd8:	00e7a023          	sw	a4,0(a5)
    1cdc:	fffff7b7          	lui	a5,0xfffff
    1ce0:	ff040713          	addi	a4,s0,-16
    1ce4:	00f707b3          	add	a5,a4,a5
    1ce8:	fffff737          	lui	a4,0xfffff
    1cec:	ff040693          	addi	a3,s0,-16
    1cf0:	00e686b3          	add	a3,a3,a4
    1cf4:	fffff737          	lui	a4,0xfffff
    1cf8:	ff040613          	addi	a2,s0,-16
    1cfc:	00e60733          	add	a4,a2,a4
    1d00:	5386b683          	ld	a3,1336(a3)
    1d04:	54073703          	ld	a4,1344(a4) # fffffffffffff540 <__global_pointer$+0xfffffffffffefd40>
    1d08:	00e68733          	add	a4,a3,a4
    1d0c:	54e7b423          	sd	a4,1352(a5) # fffffffffffff548 <__global_pointer$+0xfffffffffffefd48>
    1d10:	0000d797          	auipc	a5,0xd
    1d14:	36478793          	addi	a5,a5,868 # f074 <P3_is_marked>
    1d18:	0007a783          	lw	a5,0(a5)
    1d1c:	0007879b          	sext.w	a5,a5
    1d20:	0000d717          	auipc	a4,0xd
    1d24:	31873703          	ld	a4,792(a4) # f038 <_GLOBAL_OFFSET_TABLE_+0x10>
    1d28:	00379793          	slli	a5,a5,0x3
    1d2c:	00f707b3          	add	a5,a4,a5
    1d30:	fffff737          	lui	a4,0xfffff
    1d34:	ff040693          	addi	a3,s0,-16
    1d38:	00e68733          	add	a4,a3,a4
    1d3c:	53873703          	ld	a4,1336(a4) # fffffffffffff538 <__global_pointer$+0xfffffffffffefd38>
    1d40:	00e7b023          	sd	a4,0(a5)
    1d44:	0000d797          	auipc	a5,0xd
    1d48:	33078793          	addi	a5,a5,816 # f074 <P3_is_marked>
    1d4c:	0007a783          	lw	a5,0(a5)
    1d50:	0007879b          	sext.w	a5,a5
    1d54:	0017879b          	addiw	a5,a5,1
    1d58:	0007879b          	sext.w	a5,a5
    1d5c:	0000d717          	auipc	a4,0xd
    1d60:	2dc73703          	ld	a4,732(a4) # f038 <_GLOBAL_OFFSET_TABLE_+0x10>
    1d64:	00379793          	slli	a5,a5,0x3
    1d68:	00f707b3          	add	a5,a4,a5
    1d6c:	fffff737          	lui	a4,0xfffff
    1d70:	ff040693          	addi	a3,s0,-16
    1d74:	00e68733          	add	a4,a3,a4
    1d78:	54073703          	ld	a4,1344(a4) # fffffffffffff540 <__global_pointer$+0xfffffffffffefd40>
    1d7c:	00e7b023          	sd	a4,0(a5)
    1d80:	0000d797          	auipc	a5,0xd
    1d84:	2f478793          	addi	a5,a5,756 # f074 <P3_is_marked>
    1d88:	0007a783          	lw	a5,0(a5)
    1d8c:	0007879b          	sext.w	a5,a5
    1d90:	0027879b          	addiw	a5,a5,2
    1d94:	0007879b          	sext.w	a5,a5
    1d98:	0000d717          	auipc	a4,0xd
    1d9c:	2a073703          	ld	a4,672(a4) # f038 <_GLOBAL_OFFSET_TABLE_+0x10>
    1da0:	00379793          	slli	a5,a5,0x3
    1da4:	00f707b3          	add	a5,a4,a5
    1da8:	fffff737          	lui	a4,0xfffff
    1dac:	ff040693          	addi	a3,s0,-16
    1db0:	00e68733          	add	a4,a3,a4
    1db4:	54873703          	ld	a4,1352(a4) # fffffffffffff548 <__global_pointer$+0xfffffffffffefd48>
    1db8:	00e7b023          	sd	a4,0(a5)
    1dbc:	0000d797          	auipc	a5,0xd
    1dc0:	2b878793          	addi	a5,a5,696 # f074 <P3_is_marked>
    1dc4:	0007a783          	lw	a5,0(a5)
    1dc8:	0007879b          	sext.w	a5,a5
    1dcc:	0037879b          	addiw	a5,a5,3
    1dd0:	0007871b          	sext.w	a4,a5
    1dd4:	0000d797          	auipc	a5,0xd
    1dd8:	2a078793          	addi	a5,a5,672 # f074 <P3_is_marked>
    1ddc:	00e7a023          	sw	a4,0(a5)
    1de0:	0000d797          	auipc	a5,0xd
    1de4:	22c78793          	addi	a5,a5,556 # f00c <P2_is_marked>
    1de8:	0007a783          	lw	a5,0(a5)
    1dec:	0007879b          	sext.w	a5,a5
    1df0:	00078713          	mv	a4,a5
    1df4:	00300793          	li	a5,3
    1df8:	1ce7de63          	bge	a5,a4,1fd4 <main+0x1908>
    1dfc:	0000d797          	auipc	a5,0xd
    1e00:	27878793          	addi	a5,a5,632 # f074 <P3_is_marked>
    1e04:	0007a783          	lw	a5,0(a5)
    1e08:	0007879b          	sext.w	a5,a5
    1e0c:	00078713          	mv	a4,a5
    1e10:	00300793          	li	a5,3
    1e14:	1ce7c063          	blt	a5,a4,1fd4 <main+0x1908>
    1e18:	0000d797          	auipc	a5,0xd
    1e1c:	2387b783          	ld	a5,568(a5) # f050 <_GLOBAL_OFFSET_TABLE_+0x28>
    1e20:	0007b703          	ld	a4,0(a5)
    1e24:	0000d797          	auipc	a5,0xd
    1e28:	22c7b783          	ld	a5,556(a5) # f050 <_GLOBAL_OFFSET_TABLE_+0x28>
    1e2c:	0107b783          	ld	a5,16(a5)
    1e30:	1af71263          	bne	a4,a5,1fd4 <main+0x1908>
    1e34:	0000d797          	auipc	a5,0xd
    1e38:	21c7b783          	ld	a5,540(a5) # f050 <_GLOBAL_OFFSET_TABLE_+0x28>
    1e3c:	0007b703          	ld	a4,0(a5)
    1e40:	0000d797          	auipc	a5,0xd
    1e44:	2107b783          	ld	a5,528(a5) # f050 <_GLOBAL_OFFSET_TABLE_+0x28>
    1e48:	0187b783          	ld	a5,24(a5)
    1e4c:	18f71463          	bne	a4,a5,1fd4 <main+0x1908>
    1e50:	fffff7b7          	lui	a5,0xfffff
    1e54:	ff040713          	addi	a4,s0,-16
    1e58:	00f707b3          	add	a5,a4,a5
    1e5c:	0000d717          	auipc	a4,0xd
    1e60:	1f473703          	ld	a4,500(a4) # f050 <_GLOBAL_OFFSET_TABLE_+0x28>
    1e64:	00873703          	ld	a4,8(a4)
    1e68:	54e7b823          	sd	a4,1360(a5) # fffffffffffff550 <__global_pointer$+0xfffffffffffefd50>
    1e6c:	fffff7b7          	lui	a5,0xfffff
    1e70:	ff040713          	addi	a4,s0,-16
    1e74:	00f707b3          	add	a5,a4,a5
    1e78:	0000d717          	auipc	a4,0xd
    1e7c:	1d873703          	ld	a4,472(a4) # f050 <_GLOBAL_OFFSET_TABLE_+0x28>
    1e80:	00073703          	ld	a4,0(a4)
    1e84:	54e7bc23          	sd	a4,1368(a5) # fffffffffffff558 <__global_pointer$+0xfffffffffffefd58>
    1e88:	fffff7b7          	lui	a5,0xfffff
    1e8c:	ff040713          	addi	a4,s0,-16
    1e90:	00f70733          	add	a4,a4,a5
    1e94:	fffff7b7          	lui	a5,0xfffff
    1e98:	ff040693          	addi	a3,s0,-16
    1e9c:	00f687b3          	add	a5,a3,a5
    1ea0:	55873703          	ld	a4,1368(a4)
    1ea4:	5507b783          	ld	a5,1360(a5) # fffffffffffff550 <__global_pointer$+0xfffffffffffefd50>
    1ea8:	12e7d663          	bge	a5,a4,1fd4 <main+0x1908>
    1eac:	0000d797          	auipc	a5,0xd
    1eb0:	16078793          	addi	a5,a5,352 # f00c <P2_is_marked>
    1eb4:	0007a783          	lw	a5,0(a5)
    1eb8:	0007879b          	sext.w	a5,a5
    1ebc:	ffc7879b          	addiw	a5,a5,-4
    1ec0:	0007871b          	sext.w	a4,a5
    1ec4:	0000d797          	auipc	a5,0xd
    1ec8:	14878793          	addi	a5,a5,328 # f00c <P2_is_marked>
    1ecc:	00e7a023          	sw	a4,0(a5)
    1ed0:	fffff7b7          	lui	a5,0xfffff
    1ed4:	ff040713          	addi	a4,s0,-16
    1ed8:	00f707b3          	add	a5,a4,a5
    1edc:	fffff737          	lui	a4,0xfffff
    1ee0:	ff040693          	addi	a3,s0,-16
    1ee4:	00e686b3          	add	a3,a3,a4
    1ee8:	fffff737          	lui	a4,0xfffff
    1eec:	ff040613          	addi	a2,s0,-16
    1ef0:	00e60733          	add	a4,a2,a4
    1ef4:	5506b683          	ld	a3,1360(a3)
    1ef8:	55873703          	ld	a4,1368(a4) # fffffffffffff558 <__global_pointer$+0xfffffffffffefd58>
    1efc:	00e68733          	add	a4,a3,a4
    1f00:	56e7b023          	sd	a4,1376(a5) # fffffffffffff560 <__global_pointer$+0xfffffffffffefd60>
    1f04:	0000d797          	auipc	a5,0xd
    1f08:	17078793          	addi	a5,a5,368 # f074 <P3_is_marked>
    1f0c:	0007a783          	lw	a5,0(a5)
    1f10:	0007879b          	sext.w	a5,a5
    1f14:	0000d717          	auipc	a4,0xd
    1f18:	12473703          	ld	a4,292(a4) # f038 <_GLOBAL_OFFSET_TABLE_+0x10>
    1f1c:	00379793          	slli	a5,a5,0x3
    1f20:	00f707b3          	add	a5,a4,a5
    1f24:	fffff737          	lui	a4,0xfffff
    1f28:	ff040693          	addi	a3,s0,-16
    1f2c:	00e68733          	add	a4,a3,a4
    1f30:	55073703          	ld	a4,1360(a4) # fffffffffffff550 <__global_pointer$+0xfffffffffffefd50>
    1f34:	00e7b023          	sd	a4,0(a5)
    1f38:	0000d797          	auipc	a5,0xd
    1f3c:	13c78793          	addi	a5,a5,316 # f074 <P3_is_marked>
    1f40:	0007a783          	lw	a5,0(a5)
    1f44:	0007879b          	sext.w	a5,a5
    1f48:	0017879b          	addiw	a5,a5,1
    1f4c:	0007879b          	sext.w	a5,a5
    1f50:	0000d717          	auipc	a4,0xd
    1f54:	0e873703          	ld	a4,232(a4) # f038 <_GLOBAL_OFFSET_TABLE_+0x10>
    1f58:	00379793          	slli	a5,a5,0x3
    1f5c:	00f707b3          	add	a5,a4,a5
    1f60:	fffff737          	lui	a4,0xfffff
    1f64:	ff040693          	addi	a3,s0,-16
    1f68:	00e68733          	add	a4,a3,a4
    1f6c:	55873703          	ld	a4,1368(a4) # fffffffffffff558 <__global_pointer$+0xfffffffffffefd58>
    1f70:	00e7b023          	sd	a4,0(a5)
    1f74:	0000d797          	auipc	a5,0xd
    1f78:	10078793          	addi	a5,a5,256 # f074 <P3_is_marked>
    1f7c:	0007a783          	lw	a5,0(a5)
    1f80:	0007879b          	sext.w	a5,a5
    1f84:	0027879b          	addiw	a5,a5,2
    1f88:	0007879b          	sext.w	a5,a5
    1f8c:	0000d717          	auipc	a4,0xd
    1f90:	0ac73703          	ld	a4,172(a4) # f038 <_GLOBAL_OFFSET_TABLE_+0x10>
    1f94:	00379793          	slli	a5,a5,0x3
    1f98:	00f707b3          	add	a5,a4,a5
    1f9c:	fffff737          	lui	a4,0xfffff
    1fa0:	ff040693          	addi	a3,s0,-16
    1fa4:	00e68733          	add	a4,a3,a4
    1fa8:	56073703          	ld	a4,1376(a4) # fffffffffffff560 <__global_pointer$+0xfffffffffffefd60>
    1fac:	00e7b023          	sd	a4,0(a5)
    1fb0:	0000d797          	auipc	a5,0xd
    1fb4:	0c478793          	addi	a5,a5,196 # f074 <P3_is_marked>
    1fb8:	0007a783          	lw	a5,0(a5)
    1fbc:	0007879b          	sext.w	a5,a5
    1fc0:	0037879b          	addiw	a5,a5,3
    1fc4:	0007871b          	sext.w	a4,a5
    1fc8:	0000d797          	auipc	a5,0xd
    1fcc:	0ac78793          	addi	a5,a5,172 # f074 <P3_is_marked>
    1fd0:	00e7a023          	sw	a4,0(a5)
    1fd4:	0000d797          	auipc	a5,0xd
    1fd8:	03878793          	addi	a5,a5,56 # f00c <P2_is_marked>
    1fdc:	0007a783          	lw	a5,0(a5)
    1fe0:	0007879b          	sext.w	a5,a5
    1fe4:	00078713          	mv	a4,a5
    1fe8:	00300793          	li	a5,3
    1fec:	1ce7de63          	bge	a5,a4,21c8 <main+0x1afc>
    1ff0:	0000d797          	auipc	a5,0xd
    1ff4:	08478793          	addi	a5,a5,132 # f074 <P3_is_marked>
    1ff8:	0007a783          	lw	a5,0(a5)
    1ffc:	0007879b          	sext.w	a5,a5
    2000:	00078713          	mv	a4,a5
    2004:	00300793          	li	a5,3
    2008:	1ce7c063          	blt	a5,a4,21c8 <main+0x1afc>
    200c:	0000d797          	auipc	a5,0xd
    2010:	0447b783          	ld	a5,68(a5) # f050 <_GLOBAL_OFFSET_TABLE_+0x28>
    2014:	0007b703          	ld	a4,0(a5)
    2018:	0000d797          	auipc	a5,0xd
    201c:	0387b783          	ld	a5,56(a5) # f050 <_GLOBAL_OFFSET_TABLE_+0x28>
    2020:	0187b783          	ld	a5,24(a5)
    2024:	1af71263          	bne	a4,a5,21c8 <main+0x1afc>
    2028:	0000d797          	auipc	a5,0xd
    202c:	0287b783          	ld	a5,40(a5) # f050 <_GLOBAL_OFFSET_TABLE_+0x28>
    2030:	0007b703          	ld	a4,0(a5)
    2034:	0000d797          	auipc	a5,0xd
    2038:	01c7b783          	ld	a5,28(a5) # f050 <_GLOBAL_OFFSET_TABLE_+0x28>
    203c:	0107b783          	ld	a5,16(a5)
    2040:	18f71463          	bne	a4,a5,21c8 <main+0x1afc>
    2044:	fffff7b7          	lui	a5,0xfffff
    2048:	ff040713          	addi	a4,s0,-16
    204c:	00f707b3          	add	a5,a4,a5
    2050:	0000d717          	auipc	a4,0xd
    2054:	00073703          	ld	a4,0(a4) # f050 <_GLOBAL_OFFSET_TABLE_+0x28>
    2058:	00873703          	ld	a4,8(a4)
    205c:	56e7b423          	sd	a4,1384(a5) # fffffffffffff568 <__global_pointer$+0xfffffffffffefd68>
    2060:	fffff7b7          	lui	a5,0xfffff
    2064:	ff040713          	addi	a4,s0,-16
    2068:	00f707b3          	add	a5,a4,a5
    206c:	0000d717          	auipc	a4,0xd
    2070:	fe473703          	ld	a4,-28(a4) # f050 <_GLOBAL_OFFSET_TABLE_+0x28>
    2074:	00073703          	ld	a4,0(a4)
    2078:	56e7b823          	sd	a4,1392(a5) # fffffffffffff570 <__global_pointer$+0xfffffffffffefd70>
    207c:	fffff7b7          	lui	a5,0xfffff
    2080:	ff040713          	addi	a4,s0,-16
    2084:	00f70733          	add	a4,a4,a5
    2088:	fffff7b7          	lui	a5,0xfffff
    208c:	ff040693          	addi	a3,s0,-16
    2090:	00f687b3          	add	a5,a3,a5
    2094:	57073703          	ld	a4,1392(a4)
    2098:	5687b783          	ld	a5,1384(a5) # fffffffffffff568 <__global_pointer$+0xfffffffffffefd68>
    209c:	12e7d663          	bge	a5,a4,21c8 <main+0x1afc>
    20a0:	0000d797          	auipc	a5,0xd
    20a4:	f6c78793          	addi	a5,a5,-148 # f00c <P2_is_marked>
    20a8:	0007a783          	lw	a5,0(a5)
    20ac:	0007879b          	sext.w	a5,a5
    20b0:	ffc7879b          	addiw	a5,a5,-4
    20b4:	0007871b          	sext.w	a4,a5
    20b8:	0000d797          	auipc	a5,0xd
    20bc:	f5478793          	addi	a5,a5,-172 # f00c <P2_is_marked>
    20c0:	00e7a023          	sw	a4,0(a5)
    20c4:	fffff7b7          	lui	a5,0xfffff
    20c8:	ff040713          	addi	a4,s0,-16
    20cc:	00f707b3          	add	a5,a4,a5
    20d0:	fffff737          	lui	a4,0xfffff
    20d4:	ff040693          	addi	a3,s0,-16
    20d8:	00e686b3          	add	a3,a3,a4
    20dc:	fffff737          	lui	a4,0xfffff
    20e0:	ff040613          	addi	a2,s0,-16
    20e4:	00e60733          	add	a4,a2,a4
    20e8:	5686b683          	ld	a3,1384(a3)
    20ec:	57073703          	ld	a4,1392(a4) # fffffffffffff570 <__global_pointer$+0xfffffffffffefd70>
    20f0:	00e68733          	add	a4,a3,a4
    20f4:	56e7bc23          	sd	a4,1400(a5) # fffffffffffff578 <__global_pointer$+0xfffffffffffefd78>
    20f8:	0000d797          	auipc	a5,0xd
    20fc:	f7c78793          	addi	a5,a5,-132 # f074 <P3_is_marked>
    2100:	0007a783          	lw	a5,0(a5)
    2104:	0007879b          	sext.w	a5,a5
    2108:	0000d717          	auipc	a4,0xd
    210c:	f3073703          	ld	a4,-208(a4) # f038 <_GLOBAL_OFFSET_TABLE_+0x10>
    2110:	00379793          	slli	a5,a5,0x3
    2114:	00f707b3          	add	a5,a4,a5
    2118:	fffff737          	lui	a4,0xfffff
    211c:	ff040693          	addi	a3,s0,-16
    2120:	00e68733          	add	a4,a3,a4
    2124:	56873703          	ld	a4,1384(a4) # fffffffffffff568 <__global_pointer$+0xfffffffffffefd68>
    2128:	00e7b023          	sd	a4,0(a5)
    212c:	0000d797          	auipc	a5,0xd
    2130:	f4878793          	addi	a5,a5,-184 # f074 <P3_is_marked>
    2134:	0007a783          	lw	a5,0(a5)
    2138:	0007879b          	sext.w	a5,a5
    213c:	0017879b          	addiw	a5,a5,1
    2140:	0007879b          	sext.w	a5,a5
    2144:	0000d717          	auipc	a4,0xd
    2148:	ef473703          	ld	a4,-268(a4) # f038 <_GLOBAL_OFFSET_TABLE_+0x10>
    214c:	00379793          	slli	a5,a5,0x3
    2150:	00f707b3          	add	a5,a4,a5
    2154:	fffff737          	lui	a4,0xfffff
    2158:	ff040693          	addi	a3,s0,-16
    215c:	00e68733          	add	a4,a3,a4
    2160:	57073703          	ld	a4,1392(a4) # fffffffffffff570 <__global_pointer$+0xfffffffffffefd70>
    2164:	00e7b023          	sd	a4,0(a5)
    2168:	0000d797          	auipc	a5,0xd
    216c:	f0c78793          	addi	a5,a5,-244 # f074 <P3_is_marked>
    2170:	0007a783          	lw	a5,0(a5)
    2174:	0007879b          	sext.w	a5,a5
    2178:	0027879b          	addiw	a5,a5,2
    217c:	0007879b          	sext.w	a5,a5
    2180:	0000d717          	auipc	a4,0xd
    2184:	eb873703          	ld	a4,-328(a4) # f038 <_GLOBAL_OFFSET_TABLE_+0x10>
    2188:	00379793          	slli	a5,a5,0x3
    218c:	00f707b3          	add	a5,a4,a5
    2190:	fffff737          	lui	a4,0xfffff
    2194:	ff040693          	addi	a3,s0,-16
    2198:	00e68733          	add	a4,a3,a4
    219c:	57873703          	ld	a4,1400(a4) # fffffffffffff578 <__global_pointer$+0xfffffffffffefd78>
    21a0:	00e7b023          	sd	a4,0(a5)
    21a4:	0000d797          	auipc	a5,0xd
    21a8:	ed078793          	addi	a5,a5,-304 # f074 <P3_is_marked>
    21ac:	0007a783          	lw	a5,0(a5)
    21b0:	0007879b          	sext.w	a5,a5
    21b4:	0037879b          	addiw	a5,a5,3
    21b8:	0007871b          	sext.w	a4,a5
    21bc:	0000d797          	auipc	a5,0xd
    21c0:	eb878793          	addi	a5,a5,-328 # f074 <P3_is_marked>
    21c4:	00e7a023          	sw	a4,0(a5)
    21c8:	0000d797          	auipc	a5,0xd
    21cc:	e4478793          	addi	a5,a5,-444 # f00c <P2_is_marked>
    21d0:	0007a783          	lw	a5,0(a5)
    21d4:	0007879b          	sext.w	a5,a5
    21d8:	00078713          	mv	a4,a5
    21dc:	00300793          	li	a5,3
    21e0:	1ce7de63          	bge	a5,a4,23bc <main+0x1cf0>
    21e4:	0000d797          	auipc	a5,0xd
    21e8:	e9078793          	addi	a5,a5,-368 # f074 <P3_is_marked>
    21ec:	0007a783          	lw	a5,0(a5)
    21f0:	0007879b          	sext.w	a5,a5
    21f4:	00078713          	mv	a4,a5
    21f8:	00300793          	li	a5,3
    21fc:	1ce7c063          	blt	a5,a4,23bc <main+0x1cf0>
    2200:	0000d797          	auipc	a5,0xd
    2204:	e507b783          	ld	a5,-432(a5) # f050 <_GLOBAL_OFFSET_TABLE_+0x28>
    2208:	0107b703          	ld	a4,16(a5)
    220c:	0000d797          	auipc	a5,0xd
    2210:	e447b783          	ld	a5,-444(a5) # f050 <_GLOBAL_OFFSET_TABLE_+0x28>
    2214:	0007b783          	ld	a5,0(a5)
    2218:	1af71263          	bne	a4,a5,23bc <main+0x1cf0>
    221c:	0000d797          	auipc	a5,0xd
    2220:	e347b783          	ld	a5,-460(a5) # f050 <_GLOBAL_OFFSET_TABLE_+0x28>
    2224:	0107b703          	ld	a4,16(a5)
    2228:	0000d797          	auipc	a5,0xd
    222c:	e287b783          	ld	a5,-472(a5) # f050 <_GLOBAL_OFFSET_TABLE_+0x28>
    2230:	0187b783          	ld	a5,24(a5)
    2234:	18f71463          	bne	a4,a5,23bc <main+0x1cf0>
    2238:	fffff7b7          	lui	a5,0xfffff
    223c:	ff040713          	addi	a4,s0,-16
    2240:	00f707b3          	add	a5,a4,a5
    2244:	0000d717          	auipc	a4,0xd
    2248:	e0c73703          	ld	a4,-500(a4) # f050 <_GLOBAL_OFFSET_TABLE_+0x28>
    224c:	00873703          	ld	a4,8(a4)
    2250:	58e7b023          	sd	a4,1408(a5) # fffffffffffff580 <__global_pointer$+0xfffffffffffefd80>
    2254:	fffff7b7          	lui	a5,0xfffff
    2258:	ff040713          	addi	a4,s0,-16
    225c:	00f707b3          	add	a5,a4,a5
    2260:	0000d717          	auipc	a4,0xd
    2264:	df073703          	ld	a4,-528(a4) # f050 <_GLOBAL_OFFSET_TABLE_+0x28>
    2268:	01073703          	ld	a4,16(a4)
    226c:	58e7b423          	sd	a4,1416(a5) # fffffffffffff588 <__global_pointer$+0xfffffffffffefd88>
    2270:	fffff7b7          	lui	a5,0xfffff
    2274:	ff040713          	addi	a4,s0,-16
    2278:	00f70733          	add	a4,a4,a5
    227c:	fffff7b7          	lui	a5,0xfffff
    2280:	ff040693          	addi	a3,s0,-16
    2284:	00f687b3          	add	a5,a3,a5
    2288:	58873703          	ld	a4,1416(a4)
    228c:	5807b783          	ld	a5,1408(a5) # fffffffffffff580 <__global_pointer$+0xfffffffffffefd80>
    2290:	12e7d663          	bge	a5,a4,23bc <main+0x1cf0>
    2294:	0000d797          	auipc	a5,0xd
    2298:	d7878793          	addi	a5,a5,-648 # f00c <P2_is_marked>
    229c:	0007a783          	lw	a5,0(a5)
    22a0:	0007879b          	sext.w	a5,a5
    22a4:	ffc7879b          	addiw	a5,a5,-4
    22a8:	0007871b          	sext.w	a4,a5
    22ac:	0000d797          	auipc	a5,0xd
    22b0:	d6078793          	addi	a5,a5,-672 # f00c <P2_is_marked>
    22b4:	00e7a023          	sw	a4,0(a5)
    22b8:	fffff7b7          	lui	a5,0xfffff
    22bc:	ff040713          	addi	a4,s0,-16
    22c0:	00f707b3          	add	a5,a4,a5
    22c4:	fffff737          	lui	a4,0xfffff
    22c8:	ff040693          	addi	a3,s0,-16
    22cc:	00e686b3          	add	a3,a3,a4
    22d0:	fffff737          	lui	a4,0xfffff
    22d4:	ff040613          	addi	a2,s0,-16
    22d8:	00e60733          	add	a4,a2,a4
    22dc:	5806b683          	ld	a3,1408(a3)
    22e0:	58873703          	ld	a4,1416(a4) # fffffffffffff588 <__global_pointer$+0xfffffffffffefd88>
    22e4:	00e68733          	add	a4,a3,a4
    22e8:	58e7b823          	sd	a4,1424(a5) # fffffffffffff590 <__global_pointer$+0xfffffffffffefd90>
    22ec:	0000d797          	auipc	a5,0xd
    22f0:	d8878793          	addi	a5,a5,-632 # f074 <P3_is_marked>
    22f4:	0007a783          	lw	a5,0(a5)
    22f8:	0007879b          	sext.w	a5,a5
    22fc:	0000d717          	auipc	a4,0xd
    2300:	d3c73703          	ld	a4,-708(a4) # f038 <_GLOBAL_OFFSET_TABLE_+0x10>
    2304:	00379793          	slli	a5,a5,0x3
    2308:	00f707b3          	add	a5,a4,a5
    230c:	fffff737          	lui	a4,0xfffff
    2310:	ff040693          	addi	a3,s0,-16
    2314:	00e68733          	add	a4,a3,a4
    2318:	58073703          	ld	a4,1408(a4) # fffffffffffff580 <__global_pointer$+0xfffffffffffefd80>
    231c:	00e7b023          	sd	a4,0(a5)
    2320:	0000d797          	auipc	a5,0xd
    2324:	d5478793          	addi	a5,a5,-684 # f074 <P3_is_marked>
    2328:	0007a783          	lw	a5,0(a5)
    232c:	0007879b          	sext.w	a5,a5
    2330:	0017879b          	addiw	a5,a5,1
    2334:	0007879b          	sext.w	a5,a5
    2338:	0000d717          	auipc	a4,0xd
    233c:	d0073703          	ld	a4,-768(a4) # f038 <_GLOBAL_OFFSET_TABLE_+0x10>
    2340:	00379793          	slli	a5,a5,0x3
    2344:	00f707b3          	add	a5,a4,a5
    2348:	fffff737          	lui	a4,0xfffff
    234c:	ff040693          	addi	a3,s0,-16
    2350:	00e68733          	add	a4,a3,a4
    2354:	58873703          	ld	a4,1416(a4) # fffffffffffff588 <__global_pointer$+0xfffffffffffefd88>
    2358:	00e7b023          	sd	a4,0(a5)
    235c:	0000d797          	auipc	a5,0xd
    2360:	d1878793          	addi	a5,a5,-744 # f074 <P3_is_marked>
    2364:	0007a783          	lw	a5,0(a5)
    2368:	0007879b          	sext.w	a5,a5
    236c:	0027879b          	addiw	a5,a5,2
    2370:	0007879b          	sext.w	a5,a5
    2374:	0000d717          	auipc	a4,0xd
    2378:	cc473703          	ld	a4,-828(a4) # f038 <_GLOBAL_OFFSET_TABLE_+0x10>
    237c:	00379793          	slli	a5,a5,0x3
    2380:	00f707b3          	add	a5,a4,a5
    2384:	fffff737          	lui	a4,0xfffff
    2388:	ff040693          	addi	a3,s0,-16
    238c:	00e68733          	add	a4,a3,a4
    2390:	59073703          	ld	a4,1424(a4) # fffffffffffff590 <__global_pointer$+0xfffffffffffefd90>
    2394:	00e7b023          	sd	a4,0(a5)
    2398:	0000d797          	auipc	a5,0xd
    239c:	cdc78793          	addi	a5,a5,-804 # f074 <P3_is_marked>
    23a0:	0007a783          	lw	a5,0(a5)
    23a4:	0007879b          	sext.w	a5,a5
    23a8:	0037879b          	addiw	a5,a5,3
    23ac:	0007871b          	sext.w	a4,a5
    23b0:	0000d797          	auipc	a5,0xd
    23b4:	cc478793          	addi	a5,a5,-828 # f074 <P3_is_marked>
    23b8:	00e7a023          	sw	a4,0(a5)
    23bc:	0000d797          	auipc	a5,0xd
    23c0:	c5078793          	addi	a5,a5,-944 # f00c <P2_is_marked>
    23c4:	0007a783          	lw	a5,0(a5)
    23c8:	0007879b          	sext.w	a5,a5
    23cc:	00078713          	mv	a4,a5
    23d0:	00300793          	li	a5,3
    23d4:	1ce7de63          	bge	a5,a4,25b0 <main+0x1ee4>
    23d8:	0000d797          	auipc	a5,0xd
    23dc:	c9c78793          	addi	a5,a5,-868 # f074 <P3_is_marked>
    23e0:	0007a783          	lw	a5,0(a5)
    23e4:	0007879b          	sext.w	a5,a5
    23e8:	00078713          	mv	a4,a5
    23ec:	00300793          	li	a5,3
    23f0:	1ce7c063          	blt	a5,a4,25b0 <main+0x1ee4>
    23f4:	0000d797          	auipc	a5,0xd
    23f8:	c5c7b783          	ld	a5,-932(a5) # f050 <_GLOBAL_OFFSET_TABLE_+0x28>
    23fc:	0107b703          	ld	a4,16(a5)
    2400:	0000d797          	auipc	a5,0xd
    2404:	c507b783          	ld	a5,-944(a5) # f050 <_GLOBAL_OFFSET_TABLE_+0x28>
    2408:	0187b783          	ld	a5,24(a5)
    240c:	1af71263          	bne	a4,a5,25b0 <main+0x1ee4>
    2410:	0000d797          	auipc	a5,0xd
    2414:	c407b783          	ld	a5,-960(a5) # f050 <_GLOBAL_OFFSET_TABLE_+0x28>
    2418:	0107b703          	ld	a4,16(a5)
    241c:	0000d797          	auipc	a5,0xd
    2420:	c347b783          	ld	a5,-972(a5) # f050 <_GLOBAL_OFFSET_TABLE_+0x28>
    2424:	0007b783          	ld	a5,0(a5)
    2428:	18f71463          	bne	a4,a5,25b0 <main+0x1ee4>
    242c:	fffff7b7          	lui	a5,0xfffff
    2430:	ff040713          	addi	a4,s0,-16
    2434:	00f707b3          	add	a5,a4,a5
    2438:	0000d717          	auipc	a4,0xd
    243c:	c1873703          	ld	a4,-1000(a4) # f050 <_GLOBAL_OFFSET_TABLE_+0x28>
    2440:	00873703          	ld	a4,8(a4)
    2444:	58e7bc23          	sd	a4,1432(a5) # fffffffffffff598 <__global_pointer$+0xfffffffffffefd98>
    2448:	fffff7b7          	lui	a5,0xfffff
    244c:	ff040713          	addi	a4,s0,-16
    2450:	00f707b3          	add	a5,a4,a5
    2454:	0000d717          	auipc	a4,0xd
    2458:	bfc73703          	ld	a4,-1028(a4) # f050 <_GLOBAL_OFFSET_TABLE_+0x28>
    245c:	01073703          	ld	a4,16(a4)
    2460:	5ae7b023          	sd	a4,1440(a5) # fffffffffffff5a0 <__global_pointer$+0xfffffffffffefda0>
    2464:	fffff7b7          	lui	a5,0xfffff
    2468:	ff040713          	addi	a4,s0,-16
    246c:	00f70733          	add	a4,a4,a5
    2470:	fffff7b7          	lui	a5,0xfffff
    2474:	ff040693          	addi	a3,s0,-16
    2478:	00f687b3          	add	a5,a3,a5
    247c:	5a073703          	ld	a4,1440(a4)
    2480:	5987b783          	ld	a5,1432(a5) # fffffffffffff598 <__global_pointer$+0xfffffffffffefd98>
    2484:	12e7d663          	bge	a5,a4,25b0 <main+0x1ee4>
    2488:	0000d797          	auipc	a5,0xd
    248c:	b8478793          	addi	a5,a5,-1148 # f00c <P2_is_marked>
    2490:	0007a783          	lw	a5,0(a5)
    2494:	0007879b          	sext.w	a5,a5
    2498:	ffc7879b          	addiw	a5,a5,-4
    249c:	0007871b          	sext.w	a4,a5
    24a0:	0000d797          	auipc	a5,0xd
    24a4:	b6c78793          	addi	a5,a5,-1172 # f00c <P2_is_marked>
    24a8:	00e7a023          	sw	a4,0(a5)
    24ac:	fffff7b7          	lui	a5,0xfffff
    24b0:	ff040713          	addi	a4,s0,-16
    24b4:	00f707b3          	add	a5,a4,a5
    24b8:	fffff737          	lui	a4,0xfffff
    24bc:	ff040693          	addi	a3,s0,-16
    24c0:	00e686b3          	add	a3,a3,a4
    24c4:	fffff737          	lui	a4,0xfffff
    24c8:	ff040613          	addi	a2,s0,-16
    24cc:	00e60733          	add	a4,a2,a4
    24d0:	5986b683          	ld	a3,1432(a3)
    24d4:	5a073703          	ld	a4,1440(a4) # fffffffffffff5a0 <__global_pointer$+0xfffffffffffefda0>
    24d8:	00e68733          	add	a4,a3,a4
    24dc:	5ae7b423          	sd	a4,1448(a5) # fffffffffffff5a8 <__global_pointer$+0xfffffffffffefda8>
    24e0:	0000d797          	auipc	a5,0xd
    24e4:	b9478793          	addi	a5,a5,-1132 # f074 <P3_is_marked>
    24e8:	0007a783          	lw	a5,0(a5)
    24ec:	0007879b          	sext.w	a5,a5
    24f0:	0000d717          	auipc	a4,0xd
    24f4:	b4873703          	ld	a4,-1208(a4) # f038 <_GLOBAL_OFFSET_TABLE_+0x10>
    24f8:	00379793          	slli	a5,a5,0x3
    24fc:	00f707b3          	add	a5,a4,a5
    2500:	fffff737          	lui	a4,0xfffff
    2504:	ff040693          	addi	a3,s0,-16
    2508:	00e68733          	add	a4,a3,a4
    250c:	59873703          	ld	a4,1432(a4) # fffffffffffff598 <__global_pointer$+0xfffffffffffefd98>
    2510:	00e7b023          	sd	a4,0(a5)
    2514:	0000d797          	auipc	a5,0xd
    2518:	b6078793          	addi	a5,a5,-1184 # f074 <P3_is_marked>
    251c:	0007a783          	lw	a5,0(a5)
    2520:	0007879b          	sext.w	a5,a5
    2524:	0017879b          	addiw	a5,a5,1
    2528:	0007879b          	sext.w	a5,a5
    252c:	0000d717          	auipc	a4,0xd
    2530:	b0c73703          	ld	a4,-1268(a4) # f038 <_GLOBAL_OFFSET_TABLE_+0x10>
    2534:	00379793          	slli	a5,a5,0x3
    2538:	00f707b3          	add	a5,a4,a5
    253c:	fffff737          	lui	a4,0xfffff
    2540:	ff040693          	addi	a3,s0,-16
    2544:	00e68733          	add	a4,a3,a4
    2548:	5a073703          	ld	a4,1440(a4) # fffffffffffff5a0 <__global_pointer$+0xfffffffffffefda0>
    254c:	00e7b023          	sd	a4,0(a5)
    2550:	0000d797          	auipc	a5,0xd
    2554:	b2478793          	addi	a5,a5,-1244 # f074 <P3_is_marked>
    2558:	0007a783          	lw	a5,0(a5)
    255c:	0007879b          	sext.w	a5,a5
    2560:	0027879b          	addiw	a5,a5,2
    2564:	0007879b          	sext.w	a5,a5
    2568:	0000d717          	auipc	a4,0xd
    256c:	ad073703          	ld	a4,-1328(a4) # f038 <_GLOBAL_OFFSET_TABLE_+0x10>
    2570:	00379793          	slli	a5,a5,0x3
    2574:	00f707b3          	add	a5,a4,a5
    2578:	fffff737          	lui	a4,0xfffff
    257c:	ff040693          	addi	a3,s0,-16
    2580:	00e68733          	add	a4,a3,a4
    2584:	5a873703          	ld	a4,1448(a4) # fffffffffffff5a8 <__global_pointer$+0xfffffffffffefda8>
    2588:	00e7b023          	sd	a4,0(a5)
    258c:	0000d797          	auipc	a5,0xd
    2590:	ae878793          	addi	a5,a5,-1304 # f074 <P3_is_marked>
    2594:	0007a783          	lw	a5,0(a5)
    2598:	0007879b          	sext.w	a5,a5
    259c:	0037879b          	addiw	a5,a5,3
    25a0:	0007871b          	sext.w	a4,a5
    25a4:	0000d797          	auipc	a5,0xd
    25a8:	ad078793          	addi	a5,a5,-1328 # f074 <P3_is_marked>
    25ac:	00e7a023          	sw	a4,0(a5)
    25b0:	0000d797          	auipc	a5,0xd
    25b4:	a5c78793          	addi	a5,a5,-1444 # f00c <P2_is_marked>
    25b8:	0007a783          	lw	a5,0(a5)
    25bc:	0007879b          	sext.w	a5,a5
    25c0:	00078713          	mv	a4,a5
    25c4:	00300793          	li	a5,3
    25c8:	1ce7de63          	bge	a5,a4,27a4 <main+0x20d8>
    25cc:	0000d797          	auipc	a5,0xd
    25d0:	aa878793          	addi	a5,a5,-1368 # f074 <P3_is_marked>
    25d4:	0007a783          	lw	a5,0(a5)
    25d8:	0007879b          	sext.w	a5,a5
    25dc:	00078713          	mv	a4,a5
    25e0:	00300793          	li	a5,3
    25e4:	1ce7c063          	blt	a5,a4,27a4 <main+0x20d8>
    25e8:	0000d797          	auipc	a5,0xd
    25ec:	a687b783          	ld	a5,-1432(a5) # f050 <_GLOBAL_OFFSET_TABLE_+0x28>
    25f0:	0187b703          	ld	a4,24(a5)
    25f4:	0000d797          	auipc	a5,0xd
    25f8:	a5c7b783          	ld	a5,-1444(a5) # f050 <_GLOBAL_OFFSET_TABLE_+0x28>
    25fc:	0007b783          	ld	a5,0(a5)
    2600:	1af71263          	bne	a4,a5,27a4 <main+0x20d8>
    2604:	0000d797          	auipc	a5,0xd
    2608:	a4c7b783          	ld	a5,-1460(a5) # f050 <_GLOBAL_OFFSET_TABLE_+0x28>
    260c:	0187b703          	ld	a4,24(a5)
    2610:	0000d797          	auipc	a5,0xd
    2614:	a407b783          	ld	a5,-1472(a5) # f050 <_GLOBAL_OFFSET_TABLE_+0x28>
    2618:	0107b783          	ld	a5,16(a5)
    261c:	18f71463          	bne	a4,a5,27a4 <main+0x20d8>
    2620:	fffff7b7          	lui	a5,0xfffff
    2624:	ff040713          	addi	a4,s0,-16
    2628:	00f707b3          	add	a5,a4,a5
    262c:	0000d717          	auipc	a4,0xd
    2630:	a2473703          	ld	a4,-1500(a4) # f050 <_GLOBAL_OFFSET_TABLE_+0x28>
    2634:	00873703          	ld	a4,8(a4)
    2638:	5ae7b823          	sd	a4,1456(a5) # fffffffffffff5b0 <__global_pointer$+0xfffffffffffefdb0>
    263c:	fffff7b7          	lui	a5,0xfffff
    2640:	ff040713          	addi	a4,s0,-16
    2644:	00f707b3          	add	a5,a4,a5
    2648:	0000d717          	auipc	a4,0xd
    264c:	a0873703          	ld	a4,-1528(a4) # f050 <_GLOBAL_OFFSET_TABLE_+0x28>
    2650:	01873703          	ld	a4,24(a4)
    2654:	5ae7bc23          	sd	a4,1464(a5) # fffffffffffff5b8 <__global_pointer$+0xfffffffffffefdb8>
    2658:	fffff7b7          	lui	a5,0xfffff
    265c:	ff040713          	addi	a4,s0,-16
    2660:	00f70733          	add	a4,a4,a5
    2664:	fffff7b7          	lui	a5,0xfffff
    2668:	ff040693          	addi	a3,s0,-16
    266c:	00f687b3          	add	a5,a3,a5
    2670:	5b873703          	ld	a4,1464(a4)
    2674:	5b07b783          	ld	a5,1456(a5) # fffffffffffff5b0 <__global_pointer$+0xfffffffffffefdb0>
    2678:	12e7d663          	bge	a5,a4,27a4 <main+0x20d8>
    267c:	0000d797          	auipc	a5,0xd
    2680:	99078793          	addi	a5,a5,-1648 # f00c <P2_is_marked>
    2684:	0007a783          	lw	a5,0(a5)
    2688:	0007879b          	sext.w	a5,a5
    268c:	ffc7879b          	addiw	a5,a5,-4
    2690:	0007871b          	sext.w	a4,a5
    2694:	0000d797          	auipc	a5,0xd
    2698:	97878793          	addi	a5,a5,-1672 # f00c <P2_is_marked>
    269c:	00e7a023          	sw	a4,0(a5)
    26a0:	fffff7b7          	lui	a5,0xfffff
    26a4:	ff040713          	addi	a4,s0,-16
    26a8:	00f707b3          	add	a5,a4,a5
    26ac:	fffff737          	lui	a4,0xfffff
    26b0:	ff040693          	addi	a3,s0,-16
    26b4:	00e686b3          	add	a3,a3,a4
    26b8:	fffff737          	lui	a4,0xfffff
    26bc:	ff040613          	addi	a2,s0,-16
    26c0:	00e60733          	add	a4,a2,a4
    26c4:	5b06b683          	ld	a3,1456(a3)
    26c8:	5b873703          	ld	a4,1464(a4) # fffffffffffff5b8 <__global_pointer$+0xfffffffffffefdb8>
    26cc:	00e68733          	add	a4,a3,a4
    26d0:	5ce7b023          	sd	a4,1472(a5) # fffffffffffff5c0 <__global_pointer$+0xfffffffffffefdc0>
    26d4:	0000d797          	auipc	a5,0xd
    26d8:	9a078793          	addi	a5,a5,-1632 # f074 <P3_is_marked>
    26dc:	0007a783          	lw	a5,0(a5)
    26e0:	0007879b          	sext.w	a5,a5
    26e4:	0000d717          	auipc	a4,0xd
    26e8:	95473703          	ld	a4,-1708(a4) # f038 <_GLOBAL_OFFSET_TABLE_+0x10>
    26ec:	00379793          	slli	a5,a5,0x3
    26f0:	00f707b3          	add	a5,a4,a5
    26f4:	fffff737          	lui	a4,0xfffff
    26f8:	ff040693          	addi	a3,s0,-16
    26fc:	00e68733          	add	a4,a3,a4
    2700:	5b073703          	ld	a4,1456(a4) # fffffffffffff5b0 <__global_pointer$+0xfffffffffffefdb0>
    2704:	00e7b023          	sd	a4,0(a5)
    2708:	0000d797          	auipc	a5,0xd
    270c:	96c78793          	addi	a5,a5,-1684 # f074 <P3_is_marked>
    2710:	0007a783          	lw	a5,0(a5)
    2714:	0007879b          	sext.w	a5,a5
    2718:	0017879b          	addiw	a5,a5,1
    271c:	0007879b          	sext.w	a5,a5
    2720:	0000d717          	auipc	a4,0xd
    2724:	91873703          	ld	a4,-1768(a4) # f038 <_GLOBAL_OFFSET_TABLE_+0x10>
    2728:	00379793          	slli	a5,a5,0x3
    272c:	00f707b3          	add	a5,a4,a5
    2730:	fffff737          	lui	a4,0xfffff
    2734:	ff040693          	addi	a3,s0,-16
    2738:	00e68733          	add	a4,a3,a4
    273c:	5b873703          	ld	a4,1464(a4) # fffffffffffff5b8 <__global_pointer$+0xfffffffffffefdb8>
    2740:	00e7b023          	sd	a4,0(a5)
    2744:	0000d797          	auipc	a5,0xd
    2748:	93078793          	addi	a5,a5,-1744 # f074 <P3_is_marked>
    274c:	0007a783          	lw	a5,0(a5)
    2750:	0007879b          	sext.w	a5,a5
    2754:	0027879b          	addiw	a5,a5,2
    2758:	0007879b          	sext.w	a5,a5
    275c:	0000d717          	auipc	a4,0xd
    2760:	8dc73703          	ld	a4,-1828(a4) # f038 <_GLOBAL_OFFSET_TABLE_+0x10>
    2764:	00379793          	slli	a5,a5,0x3
    2768:	00f707b3          	add	a5,a4,a5
    276c:	fffff737          	lui	a4,0xfffff
    2770:	ff040693          	addi	a3,s0,-16
    2774:	00e68733          	add	a4,a3,a4
    2778:	5c073703          	ld	a4,1472(a4) # fffffffffffff5c0 <__global_pointer$+0xfffffffffffefdc0>
    277c:	00e7b023          	sd	a4,0(a5)
    2780:	0000d797          	auipc	a5,0xd
    2784:	8f478793          	addi	a5,a5,-1804 # f074 <P3_is_marked>
    2788:	0007a783          	lw	a5,0(a5)
    278c:	0007879b          	sext.w	a5,a5
    2790:	0037879b          	addiw	a5,a5,3
    2794:	0007871b          	sext.w	a4,a5
    2798:	0000d797          	auipc	a5,0xd
    279c:	8dc78793          	addi	a5,a5,-1828 # f074 <P3_is_marked>
    27a0:	00e7a023          	sw	a4,0(a5)
    27a4:	0000d797          	auipc	a5,0xd
    27a8:	86878793          	addi	a5,a5,-1944 # f00c <P2_is_marked>
    27ac:	0007a783          	lw	a5,0(a5)
    27b0:	0007879b          	sext.w	a5,a5
    27b4:	00078713          	mv	a4,a5
    27b8:	00300793          	li	a5,3
    27bc:	1ce7de63          	bge	a5,a4,2998 <main+0x22cc>
    27c0:	0000d797          	auipc	a5,0xd
    27c4:	8b478793          	addi	a5,a5,-1868 # f074 <P3_is_marked>
    27c8:	0007a783          	lw	a5,0(a5)
    27cc:	0007879b          	sext.w	a5,a5
    27d0:	00078713          	mv	a4,a5
    27d4:	00300793          	li	a5,3
    27d8:	1ce7c063          	blt	a5,a4,2998 <main+0x22cc>
    27dc:	0000d797          	auipc	a5,0xd
    27e0:	8747b783          	ld	a5,-1932(a5) # f050 <_GLOBAL_OFFSET_TABLE_+0x28>
    27e4:	0187b703          	ld	a4,24(a5)
    27e8:	0000d797          	auipc	a5,0xd
    27ec:	8687b783          	ld	a5,-1944(a5) # f050 <_GLOBAL_OFFSET_TABLE_+0x28>
    27f0:	0107b783          	ld	a5,16(a5)
    27f4:	1af71263          	bne	a4,a5,2998 <main+0x22cc>
    27f8:	0000d797          	auipc	a5,0xd
    27fc:	8587b783          	ld	a5,-1960(a5) # f050 <_GLOBAL_OFFSET_TABLE_+0x28>
    2800:	0187b703          	ld	a4,24(a5)
    2804:	0000d797          	auipc	a5,0xd
    2808:	84c7b783          	ld	a5,-1972(a5) # f050 <_GLOBAL_OFFSET_TABLE_+0x28>
    280c:	0007b783          	ld	a5,0(a5)
    2810:	18f71463          	bne	a4,a5,2998 <main+0x22cc>
    2814:	fffff7b7          	lui	a5,0xfffff
    2818:	ff040713          	addi	a4,s0,-16
    281c:	00f707b3          	add	a5,a4,a5
    2820:	0000d717          	auipc	a4,0xd
    2824:	83073703          	ld	a4,-2000(a4) # f050 <_GLOBAL_OFFSET_TABLE_+0x28>
    2828:	00873703          	ld	a4,8(a4)
    282c:	5ce7b423          	sd	a4,1480(a5) # fffffffffffff5c8 <__global_pointer$+0xfffffffffffefdc8>
    2830:	fffff7b7          	lui	a5,0xfffff
    2834:	ff040713          	addi	a4,s0,-16
    2838:	00f707b3          	add	a5,a4,a5
    283c:	0000d717          	auipc	a4,0xd
    2840:	81473703          	ld	a4,-2028(a4) # f050 <_GLOBAL_OFFSET_TABLE_+0x28>
    2844:	01873703          	ld	a4,24(a4)
    2848:	5ce7b823          	sd	a4,1488(a5) # fffffffffffff5d0 <__global_pointer$+0xfffffffffffefdd0>
    284c:	fffff7b7          	lui	a5,0xfffff
    2850:	ff040713          	addi	a4,s0,-16
    2854:	00f70733          	add	a4,a4,a5
    2858:	fffff7b7          	lui	a5,0xfffff
    285c:	ff040693          	addi	a3,s0,-16
    2860:	00f687b3          	add	a5,a3,a5
    2864:	5d073703          	ld	a4,1488(a4)
    2868:	5c87b783          	ld	a5,1480(a5) # fffffffffffff5c8 <__global_pointer$+0xfffffffffffefdc8>
    286c:	12e7d663          	bge	a5,a4,2998 <main+0x22cc>
    2870:	0000c797          	auipc	a5,0xc
    2874:	79c78793          	addi	a5,a5,1948 # f00c <P2_is_marked>
    2878:	0007a783          	lw	a5,0(a5)
    287c:	0007879b          	sext.w	a5,a5
    2880:	ffc7879b          	addiw	a5,a5,-4
    2884:	0007871b          	sext.w	a4,a5
    2888:	0000c797          	auipc	a5,0xc
    288c:	78478793          	addi	a5,a5,1924 # f00c <P2_is_marked>
    2890:	00e7a023          	sw	a4,0(a5)
    2894:	fffff7b7          	lui	a5,0xfffff
    2898:	ff040713          	addi	a4,s0,-16
    289c:	00f707b3          	add	a5,a4,a5
    28a0:	fffff737          	lui	a4,0xfffff
    28a4:	ff040693          	addi	a3,s0,-16
    28a8:	00e686b3          	add	a3,a3,a4
    28ac:	fffff737          	lui	a4,0xfffff
    28b0:	ff040613          	addi	a2,s0,-16
    28b4:	00e60733          	add	a4,a2,a4
    28b8:	5c86b683          	ld	a3,1480(a3)
    28bc:	5d073703          	ld	a4,1488(a4) # fffffffffffff5d0 <__global_pointer$+0xfffffffffffefdd0>
    28c0:	00e68733          	add	a4,a3,a4
    28c4:	5ce7bc23          	sd	a4,1496(a5) # fffffffffffff5d8 <__global_pointer$+0xfffffffffffefdd8>
    28c8:	0000c797          	auipc	a5,0xc
    28cc:	7ac78793          	addi	a5,a5,1964 # f074 <P3_is_marked>
    28d0:	0007a783          	lw	a5,0(a5)
    28d4:	0007879b          	sext.w	a5,a5
    28d8:	0000c717          	auipc	a4,0xc
    28dc:	76073703          	ld	a4,1888(a4) # f038 <_GLOBAL_OFFSET_TABLE_+0x10>
    28e0:	00379793          	slli	a5,a5,0x3
    28e4:	00f707b3          	add	a5,a4,a5
    28e8:	fffff737          	lui	a4,0xfffff
    28ec:	ff040693          	addi	a3,s0,-16
    28f0:	00e68733          	add	a4,a3,a4
    28f4:	5c873703          	ld	a4,1480(a4) # fffffffffffff5c8 <__global_pointer$+0xfffffffffffefdc8>
    28f8:	00e7b023          	sd	a4,0(a5)
    28fc:	0000c797          	auipc	a5,0xc
    2900:	77878793          	addi	a5,a5,1912 # f074 <P3_is_marked>
    2904:	0007a783          	lw	a5,0(a5)
    2908:	0007879b          	sext.w	a5,a5
    290c:	0017879b          	addiw	a5,a5,1
    2910:	0007879b          	sext.w	a5,a5
    2914:	0000c717          	auipc	a4,0xc
    2918:	72473703          	ld	a4,1828(a4) # f038 <_GLOBAL_OFFSET_TABLE_+0x10>
    291c:	00379793          	slli	a5,a5,0x3
    2920:	00f707b3          	add	a5,a4,a5
    2924:	fffff737          	lui	a4,0xfffff
    2928:	ff040693          	addi	a3,s0,-16
    292c:	00e68733          	add	a4,a3,a4
    2930:	5d073703          	ld	a4,1488(a4) # fffffffffffff5d0 <__global_pointer$+0xfffffffffffefdd0>
    2934:	00e7b023          	sd	a4,0(a5)
    2938:	0000c797          	auipc	a5,0xc
    293c:	73c78793          	addi	a5,a5,1852 # f074 <P3_is_marked>
    2940:	0007a783          	lw	a5,0(a5)
    2944:	0007879b          	sext.w	a5,a5
    2948:	0027879b          	addiw	a5,a5,2
    294c:	0007879b          	sext.w	a5,a5
    2950:	0000c717          	auipc	a4,0xc
    2954:	6e873703          	ld	a4,1768(a4) # f038 <_GLOBAL_OFFSET_TABLE_+0x10>
    2958:	00379793          	slli	a5,a5,0x3
    295c:	00f707b3          	add	a5,a4,a5
    2960:	fffff737          	lui	a4,0xfffff
    2964:	ff040693          	addi	a3,s0,-16
    2968:	00e68733          	add	a4,a3,a4
    296c:	5d873703          	ld	a4,1496(a4) # fffffffffffff5d8 <__global_pointer$+0xfffffffffffefdd8>
    2970:	00e7b023          	sd	a4,0(a5)
    2974:	0000c797          	auipc	a5,0xc
    2978:	70078793          	addi	a5,a5,1792 # f074 <P3_is_marked>
    297c:	0007a783          	lw	a5,0(a5)
    2980:	0007879b          	sext.w	a5,a5
    2984:	0037879b          	addiw	a5,a5,3
    2988:	0007871b          	sext.w	a4,a5
    298c:	0000c797          	auipc	a5,0xc
    2990:	6e878793          	addi	a5,a5,1768 # f074 <P3_is_marked>
    2994:	00e7a023          	sw	a4,0(a5)
    2998:	0000c797          	auipc	a5,0xc
    299c:	67478793          	addi	a5,a5,1652 # f00c <P2_is_marked>
    29a0:	0007a783          	lw	a5,0(a5)
    29a4:	0007879b          	sext.w	a5,a5
    29a8:	00078713          	mv	a4,a5
    29ac:	00300793          	li	a5,3
    29b0:	1ce7de63          	bge	a5,a4,2b8c <main+0x24c0>
    29b4:	0000c797          	auipc	a5,0xc
    29b8:	6c078793          	addi	a5,a5,1728 # f074 <P3_is_marked>
    29bc:	0007a783          	lw	a5,0(a5)
    29c0:	0007879b          	sext.w	a5,a5
    29c4:	00078713          	mv	a4,a5
    29c8:	00300793          	li	a5,3
    29cc:	1ce7c063          	blt	a5,a4,2b8c <main+0x24c0>
    29d0:	0000c797          	auipc	a5,0xc
    29d4:	6807b783          	ld	a5,1664(a5) # f050 <_GLOBAL_OFFSET_TABLE_+0x28>
    29d8:	0007b703          	ld	a4,0(a5)
    29dc:	0000c797          	auipc	a5,0xc
    29e0:	6747b783          	ld	a5,1652(a5) # f050 <_GLOBAL_OFFSET_TABLE_+0x28>
    29e4:	0087b783          	ld	a5,8(a5)
    29e8:	1af71263          	bne	a4,a5,2b8c <main+0x24c0>
    29ec:	0000c797          	auipc	a5,0xc
    29f0:	6647b783          	ld	a5,1636(a5) # f050 <_GLOBAL_OFFSET_TABLE_+0x28>
    29f4:	0007b703          	ld	a4,0(a5)
    29f8:	0000c797          	auipc	a5,0xc
    29fc:	6587b783          	ld	a5,1624(a5) # f050 <_GLOBAL_OFFSET_TABLE_+0x28>
    2a00:	0187b783          	ld	a5,24(a5)
    2a04:	18f71463          	bne	a4,a5,2b8c <main+0x24c0>
    2a08:	fffff7b7          	lui	a5,0xfffff
    2a0c:	ff040713          	addi	a4,s0,-16
    2a10:	00f707b3          	add	a5,a4,a5
    2a14:	0000c717          	auipc	a4,0xc
    2a18:	63c73703          	ld	a4,1596(a4) # f050 <_GLOBAL_OFFSET_TABLE_+0x28>
    2a1c:	01073703          	ld	a4,16(a4)
    2a20:	5ee7b023          	sd	a4,1504(a5) # fffffffffffff5e0 <__global_pointer$+0xfffffffffffefde0>
    2a24:	fffff7b7          	lui	a5,0xfffff
    2a28:	ff040713          	addi	a4,s0,-16
    2a2c:	00f707b3          	add	a5,a4,a5
    2a30:	0000c717          	auipc	a4,0xc
    2a34:	62073703          	ld	a4,1568(a4) # f050 <_GLOBAL_OFFSET_TABLE_+0x28>
    2a38:	00073703          	ld	a4,0(a4)
    2a3c:	5ee7b423          	sd	a4,1512(a5) # fffffffffffff5e8 <__global_pointer$+0xfffffffffffefde8>
    2a40:	fffff7b7          	lui	a5,0xfffff
    2a44:	ff040713          	addi	a4,s0,-16
    2a48:	00f70733          	add	a4,a4,a5
    2a4c:	fffff7b7          	lui	a5,0xfffff
    2a50:	ff040693          	addi	a3,s0,-16
    2a54:	00f687b3          	add	a5,a3,a5
    2a58:	5e873703          	ld	a4,1512(a4)
    2a5c:	5e07b783          	ld	a5,1504(a5) # fffffffffffff5e0 <__global_pointer$+0xfffffffffffefde0>
    2a60:	12e7d663          	bge	a5,a4,2b8c <main+0x24c0>
    2a64:	0000c797          	auipc	a5,0xc
    2a68:	5a878793          	addi	a5,a5,1448 # f00c <P2_is_marked>
    2a6c:	0007a783          	lw	a5,0(a5)
    2a70:	0007879b          	sext.w	a5,a5
    2a74:	ffc7879b          	addiw	a5,a5,-4
    2a78:	0007871b          	sext.w	a4,a5
    2a7c:	0000c797          	auipc	a5,0xc
    2a80:	59078793          	addi	a5,a5,1424 # f00c <P2_is_marked>
    2a84:	00e7a023          	sw	a4,0(a5)
    2a88:	fffff7b7          	lui	a5,0xfffff
    2a8c:	ff040713          	addi	a4,s0,-16
    2a90:	00f707b3          	add	a5,a4,a5
    2a94:	fffff737          	lui	a4,0xfffff
    2a98:	ff040693          	addi	a3,s0,-16
    2a9c:	00e686b3          	add	a3,a3,a4
    2aa0:	fffff737          	lui	a4,0xfffff
    2aa4:	ff040613          	addi	a2,s0,-16
    2aa8:	00e60733          	add	a4,a2,a4
    2aac:	5e06b683          	ld	a3,1504(a3)
    2ab0:	5e873703          	ld	a4,1512(a4) # fffffffffffff5e8 <__global_pointer$+0xfffffffffffefde8>
    2ab4:	00e68733          	add	a4,a3,a4
    2ab8:	5ee7b823          	sd	a4,1520(a5) # fffffffffffff5f0 <__global_pointer$+0xfffffffffffefdf0>
    2abc:	0000c797          	auipc	a5,0xc
    2ac0:	5b878793          	addi	a5,a5,1464 # f074 <P3_is_marked>
    2ac4:	0007a783          	lw	a5,0(a5)
    2ac8:	0007879b          	sext.w	a5,a5
    2acc:	0000c717          	auipc	a4,0xc
    2ad0:	56c73703          	ld	a4,1388(a4) # f038 <_GLOBAL_OFFSET_TABLE_+0x10>
    2ad4:	00379793          	slli	a5,a5,0x3
    2ad8:	00f707b3          	add	a5,a4,a5
    2adc:	fffff737          	lui	a4,0xfffff
    2ae0:	ff040693          	addi	a3,s0,-16
    2ae4:	00e68733          	add	a4,a3,a4
    2ae8:	5e073703          	ld	a4,1504(a4) # fffffffffffff5e0 <__global_pointer$+0xfffffffffffefde0>
    2aec:	00e7b023          	sd	a4,0(a5)
    2af0:	0000c797          	auipc	a5,0xc
    2af4:	58478793          	addi	a5,a5,1412 # f074 <P3_is_marked>
    2af8:	0007a783          	lw	a5,0(a5)
    2afc:	0007879b          	sext.w	a5,a5
    2b00:	0017879b          	addiw	a5,a5,1
    2b04:	0007879b          	sext.w	a5,a5
    2b08:	0000c717          	auipc	a4,0xc
    2b0c:	53073703          	ld	a4,1328(a4) # f038 <_GLOBAL_OFFSET_TABLE_+0x10>
    2b10:	00379793          	slli	a5,a5,0x3
    2b14:	00f707b3          	add	a5,a4,a5
    2b18:	fffff737          	lui	a4,0xfffff
    2b1c:	ff040693          	addi	a3,s0,-16
    2b20:	00e68733          	add	a4,a3,a4
    2b24:	5e873703          	ld	a4,1512(a4) # fffffffffffff5e8 <__global_pointer$+0xfffffffffffefde8>
    2b28:	00e7b023          	sd	a4,0(a5)
    2b2c:	0000c797          	auipc	a5,0xc
    2b30:	54878793          	addi	a5,a5,1352 # f074 <P3_is_marked>
    2b34:	0007a783          	lw	a5,0(a5)
    2b38:	0007879b          	sext.w	a5,a5
    2b3c:	0027879b          	addiw	a5,a5,2
    2b40:	0007879b          	sext.w	a5,a5
    2b44:	0000c717          	auipc	a4,0xc
    2b48:	4f473703          	ld	a4,1268(a4) # f038 <_GLOBAL_OFFSET_TABLE_+0x10>
    2b4c:	00379793          	slli	a5,a5,0x3
    2b50:	00f707b3          	add	a5,a4,a5
    2b54:	fffff737          	lui	a4,0xfffff
    2b58:	ff040693          	addi	a3,s0,-16
    2b5c:	00e68733          	add	a4,a3,a4
    2b60:	5f073703          	ld	a4,1520(a4) # fffffffffffff5f0 <__global_pointer$+0xfffffffffffefdf0>
    2b64:	00e7b023          	sd	a4,0(a5)
    2b68:	0000c797          	auipc	a5,0xc
    2b6c:	50c78793          	addi	a5,a5,1292 # f074 <P3_is_marked>
    2b70:	0007a783          	lw	a5,0(a5)
    2b74:	0007879b          	sext.w	a5,a5
    2b78:	0037879b          	addiw	a5,a5,3
    2b7c:	0007871b          	sext.w	a4,a5
    2b80:	0000c797          	auipc	a5,0xc
    2b84:	4f478793          	addi	a5,a5,1268 # f074 <P3_is_marked>
    2b88:	00e7a023          	sw	a4,0(a5)
    2b8c:	0000c797          	auipc	a5,0xc
    2b90:	48078793          	addi	a5,a5,1152 # f00c <P2_is_marked>
    2b94:	0007a783          	lw	a5,0(a5)
    2b98:	0007879b          	sext.w	a5,a5
    2b9c:	00078713          	mv	a4,a5
    2ba0:	00300793          	li	a5,3
    2ba4:	1ce7de63          	bge	a5,a4,2d80 <main+0x26b4>
    2ba8:	0000c797          	auipc	a5,0xc
    2bac:	4cc78793          	addi	a5,a5,1228 # f074 <P3_is_marked>
    2bb0:	0007a783          	lw	a5,0(a5)
    2bb4:	0007879b          	sext.w	a5,a5
    2bb8:	00078713          	mv	a4,a5
    2bbc:	00300793          	li	a5,3
    2bc0:	1ce7c063          	blt	a5,a4,2d80 <main+0x26b4>
    2bc4:	0000c797          	auipc	a5,0xc
    2bc8:	48c7b783          	ld	a5,1164(a5) # f050 <_GLOBAL_OFFSET_TABLE_+0x28>
    2bcc:	0007b703          	ld	a4,0(a5)
    2bd0:	0000c797          	auipc	a5,0xc
    2bd4:	4807b783          	ld	a5,1152(a5) # f050 <_GLOBAL_OFFSET_TABLE_+0x28>
    2bd8:	0187b783          	ld	a5,24(a5)
    2bdc:	1af71263          	bne	a4,a5,2d80 <main+0x26b4>
    2be0:	0000c797          	auipc	a5,0xc
    2be4:	4707b783          	ld	a5,1136(a5) # f050 <_GLOBAL_OFFSET_TABLE_+0x28>
    2be8:	0007b703          	ld	a4,0(a5)
    2bec:	0000c797          	auipc	a5,0xc
    2bf0:	4647b783          	ld	a5,1124(a5) # f050 <_GLOBAL_OFFSET_TABLE_+0x28>
    2bf4:	0087b783          	ld	a5,8(a5)
    2bf8:	18f71463          	bne	a4,a5,2d80 <main+0x26b4>
    2bfc:	fffff7b7          	lui	a5,0xfffff
    2c00:	ff040713          	addi	a4,s0,-16
    2c04:	00f707b3          	add	a5,a4,a5
    2c08:	0000c717          	auipc	a4,0xc
    2c0c:	44873703          	ld	a4,1096(a4) # f050 <_GLOBAL_OFFSET_TABLE_+0x28>
    2c10:	01073703          	ld	a4,16(a4)
    2c14:	5ee7bc23          	sd	a4,1528(a5) # fffffffffffff5f8 <__global_pointer$+0xfffffffffffefdf8>
    2c18:	fffff7b7          	lui	a5,0xfffff
    2c1c:	ff040713          	addi	a4,s0,-16
    2c20:	00f707b3          	add	a5,a4,a5
    2c24:	0000c717          	auipc	a4,0xc
    2c28:	42c73703          	ld	a4,1068(a4) # f050 <_GLOBAL_OFFSET_TABLE_+0x28>
    2c2c:	00073703          	ld	a4,0(a4)
    2c30:	60e7b023          	sd	a4,1536(a5) # fffffffffffff600 <__global_pointer$+0xfffffffffffefe00>
    2c34:	fffff7b7          	lui	a5,0xfffff
    2c38:	ff040713          	addi	a4,s0,-16
    2c3c:	00f70733          	add	a4,a4,a5
    2c40:	fffff7b7          	lui	a5,0xfffff
    2c44:	ff040693          	addi	a3,s0,-16
    2c48:	00f687b3          	add	a5,a3,a5
    2c4c:	60073703          	ld	a4,1536(a4)
    2c50:	5f87b783          	ld	a5,1528(a5) # fffffffffffff5f8 <__global_pointer$+0xfffffffffffefdf8>
    2c54:	12e7d663          	bge	a5,a4,2d80 <main+0x26b4>
    2c58:	0000c797          	auipc	a5,0xc
    2c5c:	3b478793          	addi	a5,a5,948 # f00c <P2_is_marked>
    2c60:	0007a783          	lw	a5,0(a5)
    2c64:	0007879b          	sext.w	a5,a5
    2c68:	ffc7879b          	addiw	a5,a5,-4
    2c6c:	0007871b          	sext.w	a4,a5
    2c70:	0000c797          	auipc	a5,0xc
    2c74:	39c78793          	addi	a5,a5,924 # f00c <P2_is_marked>
    2c78:	00e7a023          	sw	a4,0(a5)
    2c7c:	fffff7b7          	lui	a5,0xfffff
    2c80:	ff040713          	addi	a4,s0,-16
    2c84:	00f707b3          	add	a5,a4,a5
    2c88:	fffff737          	lui	a4,0xfffff
    2c8c:	ff040693          	addi	a3,s0,-16
    2c90:	00e686b3          	add	a3,a3,a4
    2c94:	fffff737          	lui	a4,0xfffff
    2c98:	ff040613          	addi	a2,s0,-16
    2c9c:	00e60733          	add	a4,a2,a4
    2ca0:	5f86b683          	ld	a3,1528(a3)
    2ca4:	60073703          	ld	a4,1536(a4) # fffffffffffff600 <__global_pointer$+0xfffffffffffefe00>
    2ca8:	00e68733          	add	a4,a3,a4
    2cac:	60e7b423          	sd	a4,1544(a5) # fffffffffffff608 <__global_pointer$+0xfffffffffffefe08>
    2cb0:	0000c797          	auipc	a5,0xc
    2cb4:	3c478793          	addi	a5,a5,964 # f074 <P3_is_marked>
    2cb8:	0007a783          	lw	a5,0(a5)
    2cbc:	0007879b          	sext.w	a5,a5
    2cc0:	0000c717          	auipc	a4,0xc
    2cc4:	37873703          	ld	a4,888(a4) # f038 <_GLOBAL_OFFSET_TABLE_+0x10>
    2cc8:	00379793          	slli	a5,a5,0x3
    2ccc:	00f707b3          	add	a5,a4,a5
    2cd0:	fffff737          	lui	a4,0xfffff
    2cd4:	ff040693          	addi	a3,s0,-16
    2cd8:	00e68733          	add	a4,a3,a4
    2cdc:	5f873703          	ld	a4,1528(a4) # fffffffffffff5f8 <__global_pointer$+0xfffffffffffefdf8>
    2ce0:	00e7b023          	sd	a4,0(a5)
    2ce4:	0000c797          	auipc	a5,0xc
    2ce8:	39078793          	addi	a5,a5,912 # f074 <P3_is_marked>
    2cec:	0007a783          	lw	a5,0(a5)
    2cf0:	0007879b          	sext.w	a5,a5
    2cf4:	0017879b          	addiw	a5,a5,1
    2cf8:	0007879b          	sext.w	a5,a5
    2cfc:	0000c717          	auipc	a4,0xc
    2d00:	33c73703          	ld	a4,828(a4) # f038 <_GLOBAL_OFFSET_TABLE_+0x10>
    2d04:	00379793          	slli	a5,a5,0x3
    2d08:	00f707b3          	add	a5,a4,a5
    2d0c:	fffff737          	lui	a4,0xfffff
    2d10:	ff040693          	addi	a3,s0,-16
    2d14:	00e68733          	add	a4,a3,a4
    2d18:	60073703          	ld	a4,1536(a4) # fffffffffffff600 <__global_pointer$+0xfffffffffffefe00>
    2d1c:	00e7b023          	sd	a4,0(a5)
    2d20:	0000c797          	auipc	a5,0xc
    2d24:	35478793          	addi	a5,a5,852 # f074 <P3_is_marked>
    2d28:	0007a783          	lw	a5,0(a5)
    2d2c:	0007879b          	sext.w	a5,a5
    2d30:	0027879b          	addiw	a5,a5,2
    2d34:	0007879b          	sext.w	a5,a5
    2d38:	0000c717          	auipc	a4,0xc
    2d3c:	30073703          	ld	a4,768(a4) # f038 <_GLOBAL_OFFSET_TABLE_+0x10>
    2d40:	00379793          	slli	a5,a5,0x3
    2d44:	00f707b3          	add	a5,a4,a5
    2d48:	fffff737          	lui	a4,0xfffff
    2d4c:	ff040693          	addi	a3,s0,-16
    2d50:	00e68733          	add	a4,a3,a4
    2d54:	60873703          	ld	a4,1544(a4) # fffffffffffff608 <__global_pointer$+0xfffffffffffefe08>
    2d58:	00e7b023          	sd	a4,0(a5)
    2d5c:	0000c797          	auipc	a5,0xc
    2d60:	31878793          	addi	a5,a5,792 # f074 <P3_is_marked>
    2d64:	0007a783          	lw	a5,0(a5)
    2d68:	0007879b          	sext.w	a5,a5
    2d6c:	0037879b          	addiw	a5,a5,3
    2d70:	0007871b          	sext.w	a4,a5
    2d74:	0000c797          	auipc	a5,0xc
    2d78:	30078793          	addi	a5,a5,768 # f074 <P3_is_marked>
    2d7c:	00e7a023          	sw	a4,0(a5)
    2d80:	0000c797          	auipc	a5,0xc
    2d84:	28c78793          	addi	a5,a5,652 # f00c <P2_is_marked>
    2d88:	0007a783          	lw	a5,0(a5)
    2d8c:	0007879b          	sext.w	a5,a5
    2d90:	00078713          	mv	a4,a5
    2d94:	00300793          	li	a5,3
    2d98:	1ce7de63          	bge	a5,a4,2f74 <main+0x28a8>
    2d9c:	0000c797          	auipc	a5,0xc
    2da0:	2d878793          	addi	a5,a5,728 # f074 <P3_is_marked>
    2da4:	0007a783          	lw	a5,0(a5)
    2da8:	0007879b          	sext.w	a5,a5
    2dac:	00078713          	mv	a4,a5
    2db0:	00300793          	li	a5,3
    2db4:	1ce7c063          	blt	a5,a4,2f74 <main+0x28a8>
    2db8:	0000c797          	auipc	a5,0xc
    2dbc:	2987b783          	ld	a5,664(a5) # f050 <_GLOBAL_OFFSET_TABLE_+0x28>
    2dc0:	0087b703          	ld	a4,8(a5)
    2dc4:	0000c797          	auipc	a5,0xc
    2dc8:	28c7b783          	ld	a5,652(a5) # f050 <_GLOBAL_OFFSET_TABLE_+0x28>
    2dcc:	0007b783          	ld	a5,0(a5)
    2dd0:	1af71263          	bne	a4,a5,2f74 <main+0x28a8>
    2dd4:	0000c797          	auipc	a5,0xc
    2dd8:	27c7b783          	ld	a5,636(a5) # f050 <_GLOBAL_OFFSET_TABLE_+0x28>
    2ddc:	0087b703          	ld	a4,8(a5)
    2de0:	0000c797          	auipc	a5,0xc
    2de4:	2707b783          	ld	a5,624(a5) # f050 <_GLOBAL_OFFSET_TABLE_+0x28>
    2de8:	0187b783          	ld	a5,24(a5)
    2dec:	18f71463          	bne	a4,a5,2f74 <main+0x28a8>
    2df0:	fffff7b7          	lui	a5,0xfffff
    2df4:	ff040713          	addi	a4,s0,-16
    2df8:	00f707b3          	add	a5,a4,a5
    2dfc:	0000c717          	auipc	a4,0xc
    2e00:	25473703          	ld	a4,596(a4) # f050 <_GLOBAL_OFFSET_TABLE_+0x28>
    2e04:	01073703          	ld	a4,16(a4)
    2e08:	60e7b823          	sd	a4,1552(a5) # fffffffffffff610 <__global_pointer$+0xfffffffffffefe10>
    2e0c:	fffff7b7          	lui	a5,0xfffff
    2e10:	ff040713          	addi	a4,s0,-16
    2e14:	00f707b3          	add	a5,a4,a5
    2e18:	0000c717          	auipc	a4,0xc
    2e1c:	23873703          	ld	a4,568(a4) # f050 <_GLOBAL_OFFSET_TABLE_+0x28>
    2e20:	00873703          	ld	a4,8(a4)
    2e24:	60e7bc23          	sd	a4,1560(a5) # fffffffffffff618 <__global_pointer$+0xfffffffffffefe18>
    2e28:	fffff7b7          	lui	a5,0xfffff
    2e2c:	ff040713          	addi	a4,s0,-16
    2e30:	00f70733          	add	a4,a4,a5
    2e34:	fffff7b7          	lui	a5,0xfffff
    2e38:	ff040693          	addi	a3,s0,-16
    2e3c:	00f687b3          	add	a5,a3,a5
    2e40:	61873703          	ld	a4,1560(a4)
    2e44:	6107b783          	ld	a5,1552(a5) # fffffffffffff610 <__global_pointer$+0xfffffffffffefe10>
    2e48:	12e7d663          	bge	a5,a4,2f74 <main+0x28a8>
    2e4c:	0000c797          	auipc	a5,0xc
    2e50:	1c078793          	addi	a5,a5,448 # f00c <P2_is_marked>
    2e54:	0007a783          	lw	a5,0(a5)
    2e58:	0007879b          	sext.w	a5,a5
    2e5c:	ffc7879b          	addiw	a5,a5,-4
    2e60:	0007871b          	sext.w	a4,a5
    2e64:	0000c797          	auipc	a5,0xc
    2e68:	1a878793          	addi	a5,a5,424 # f00c <P2_is_marked>
    2e6c:	00e7a023          	sw	a4,0(a5)
    2e70:	fffff7b7          	lui	a5,0xfffff
    2e74:	ff040713          	addi	a4,s0,-16
    2e78:	00f707b3          	add	a5,a4,a5
    2e7c:	fffff737          	lui	a4,0xfffff
    2e80:	ff040693          	addi	a3,s0,-16
    2e84:	00e686b3          	add	a3,a3,a4
    2e88:	fffff737          	lui	a4,0xfffff
    2e8c:	ff040613          	addi	a2,s0,-16
    2e90:	00e60733          	add	a4,a2,a4
    2e94:	6106b683          	ld	a3,1552(a3)
    2e98:	61873703          	ld	a4,1560(a4) # fffffffffffff618 <__global_pointer$+0xfffffffffffefe18>
    2e9c:	00e68733          	add	a4,a3,a4
    2ea0:	62e7b023          	sd	a4,1568(a5) # fffffffffffff620 <__global_pointer$+0xfffffffffffefe20>
    2ea4:	0000c797          	auipc	a5,0xc
    2ea8:	1d078793          	addi	a5,a5,464 # f074 <P3_is_marked>
    2eac:	0007a783          	lw	a5,0(a5)
    2eb0:	0007879b          	sext.w	a5,a5
    2eb4:	0000c717          	auipc	a4,0xc
    2eb8:	18473703          	ld	a4,388(a4) # f038 <_GLOBAL_OFFSET_TABLE_+0x10>
    2ebc:	00379793          	slli	a5,a5,0x3
    2ec0:	00f707b3          	add	a5,a4,a5
    2ec4:	fffff737          	lui	a4,0xfffff
    2ec8:	ff040693          	addi	a3,s0,-16
    2ecc:	00e68733          	add	a4,a3,a4
    2ed0:	61073703          	ld	a4,1552(a4) # fffffffffffff610 <__global_pointer$+0xfffffffffffefe10>
    2ed4:	00e7b023          	sd	a4,0(a5)
    2ed8:	0000c797          	auipc	a5,0xc
    2edc:	19c78793          	addi	a5,a5,412 # f074 <P3_is_marked>
    2ee0:	0007a783          	lw	a5,0(a5)
    2ee4:	0007879b          	sext.w	a5,a5
    2ee8:	0017879b          	addiw	a5,a5,1
    2eec:	0007879b          	sext.w	a5,a5
    2ef0:	0000c717          	auipc	a4,0xc
    2ef4:	14873703          	ld	a4,328(a4) # f038 <_GLOBAL_OFFSET_TABLE_+0x10>
    2ef8:	00379793          	slli	a5,a5,0x3
    2efc:	00f707b3          	add	a5,a4,a5
    2f00:	fffff737          	lui	a4,0xfffff
    2f04:	ff040693          	addi	a3,s0,-16
    2f08:	00e68733          	add	a4,a3,a4
    2f0c:	61873703          	ld	a4,1560(a4) # fffffffffffff618 <__global_pointer$+0xfffffffffffefe18>
    2f10:	00e7b023          	sd	a4,0(a5)
    2f14:	0000c797          	auipc	a5,0xc
    2f18:	16078793          	addi	a5,a5,352 # f074 <P3_is_marked>
    2f1c:	0007a783          	lw	a5,0(a5)
    2f20:	0007879b          	sext.w	a5,a5
    2f24:	0027879b          	addiw	a5,a5,2
    2f28:	0007879b          	sext.w	a5,a5
    2f2c:	0000c717          	auipc	a4,0xc
    2f30:	10c73703          	ld	a4,268(a4) # f038 <_GLOBAL_OFFSET_TABLE_+0x10>
    2f34:	00379793          	slli	a5,a5,0x3
    2f38:	00f707b3          	add	a5,a4,a5
    2f3c:	fffff737          	lui	a4,0xfffff
    2f40:	ff040693          	addi	a3,s0,-16
    2f44:	00e68733          	add	a4,a3,a4
    2f48:	62073703          	ld	a4,1568(a4) # fffffffffffff620 <__global_pointer$+0xfffffffffffefe20>
    2f4c:	00e7b023          	sd	a4,0(a5)
    2f50:	0000c797          	auipc	a5,0xc
    2f54:	12478793          	addi	a5,a5,292 # f074 <P3_is_marked>
    2f58:	0007a783          	lw	a5,0(a5)
    2f5c:	0007879b          	sext.w	a5,a5
    2f60:	0037879b          	addiw	a5,a5,3
    2f64:	0007871b          	sext.w	a4,a5
    2f68:	0000c797          	auipc	a5,0xc
    2f6c:	10c78793          	addi	a5,a5,268 # f074 <P3_is_marked>
    2f70:	00e7a023          	sw	a4,0(a5)
    2f74:	0000c797          	auipc	a5,0xc
    2f78:	09878793          	addi	a5,a5,152 # f00c <P2_is_marked>
    2f7c:	0007a783          	lw	a5,0(a5)
    2f80:	0007879b          	sext.w	a5,a5
    2f84:	00078713          	mv	a4,a5
    2f88:	00300793          	li	a5,3
    2f8c:	1ce7de63          	bge	a5,a4,3168 <main+0x2a9c>
    2f90:	0000c797          	auipc	a5,0xc
    2f94:	0e478793          	addi	a5,a5,228 # f074 <P3_is_marked>
    2f98:	0007a783          	lw	a5,0(a5)
    2f9c:	0007879b          	sext.w	a5,a5
    2fa0:	00078713          	mv	a4,a5
    2fa4:	00300793          	li	a5,3
    2fa8:	1ce7c063          	blt	a5,a4,3168 <main+0x2a9c>
    2fac:	0000c797          	auipc	a5,0xc
    2fb0:	0a47b783          	ld	a5,164(a5) # f050 <_GLOBAL_OFFSET_TABLE_+0x28>
    2fb4:	0087b703          	ld	a4,8(a5)
    2fb8:	0000c797          	auipc	a5,0xc
    2fbc:	0987b783          	ld	a5,152(a5) # f050 <_GLOBAL_OFFSET_TABLE_+0x28>
    2fc0:	0187b783          	ld	a5,24(a5)
    2fc4:	1af71263          	bne	a4,a5,3168 <main+0x2a9c>
    2fc8:	0000c797          	auipc	a5,0xc
    2fcc:	0887b783          	ld	a5,136(a5) # f050 <_GLOBAL_OFFSET_TABLE_+0x28>
    2fd0:	0087b703          	ld	a4,8(a5)
    2fd4:	0000c797          	auipc	a5,0xc
    2fd8:	07c7b783          	ld	a5,124(a5) # f050 <_GLOBAL_OFFSET_TABLE_+0x28>
    2fdc:	0007b783          	ld	a5,0(a5)
    2fe0:	18f71463          	bne	a4,a5,3168 <main+0x2a9c>
    2fe4:	fffff7b7          	lui	a5,0xfffff
    2fe8:	ff040713          	addi	a4,s0,-16
    2fec:	00f707b3          	add	a5,a4,a5
    2ff0:	0000c717          	auipc	a4,0xc
    2ff4:	06073703          	ld	a4,96(a4) # f050 <_GLOBAL_OFFSET_TABLE_+0x28>
    2ff8:	01073703          	ld	a4,16(a4)
    2ffc:	62e7b423          	sd	a4,1576(a5) # fffffffffffff628 <__global_pointer$+0xfffffffffffefe28>
    3000:	fffff7b7          	lui	a5,0xfffff
    3004:	ff040713          	addi	a4,s0,-16
    3008:	00f707b3          	add	a5,a4,a5
    300c:	0000c717          	auipc	a4,0xc
    3010:	04473703          	ld	a4,68(a4) # f050 <_GLOBAL_OFFSET_TABLE_+0x28>
    3014:	00873703          	ld	a4,8(a4)
    3018:	62e7b823          	sd	a4,1584(a5) # fffffffffffff630 <__global_pointer$+0xfffffffffffefe30>
    301c:	fffff7b7          	lui	a5,0xfffff
    3020:	ff040713          	addi	a4,s0,-16
    3024:	00f70733          	add	a4,a4,a5
    3028:	fffff7b7          	lui	a5,0xfffff
    302c:	ff040693          	addi	a3,s0,-16
    3030:	00f687b3          	add	a5,a3,a5
    3034:	63073703          	ld	a4,1584(a4)
    3038:	6287b783          	ld	a5,1576(a5) # fffffffffffff628 <__global_pointer$+0xfffffffffffefe28>
    303c:	12e7d663          	bge	a5,a4,3168 <main+0x2a9c>
    3040:	0000c797          	auipc	a5,0xc
    3044:	fcc78793          	addi	a5,a5,-52 # f00c <P2_is_marked>
    3048:	0007a783          	lw	a5,0(a5)
    304c:	0007879b          	sext.w	a5,a5
    3050:	ffc7879b          	addiw	a5,a5,-4
    3054:	0007871b          	sext.w	a4,a5
    3058:	0000c797          	auipc	a5,0xc
    305c:	fb478793          	addi	a5,a5,-76 # f00c <P2_is_marked>
    3060:	00e7a023          	sw	a4,0(a5)
    3064:	fffff7b7          	lui	a5,0xfffff
    3068:	ff040713          	addi	a4,s0,-16
    306c:	00f707b3          	add	a5,a4,a5
    3070:	fffff737          	lui	a4,0xfffff
    3074:	ff040693          	addi	a3,s0,-16
    3078:	00e686b3          	add	a3,a3,a4
    307c:	fffff737          	lui	a4,0xfffff
    3080:	ff040613          	addi	a2,s0,-16
    3084:	00e60733          	add	a4,a2,a4
    3088:	6286b683          	ld	a3,1576(a3)
    308c:	63073703          	ld	a4,1584(a4) # fffffffffffff630 <__global_pointer$+0xfffffffffffefe30>
    3090:	00e68733          	add	a4,a3,a4
    3094:	62e7bc23          	sd	a4,1592(a5) # fffffffffffff638 <__global_pointer$+0xfffffffffffefe38>
    3098:	0000c797          	auipc	a5,0xc
    309c:	fdc78793          	addi	a5,a5,-36 # f074 <P3_is_marked>
    30a0:	0007a783          	lw	a5,0(a5)
    30a4:	0007879b          	sext.w	a5,a5
    30a8:	0000c717          	auipc	a4,0xc
    30ac:	f9073703          	ld	a4,-112(a4) # f038 <_GLOBAL_OFFSET_TABLE_+0x10>
    30b0:	00379793          	slli	a5,a5,0x3
    30b4:	00f707b3          	add	a5,a4,a5
    30b8:	fffff737          	lui	a4,0xfffff
    30bc:	ff040693          	addi	a3,s0,-16
    30c0:	00e68733          	add	a4,a3,a4
    30c4:	62873703          	ld	a4,1576(a4) # fffffffffffff628 <__global_pointer$+0xfffffffffffefe28>
    30c8:	00e7b023          	sd	a4,0(a5)
    30cc:	0000c797          	auipc	a5,0xc
    30d0:	fa878793          	addi	a5,a5,-88 # f074 <P3_is_marked>
    30d4:	0007a783          	lw	a5,0(a5)
    30d8:	0007879b          	sext.w	a5,a5
    30dc:	0017879b          	addiw	a5,a5,1
    30e0:	0007879b          	sext.w	a5,a5
    30e4:	0000c717          	auipc	a4,0xc
    30e8:	f5473703          	ld	a4,-172(a4) # f038 <_GLOBAL_OFFSET_TABLE_+0x10>
    30ec:	00379793          	slli	a5,a5,0x3
    30f0:	00f707b3          	add	a5,a4,a5
    30f4:	fffff737          	lui	a4,0xfffff
    30f8:	ff040693          	addi	a3,s0,-16
    30fc:	00e68733          	add	a4,a3,a4
    3100:	63073703          	ld	a4,1584(a4) # fffffffffffff630 <__global_pointer$+0xfffffffffffefe30>
    3104:	00e7b023          	sd	a4,0(a5)
    3108:	0000c797          	auipc	a5,0xc
    310c:	f6c78793          	addi	a5,a5,-148 # f074 <P3_is_marked>
    3110:	0007a783          	lw	a5,0(a5)
    3114:	0007879b          	sext.w	a5,a5
    3118:	0027879b          	addiw	a5,a5,2
    311c:	0007879b          	sext.w	a5,a5
    3120:	0000c717          	auipc	a4,0xc
    3124:	f1873703          	ld	a4,-232(a4) # f038 <_GLOBAL_OFFSET_TABLE_+0x10>
    3128:	00379793          	slli	a5,a5,0x3
    312c:	00f707b3          	add	a5,a4,a5
    3130:	fffff737          	lui	a4,0xfffff
    3134:	ff040693          	addi	a3,s0,-16
    3138:	00e68733          	add	a4,a3,a4
    313c:	63873703          	ld	a4,1592(a4) # fffffffffffff638 <__global_pointer$+0xfffffffffffefe38>
    3140:	00e7b023          	sd	a4,0(a5)
    3144:	0000c797          	auipc	a5,0xc
    3148:	f3078793          	addi	a5,a5,-208 # f074 <P3_is_marked>
    314c:	0007a783          	lw	a5,0(a5)
    3150:	0007879b          	sext.w	a5,a5
    3154:	0037879b          	addiw	a5,a5,3
    3158:	0007871b          	sext.w	a4,a5
    315c:	0000c797          	auipc	a5,0xc
    3160:	f1878793          	addi	a5,a5,-232 # f074 <P3_is_marked>
    3164:	00e7a023          	sw	a4,0(a5)
    3168:	0000c797          	auipc	a5,0xc
    316c:	ea478793          	addi	a5,a5,-348 # f00c <P2_is_marked>
    3170:	0007a783          	lw	a5,0(a5)
    3174:	0007879b          	sext.w	a5,a5
    3178:	00078713          	mv	a4,a5
    317c:	00300793          	li	a5,3
    3180:	1ce7de63          	bge	a5,a4,335c <main+0x2c90>
    3184:	0000c797          	auipc	a5,0xc
    3188:	ef078793          	addi	a5,a5,-272 # f074 <P3_is_marked>
    318c:	0007a783          	lw	a5,0(a5)
    3190:	0007879b          	sext.w	a5,a5
    3194:	00078713          	mv	a4,a5
    3198:	00300793          	li	a5,3
    319c:	1ce7c063          	blt	a5,a4,335c <main+0x2c90>
    31a0:	0000c797          	auipc	a5,0xc
    31a4:	eb07b783          	ld	a5,-336(a5) # f050 <_GLOBAL_OFFSET_TABLE_+0x28>
    31a8:	0187b703          	ld	a4,24(a5)
    31ac:	0000c797          	auipc	a5,0xc
    31b0:	ea47b783          	ld	a5,-348(a5) # f050 <_GLOBAL_OFFSET_TABLE_+0x28>
    31b4:	0007b783          	ld	a5,0(a5)
    31b8:	1af71263          	bne	a4,a5,335c <main+0x2c90>
    31bc:	0000c797          	auipc	a5,0xc
    31c0:	e947b783          	ld	a5,-364(a5) # f050 <_GLOBAL_OFFSET_TABLE_+0x28>
    31c4:	0187b703          	ld	a4,24(a5)
    31c8:	0000c797          	auipc	a5,0xc
    31cc:	e887b783          	ld	a5,-376(a5) # f050 <_GLOBAL_OFFSET_TABLE_+0x28>
    31d0:	0087b783          	ld	a5,8(a5)
    31d4:	18f71463          	bne	a4,a5,335c <main+0x2c90>
    31d8:	fffff7b7          	lui	a5,0xfffff
    31dc:	ff040713          	addi	a4,s0,-16
    31e0:	00f707b3          	add	a5,a4,a5
    31e4:	0000c717          	auipc	a4,0xc
    31e8:	e6c73703          	ld	a4,-404(a4) # f050 <_GLOBAL_OFFSET_TABLE_+0x28>
    31ec:	01073703          	ld	a4,16(a4)
    31f0:	64e7b023          	sd	a4,1600(a5) # fffffffffffff640 <__global_pointer$+0xfffffffffffefe40>
    31f4:	fffff7b7          	lui	a5,0xfffff
    31f8:	ff040713          	addi	a4,s0,-16
    31fc:	00f707b3          	add	a5,a4,a5
    3200:	0000c717          	auipc	a4,0xc
    3204:	e5073703          	ld	a4,-432(a4) # f050 <_GLOBAL_OFFSET_TABLE_+0x28>
    3208:	01873703          	ld	a4,24(a4)
    320c:	64e7b423          	sd	a4,1608(a5) # fffffffffffff648 <__global_pointer$+0xfffffffffffefe48>
    3210:	fffff7b7          	lui	a5,0xfffff
    3214:	ff040713          	addi	a4,s0,-16
    3218:	00f70733          	add	a4,a4,a5
    321c:	fffff7b7          	lui	a5,0xfffff
    3220:	ff040693          	addi	a3,s0,-16
    3224:	00f687b3          	add	a5,a3,a5
    3228:	64873703          	ld	a4,1608(a4)
    322c:	6407b783          	ld	a5,1600(a5) # fffffffffffff640 <__global_pointer$+0xfffffffffffefe40>
    3230:	12e7d663          	bge	a5,a4,335c <main+0x2c90>
    3234:	0000c797          	auipc	a5,0xc
    3238:	dd878793          	addi	a5,a5,-552 # f00c <P2_is_marked>
    323c:	0007a783          	lw	a5,0(a5)
    3240:	0007879b          	sext.w	a5,a5
    3244:	ffc7879b          	addiw	a5,a5,-4
    3248:	0007871b          	sext.w	a4,a5
    324c:	0000c797          	auipc	a5,0xc
    3250:	dc078793          	addi	a5,a5,-576 # f00c <P2_is_marked>
    3254:	00e7a023          	sw	a4,0(a5)
    3258:	fffff7b7          	lui	a5,0xfffff
    325c:	ff040713          	addi	a4,s0,-16
    3260:	00f707b3          	add	a5,a4,a5
    3264:	fffff737          	lui	a4,0xfffff
    3268:	ff040693          	addi	a3,s0,-16
    326c:	00e686b3          	add	a3,a3,a4
    3270:	fffff737          	lui	a4,0xfffff
    3274:	ff040613          	addi	a2,s0,-16
    3278:	00e60733          	add	a4,a2,a4
    327c:	6406b683          	ld	a3,1600(a3)
    3280:	64873703          	ld	a4,1608(a4) # fffffffffffff648 <__global_pointer$+0xfffffffffffefe48>
    3284:	00e68733          	add	a4,a3,a4
    3288:	64e7b823          	sd	a4,1616(a5) # fffffffffffff650 <__global_pointer$+0xfffffffffffefe50>
    328c:	0000c797          	auipc	a5,0xc
    3290:	de878793          	addi	a5,a5,-536 # f074 <P3_is_marked>
    3294:	0007a783          	lw	a5,0(a5)
    3298:	0007879b          	sext.w	a5,a5
    329c:	0000c717          	auipc	a4,0xc
    32a0:	d9c73703          	ld	a4,-612(a4) # f038 <_GLOBAL_OFFSET_TABLE_+0x10>
    32a4:	00379793          	slli	a5,a5,0x3
    32a8:	00f707b3          	add	a5,a4,a5
    32ac:	fffff737          	lui	a4,0xfffff
    32b0:	ff040693          	addi	a3,s0,-16
    32b4:	00e68733          	add	a4,a3,a4
    32b8:	64073703          	ld	a4,1600(a4) # fffffffffffff640 <__global_pointer$+0xfffffffffffefe40>
    32bc:	00e7b023          	sd	a4,0(a5)
    32c0:	0000c797          	auipc	a5,0xc
    32c4:	db478793          	addi	a5,a5,-588 # f074 <P3_is_marked>
    32c8:	0007a783          	lw	a5,0(a5)
    32cc:	0007879b          	sext.w	a5,a5
    32d0:	0017879b          	addiw	a5,a5,1
    32d4:	0007879b          	sext.w	a5,a5
    32d8:	0000c717          	auipc	a4,0xc
    32dc:	d6073703          	ld	a4,-672(a4) # f038 <_GLOBAL_OFFSET_TABLE_+0x10>
    32e0:	00379793          	slli	a5,a5,0x3
    32e4:	00f707b3          	add	a5,a4,a5
    32e8:	fffff737          	lui	a4,0xfffff
    32ec:	ff040693          	addi	a3,s0,-16
    32f0:	00e68733          	add	a4,a3,a4
    32f4:	64873703          	ld	a4,1608(a4) # fffffffffffff648 <__global_pointer$+0xfffffffffffefe48>
    32f8:	00e7b023          	sd	a4,0(a5)
    32fc:	0000c797          	auipc	a5,0xc
    3300:	d7878793          	addi	a5,a5,-648 # f074 <P3_is_marked>
    3304:	0007a783          	lw	a5,0(a5)
    3308:	0007879b          	sext.w	a5,a5
    330c:	0027879b          	addiw	a5,a5,2
    3310:	0007879b          	sext.w	a5,a5
    3314:	0000c717          	auipc	a4,0xc
    3318:	d2473703          	ld	a4,-732(a4) # f038 <_GLOBAL_OFFSET_TABLE_+0x10>
    331c:	00379793          	slli	a5,a5,0x3
    3320:	00f707b3          	add	a5,a4,a5
    3324:	fffff737          	lui	a4,0xfffff
    3328:	ff040693          	addi	a3,s0,-16
    332c:	00e68733          	add	a4,a3,a4
    3330:	65073703          	ld	a4,1616(a4) # fffffffffffff650 <__global_pointer$+0xfffffffffffefe50>
    3334:	00e7b023          	sd	a4,0(a5)
    3338:	0000c797          	auipc	a5,0xc
    333c:	d3c78793          	addi	a5,a5,-708 # f074 <P3_is_marked>
    3340:	0007a783          	lw	a5,0(a5)
    3344:	0007879b          	sext.w	a5,a5
    3348:	0037879b          	addiw	a5,a5,3
    334c:	0007871b          	sext.w	a4,a5
    3350:	0000c797          	auipc	a5,0xc
    3354:	d2478793          	addi	a5,a5,-732 # f074 <P3_is_marked>
    3358:	00e7a023          	sw	a4,0(a5)
    335c:	0000c797          	auipc	a5,0xc
    3360:	cb078793          	addi	a5,a5,-848 # f00c <P2_is_marked>
    3364:	0007a783          	lw	a5,0(a5)
    3368:	0007879b          	sext.w	a5,a5
    336c:	00078713          	mv	a4,a5
    3370:	00300793          	li	a5,3
    3374:	1ce7de63          	bge	a5,a4,3550 <main+0x2e84>
    3378:	0000c797          	auipc	a5,0xc
    337c:	cfc78793          	addi	a5,a5,-772 # f074 <P3_is_marked>
    3380:	0007a783          	lw	a5,0(a5)
    3384:	0007879b          	sext.w	a5,a5
    3388:	00078713          	mv	a4,a5
    338c:	00300793          	li	a5,3
    3390:	1ce7c063          	blt	a5,a4,3550 <main+0x2e84>
    3394:	0000c797          	auipc	a5,0xc
    3398:	cbc7b783          	ld	a5,-836(a5) # f050 <_GLOBAL_OFFSET_TABLE_+0x28>
    339c:	0187b703          	ld	a4,24(a5)
    33a0:	0000c797          	auipc	a5,0xc
    33a4:	cb07b783          	ld	a5,-848(a5) # f050 <_GLOBAL_OFFSET_TABLE_+0x28>
    33a8:	0087b783          	ld	a5,8(a5)
    33ac:	1af71263          	bne	a4,a5,3550 <main+0x2e84>
    33b0:	0000c797          	auipc	a5,0xc
    33b4:	ca07b783          	ld	a5,-864(a5) # f050 <_GLOBAL_OFFSET_TABLE_+0x28>
    33b8:	0187b703          	ld	a4,24(a5)
    33bc:	0000c797          	auipc	a5,0xc
    33c0:	c947b783          	ld	a5,-876(a5) # f050 <_GLOBAL_OFFSET_TABLE_+0x28>
    33c4:	0007b783          	ld	a5,0(a5)
    33c8:	18f71463          	bne	a4,a5,3550 <main+0x2e84>
    33cc:	fffff7b7          	lui	a5,0xfffff
    33d0:	ff040713          	addi	a4,s0,-16
    33d4:	00f707b3          	add	a5,a4,a5
    33d8:	0000c717          	auipc	a4,0xc
    33dc:	c7873703          	ld	a4,-904(a4) # f050 <_GLOBAL_OFFSET_TABLE_+0x28>
    33e0:	01073703          	ld	a4,16(a4)
    33e4:	64e7bc23          	sd	a4,1624(a5) # fffffffffffff658 <__global_pointer$+0xfffffffffffefe58>
    33e8:	fffff7b7          	lui	a5,0xfffff
    33ec:	ff040713          	addi	a4,s0,-16
    33f0:	00f707b3          	add	a5,a4,a5
    33f4:	0000c717          	auipc	a4,0xc
    33f8:	c5c73703          	ld	a4,-932(a4) # f050 <_GLOBAL_OFFSET_TABLE_+0x28>
    33fc:	01873703          	ld	a4,24(a4)
    3400:	66e7b023          	sd	a4,1632(a5) # fffffffffffff660 <__global_pointer$+0xfffffffffffefe60>
    3404:	fffff7b7          	lui	a5,0xfffff
    3408:	ff040713          	addi	a4,s0,-16
    340c:	00f70733          	add	a4,a4,a5
    3410:	fffff7b7          	lui	a5,0xfffff
    3414:	ff040693          	addi	a3,s0,-16
    3418:	00f687b3          	add	a5,a3,a5
    341c:	66073703          	ld	a4,1632(a4)
    3420:	6587b783          	ld	a5,1624(a5) # fffffffffffff658 <__global_pointer$+0xfffffffffffefe58>
    3424:	12e7d663          	bge	a5,a4,3550 <main+0x2e84>
    3428:	0000c797          	auipc	a5,0xc
    342c:	be478793          	addi	a5,a5,-1052 # f00c <P2_is_marked>
    3430:	0007a783          	lw	a5,0(a5)
    3434:	0007879b          	sext.w	a5,a5
    3438:	ffc7879b          	addiw	a5,a5,-4
    343c:	0007871b          	sext.w	a4,a5
    3440:	0000c797          	auipc	a5,0xc
    3444:	bcc78793          	addi	a5,a5,-1076 # f00c <P2_is_marked>
    3448:	00e7a023          	sw	a4,0(a5)
    344c:	fffff7b7          	lui	a5,0xfffff
    3450:	ff040713          	addi	a4,s0,-16
    3454:	00f707b3          	add	a5,a4,a5
    3458:	fffff737          	lui	a4,0xfffff
    345c:	ff040693          	addi	a3,s0,-16
    3460:	00e686b3          	add	a3,a3,a4
    3464:	fffff737          	lui	a4,0xfffff
    3468:	ff040613          	addi	a2,s0,-16
    346c:	00e60733          	add	a4,a2,a4
    3470:	6586b683          	ld	a3,1624(a3)
    3474:	66073703          	ld	a4,1632(a4) # fffffffffffff660 <__global_pointer$+0xfffffffffffefe60>
    3478:	00e68733          	add	a4,a3,a4
    347c:	66e7b423          	sd	a4,1640(a5) # fffffffffffff668 <__global_pointer$+0xfffffffffffefe68>
    3480:	0000c797          	auipc	a5,0xc
    3484:	bf478793          	addi	a5,a5,-1036 # f074 <P3_is_marked>
    3488:	0007a783          	lw	a5,0(a5)
    348c:	0007879b          	sext.w	a5,a5
    3490:	0000c717          	auipc	a4,0xc
    3494:	ba873703          	ld	a4,-1112(a4) # f038 <_GLOBAL_OFFSET_TABLE_+0x10>
    3498:	00379793          	slli	a5,a5,0x3
    349c:	00f707b3          	add	a5,a4,a5
    34a0:	fffff737          	lui	a4,0xfffff
    34a4:	ff040693          	addi	a3,s0,-16
    34a8:	00e68733          	add	a4,a3,a4
    34ac:	65873703          	ld	a4,1624(a4) # fffffffffffff658 <__global_pointer$+0xfffffffffffefe58>
    34b0:	00e7b023          	sd	a4,0(a5)
    34b4:	0000c797          	auipc	a5,0xc
    34b8:	bc078793          	addi	a5,a5,-1088 # f074 <P3_is_marked>
    34bc:	0007a783          	lw	a5,0(a5)
    34c0:	0007879b          	sext.w	a5,a5
    34c4:	0017879b          	addiw	a5,a5,1
    34c8:	0007879b          	sext.w	a5,a5
    34cc:	0000c717          	auipc	a4,0xc
    34d0:	b6c73703          	ld	a4,-1172(a4) # f038 <_GLOBAL_OFFSET_TABLE_+0x10>
    34d4:	00379793          	slli	a5,a5,0x3
    34d8:	00f707b3          	add	a5,a4,a5
    34dc:	fffff737          	lui	a4,0xfffff
    34e0:	ff040693          	addi	a3,s0,-16
    34e4:	00e68733          	add	a4,a3,a4
    34e8:	66073703          	ld	a4,1632(a4) # fffffffffffff660 <__global_pointer$+0xfffffffffffefe60>
    34ec:	00e7b023          	sd	a4,0(a5)
    34f0:	0000c797          	auipc	a5,0xc
    34f4:	b8478793          	addi	a5,a5,-1148 # f074 <P3_is_marked>
    34f8:	0007a783          	lw	a5,0(a5)
    34fc:	0007879b          	sext.w	a5,a5
    3500:	0027879b          	addiw	a5,a5,2
    3504:	0007879b          	sext.w	a5,a5
    3508:	0000c717          	auipc	a4,0xc
    350c:	b3073703          	ld	a4,-1232(a4) # f038 <_GLOBAL_OFFSET_TABLE_+0x10>
    3510:	00379793          	slli	a5,a5,0x3
    3514:	00f707b3          	add	a5,a4,a5
    3518:	fffff737          	lui	a4,0xfffff
    351c:	ff040693          	addi	a3,s0,-16
    3520:	00e68733          	add	a4,a3,a4
    3524:	66873703          	ld	a4,1640(a4) # fffffffffffff668 <__global_pointer$+0xfffffffffffefe68>
    3528:	00e7b023          	sd	a4,0(a5)
    352c:	0000c797          	auipc	a5,0xc
    3530:	b4878793          	addi	a5,a5,-1208 # f074 <P3_is_marked>
    3534:	0007a783          	lw	a5,0(a5)
    3538:	0007879b          	sext.w	a5,a5
    353c:	0037879b          	addiw	a5,a5,3
    3540:	0007871b          	sext.w	a4,a5
    3544:	0000c797          	auipc	a5,0xc
    3548:	b3078793          	addi	a5,a5,-1232 # f074 <P3_is_marked>
    354c:	00e7a023          	sw	a4,0(a5)
    3550:	0000c797          	auipc	a5,0xc
    3554:	abc78793          	addi	a5,a5,-1348 # f00c <P2_is_marked>
    3558:	0007a783          	lw	a5,0(a5)
    355c:	0007879b          	sext.w	a5,a5
    3560:	00078713          	mv	a4,a5
    3564:	00300793          	li	a5,3
    3568:	1ce7de63          	bge	a5,a4,3744 <main+0x3078>
    356c:	0000c797          	auipc	a5,0xc
    3570:	b0878793          	addi	a5,a5,-1272 # f074 <P3_is_marked>
    3574:	0007a783          	lw	a5,0(a5)
    3578:	0007879b          	sext.w	a5,a5
    357c:	00078713          	mv	a4,a5
    3580:	00300793          	li	a5,3
    3584:	1ce7c063          	blt	a5,a4,3744 <main+0x3078>
    3588:	0000c797          	auipc	a5,0xc
    358c:	ac87b783          	ld	a5,-1336(a5) # f050 <_GLOBAL_OFFSET_TABLE_+0x28>
    3590:	0007b703          	ld	a4,0(a5)
    3594:	0000c797          	auipc	a5,0xc
    3598:	abc7b783          	ld	a5,-1348(a5) # f050 <_GLOBAL_OFFSET_TABLE_+0x28>
    359c:	0087b783          	ld	a5,8(a5)
    35a0:	1af71263          	bne	a4,a5,3744 <main+0x3078>
    35a4:	0000c797          	auipc	a5,0xc
    35a8:	aac7b783          	ld	a5,-1364(a5) # f050 <_GLOBAL_OFFSET_TABLE_+0x28>
    35ac:	0007b703          	ld	a4,0(a5)
    35b0:	0000c797          	auipc	a5,0xc
    35b4:	aa07b783          	ld	a5,-1376(a5) # f050 <_GLOBAL_OFFSET_TABLE_+0x28>
    35b8:	0107b783          	ld	a5,16(a5)
    35bc:	18f71463          	bne	a4,a5,3744 <main+0x3078>
    35c0:	fffff7b7          	lui	a5,0xfffff
    35c4:	ff040713          	addi	a4,s0,-16
    35c8:	00f707b3          	add	a5,a4,a5
    35cc:	0000c717          	auipc	a4,0xc
    35d0:	a8473703          	ld	a4,-1404(a4) # f050 <_GLOBAL_OFFSET_TABLE_+0x28>
    35d4:	01873703          	ld	a4,24(a4)
    35d8:	66e7b823          	sd	a4,1648(a5) # fffffffffffff670 <__global_pointer$+0xfffffffffffefe70>
    35dc:	fffff7b7          	lui	a5,0xfffff
    35e0:	ff040713          	addi	a4,s0,-16
    35e4:	00f707b3          	add	a5,a4,a5
    35e8:	0000c717          	auipc	a4,0xc
    35ec:	a6873703          	ld	a4,-1432(a4) # f050 <_GLOBAL_OFFSET_TABLE_+0x28>
    35f0:	00073703          	ld	a4,0(a4)
    35f4:	66e7bc23          	sd	a4,1656(a5) # fffffffffffff678 <__global_pointer$+0xfffffffffffefe78>
    35f8:	fffff7b7          	lui	a5,0xfffff
    35fc:	ff040713          	addi	a4,s0,-16
    3600:	00f70733          	add	a4,a4,a5
    3604:	fffff7b7          	lui	a5,0xfffff
    3608:	ff040693          	addi	a3,s0,-16
    360c:	00f687b3          	add	a5,a3,a5
    3610:	67873703          	ld	a4,1656(a4)
    3614:	6707b783          	ld	a5,1648(a5) # fffffffffffff670 <__global_pointer$+0xfffffffffffefe70>
    3618:	12e7d663          	bge	a5,a4,3744 <main+0x3078>
    361c:	0000c797          	auipc	a5,0xc
    3620:	9f078793          	addi	a5,a5,-1552 # f00c <P2_is_marked>
    3624:	0007a783          	lw	a5,0(a5)
    3628:	0007879b          	sext.w	a5,a5
    362c:	ffc7879b          	addiw	a5,a5,-4
    3630:	0007871b          	sext.w	a4,a5
    3634:	0000c797          	auipc	a5,0xc
    3638:	9d878793          	addi	a5,a5,-1576 # f00c <P2_is_marked>
    363c:	00e7a023          	sw	a4,0(a5)
    3640:	fffff7b7          	lui	a5,0xfffff
    3644:	ff040713          	addi	a4,s0,-16
    3648:	00f707b3          	add	a5,a4,a5
    364c:	fffff737          	lui	a4,0xfffff
    3650:	ff040693          	addi	a3,s0,-16
    3654:	00e686b3          	add	a3,a3,a4
    3658:	fffff737          	lui	a4,0xfffff
    365c:	ff040613          	addi	a2,s0,-16
    3660:	00e60733          	add	a4,a2,a4
    3664:	6706b683          	ld	a3,1648(a3)
    3668:	67873703          	ld	a4,1656(a4) # fffffffffffff678 <__global_pointer$+0xfffffffffffefe78>
    366c:	00e68733          	add	a4,a3,a4
    3670:	68e7b023          	sd	a4,1664(a5) # fffffffffffff680 <__global_pointer$+0xfffffffffffefe80>
    3674:	0000c797          	auipc	a5,0xc
    3678:	a0078793          	addi	a5,a5,-1536 # f074 <P3_is_marked>
    367c:	0007a783          	lw	a5,0(a5)
    3680:	0007879b          	sext.w	a5,a5
    3684:	0000c717          	auipc	a4,0xc
    3688:	9b473703          	ld	a4,-1612(a4) # f038 <_GLOBAL_OFFSET_TABLE_+0x10>
    368c:	00379793          	slli	a5,a5,0x3
    3690:	00f707b3          	add	a5,a4,a5
    3694:	fffff737          	lui	a4,0xfffff
    3698:	ff040693          	addi	a3,s0,-16
    369c:	00e68733          	add	a4,a3,a4
    36a0:	67073703          	ld	a4,1648(a4) # fffffffffffff670 <__global_pointer$+0xfffffffffffefe70>
    36a4:	00e7b023          	sd	a4,0(a5)
    36a8:	0000c797          	auipc	a5,0xc
    36ac:	9cc78793          	addi	a5,a5,-1588 # f074 <P3_is_marked>
    36b0:	0007a783          	lw	a5,0(a5)
    36b4:	0007879b          	sext.w	a5,a5
    36b8:	0017879b          	addiw	a5,a5,1
    36bc:	0007879b          	sext.w	a5,a5
    36c0:	0000c717          	auipc	a4,0xc
    36c4:	97873703          	ld	a4,-1672(a4) # f038 <_GLOBAL_OFFSET_TABLE_+0x10>
    36c8:	00379793          	slli	a5,a5,0x3
    36cc:	00f707b3          	add	a5,a4,a5
    36d0:	fffff737          	lui	a4,0xfffff
    36d4:	ff040693          	addi	a3,s0,-16
    36d8:	00e68733          	add	a4,a3,a4
    36dc:	67873703          	ld	a4,1656(a4) # fffffffffffff678 <__global_pointer$+0xfffffffffffefe78>
    36e0:	00e7b023          	sd	a4,0(a5)
    36e4:	0000c797          	auipc	a5,0xc
    36e8:	99078793          	addi	a5,a5,-1648 # f074 <P3_is_marked>
    36ec:	0007a783          	lw	a5,0(a5)
    36f0:	0007879b          	sext.w	a5,a5
    36f4:	0027879b          	addiw	a5,a5,2
    36f8:	0007879b          	sext.w	a5,a5
    36fc:	0000c717          	auipc	a4,0xc
    3700:	93c73703          	ld	a4,-1732(a4) # f038 <_GLOBAL_OFFSET_TABLE_+0x10>
    3704:	00379793          	slli	a5,a5,0x3
    3708:	00f707b3          	add	a5,a4,a5
    370c:	fffff737          	lui	a4,0xfffff
    3710:	ff040693          	addi	a3,s0,-16
    3714:	00e68733          	add	a4,a3,a4
    3718:	68073703          	ld	a4,1664(a4) # fffffffffffff680 <__global_pointer$+0xfffffffffffefe80>
    371c:	00e7b023          	sd	a4,0(a5)
    3720:	0000c797          	auipc	a5,0xc
    3724:	95478793          	addi	a5,a5,-1708 # f074 <P3_is_marked>
    3728:	0007a783          	lw	a5,0(a5)
    372c:	0007879b          	sext.w	a5,a5
    3730:	0037879b          	addiw	a5,a5,3
    3734:	0007871b          	sext.w	a4,a5
    3738:	0000c797          	auipc	a5,0xc
    373c:	93c78793          	addi	a5,a5,-1732 # f074 <P3_is_marked>
    3740:	00e7a023          	sw	a4,0(a5)
    3744:	0000c797          	auipc	a5,0xc
    3748:	8c878793          	addi	a5,a5,-1848 # f00c <P2_is_marked>
    374c:	0007a783          	lw	a5,0(a5)
    3750:	0007879b          	sext.w	a5,a5
    3754:	00078713          	mv	a4,a5
    3758:	00300793          	li	a5,3
    375c:	1ce7de63          	bge	a5,a4,3938 <main+0x326c>
    3760:	0000c797          	auipc	a5,0xc
    3764:	91478793          	addi	a5,a5,-1772 # f074 <P3_is_marked>
    3768:	0007a783          	lw	a5,0(a5)
    376c:	0007879b          	sext.w	a5,a5
    3770:	00078713          	mv	a4,a5
    3774:	00300793          	li	a5,3
    3778:	1ce7c063          	blt	a5,a4,3938 <main+0x326c>
    377c:	0000c797          	auipc	a5,0xc
    3780:	8d47b783          	ld	a5,-1836(a5) # f050 <_GLOBAL_OFFSET_TABLE_+0x28>
    3784:	0007b703          	ld	a4,0(a5)
    3788:	0000c797          	auipc	a5,0xc
    378c:	8c87b783          	ld	a5,-1848(a5) # f050 <_GLOBAL_OFFSET_TABLE_+0x28>
    3790:	0107b783          	ld	a5,16(a5)
    3794:	1af71263          	bne	a4,a5,3938 <main+0x326c>
    3798:	0000c797          	auipc	a5,0xc
    379c:	8b87b783          	ld	a5,-1864(a5) # f050 <_GLOBAL_OFFSET_TABLE_+0x28>
    37a0:	0007b703          	ld	a4,0(a5)
    37a4:	0000c797          	auipc	a5,0xc
    37a8:	8ac7b783          	ld	a5,-1876(a5) # f050 <_GLOBAL_OFFSET_TABLE_+0x28>
    37ac:	0087b783          	ld	a5,8(a5)
    37b0:	18f71463          	bne	a4,a5,3938 <main+0x326c>
    37b4:	fffff7b7          	lui	a5,0xfffff
    37b8:	ff040713          	addi	a4,s0,-16
    37bc:	00f707b3          	add	a5,a4,a5
    37c0:	0000c717          	auipc	a4,0xc
    37c4:	89073703          	ld	a4,-1904(a4) # f050 <_GLOBAL_OFFSET_TABLE_+0x28>
    37c8:	01873703          	ld	a4,24(a4)
    37cc:	68e7b423          	sd	a4,1672(a5) # fffffffffffff688 <__global_pointer$+0xfffffffffffefe88>
    37d0:	fffff7b7          	lui	a5,0xfffff
    37d4:	ff040713          	addi	a4,s0,-16
    37d8:	00f707b3          	add	a5,a4,a5
    37dc:	0000c717          	auipc	a4,0xc
    37e0:	87473703          	ld	a4,-1932(a4) # f050 <_GLOBAL_OFFSET_TABLE_+0x28>
    37e4:	00073703          	ld	a4,0(a4)
    37e8:	68e7b823          	sd	a4,1680(a5) # fffffffffffff690 <__global_pointer$+0xfffffffffffefe90>
    37ec:	fffff7b7          	lui	a5,0xfffff
    37f0:	ff040713          	addi	a4,s0,-16
    37f4:	00f70733          	add	a4,a4,a5
    37f8:	fffff7b7          	lui	a5,0xfffff
    37fc:	ff040693          	addi	a3,s0,-16
    3800:	00f687b3          	add	a5,a3,a5
    3804:	69073703          	ld	a4,1680(a4)
    3808:	6887b783          	ld	a5,1672(a5) # fffffffffffff688 <__global_pointer$+0xfffffffffffefe88>
    380c:	12e7d663          	bge	a5,a4,3938 <main+0x326c>
    3810:	0000b797          	auipc	a5,0xb
    3814:	7fc78793          	addi	a5,a5,2044 # f00c <P2_is_marked>
    3818:	0007a783          	lw	a5,0(a5)
    381c:	0007879b          	sext.w	a5,a5
    3820:	ffc7879b          	addiw	a5,a5,-4
    3824:	0007871b          	sext.w	a4,a5
    3828:	0000b797          	auipc	a5,0xb
    382c:	7e478793          	addi	a5,a5,2020 # f00c <P2_is_marked>
    3830:	00e7a023          	sw	a4,0(a5)
    3834:	fffff7b7          	lui	a5,0xfffff
    3838:	ff040713          	addi	a4,s0,-16
    383c:	00f707b3          	add	a5,a4,a5
    3840:	fffff737          	lui	a4,0xfffff
    3844:	ff040693          	addi	a3,s0,-16
    3848:	00e686b3          	add	a3,a3,a4
    384c:	fffff737          	lui	a4,0xfffff
    3850:	ff040613          	addi	a2,s0,-16
    3854:	00e60733          	add	a4,a2,a4
    3858:	6886b683          	ld	a3,1672(a3)
    385c:	69073703          	ld	a4,1680(a4) # fffffffffffff690 <__global_pointer$+0xfffffffffffefe90>
    3860:	00e68733          	add	a4,a3,a4
    3864:	68e7bc23          	sd	a4,1688(a5) # fffffffffffff698 <__global_pointer$+0xfffffffffffefe98>
    3868:	0000c797          	auipc	a5,0xc
    386c:	80c78793          	addi	a5,a5,-2036 # f074 <P3_is_marked>
    3870:	0007a783          	lw	a5,0(a5)
    3874:	0007879b          	sext.w	a5,a5
    3878:	0000b717          	auipc	a4,0xb
    387c:	7c073703          	ld	a4,1984(a4) # f038 <_GLOBAL_OFFSET_TABLE_+0x10>
    3880:	00379793          	slli	a5,a5,0x3
    3884:	00f707b3          	add	a5,a4,a5
    3888:	fffff737          	lui	a4,0xfffff
    388c:	ff040693          	addi	a3,s0,-16
    3890:	00e68733          	add	a4,a3,a4
    3894:	68873703          	ld	a4,1672(a4) # fffffffffffff688 <__global_pointer$+0xfffffffffffefe88>
    3898:	00e7b023          	sd	a4,0(a5)
    389c:	0000b797          	auipc	a5,0xb
    38a0:	7d878793          	addi	a5,a5,2008 # f074 <P3_is_marked>
    38a4:	0007a783          	lw	a5,0(a5)
    38a8:	0007879b          	sext.w	a5,a5
    38ac:	0017879b          	addiw	a5,a5,1
    38b0:	0007879b          	sext.w	a5,a5
    38b4:	0000b717          	auipc	a4,0xb
    38b8:	78473703          	ld	a4,1924(a4) # f038 <_GLOBAL_OFFSET_TABLE_+0x10>
    38bc:	00379793          	slli	a5,a5,0x3
    38c0:	00f707b3          	add	a5,a4,a5
    38c4:	fffff737          	lui	a4,0xfffff
    38c8:	ff040693          	addi	a3,s0,-16
    38cc:	00e68733          	add	a4,a3,a4
    38d0:	69073703          	ld	a4,1680(a4) # fffffffffffff690 <__global_pointer$+0xfffffffffffefe90>
    38d4:	00e7b023          	sd	a4,0(a5)
    38d8:	0000b797          	auipc	a5,0xb
    38dc:	79c78793          	addi	a5,a5,1948 # f074 <P3_is_marked>
    38e0:	0007a783          	lw	a5,0(a5)
    38e4:	0007879b          	sext.w	a5,a5
    38e8:	0027879b          	addiw	a5,a5,2
    38ec:	0007879b          	sext.w	a5,a5
    38f0:	0000b717          	auipc	a4,0xb
    38f4:	74873703          	ld	a4,1864(a4) # f038 <_GLOBAL_OFFSET_TABLE_+0x10>
    38f8:	00379793          	slli	a5,a5,0x3
    38fc:	00f707b3          	add	a5,a4,a5
    3900:	fffff737          	lui	a4,0xfffff
    3904:	ff040693          	addi	a3,s0,-16
    3908:	00e68733          	add	a4,a3,a4
    390c:	69873703          	ld	a4,1688(a4) # fffffffffffff698 <__global_pointer$+0xfffffffffffefe98>
    3910:	00e7b023          	sd	a4,0(a5)
    3914:	0000b797          	auipc	a5,0xb
    3918:	76078793          	addi	a5,a5,1888 # f074 <P3_is_marked>
    391c:	0007a783          	lw	a5,0(a5)
    3920:	0007879b          	sext.w	a5,a5
    3924:	0037879b          	addiw	a5,a5,3
    3928:	0007871b          	sext.w	a4,a5
    392c:	0000b797          	auipc	a5,0xb
    3930:	74878793          	addi	a5,a5,1864 # f074 <P3_is_marked>
    3934:	00e7a023          	sw	a4,0(a5)
    3938:	0000b797          	auipc	a5,0xb
    393c:	6d478793          	addi	a5,a5,1748 # f00c <P2_is_marked>
    3940:	0007a783          	lw	a5,0(a5)
    3944:	0007879b          	sext.w	a5,a5
    3948:	00078713          	mv	a4,a5
    394c:	00300793          	li	a5,3
    3950:	1ce7de63          	bge	a5,a4,3b2c <main+0x3460>
    3954:	0000b797          	auipc	a5,0xb
    3958:	72078793          	addi	a5,a5,1824 # f074 <P3_is_marked>
    395c:	0007a783          	lw	a5,0(a5)
    3960:	0007879b          	sext.w	a5,a5
    3964:	00078713          	mv	a4,a5
    3968:	00300793          	li	a5,3
    396c:	1ce7c063          	blt	a5,a4,3b2c <main+0x3460>
    3970:	0000b797          	auipc	a5,0xb
    3974:	6e07b783          	ld	a5,1760(a5) # f050 <_GLOBAL_OFFSET_TABLE_+0x28>
    3978:	0087b703          	ld	a4,8(a5)
    397c:	0000b797          	auipc	a5,0xb
    3980:	6d47b783          	ld	a5,1748(a5) # f050 <_GLOBAL_OFFSET_TABLE_+0x28>
    3984:	0007b783          	ld	a5,0(a5)
    3988:	1af71263          	bne	a4,a5,3b2c <main+0x3460>
    398c:	0000b797          	auipc	a5,0xb
    3990:	6c47b783          	ld	a5,1732(a5) # f050 <_GLOBAL_OFFSET_TABLE_+0x28>
    3994:	0087b703          	ld	a4,8(a5)
    3998:	0000b797          	auipc	a5,0xb
    399c:	6b87b783          	ld	a5,1720(a5) # f050 <_GLOBAL_OFFSET_TABLE_+0x28>
    39a0:	0107b783          	ld	a5,16(a5)
    39a4:	18f71463          	bne	a4,a5,3b2c <main+0x3460>
    39a8:	fffff7b7          	lui	a5,0xfffff
    39ac:	ff040713          	addi	a4,s0,-16
    39b0:	00f707b3          	add	a5,a4,a5
    39b4:	0000b717          	auipc	a4,0xb
    39b8:	69c73703          	ld	a4,1692(a4) # f050 <_GLOBAL_OFFSET_TABLE_+0x28>
    39bc:	01873703          	ld	a4,24(a4)
    39c0:	6ae7b023          	sd	a4,1696(a5) # fffffffffffff6a0 <__global_pointer$+0xfffffffffffefea0>
    39c4:	fffff7b7          	lui	a5,0xfffff
    39c8:	ff040713          	addi	a4,s0,-16
    39cc:	00f707b3          	add	a5,a4,a5
    39d0:	0000b717          	auipc	a4,0xb
    39d4:	68073703          	ld	a4,1664(a4) # f050 <_GLOBAL_OFFSET_TABLE_+0x28>
    39d8:	00873703          	ld	a4,8(a4)
    39dc:	6ae7b423          	sd	a4,1704(a5) # fffffffffffff6a8 <__global_pointer$+0xfffffffffffefea8>
    39e0:	fffff7b7          	lui	a5,0xfffff
    39e4:	ff040713          	addi	a4,s0,-16
    39e8:	00f70733          	add	a4,a4,a5
    39ec:	fffff7b7          	lui	a5,0xfffff
    39f0:	ff040693          	addi	a3,s0,-16
    39f4:	00f687b3          	add	a5,a3,a5
    39f8:	6a873703          	ld	a4,1704(a4)
    39fc:	6a07b783          	ld	a5,1696(a5) # fffffffffffff6a0 <__global_pointer$+0xfffffffffffefea0>
    3a00:	12e7d663          	bge	a5,a4,3b2c <main+0x3460>
    3a04:	0000b797          	auipc	a5,0xb
    3a08:	60878793          	addi	a5,a5,1544 # f00c <P2_is_marked>
    3a0c:	0007a783          	lw	a5,0(a5)
    3a10:	0007879b          	sext.w	a5,a5
    3a14:	ffc7879b          	addiw	a5,a5,-4
    3a18:	0007871b          	sext.w	a4,a5
    3a1c:	0000b797          	auipc	a5,0xb
    3a20:	5f078793          	addi	a5,a5,1520 # f00c <P2_is_marked>
    3a24:	00e7a023          	sw	a4,0(a5)
    3a28:	fffff7b7          	lui	a5,0xfffff
    3a2c:	ff040713          	addi	a4,s0,-16
    3a30:	00f707b3          	add	a5,a4,a5
    3a34:	fffff737          	lui	a4,0xfffff
    3a38:	ff040693          	addi	a3,s0,-16
    3a3c:	00e686b3          	add	a3,a3,a4
    3a40:	fffff737          	lui	a4,0xfffff
    3a44:	ff040613          	addi	a2,s0,-16
    3a48:	00e60733          	add	a4,a2,a4
    3a4c:	6a06b683          	ld	a3,1696(a3)
    3a50:	6a873703          	ld	a4,1704(a4) # fffffffffffff6a8 <__global_pointer$+0xfffffffffffefea8>
    3a54:	00e68733          	add	a4,a3,a4
    3a58:	6ae7b823          	sd	a4,1712(a5) # fffffffffffff6b0 <__global_pointer$+0xfffffffffffefeb0>
    3a5c:	0000b797          	auipc	a5,0xb
    3a60:	61878793          	addi	a5,a5,1560 # f074 <P3_is_marked>
    3a64:	0007a783          	lw	a5,0(a5)
    3a68:	0007879b          	sext.w	a5,a5
    3a6c:	0000b717          	auipc	a4,0xb
    3a70:	5cc73703          	ld	a4,1484(a4) # f038 <_GLOBAL_OFFSET_TABLE_+0x10>
    3a74:	00379793          	slli	a5,a5,0x3
    3a78:	00f707b3          	add	a5,a4,a5
    3a7c:	fffff737          	lui	a4,0xfffff
    3a80:	ff040693          	addi	a3,s0,-16
    3a84:	00e68733          	add	a4,a3,a4
    3a88:	6a073703          	ld	a4,1696(a4) # fffffffffffff6a0 <__global_pointer$+0xfffffffffffefea0>
    3a8c:	00e7b023          	sd	a4,0(a5)
    3a90:	0000b797          	auipc	a5,0xb
    3a94:	5e478793          	addi	a5,a5,1508 # f074 <P3_is_marked>
    3a98:	0007a783          	lw	a5,0(a5)
    3a9c:	0007879b          	sext.w	a5,a5
    3aa0:	0017879b          	addiw	a5,a5,1
    3aa4:	0007879b          	sext.w	a5,a5
    3aa8:	0000b717          	auipc	a4,0xb
    3aac:	59073703          	ld	a4,1424(a4) # f038 <_GLOBAL_OFFSET_TABLE_+0x10>
    3ab0:	00379793          	slli	a5,a5,0x3
    3ab4:	00f707b3          	add	a5,a4,a5
    3ab8:	fffff737          	lui	a4,0xfffff
    3abc:	ff040693          	addi	a3,s0,-16
    3ac0:	00e68733          	add	a4,a3,a4
    3ac4:	6a873703          	ld	a4,1704(a4) # fffffffffffff6a8 <__global_pointer$+0xfffffffffffefea8>
    3ac8:	00e7b023          	sd	a4,0(a5)
    3acc:	0000b797          	auipc	a5,0xb
    3ad0:	5a878793          	addi	a5,a5,1448 # f074 <P3_is_marked>
    3ad4:	0007a783          	lw	a5,0(a5)
    3ad8:	0007879b          	sext.w	a5,a5
    3adc:	0027879b          	addiw	a5,a5,2
    3ae0:	0007879b          	sext.w	a5,a5
    3ae4:	0000b717          	auipc	a4,0xb
    3ae8:	55473703          	ld	a4,1364(a4) # f038 <_GLOBAL_OFFSET_TABLE_+0x10>
    3aec:	00379793          	slli	a5,a5,0x3
    3af0:	00f707b3          	add	a5,a4,a5
    3af4:	fffff737          	lui	a4,0xfffff
    3af8:	ff040693          	addi	a3,s0,-16
    3afc:	00e68733          	add	a4,a3,a4
    3b00:	6b073703          	ld	a4,1712(a4) # fffffffffffff6b0 <__global_pointer$+0xfffffffffffefeb0>
    3b04:	00e7b023          	sd	a4,0(a5)
    3b08:	0000b797          	auipc	a5,0xb
    3b0c:	56c78793          	addi	a5,a5,1388 # f074 <P3_is_marked>
    3b10:	0007a783          	lw	a5,0(a5)
    3b14:	0007879b          	sext.w	a5,a5
    3b18:	0037879b          	addiw	a5,a5,3
    3b1c:	0007871b          	sext.w	a4,a5
    3b20:	0000b797          	auipc	a5,0xb
    3b24:	55478793          	addi	a5,a5,1364 # f074 <P3_is_marked>
    3b28:	00e7a023          	sw	a4,0(a5)
    3b2c:	0000b797          	auipc	a5,0xb
    3b30:	4e078793          	addi	a5,a5,1248 # f00c <P2_is_marked>
    3b34:	0007a783          	lw	a5,0(a5)
    3b38:	0007879b          	sext.w	a5,a5
    3b3c:	00078713          	mv	a4,a5
    3b40:	00300793          	li	a5,3
    3b44:	1ce7de63          	bge	a5,a4,3d20 <main+0x3654>
    3b48:	0000b797          	auipc	a5,0xb
    3b4c:	52c78793          	addi	a5,a5,1324 # f074 <P3_is_marked>
    3b50:	0007a783          	lw	a5,0(a5)
    3b54:	0007879b          	sext.w	a5,a5
    3b58:	00078713          	mv	a4,a5
    3b5c:	00300793          	li	a5,3
    3b60:	1ce7c063          	blt	a5,a4,3d20 <main+0x3654>
    3b64:	0000b797          	auipc	a5,0xb
    3b68:	4ec7b783          	ld	a5,1260(a5) # f050 <_GLOBAL_OFFSET_TABLE_+0x28>
    3b6c:	0087b703          	ld	a4,8(a5)
    3b70:	0000b797          	auipc	a5,0xb
    3b74:	4e07b783          	ld	a5,1248(a5) # f050 <_GLOBAL_OFFSET_TABLE_+0x28>
    3b78:	0107b783          	ld	a5,16(a5)
    3b7c:	1af71263          	bne	a4,a5,3d20 <main+0x3654>
    3b80:	0000b797          	auipc	a5,0xb
    3b84:	4d07b783          	ld	a5,1232(a5) # f050 <_GLOBAL_OFFSET_TABLE_+0x28>
    3b88:	0087b703          	ld	a4,8(a5)
    3b8c:	0000b797          	auipc	a5,0xb
    3b90:	4c47b783          	ld	a5,1220(a5) # f050 <_GLOBAL_OFFSET_TABLE_+0x28>
    3b94:	0007b783          	ld	a5,0(a5)
    3b98:	18f71463          	bne	a4,a5,3d20 <main+0x3654>
    3b9c:	fffff7b7          	lui	a5,0xfffff
    3ba0:	ff040713          	addi	a4,s0,-16
    3ba4:	00f707b3          	add	a5,a4,a5
    3ba8:	0000b717          	auipc	a4,0xb
    3bac:	4a873703          	ld	a4,1192(a4) # f050 <_GLOBAL_OFFSET_TABLE_+0x28>
    3bb0:	01873703          	ld	a4,24(a4)
    3bb4:	6ae7bc23          	sd	a4,1720(a5) # fffffffffffff6b8 <__global_pointer$+0xfffffffffffefeb8>
    3bb8:	fffff7b7          	lui	a5,0xfffff
    3bbc:	ff040713          	addi	a4,s0,-16
    3bc0:	00f707b3          	add	a5,a4,a5
    3bc4:	0000b717          	auipc	a4,0xb
    3bc8:	48c73703          	ld	a4,1164(a4) # f050 <_GLOBAL_OFFSET_TABLE_+0x28>
    3bcc:	00873703          	ld	a4,8(a4)
    3bd0:	6ce7b023          	sd	a4,1728(a5) # fffffffffffff6c0 <__global_pointer$+0xfffffffffffefec0>
    3bd4:	fffff7b7          	lui	a5,0xfffff
    3bd8:	ff040713          	addi	a4,s0,-16
    3bdc:	00f70733          	add	a4,a4,a5
    3be0:	fffff7b7          	lui	a5,0xfffff
    3be4:	ff040693          	addi	a3,s0,-16
    3be8:	00f687b3          	add	a5,a3,a5
    3bec:	6c073703          	ld	a4,1728(a4)
    3bf0:	6b87b783          	ld	a5,1720(a5) # fffffffffffff6b8 <__global_pointer$+0xfffffffffffefeb8>
    3bf4:	12e7d663          	bge	a5,a4,3d20 <main+0x3654>
    3bf8:	0000b797          	auipc	a5,0xb
    3bfc:	41478793          	addi	a5,a5,1044 # f00c <P2_is_marked>
    3c00:	0007a783          	lw	a5,0(a5)
    3c04:	0007879b          	sext.w	a5,a5
    3c08:	ffc7879b          	addiw	a5,a5,-4
    3c0c:	0007871b          	sext.w	a4,a5
    3c10:	0000b797          	auipc	a5,0xb
    3c14:	3fc78793          	addi	a5,a5,1020 # f00c <P2_is_marked>
    3c18:	00e7a023          	sw	a4,0(a5)
    3c1c:	fffff7b7          	lui	a5,0xfffff
    3c20:	ff040713          	addi	a4,s0,-16
    3c24:	00f707b3          	add	a5,a4,a5
    3c28:	fffff737          	lui	a4,0xfffff
    3c2c:	ff040693          	addi	a3,s0,-16
    3c30:	00e686b3          	add	a3,a3,a4
    3c34:	fffff737          	lui	a4,0xfffff
    3c38:	ff040613          	addi	a2,s0,-16
    3c3c:	00e60733          	add	a4,a2,a4
    3c40:	6b86b683          	ld	a3,1720(a3)
    3c44:	6c073703          	ld	a4,1728(a4) # fffffffffffff6c0 <__global_pointer$+0xfffffffffffefec0>
    3c48:	00e68733          	add	a4,a3,a4
    3c4c:	6ce7b423          	sd	a4,1736(a5) # fffffffffffff6c8 <__global_pointer$+0xfffffffffffefec8>
    3c50:	0000b797          	auipc	a5,0xb
    3c54:	42478793          	addi	a5,a5,1060 # f074 <P3_is_marked>
    3c58:	0007a783          	lw	a5,0(a5)
    3c5c:	0007879b          	sext.w	a5,a5
    3c60:	0000b717          	auipc	a4,0xb
    3c64:	3d873703          	ld	a4,984(a4) # f038 <_GLOBAL_OFFSET_TABLE_+0x10>
    3c68:	00379793          	slli	a5,a5,0x3
    3c6c:	00f707b3          	add	a5,a4,a5
    3c70:	fffff737          	lui	a4,0xfffff
    3c74:	ff040693          	addi	a3,s0,-16
    3c78:	00e68733          	add	a4,a3,a4
    3c7c:	6b873703          	ld	a4,1720(a4) # fffffffffffff6b8 <__global_pointer$+0xfffffffffffefeb8>
    3c80:	00e7b023          	sd	a4,0(a5)
    3c84:	0000b797          	auipc	a5,0xb
    3c88:	3f078793          	addi	a5,a5,1008 # f074 <P3_is_marked>
    3c8c:	0007a783          	lw	a5,0(a5)
    3c90:	0007879b          	sext.w	a5,a5
    3c94:	0017879b          	addiw	a5,a5,1
    3c98:	0007879b          	sext.w	a5,a5
    3c9c:	0000b717          	auipc	a4,0xb
    3ca0:	39c73703          	ld	a4,924(a4) # f038 <_GLOBAL_OFFSET_TABLE_+0x10>
    3ca4:	00379793          	slli	a5,a5,0x3
    3ca8:	00f707b3          	add	a5,a4,a5
    3cac:	fffff737          	lui	a4,0xfffff
    3cb0:	ff040693          	addi	a3,s0,-16
    3cb4:	00e68733          	add	a4,a3,a4
    3cb8:	6c073703          	ld	a4,1728(a4) # fffffffffffff6c0 <__global_pointer$+0xfffffffffffefec0>
    3cbc:	00e7b023          	sd	a4,0(a5)
    3cc0:	0000b797          	auipc	a5,0xb
    3cc4:	3b478793          	addi	a5,a5,948 # f074 <P3_is_marked>
    3cc8:	0007a783          	lw	a5,0(a5)
    3ccc:	0007879b          	sext.w	a5,a5
    3cd0:	0027879b          	addiw	a5,a5,2
    3cd4:	0007879b          	sext.w	a5,a5
    3cd8:	0000b717          	auipc	a4,0xb
    3cdc:	36073703          	ld	a4,864(a4) # f038 <_GLOBAL_OFFSET_TABLE_+0x10>
    3ce0:	00379793          	slli	a5,a5,0x3
    3ce4:	00f707b3          	add	a5,a4,a5
    3ce8:	fffff737          	lui	a4,0xfffff
    3cec:	ff040693          	addi	a3,s0,-16
    3cf0:	00e68733          	add	a4,a3,a4
    3cf4:	6c873703          	ld	a4,1736(a4) # fffffffffffff6c8 <__global_pointer$+0xfffffffffffefec8>
    3cf8:	00e7b023          	sd	a4,0(a5)
    3cfc:	0000b797          	auipc	a5,0xb
    3d00:	37878793          	addi	a5,a5,888 # f074 <P3_is_marked>
    3d04:	0007a783          	lw	a5,0(a5)
    3d08:	0007879b          	sext.w	a5,a5
    3d0c:	0037879b          	addiw	a5,a5,3
    3d10:	0007871b          	sext.w	a4,a5
    3d14:	0000b797          	auipc	a5,0xb
    3d18:	36078793          	addi	a5,a5,864 # f074 <P3_is_marked>
    3d1c:	00e7a023          	sw	a4,0(a5)
    3d20:	0000b797          	auipc	a5,0xb
    3d24:	2ec78793          	addi	a5,a5,748 # f00c <P2_is_marked>
    3d28:	0007a783          	lw	a5,0(a5)
    3d2c:	0007879b          	sext.w	a5,a5
    3d30:	00078713          	mv	a4,a5
    3d34:	00300793          	li	a5,3
    3d38:	1ce7de63          	bge	a5,a4,3f14 <main+0x3848>
    3d3c:	0000b797          	auipc	a5,0xb
    3d40:	33878793          	addi	a5,a5,824 # f074 <P3_is_marked>
    3d44:	0007a783          	lw	a5,0(a5)
    3d48:	0007879b          	sext.w	a5,a5
    3d4c:	00078713          	mv	a4,a5
    3d50:	00300793          	li	a5,3
    3d54:	1ce7c063          	blt	a5,a4,3f14 <main+0x3848>
    3d58:	0000b797          	auipc	a5,0xb
    3d5c:	2f87b783          	ld	a5,760(a5) # f050 <_GLOBAL_OFFSET_TABLE_+0x28>
    3d60:	0107b703          	ld	a4,16(a5)
    3d64:	0000b797          	auipc	a5,0xb
    3d68:	2ec7b783          	ld	a5,748(a5) # f050 <_GLOBAL_OFFSET_TABLE_+0x28>
    3d6c:	0007b783          	ld	a5,0(a5)
    3d70:	1af71263          	bne	a4,a5,3f14 <main+0x3848>
    3d74:	0000b797          	auipc	a5,0xb
    3d78:	2dc7b783          	ld	a5,732(a5) # f050 <_GLOBAL_OFFSET_TABLE_+0x28>
    3d7c:	0107b703          	ld	a4,16(a5)
    3d80:	0000b797          	auipc	a5,0xb
    3d84:	2d07b783          	ld	a5,720(a5) # f050 <_GLOBAL_OFFSET_TABLE_+0x28>
    3d88:	0087b783          	ld	a5,8(a5)
    3d8c:	18f71463          	bne	a4,a5,3f14 <main+0x3848>
    3d90:	fffff7b7          	lui	a5,0xfffff
    3d94:	ff040713          	addi	a4,s0,-16
    3d98:	00f707b3          	add	a5,a4,a5
    3d9c:	0000b717          	auipc	a4,0xb
    3da0:	2b473703          	ld	a4,692(a4) # f050 <_GLOBAL_OFFSET_TABLE_+0x28>
    3da4:	01873703          	ld	a4,24(a4)
    3da8:	6ce7b823          	sd	a4,1744(a5) # fffffffffffff6d0 <__global_pointer$+0xfffffffffffefed0>
    3dac:	fffff7b7          	lui	a5,0xfffff
    3db0:	ff040713          	addi	a4,s0,-16
    3db4:	00f707b3          	add	a5,a4,a5
    3db8:	0000b717          	auipc	a4,0xb
    3dbc:	29873703          	ld	a4,664(a4) # f050 <_GLOBAL_OFFSET_TABLE_+0x28>
    3dc0:	01073703          	ld	a4,16(a4)
    3dc4:	6ce7bc23          	sd	a4,1752(a5) # fffffffffffff6d8 <__global_pointer$+0xfffffffffffefed8>
    3dc8:	fffff7b7          	lui	a5,0xfffff
    3dcc:	ff040713          	addi	a4,s0,-16
    3dd0:	00f70733          	add	a4,a4,a5
    3dd4:	fffff7b7          	lui	a5,0xfffff
    3dd8:	ff040693          	addi	a3,s0,-16
    3ddc:	00f687b3          	add	a5,a3,a5
    3de0:	6d873703          	ld	a4,1752(a4)
    3de4:	6d07b783          	ld	a5,1744(a5) # fffffffffffff6d0 <__global_pointer$+0xfffffffffffefed0>
    3de8:	12e7d663          	bge	a5,a4,3f14 <main+0x3848>
    3dec:	0000b797          	auipc	a5,0xb
    3df0:	22078793          	addi	a5,a5,544 # f00c <P2_is_marked>
    3df4:	0007a783          	lw	a5,0(a5)
    3df8:	0007879b          	sext.w	a5,a5
    3dfc:	ffc7879b          	addiw	a5,a5,-4
    3e00:	0007871b          	sext.w	a4,a5
    3e04:	0000b797          	auipc	a5,0xb
    3e08:	20878793          	addi	a5,a5,520 # f00c <P2_is_marked>
    3e0c:	00e7a023          	sw	a4,0(a5)
    3e10:	fffff7b7          	lui	a5,0xfffff
    3e14:	ff040713          	addi	a4,s0,-16
    3e18:	00f707b3          	add	a5,a4,a5
    3e1c:	fffff737          	lui	a4,0xfffff
    3e20:	ff040693          	addi	a3,s0,-16
    3e24:	00e686b3          	add	a3,a3,a4
    3e28:	fffff737          	lui	a4,0xfffff
    3e2c:	ff040613          	addi	a2,s0,-16
    3e30:	00e60733          	add	a4,a2,a4
    3e34:	6d06b683          	ld	a3,1744(a3)
    3e38:	6d873703          	ld	a4,1752(a4) # fffffffffffff6d8 <__global_pointer$+0xfffffffffffefed8>
    3e3c:	00e68733          	add	a4,a3,a4
    3e40:	6ee7b023          	sd	a4,1760(a5) # fffffffffffff6e0 <__global_pointer$+0xfffffffffffefee0>
    3e44:	0000b797          	auipc	a5,0xb
    3e48:	23078793          	addi	a5,a5,560 # f074 <P3_is_marked>
    3e4c:	0007a783          	lw	a5,0(a5)
    3e50:	0007879b          	sext.w	a5,a5
    3e54:	0000b717          	auipc	a4,0xb
    3e58:	1e473703          	ld	a4,484(a4) # f038 <_GLOBAL_OFFSET_TABLE_+0x10>
    3e5c:	00379793          	slli	a5,a5,0x3
    3e60:	00f707b3          	add	a5,a4,a5
    3e64:	fffff737          	lui	a4,0xfffff
    3e68:	ff040693          	addi	a3,s0,-16
    3e6c:	00e68733          	add	a4,a3,a4
    3e70:	6d073703          	ld	a4,1744(a4) # fffffffffffff6d0 <__global_pointer$+0xfffffffffffefed0>
    3e74:	00e7b023          	sd	a4,0(a5)
    3e78:	0000b797          	auipc	a5,0xb
    3e7c:	1fc78793          	addi	a5,a5,508 # f074 <P3_is_marked>
    3e80:	0007a783          	lw	a5,0(a5)
    3e84:	0007879b          	sext.w	a5,a5
    3e88:	0017879b          	addiw	a5,a5,1
    3e8c:	0007879b          	sext.w	a5,a5
    3e90:	0000b717          	auipc	a4,0xb
    3e94:	1a873703          	ld	a4,424(a4) # f038 <_GLOBAL_OFFSET_TABLE_+0x10>
    3e98:	00379793          	slli	a5,a5,0x3
    3e9c:	00f707b3          	add	a5,a4,a5
    3ea0:	fffff737          	lui	a4,0xfffff
    3ea4:	ff040693          	addi	a3,s0,-16
    3ea8:	00e68733          	add	a4,a3,a4
    3eac:	6d873703          	ld	a4,1752(a4) # fffffffffffff6d8 <__global_pointer$+0xfffffffffffefed8>
    3eb0:	00e7b023          	sd	a4,0(a5)
    3eb4:	0000b797          	auipc	a5,0xb
    3eb8:	1c078793          	addi	a5,a5,448 # f074 <P3_is_marked>
    3ebc:	0007a783          	lw	a5,0(a5)
    3ec0:	0007879b          	sext.w	a5,a5
    3ec4:	0027879b          	addiw	a5,a5,2
    3ec8:	0007879b          	sext.w	a5,a5
    3ecc:	0000b717          	auipc	a4,0xb
    3ed0:	16c73703          	ld	a4,364(a4) # f038 <_GLOBAL_OFFSET_TABLE_+0x10>
    3ed4:	00379793          	slli	a5,a5,0x3
    3ed8:	00f707b3          	add	a5,a4,a5
    3edc:	fffff737          	lui	a4,0xfffff
    3ee0:	ff040693          	addi	a3,s0,-16
    3ee4:	00e68733          	add	a4,a3,a4
    3ee8:	6e073703          	ld	a4,1760(a4) # fffffffffffff6e0 <__global_pointer$+0xfffffffffffefee0>
    3eec:	00e7b023          	sd	a4,0(a5)
    3ef0:	0000b797          	auipc	a5,0xb
    3ef4:	18478793          	addi	a5,a5,388 # f074 <P3_is_marked>
    3ef8:	0007a783          	lw	a5,0(a5)
    3efc:	0007879b          	sext.w	a5,a5
    3f00:	0037879b          	addiw	a5,a5,3
    3f04:	0007871b          	sext.w	a4,a5
    3f08:	0000b797          	auipc	a5,0xb
    3f0c:	16c78793          	addi	a5,a5,364 # f074 <P3_is_marked>
    3f10:	00e7a023          	sw	a4,0(a5)
    3f14:	0000b797          	auipc	a5,0xb
    3f18:	0f878793          	addi	a5,a5,248 # f00c <P2_is_marked>
    3f1c:	0007a783          	lw	a5,0(a5)
    3f20:	0007879b          	sext.w	a5,a5
    3f24:	00078713          	mv	a4,a5
    3f28:	00300793          	li	a5,3
    3f2c:	1ce7de63          	bge	a5,a4,4108 <main+0x3a3c>
    3f30:	0000b797          	auipc	a5,0xb
    3f34:	14478793          	addi	a5,a5,324 # f074 <P3_is_marked>
    3f38:	0007a783          	lw	a5,0(a5)
    3f3c:	0007879b          	sext.w	a5,a5
    3f40:	00078713          	mv	a4,a5
    3f44:	00300793          	li	a5,3
    3f48:	1ce7c063          	blt	a5,a4,4108 <main+0x3a3c>
    3f4c:	0000b797          	auipc	a5,0xb
    3f50:	1047b783          	ld	a5,260(a5) # f050 <_GLOBAL_OFFSET_TABLE_+0x28>
    3f54:	0107b703          	ld	a4,16(a5)
    3f58:	0000b797          	auipc	a5,0xb
    3f5c:	0f87b783          	ld	a5,248(a5) # f050 <_GLOBAL_OFFSET_TABLE_+0x28>
    3f60:	0087b783          	ld	a5,8(a5)
    3f64:	1af71263          	bne	a4,a5,4108 <main+0x3a3c>
    3f68:	0000b797          	auipc	a5,0xb
    3f6c:	0e87b783          	ld	a5,232(a5) # f050 <_GLOBAL_OFFSET_TABLE_+0x28>
    3f70:	0107b703          	ld	a4,16(a5)
    3f74:	0000b797          	auipc	a5,0xb
    3f78:	0dc7b783          	ld	a5,220(a5) # f050 <_GLOBAL_OFFSET_TABLE_+0x28>
    3f7c:	0007b783          	ld	a5,0(a5)
    3f80:	18f71463          	bne	a4,a5,4108 <main+0x3a3c>
    3f84:	fffff7b7          	lui	a5,0xfffff
    3f88:	ff040713          	addi	a4,s0,-16
    3f8c:	00f707b3          	add	a5,a4,a5
    3f90:	0000b717          	auipc	a4,0xb
    3f94:	0c073703          	ld	a4,192(a4) # f050 <_GLOBAL_OFFSET_TABLE_+0x28>
    3f98:	01873703          	ld	a4,24(a4)
    3f9c:	6ee7b423          	sd	a4,1768(a5) # fffffffffffff6e8 <__global_pointer$+0xfffffffffffefee8>
    3fa0:	fffff7b7          	lui	a5,0xfffff
    3fa4:	ff040713          	addi	a4,s0,-16
    3fa8:	00f707b3          	add	a5,a4,a5
    3fac:	0000b717          	auipc	a4,0xb
    3fb0:	0a473703          	ld	a4,164(a4) # f050 <_GLOBAL_OFFSET_TABLE_+0x28>
    3fb4:	01073703          	ld	a4,16(a4)
    3fb8:	6ee7b823          	sd	a4,1776(a5) # fffffffffffff6f0 <__global_pointer$+0xfffffffffffefef0>
    3fbc:	fffff7b7          	lui	a5,0xfffff
    3fc0:	ff040713          	addi	a4,s0,-16
    3fc4:	00f70733          	add	a4,a4,a5
    3fc8:	fffff7b7          	lui	a5,0xfffff
    3fcc:	ff040693          	addi	a3,s0,-16
    3fd0:	00f687b3          	add	a5,a3,a5
    3fd4:	6f073703          	ld	a4,1776(a4)
    3fd8:	6e87b783          	ld	a5,1768(a5) # fffffffffffff6e8 <__global_pointer$+0xfffffffffffefee8>
    3fdc:	12e7d663          	bge	a5,a4,4108 <main+0x3a3c>
    3fe0:	0000b797          	auipc	a5,0xb
    3fe4:	02c78793          	addi	a5,a5,44 # f00c <P2_is_marked>
    3fe8:	0007a783          	lw	a5,0(a5)
    3fec:	0007879b          	sext.w	a5,a5
    3ff0:	ffc7879b          	addiw	a5,a5,-4
    3ff4:	0007871b          	sext.w	a4,a5
    3ff8:	0000b797          	auipc	a5,0xb
    3ffc:	01478793          	addi	a5,a5,20 # f00c <P2_is_marked>
    4000:	00e7a023          	sw	a4,0(a5)
    4004:	fffff7b7          	lui	a5,0xfffff
    4008:	ff040713          	addi	a4,s0,-16
    400c:	00f707b3          	add	a5,a4,a5
    4010:	fffff737          	lui	a4,0xfffff
    4014:	ff040693          	addi	a3,s0,-16
    4018:	00e686b3          	add	a3,a3,a4
    401c:	fffff737          	lui	a4,0xfffff
    4020:	ff040613          	addi	a2,s0,-16
    4024:	00e60733          	add	a4,a2,a4
    4028:	6e86b683          	ld	a3,1768(a3)
    402c:	6f073703          	ld	a4,1776(a4) # fffffffffffff6f0 <__global_pointer$+0xfffffffffffefef0>
    4030:	00e68733          	add	a4,a3,a4
    4034:	6ee7bc23          	sd	a4,1784(a5) # fffffffffffff6f8 <__global_pointer$+0xfffffffffffefef8>
    4038:	0000b797          	auipc	a5,0xb
    403c:	03c78793          	addi	a5,a5,60 # f074 <P3_is_marked>
    4040:	0007a783          	lw	a5,0(a5)
    4044:	0007879b          	sext.w	a5,a5
    4048:	0000b717          	auipc	a4,0xb
    404c:	ff073703          	ld	a4,-16(a4) # f038 <_GLOBAL_OFFSET_TABLE_+0x10>
    4050:	00379793          	slli	a5,a5,0x3
    4054:	00f707b3          	add	a5,a4,a5
    4058:	fffff737          	lui	a4,0xfffff
    405c:	ff040693          	addi	a3,s0,-16
    4060:	00e68733          	add	a4,a3,a4
    4064:	6e873703          	ld	a4,1768(a4) # fffffffffffff6e8 <__global_pointer$+0xfffffffffffefee8>
    4068:	00e7b023          	sd	a4,0(a5)
    406c:	0000b797          	auipc	a5,0xb
    4070:	00878793          	addi	a5,a5,8 # f074 <P3_is_marked>
    4074:	0007a783          	lw	a5,0(a5)
    4078:	0007879b          	sext.w	a5,a5
    407c:	0017879b          	addiw	a5,a5,1
    4080:	0007879b          	sext.w	a5,a5
    4084:	0000b717          	auipc	a4,0xb
    4088:	fb473703          	ld	a4,-76(a4) # f038 <_GLOBAL_OFFSET_TABLE_+0x10>
    408c:	00379793          	slli	a5,a5,0x3
    4090:	00f707b3          	add	a5,a4,a5
    4094:	fffff737          	lui	a4,0xfffff
    4098:	ff040693          	addi	a3,s0,-16
    409c:	00e68733          	add	a4,a3,a4
    40a0:	6f073703          	ld	a4,1776(a4) # fffffffffffff6f0 <__global_pointer$+0xfffffffffffefef0>
    40a4:	00e7b023          	sd	a4,0(a5)
    40a8:	0000b797          	auipc	a5,0xb
    40ac:	fcc78793          	addi	a5,a5,-52 # f074 <P3_is_marked>
    40b0:	0007a783          	lw	a5,0(a5)
    40b4:	0007879b          	sext.w	a5,a5
    40b8:	0027879b          	addiw	a5,a5,2
    40bc:	0007879b          	sext.w	a5,a5
    40c0:	0000b717          	auipc	a4,0xb
    40c4:	f7873703          	ld	a4,-136(a4) # f038 <_GLOBAL_OFFSET_TABLE_+0x10>
    40c8:	00379793          	slli	a5,a5,0x3
    40cc:	00f707b3          	add	a5,a4,a5
    40d0:	fffff737          	lui	a4,0xfffff
    40d4:	ff040693          	addi	a3,s0,-16
    40d8:	00e68733          	add	a4,a3,a4
    40dc:	6f873703          	ld	a4,1784(a4) # fffffffffffff6f8 <__global_pointer$+0xfffffffffffefef8>
    40e0:	00e7b023          	sd	a4,0(a5)
    40e4:	0000b797          	auipc	a5,0xb
    40e8:	f9078793          	addi	a5,a5,-112 # f074 <P3_is_marked>
    40ec:	0007a783          	lw	a5,0(a5)
    40f0:	0007879b          	sext.w	a5,a5
    40f4:	0037879b          	addiw	a5,a5,3
    40f8:	0007871b          	sext.w	a4,a5
    40fc:	0000b797          	auipc	a5,0xb
    4100:	f7878793          	addi	a5,a5,-136 # f074 <P3_is_marked>
    4104:	00e7a023          	sw	a4,0(a5)
    4108:	0000b797          	auipc	a5,0xb
    410c:	f0478793          	addi	a5,a5,-252 # f00c <P2_is_marked>
    4110:	0007a783          	lw	a5,0(a5)
    4114:	0007879b          	sext.w	a5,a5
    4118:	00078713          	mv	a4,a5
    411c:	00400793          	li	a5,4
    4120:	1ee7da63          	bge	a5,a4,4314 <main+0x3c48>
    4124:	0000b797          	auipc	a5,0xb
    4128:	f5078793          	addi	a5,a5,-176 # f074 <P3_is_marked>
    412c:	0007a783          	lw	a5,0(a5)
    4130:	0007879b          	sext.w	a5,a5
    4134:	00078713          	mv	a4,a5
    4138:	00300793          	li	a5,3
    413c:	1ce7cc63          	blt	a5,a4,4314 <main+0x3c48>
    4140:	0000b797          	auipc	a5,0xb
    4144:	f107b783          	ld	a5,-240(a5) # f050 <_GLOBAL_OFFSET_TABLE_+0x28>
    4148:	0087b703          	ld	a4,8(a5)
    414c:	0000b797          	auipc	a5,0xb
    4150:	f047b783          	ld	a5,-252(a5) # f050 <_GLOBAL_OFFSET_TABLE_+0x28>
    4154:	0107b783          	ld	a5,16(a5)
    4158:	1af71e63          	bne	a4,a5,4314 <main+0x3c48>
    415c:	0000b797          	auipc	a5,0xb
    4160:	ef47b783          	ld	a5,-268(a5) # f050 <_GLOBAL_OFFSET_TABLE_+0x28>
    4164:	0087b703          	ld	a4,8(a5)
    4168:	0000b797          	auipc	a5,0xb
    416c:	ee87b783          	ld	a5,-280(a5) # f050 <_GLOBAL_OFFSET_TABLE_+0x28>
    4170:	0207b783          	ld	a5,32(a5)
    4174:	1af71063          	bne	a4,a5,4314 <main+0x3c48>
    4178:	fffff7b7          	lui	a5,0xfffff
    417c:	ff040713          	addi	a4,s0,-16
    4180:	00f707b3          	add	a5,a4,a5
    4184:	0000b717          	auipc	a4,0xb
    4188:	ecc73703          	ld	a4,-308(a4) # f050 <_GLOBAL_OFFSET_TABLE_+0x28>
    418c:	00073703          	ld	a4,0(a4)
    4190:	70e7b023          	sd	a4,1792(a5) # fffffffffffff700 <__global_pointer$+0xfffffffffffeff00>
    4194:	fffff7b7          	lui	a5,0xfffff
    4198:	ff040713          	addi	a4,s0,-16
    419c:	00f707b3          	add	a5,a4,a5
    41a0:	0000b717          	auipc	a4,0xb
    41a4:	eb073703          	ld	a4,-336(a4) # f050 <_GLOBAL_OFFSET_TABLE_+0x28>
    41a8:	00873703          	ld	a4,8(a4)
    41ac:	70e7b423          	sd	a4,1800(a5) # fffffffffffff708 <__global_pointer$+0xfffffffffffeff08>
    41b0:	fffff7b7          	lui	a5,0xfffff
    41b4:	ff040713          	addi	a4,s0,-16
    41b8:	00f70733          	add	a4,a4,a5
    41bc:	fffff7b7          	lui	a5,0xfffff
    41c0:	ff040693          	addi	a3,s0,-16
    41c4:	00f687b3          	add	a5,a3,a5
    41c8:	70873703          	ld	a4,1800(a4)
    41cc:	7007b783          	ld	a5,1792(a5) # fffffffffffff700 <__global_pointer$+0xfffffffffffeff00>
    41d0:	14e7d263          	bge	a5,a4,4314 <main+0x3c48>
    41d4:	0000b797          	auipc	a5,0xb
    41d8:	e7c7b783          	ld	a5,-388(a5) # f050 <_GLOBAL_OFFSET_TABLE_+0x28>
    41dc:	0187b703          	ld	a4,24(a5)
    41e0:	0000b797          	auipc	a5,0xb
    41e4:	e707b783          	ld	a5,-400(a5) # f050 <_GLOBAL_OFFSET_TABLE_+0x28>
    41e8:	00e7b023          	sd	a4,0(a5)
    41ec:	0000b797          	auipc	a5,0xb
    41f0:	e2078793          	addi	a5,a5,-480 # f00c <P2_is_marked>
    41f4:	0007a783          	lw	a5,0(a5)
    41f8:	0007879b          	sext.w	a5,a5
    41fc:	ffc7879b          	addiw	a5,a5,-4
    4200:	0007871b          	sext.w	a4,a5
    4204:	0000b797          	auipc	a5,0xb
    4208:	e0878793          	addi	a5,a5,-504 # f00c <P2_is_marked>
    420c:	00e7a023          	sw	a4,0(a5)
    4210:	fffff7b7          	lui	a5,0xfffff
    4214:	ff040713          	addi	a4,s0,-16
    4218:	00f707b3          	add	a5,a4,a5
    421c:	fffff737          	lui	a4,0xfffff
    4220:	ff040693          	addi	a3,s0,-16
    4224:	00e686b3          	add	a3,a3,a4
    4228:	fffff737          	lui	a4,0xfffff
    422c:	ff040613          	addi	a2,s0,-16
    4230:	00e60733          	add	a4,a2,a4
    4234:	7006b683          	ld	a3,1792(a3)
    4238:	70873703          	ld	a4,1800(a4) # fffffffffffff708 <__global_pointer$+0xfffffffffffeff08>
    423c:	00e68733          	add	a4,a3,a4
    4240:	70e7b823          	sd	a4,1808(a5) # fffffffffffff710 <__global_pointer$+0xfffffffffffeff10>
    4244:	0000b797          	auipc	a5,0xb
    4248:	e3078793          	addi	a5,a5,-464 # f074 <P3_is_marked>
    424c:	0007a783          	lw	a5,0(a5)
    4250:	0007879b          	sext.w	a5,a5
    4254:	0000b717          	auipc	a4,0xb
    4258:	de473703          	ld	a4,-540(a4) # f038 <_GLOBAL_OFFSET_TABLE_+0x10>
    425c:	00379793          	slli	a5,a5,0x3
    4260:	00f707b3          	add	a5,a4,a5
    4264:	fffff737          	lui	a4,0xfffff
    4268:	ff040693          	addi	a3,s0,-16
    426c:	00e68733          	add	a4,a3,a4
    4270:	70073703          	ld	a4,1792(a4) # fffffffffffff700 <__global_pointer$+0xfffffffffffeff00>
    4274:	00e7b023          	sd	a4,0(a5)
    4278:	0000b797          	auipc	a5,0xb
    427c:	dfc78793          	addi	a5,a5,-516 # f074 <P3_is_marked>
    4280:	0007a783          	lw	a5,0(a5)
    4284:	0007879b          	sext.w	a5,a5
    4288:	0017879b          	addiw	a5,a5,1
    428c:	0007879b          	sext.w	a5,a5
    4290:	0000b717          	auipc	a4,0xb
    4294:	da873703          	ld	a4,-600(a4) # f038 <_GLOBAL_OFFSET_TABLE_+0x10>
    4298:	00379793          	slli	a5,a5,0x3
    429c:	00f707b3          	add	a5,a4,a5
    42a0:	fffff737          	lui	a4,0xfffff
    42a4:	ff040693          	addi	a3,s0,-16
    42a8:	00e68733          	add	a4,a3,a4
    42ac:	70873703          	ld	a4,1800(a4) # fffffffffffff708 <__global_pointer$+0xfffffffffffeff08>
    42b0:	00e7b023          	sd	a4,0(a5)
    42b4:	0000b797          	auipc	a5,0xb
    42b8:	dc078793          	addi	a5,a5,-576 # f074 <P3_is_marked>
    42bc:	0007a783          	lw	a5,0(a5)
    42c0:	0007879b          	sext.w	a5,a5
    42c4:	0027879b          	addiw	a5,a5,2
    42c8:	0007879b          	sext.w	a5,a5
    42cc:	0000b717          	auipc	a4,0xb
    42d0:	d6c73703          	ld	a4,-660(a4) # f038 <_GLOBAL_OFFSET_TABLE_+0x10>
    42d4:	00379793          	slli	a5,a5,0x3
    42d8:	00f707b3          	add	a5,a4,a5
    42dc:	fffff737          	lui	a4,0xfffff
    42e0:	ff040693          	addi	a3,s0,-16
    42e4:	00e68733          	add	a4,a3,a4
    42e8:	71073703          	ld	a4,1808(a4) # fffffffffffff710 <__global_pointer$+0xfffffffffffeff10>
    42ec:	00e7b023          	sd	a4,0(a5)
    42f0:	0000b797          	auipc	a5,0xb
    42f4:	d8478793          	addi	a5,a5,-636 # f074 <P3_is_marked>
    42f8:	0007a783          	lw	a5,0(a5)
    42fc:	0007879b          	sext.w	a5,a5
    4300:	0037879b          	addiw	a5,a5,3
    4304:	0007871b          	sext.w	a4,a5
    4308:	0000b797          	auipc	a5,0xb
    430c:	d6c78793          	addi	a5,a5,-660 # f074 <P3_is_marked>
    4310:	00e7a023          	sw	a4,0(a5)
    4314:	0000b797          	auipc	a5,0xb
    4318:	cf878793          	addi	a5,a5,-776 # f00c <P2_is_marked>
    431c:	0007a783          	lw	a5,0(a5)
    4320:	0007879b          	sext.w	a5,a5
    4324:	00078713          	mv	a4,a5
    4328:	00400793          	li	a5,4
    432c:	1ee7da63          	bge	a5,a4,4520 <main+0x3e54>
    4330:	0000b797          	auipc	a5,0xb
    4334:	d4478793          	addi	a5,a5,-700 # f074 <P3_is_marked>
    4338:	0007a783          	lw	a5,0(a5)
    433c:	0007879b          	sext.w	a5,a5
    4340:	00078713          	mv	a4,a5
    4344:	00300793          	li	a5,3
    4348:	1ce7cc63          	blt	a5,a4,4520 <main+0x3e54>
    434c:	0000b797          	auipc	a5,0xb
    4350:	d047b783          	ld	a5,-764(a5) # f050 <_GLOBAL_OFFSET_TABLE_+0x28>
    4354:	0087b703          	ld	a4,8(a5)
    4358:	0000b797          	auipc	a5,0xb
    435c:	cf87b783          	ld	a5,-776(a5) # f050 <_GLOBAL_OFFSET_TABLE_+0x28>
    4360:	0187b783          	ld	a5,24(a5)
    4364:	1af71e63          	bne	a4,a5,4520 <main+0x3e54>
    4368:	0000b797          	auipc	a5,0xb
    436c:	ce87b783          	ld	a5,-792(a5) # f050 <_GLOBAL_OFFSET_TABLE_+0x28>
    4370:	0087b703          	ld	a4,8(a5)
    4374:	0000b797          	auipc	a5,0xb
    4378:	cdc7b783          	ld	a5,-804(a5) # f050 <_GLOBAL_OFFSET_TABLE_+0x28>
    437c:	0207b783          	ld	a5,32(a5)
    4380:	1af71063          	bne	a4,a5,4520 <main+0x3e54>
    4384:	fffff7b7          	lui	a5,0xfffff
    4388:	ff040713          	addi	a4,s0,-16
    438c:	00f707b3          	add	a5,a4,a5
    4390:	0000b717          	auipc	a4,0xb
    4394:	cc073703          	ld	a4,-832(a4) # f050 <_GLOBAL_OFFSET_TABLE_+0x28>
    4398:	00073703          	ld	a4,0(a4)
    439c:	70e7bc23          	sd	a4,1816(a5) # fffffffffffff718 <__global_pointer$+0xfffffffffffeff18>
    43a0:	fffff7b7          	lui	a5,0xfffff
    43a4:	ff040713          	addi	a4,s0,-16
    43a8:	00f707b3          	add	a5,a4,a5
    43ac:	0000b717          	auipc	a4,0xb
    43b0:	ca473703          	ld	a4,-860(a4) # f050 <_GLOBAL_OFFSET_TABLE_+0x28>
    43b4:	00873703          	ld	a4,8(a4)
    43b8:	72e7b023          	sd	a4,1824(a5) # fffffffffffff720 <__global_pointer$+0xfffffffffffeff20>
    43bc:	fffff7b7          	lui	a5,0xfffff
    43c0:	ff040713          	addi	a4,s0,-16
    43c4:	00f70733          	add	a4,a4,a5
    43c8:	fffff7b7          	lui	a5,0xfffff
    43cc:	ff040693          	addi	a3,s0,-16
    43d0:	00f687b3          	add	a5,a3,a5
    43d4:	72073703          	ld	a4,1824(a4)
    43d8:	7187b783          	ld	a5,1816(a5) # fffffffffffff718 <__global_pointer$+0xfffffffffffeff18>
    43dc:	14e7d263          	bge	a5,a4,4520 <main+0x3e54>
    43e0:	0000b797          	auipc	a5,0xb
    43e4:	c707b783          	ld	a5,-912(a5) # f050 <_GLOBAL_OFFSET_TABLE_+0x28>
    43e8:	0107b703          	ld	a4,16(a5)
    43ec:	0000b797          	auipc	a5,0xb
    43f0:	c647b783          	ld	a5,-924(a5) # f050 <_GLOBAL_OFFSET_TABLE_+0x28>
    43f4:	00e7b023          	sd	a4,0(a5)
    43f8:	0000b797          	auipc	a5,0xb
    43fc:	c1478793          	addi	a5,a5,-1004 # f00c <P2_is_marked>
    4400:	0007a783          	lw	a5,0(a5)
    4404:	0007879b          	sext.w	a5,a5
    4408:	ffc7879b          	addiw	a5,a5,-4
    440c:	0007871b          	sext.w	a4,a5
    4410:	0000b797          	auipc	a5,0xb
    4414:	bfc78793          	addi	a5,a5,-1028 # f00c <P2_is_marked>
    4418:	00e7a023          	sw	a4,0(a5)
    441c:	fffff7b7          	lui	a5,0xfffff
    4420:	ff040713          	addi	a4,s0,-16
    4424:	00f707b3          	add	a5,a4,a5
    4428:	fffff737          	lui	a4,0xfffff
    442c:	ff040693          	addi	a3,s0,-16
    4430:	00e686b3          	add	a3,a3,a4
    4434:	fffff737          	lui	a4,0xfffff
    4438:	ff040613          	addi	a2,s0,-16
    443c:	00e60733          	add	a4,a2,a4
    4440:	7186b683          	ld	a3,1816(a3)
    4444:	72073703          	ld	a4,1824(a4) # fffffffffffff720 <__global_pointer$+0xfffffffffffeff20>
    4448:	00e68733          	add	a4,a3,a4
    444c:	72e7b423          	sd	a4,1832(a5) # fffffffffffff728 <__global_pointer$+0xfffffffffffeff28>
    4450:	0000b797          	auipc	a5,0xb
    4454:	c2478793          	addi	a5,a5,-988 # f074 <P3_is_marked>
    4458:	0007a783          	lw	a5,0(a5)
    445c:	0007879b          	sext.w	a5,a5
    4460:	0000b717          	auipc	a4,0xb
    4464:	bd873703          	ld	a4,-1064(a4) # f038 <_GLOBAL_OFFSET_TABLE_+0x10>
    4468:	00379793          	slli	a5,a5,0x3
    446c:	00f707b3          	add	a5,a4,a5
    4470:	fffff737          	lui	a4,0xfffff
    4474:	ff040693          	addi	a3,s0,-16
    4478:	00e68733          	add	a4,a3,a4
    447c:	71873703          	ld	a4,1816(a4) # fffffffffffff718 <__global_pointer$+0xfffffffffffeff18>
    4480:	00e7b023          	sd	a4,0(a5)
    4484:	0000b797          	auipc	a5,0xb
    4488:	bf078793          	addi	a5,a5,-1040 # f074 <P3_is_marked>
    448c:	0007a783          	lw	a5,0(a5)
    4490:	0007879b          	sext.w	a5,a5
    4494:	0017879b          	addiw	a5,a5,1
    4498:	0007879b          	sext.w	a5,a5
    449c:	0000b717          	auipc	a4,0xb
    44a0:	b9c73703          	ld	a4,-1124(a4) # f038 <_GLOBAL_OFFSET_TABLE_+0x10>
    44a4:	00379793          	slli	a5,a5,0x3
    44a8:	00f707b3          	add	a5,a4,a5
    44ac:	fffff737          	lui	a4,0xfffff
    44b0:	ff040693          	addi	a3,s0,-16
    44b4:	00e68733          	add	a4,a3,a4
    44b8:	72073703          	ld	a4,1824(a4) # fffffffffffff720 <__global_pointer$+0xfffffffffffeff20>
    44bc:	00e7b023          	sd	a4,0(a5)
    44c0:	0000b797          	auipc	a5,0xb
    44c4:	bb478793          	addi	a5,a5,-1100 # f074 <P3_is_marked>
    44c8:	0007a783          	lw	a5,0(a5)
    44cc:	0007879b          	sext.w	a5,a5
    44d0:	0027879b          	addiw	a5,a5,2
    44d4:	0007879b          	sext.w	a5,a5
    44d8:	0000b717          	auipc	a4,0xb
    44dc:	b6073703          	ld	a4,-1184(a4) # f038 <_GLOBAL_OFFSET_TABLE_+0x10>
    44e0:	00379793          	slli	a5,a5,0x3
    44e4:	00f707b3          	add	a5,a4,a5
    44e8:	fffff737          	lui	a4,0xfffff
    44ec:	ff040693          	addi	a3,s0,-16
    44f0:	00e68733          	add	a4,a3,a4
    44f4:	72873703          	ld	a4,1832(a4) # fffffffffffff728 <__global_pointer$+0xfffffffffffeff28>
    44f8:	00e7b023          	sd	a4,0(a5)
    44fc:	0000b797          	auipc	a5,0xb
    4500:	b7878793          	addi	a5,a5,-1160 # f074 <P3_is_marked>
    4504:	0007a783          	lw	a5,0(a5)
    4508:	0007879b          	sext.w	a5,a5
    450c:	0037879b          	addiw	a5,a5,3
    4510:	0007871b          	sext.w	a4,a5
    4514:	0000b797          	auipc	a5,0xb
    4518:	b6078793          	addi	a5,a5,-1184 # f074 <P3_is_marked>
    451c:	00e7a023          	sw	a4,0(a5)
    4520:	0000b797          	auipc	a5,0xb
    4524:	aec78793          	addi	a5,a5,-1300 # f00c <P2_is_marked>
    4528:	0007a783          	lw	a5,0(a5)
    452c:	0007879b          	sext.w	a5,a5
    4530:	00078713          	mv	a4,a5
    4534:	00400793          	li	a5,4
    4538:	1ee7da63          	bge	a5,a4,472c <main+0x4060>
    453c:	0000b797          	auipc	a5,0xb
    4540:	b3878793          	addi	a5,a5,-1224 # f074 <P3_is_marked>
    4544:	0007a783          	lw	a5,0(a5)
    4548:	0007879b          	sext.w	a5,a5
    454c:	00078713          	mv	a4,a5
    4550:	00300793          	li	a5,3
    4554:	1ce7cc63          	blt	a5,a4,472c <main+0x4060>
    4558:	0000b797          	auipc	a5,0xb
    455c:	af87b783          	ld	a5,-1288(a5) # f050 <_GLOBAL_OFFSET_TABLE_+0x28>
    4560:	0087b703          	ld	a4,8(a5)
    4564:	0000b797          	auipc	a5,0xb
    4568:	aec7b783          	ld	a5,-1300(a5) # f050 <_GLOBAL_OFFSET_TABLE_+0x28>
    456c:	0207b783          	ld	a5,32(a5)
    4570:	1af71e63          	bne	a4,a5,472c <main+0x4060>
    4574:	0000b797          	auipc	a5,0xb
    4578:	adc7b783          	ld	a5,-1316(a5) # f050 <_GLOBAL_OFFSET_TABLE_+0x28>
    457c:	0087b703          	ld	a4,8(a5)
    4580:	0000b797          	auipc	a5,0xb
    4584:	ad07b783          	ld	a5,-1328(a5) # f050 <_GLOBAL_OFFSET_TABLE_+0x28>
    4588:	0107b783          	ld	a5,16(a5)
    458c:	1af71063          	bne	a4,a5,472c <main+0x4060>
    4590:	fffff7b7          	lui	a5,0xfffff
    4594:	ff040713          	addi	a4,s0,-16
    4598:	00f707b3          	add	a5,a4,a5
    459c:	0000b717          	auipc	a4,0xb
    45a0:	ab473703          	ld	a4,-1356(a4) # f050 <_GLOBAL_OFFSET_TABLE_+0x28>
    45a4:	00073703          	ld	a4,0(a4)
    45a8:	72e7b823          	sd	a4,1840(a5) # fffffffffffff730 <__global_pointer$+0xfffffffffffeff30>
    45ac:	fffff7b7          	lui	a5,0xfffff
    45b0:	ff040713          	addi	a4,s0,-16
    45b4:	00f707b3          	add	a5,a4,a5
    45b8:	0000b717          	auipc	a4,0xb
    45bc:	a9873703          	ld	a4,-1384(a4) # f050 <_GLOBAL_OFFSET_TABLE_+0x28>
    45c0:	00873703          	ld	a4,8(a4)
    45c4:	72e7bc23          	sd	a4,1848(a5) # fffffffffffff738 <__global_pointer$+0xfffffffffffeff38>
    45c8:	fffff7b7          	lui	a5,0xfffff
    45cc:	ff040713          	addi	a4,s0,-16
    45d0:	00f70733          	add	a4,a4,a5
    45d4:	fffff7b7          	lui	a5,0xfffff
    45d8:	ff040693          	addi	a3,s0,-16
    45dc:	00f687b3          	add	a5,a3,a5
    45e0:	73873703          	ld	a4,1848(a4)
    45e4:	7307b783          	ld	a5,1840(a5) # fffffffffffff730 <__global_pointer$+0xfffffffffffeff30>
    45e8:	14e7d263          	bge	a5,a4,472c <main+0x4060>
    45ec:	0000b797          	auipc	a5,0xb
    45f0:	a647b783          	ld	a5,-1436(a5) # f050 <_GLOBAL_OFFSET_TABLE_+0x28>
    45f4:	0187b703          	ld	a4,24(a5)
    45f8:	0000b797          	auipc	a5,0xb
    45fc:	a587b783          	ld	a5,-1448(a5) # f050 <_GLOBAL_OFFSET_TABLE_+0x28>
    4600:	00e7b023          	sd	a4,0(a5)
    4604:	0000b797          	auipc	a5,0xb
    4608:	a0878793          	addi	a5,a5,-1528 # f00c <P2_is_marked>
    460c:	0007a783          	lw	a5,0(a5)
    4610:	0007879b          	sext.w	a5,a5
    4614:	ffc7879b          	addiw	a5,a5,-4
    4618:	0007871b          	sext.w	a4,a5
    461c:	0000b797          	auipc	a5,0xb
    4620:	9f078793          	addi	a5,a5,-1552 # f00c <P2_is_marked>
    4624:	00e7a023          	sw	a4,0(a5)
    4628:	fffff7b7          	lui	a5,0xfffff
    462c:	ff040713          	addi	a4,s0,-16
    4630:	00f707b3          	add	a5,a4,a5
    4634:	fffff737          	lui	a4,0xfffff
    4638:	ff040693          	addi	a3,s0,-16
    463c:	00e686b3          	add	a3,a3,a4
    4640:	fffff737          	lui	a4,0xfffff
    4644:	ff040613          	addi	a2,s0,-16
    4648:	00e60733          	add	a4,a2,a4
    464c:	7306b683          	ld	a3,1840(a3)
    4650:	73873703          	ld	a4,1848(a4) # fffffffffffff738 <__global_pointer$+0xfffffffffffeff38>
    4654:	00e68733          	add	a4,a3,a4
    4658:	74e7b023          	sd	a4,1856(a5) # fffffffffffff740 <__global_pointer$+0xfffffffffffeff40>
    465c:	0000b797          	auipc	a5,0xb
    4660:	a1878793          	addi	a5,a5,-1512 # f074 <P3_is_marked>
    4664:	0007a783          	lw	a5,0(a5)
    4668:	0007879b          	sext.w	a5,a5
    466c:	0000b717          	auipc	a4,0xb
    4670:	9cc73703          	ld	a4,-1588(a4) # f038 <_GLOBAL_OFFSET_TABLE_+0x10>
    4674:	00379793          	slli	a5,a5,0x3
    4678:	00f707b3          	add	a5,a4,a5
    467c:	fffff737          	lui	a4,0xfffff
    4680:	ff040693          	addi	a3,s0,-16
    4684:	00e68733          	add	a4,a3,a4
    4688:	73073703          	ld	a4,1840(a4) # fffffffffffff730 <__global_pointer$+0xfffffffffffeff30>
    468c:	00e7b023          	sd	a4,0(a5)
    4690:	0000b797          	auipc	a5,0xb
    4694:	9e478793          	addi	a5,a5,-1564 # f074 <P3_is_marked>
    4698:	0007a783          	lw	a5,0(a5)
    469c:	0007879b          	sext.w	a5,a5
    46a0:	0017879b          	addiw	a5,a5,1
    46a4:	0007879b          	sext.w	a5,a5
    46a8:	0000b717          	auipc	a4,0xb
    46ac:	99073703          	ld	a4,-1648(a4) # f038 <_GLOBAL_OFFSET_TABLE_+0x10>
    46b0:	00379793          	slli	a5,a5,0x3
    46b4:	00f707b3          	add	a5,a4,a5
    46b8:	fffff737          	lui	a4,0xfffff
    46bc:	ff040693          	addi	a3,s0,-16
    46c0:	00e68733          	add	a4,a3,a4
    46c4:	73873703          	ld	a4,1848(a4) # fffffffffffff738 <__global_pointer$+0xfffffffffffeff38>
    46c8:	00e7b023          	sd	a4,0(a5)
    46cc:	0000b797          	auipc	a5,0xb
    46d0:	9a878793          	addi	a5,a5,-1624 # f074 <P3_is_marked>
    46d4:	0007a783          	lw	a5,0(a5)
    46d8:	0007879b          	sext.w	a5,a5
    46dc:	0027879b          	addiw	a5,a5,2
    46e0:	0007879b          	sext.w	a5,a5
    46e4:	0000b717          	auipc	a4,0xb
    46e8:	95473703          	ld	a4,-1708(a4) # f038 <_GLOBAL_OFFSET_TABLE_+0x10>
    46ec:	00379793          	slli	a5,a5,0x3
    46f0:	00f707b3          	add	a5,a4,a5
    46f4:	fffff737          	lui	a4,0xfffff
    46f8:	ff040693          	addi	a3,s0,-16
    46fc:	00e68733          	add	a4,a3,a4
    4700:	74073703          	ld	a4,1856(a4) # fffffffffffff740 <__global_pointer$+0xfffffffffffeff40>
    4704:	00e7b023          	sd	a4,0(a5)
    4708:	0000b797          	auipc	a5,0xb
    470c:	96c78793          	addi	a5,a5,-1684 # f074 <P3_is_marked>
    4710:	0007a783          	lw	a5,0(a5)
    4714:	0007879b          	sext.w	a5,a5
    4718:	0037879b          	addiw	a5,a5,3
    471c:	0007871b          	sext.w	a4,a5
    4720:	0000b797          	auipc	a5,0xb
    4724:	95478793          	addi	a5,a5,-1708 # f074 <P3_is_marked>
    4728:	00e7a023          	sw	a4,0(a5)
    472c:	0000b797          	auipc	a5,0xb
    4730:	8e078793          	addi	a5,a5,-1824 # f00c <P2_is_marked>
    4734:	0007a783          	lw	a5,0(a5)
    4738:	0007879b          	sext.w	a5,a5
    473c:	00078713          	mv	a4,a5
    4740:	00400793          	li	a5,4
    4744:	1ee7da63          	bge	a5,a4,4938 <main+0x426c>
    4748:	0000b797          	auipc	a5,0xb
    474c:	92c78793          	addi	a5,a5,-1748 # f074 <P3_is_marked>
    4750:	0007a783          	lw	a5,0(a5)
    4754:	0007879b          	sext.w	a5,a5
    4758:	00078713          	mv	a4,a5
    475c:	00300793          	li	a5,3
    4760:	1ce7cc63          	blt	a5,a4,4938 <main+0x426c>
    4764:	0000b797          	auipc	a5,0xb
    4768:	8ec7b783          	ld	a5,-1812(a5) # f050 <_GLOBAL_OFFSET_TABLE_+0x28>
    476c:	0087b703          	ld	a4,8(a5)
    4770:	0000b797          	auipc	a5,0xb
    4774:	8e07b783          	ld	a5,-1824(a5) # f050 <_GLOBAL_OFFSET_TABLE_+0x28>
    4778:	0207b783          	ld	a5,32(a5)
    477c:	1af71e63          	bne	a4,a5,4938 <main+0x426c>
    4780:	0000b797          	auipc	a5,0xb
    4784:	8d07b783          	ld	a5,-1840(a5) # f050 <_GLOBAL_OFFSET_TABLE_+0x28>
    4788:	0087b703          	ld	a4,8(a5)
    478c:	0000b797          	auipc	a5,0xb
    4790:	8c47b783          	ld	a5,-1852(a5) # f050 <_GLOBAL_OFFSET_TABLE_+0x28>
    4794:	0187b783          	ld	a5,24(a5)
    4798:	1af71063          	bne	a4,a5,4938 <main+0x426c>
    479c:	fffff7b7          	lui	a5,0xfffff
    47a0:	ff040713          	addi	a4,s0,-16
    47a4:	00f707b3          	add	a5,a4,a5
    47a8:	0000b717          	auipc	a4,0xb
    47ac:	8a873703          	ld	a4,-1880(a4) # f050 <_GLOBAL_OFFSET_TABLE_+0x28>
    47b0:	00073703          	ld	a4,0(a4)
    47b4:	74e7b423          	sd	a4,1864(a5) # fffffffffffff748 <__global_pointer$+0xfffffffffffeff48>
    47b8:	fffff7b7          	lui	a5,0xfffff
    47bc:	ff040713          	addi	a4,s0,-16
    47c0:	00f707b3          	add	a5,a4,a5
    47c4:	0000b717          	auipc	a4,0xb
    47c8:	88c73703          	ld	a4,-1908(a4) # f050 <_GLOBAL_OFFSET_TABLE_+0x28>
    47cc:	00873703          	ld	a4,8(a4)
    47d0:	74e7b823          	sd	a4,1872(a5) # fffffffffffff750 <__global_pointer$+0xfffffffffffeff50>
    47d4:	fffff7b7          	lui	a5,0xfffff
    47d8:	ff040713          	addi	a4,s0,-16
    47dc:	00f70733          	add	a4,a4,a5
    47e0:	fffff7b7          	lui	a5,0xfffff
    47e4:	ff040693          	addi	a3,s0,-16
    47e8:	00f687b3          	add	a5,a3,a5
    47ec:	75073703          	ld	a4,1872(a4)
    47f0:	7487b783          	ld	a5,1864(a5) # fffffffffffff748 <__global_pointer$+0xfffffffffffeff48>
    47f4:	14e7d263          	bge	a5,a4,4938 <main+0x426c>
    47f8:	0000b797          	auipc	a5,0xb
    47fc:	8587b783          	ld	a5,-1960(a5) # f050 <_GLOBAL_OFFSET_TABLE_+0x28>
    4800:	0107b703          	ld	a4,16(a5)
    4804:	0000b797          	auipc	a5,0xb
    4808:	84c7b783          	ld	a5,-1972(a5) # f050 <_GLOBAL_OFFSET_TABLE_+0x28>
    480c:	00e7b023          	sd	a4,0(a5)
    4810:	0000a797          	auipc	a5,0xa
    4814:	7fc78793          	addi	a5,a5,2044 # f00c <P2_is_marked>
    4818:	0007a783          	lw	a5,0(a5)
    481c:	0007879b          	sext.w	a5,a5
    4820:	ffc7879b          	addiw	a5,a5,-4
    4824:	0007871b          	sext.w	a4,a5
    4828:	0000a797          	auipc	a5,0xa
    482c:	7e478793          	addi	a5,a5,2020 # f00c <P2_is_marked>
    4830:	00e7a023          	sw	a4,0(a5)
    4834:	fffff7b7          	lui	a5,0xfffff
    4838:	ff040713          	addi	a4,s0,-16
    483c:	00f707b3          	add	a5,a4,a5
    4840:	fffff737          	lui	a4,0xfffff
    4844:	ff040693          	addi	a3,s0,-16
    4848:	00e686b3          	add	a3,a3,a4
    484c:	fffff737          	lui	a4,0xfffff
    4850:	ff040613          	addi	a2,s0,-16
    4854:	00e60733          	add	a4,a2,a4
    4858:	7486b683          	ld	a3,1864(a3)
    485c:	75073703          	ld	a4,1872(a4) # fffffffffffff750 <__global_pointer$+0xfffffffffffeff50>
    4860:	00e68733          	add	a4,a3,a4
    4864:	74e7bc23          	sd	a4,1880(a5) # fffffffffffff758 <__global_pointer$+0xfffffffffffeff58>
    4868:	0000b797          	auipc	a5,0xb
    486c:	80c78793          	addi	a5,a5,-2036 # f074 <P3_is_marked>
    4870:	0007a783          	lw	a5,0(a5)
    4874:	0007879b          	sext.w	a5,a5
    4878:	0000a717          	auipc	a4,0xa
    487c:	7c073703          	ld	a4,1984(a4) # f038 <_GLOBAL_OFFSET_TABLE_+0x10>
    4880:	00379793          	slli	a5,a5,0x3
    4884:	00f707b3          	add	a5,a4,a5
    4888:	fffff737          	lui	a4,0xfffff
    488c:	ff040693          	addi	a3,s0,-16
    4890:	00e68733          	add	a4,a3,a4
    4894:	74873703          	ld	a4,1864(a4) # fffffffffffff748 <__global_pointer$+0xfffffffffffeff48>
    4898:	00e7b023          	sd	a4,0(a5)
    489c:	0000a797          	auipc	a5,0xa
    48a0:	7d878793          	addi	a5,a5,2008 # f074 <P3_is_marked>
    48a4:	0007a783          	lw	a5,0(a5)
    48a8:	0007879b          	sext.w	a5,a5
    48ac:	0017879b          	addiw	a5,a5,1
    48b0:	0007879b          	sext.w	a5,a5
    48b4:	0000a717          	auipc	a4,0xa
    48b8:	78473703          	ld	a4,1924(a4) # f038 <_GLOBAL_OFFSET_TABLE_+0x10>
    48bc:	00379793          	slli	a5,a5,0x3
    48c0:	00f707b3          	add	a5,a4,a5
    48c4:	fffff737          	lui	a4,0xfffff
    48c8:	ff040693          	addi	a3,s0,-16
    48cc:	00e68733          	add	a4,a3,a4
    48d0:	75073703          	ld	a4,1872(a4) # fffffffffffff750 <__global_pointer$+0xfffffffffffeff50>
    48d4:	00e7b023          	sd	a4,0(a5)
    48d8:	0000a797          	auipc	a5,0xa
    48dc:	79c78793          	addi	a5,a5,1948 # f074 <P3_is_marked>
    48e0:	0007a783          	lw	a5,0(a5)
    48e4:	0007879b          	sext.w	a5,a5
    48e8:	0027879b          	addiw	a5,a5,2
    48ec:	0007879b          	sext.w	a5,a5
    48f0:	0000a717          	auipc	a4,0xa
    48f4:	74873703          	ld	a4,1864(a4) # f038 <_GLOBAL_OFFSET_TABLE_+0x10>
    48f8:	00379793          	slli	a5,a5,0x3
    48fc:	00f707b3          	add	a5,a4,a5
    4900:	fffff737          	lui	a4,0xfffff
    4904:	ff040693          	addi	a3,s0,-16
    4908:	00e68733          	add	a4,a3,a4
    490c:	75873703          	ld	a4,1880(a4) # fffffffffffff758 <__global_pointer$+0xfffffffffffeff58>
    4910:	00e7b023          	sd	a4,0(a5)
    4914:	0000a797          	auipc	a5,0xa
    4918:	76078793          	addi	a5,a5,1888 # f074 <P3_is_marked>
    491c:	0007a783          	lw	a5,0(a5)
    4920:	0007879b          	sext.w	a5,a5
    4924:	0037879b          	addiw	a5,a5,3
    4928:	0007871b          	sext.w	a4,a5
    492c:	0000a797          	auipc	a5,0xa
    4930:	74878793          	addi	a5,a5,1864 # f074 <P3_is_marked>
    4934:	00e7a023          	sw	a4,0(a5)
    4938:	0000a797          	auipc	a5,0xa
    493c:	6d478793          	addi	a5,a5,1748 # f00c <P2_is_marked>
    4940:	0007a783          	lw	a5,0(a5)
    4944:	0007879b          	sext.w	a5,a5
    4948:	00078713          	mv	a4,a5
    494c:	00400793          	li	a5,4
    4950:	1ee7da63          	bge	a5,a4,4b44 <main+0x4478>
    4954:	0000a797          	auipc	a5,0xa
    4958:	72078793          	addi	a5,a5,1824 # f074 <P3_is_marked>
    495c:	0007a783          	lw	a5,0(a5)
    4960:	0007879b          	sext.w	a5,a5
    4964:	00078713          	mv	a4,a5
    4968:	00300793          	li	a5,3
    496c:	1ce7cc63          	blt	a5,a4,4b44 <main+0x4478>
    4970:	0000a797          	auipc	a5,0xa
    4974:	6e07b783          	ld	a5,1760(a5) # f050 <_GLOBAL_OFFSET_TABLE_+0x28>
    4978:	0107b703          	ld	a4,16(a5)
    497c:	0000a797          	auipc	a5,0xa
    4980:	6d47b783          	ld	a5,1748(a5) # f050 <_GLOBAL_OFFSET_TABLE_+0x28>
    4984:	0087b783          	ld	a5,8(a5)
    4988:	1af71e63          	bne	a4,a5,4b44 <main+0x4478>
    498c:	0000a797          	auipc	a5,0xa
    4990:	6c47b783          	ld	a5,1732(a5) # f050 <_GLOBAL_OFFSET_TABLE_+0x28>
    4994:	0107b703          	ld	a4,16(a5)
    4998:	0000a797          	auipc	a5,0xa
    499c:	6b87b783          	ld	a5,1720(a5) # f050 <_GLOBAL_OFFSET_TABLE_+0x28>
    49a0:	0207b783          	ld	a5,32(a5)
    49a4:	1af71063          	bne	a4,a5,4b44 <main+0x4478>
    49a8:	fffff7b7          	lui	a5,0xfffff
    49ac:	ff040713          	addi	a4,s0,-16
    49b0:	00f707b3          	add	a5,a4,a5
    49b4:	0000a717          	auipc	a4,0xa
    49b8:	69c73703          	ld	a4,1692(a4) # f050 <_GLOBAL_OFFSET_TABLE_+0x28>
    49bc:	00073703          	ld	a4,0(a4)
    49c0:	76e7b023          	sd	a4,1888(a5) # fffffffffffff760 <__global_pointer$+0xfffffffffffeff60>
    49c4:	fffff7b7          	lui	a5,0xfffff
    49c8:	ff040713          	addi	a4,s0,-16
    49cc:	00f707b3          	add	a5,a4,a5
    49d0:	0000a717          	auipc	a4,0xa
    49d4:	68073703          	ld	a4,1664(a4) # f050 <_GLOBAL_OFFSET_TABLE_+0x28>
    49d8:	01073703          	ld	a4,16(a4)
    49dc:	76e7b423          	sd	a4,1896(a5) # fffffffffffff768 <__global_pointer$+0xfffffffffffeff68>
    49e0:	fffff7b7          	lui	a5,0xfffff
    49e4:	ff040713          	addi	a4,s0,-16
    49e8:	00f70733          	add	a4,a4,a5
    49ec:	fffff7b7          	lui	a5,0xfffff
    49f0:	ff040693          	addi	a3,s0,-16
    49f4:	00f687b3          	add	a5,a3,a5
    49f8:	76873703          	ld	a4,1896(a4)
    49fc:	7607b783          	ld	a5,1888(a5) # fffffffffffff760 <__global_pointer$+0xfffffffffffeff60>
    4a00:	14e7d263          	bge	a5,a4,4b44 <main+0x4478>
    4a04:	0000a797          	auipc	a5,0xa
    4a08:	64c7b783          	ld	a5,1612(a5) # f050 <_GLOBAL_OFFSET_TABLE_+0x28>
    4a0c:	0187b703          	ld	a4,24(a5)
    4a10:	0000a797          	auipc	a5,0xa
    4a14:	6407b783          	ld	a5,1600(a5) # f050 <_GLOBAL_OFFSET_TABLE_+0x28>
    4a18:	00e7b023          	sd	a4,0(a5)
    4a1c:	0000a797          	auipc	a5,0xa
    4a20:	5f078793          	addi	a5,a5,1520 # f00c <P2_is_marked>
    4a24:	0007a783          	lw	a5,0(a5)
    4a28:	0007879b          	sext.w	a5,a5
    4a2c:	ffc7879b          	addiw	a5,a5,-4
    4a30:	0007871b          	sext.w	a4,a5
    4a34:	0000a797          	auipc	a5,0xa
    4a38:	5d878793          	addi	a5,a5,1496 # f00c <P2_is_marked>
    4a3c:	00e7a023          	sw	a4,0(a5)
    4a40:	fffff7b7          	lui	a5,0xfffff
    4a44:	ff040713          	addi	a4,s0,-16
    4a48:	00f707b3          	add	a5,a4,a5
    4a4c:	fffff737          	lui	a4,0xfffff
    4a50:	ff040693          	addi	a3,s0,-16
    4a54:	00e686b3          	add	a3,a3,a4
    4a58:	fffff737          	lui	a4,0xfffff
    4a5c:	ff040613          	addi	a2,s0,-16
    4a60:	00e60733          	add	a4,a2,a4
    4a64:	7606b683          	ld	a3,1888(a3)
    4a68:	76873703          	ld	a4,1896(a4) # fffffffffffff768 <__global_pointer$+0xfffffffffffeff68>
    4a6c:	00e68733          	add	a4,a3,a4
    4a70:	76e7b823          	sd	a4,1904(a5) # fffffffffffff770 <__global_pointer$+0xfffffffffffeff70>
    4a74:	0000a797          	auipc	a5,0xa
    4a78:	60078793          	addi	a5,a5,1536 # f074 <P3_is_marked>
    4a7c:	0007a783          	lw	a5,0(a5)
    4a80:	0007879b          	sext.w	a5,a5
    4a84:	0000a717          	auipc	a4,0xa
    4a88:	5b473703          	ld	a4,1460(a4) # f038 <_GLOBAL_OFFSET_TABLE_+0x10>
    4a8c:	00379793          	slli	a5,a5,0x3
    4a90:	00f707b3          	add	a5,a4,a5
    4a94:	fffff737          	lui	a4,0xfffff
    4a98:	ff040693          	addi	a3,s0,-16
    4a9c:	00e68733          	add	a4,a3,a4
    4aa0:	76073703          	ld	a4,1888(a4) # fffffffffffff760 <__global_pointer$+0xfffffffffffeff60>
    4aa4:	00e7b023          	sd	a4,0(a5)
    4aa8:	0000a797          	auipc	a5,0xa
    4aac:	5cc78793          	addi	a5,a5,1484 # f074 <P3_is_marked>
    4ab0:	0007a783          	lw	a5,0(a5)
    4ab4:	0007879b          	sext.w	a5,a5
    4ab8:	0017879b          	addiw	a5,a5,1
    4abc:	0007879b          	sext.w	a5,a5
    4ac0:	0000a717          	auipc	a4,0xa
    4ac4:	57873703          	ld	a4,1400(a4) # f038 <_GLOBAL_OFFSET_TABLE_+0x10>
    4ac8:	00379793          	slli	a5,a5,0x3
    4acc:	00f707b3          	add	a5,a4,a5
    4ad0:	fffff737          	lui	a4,0xfffff
    4ad4:	ff040693          	addi	a3,s0,-16
    4ad8:	00e68733          	add	a4,a3,a4
    4adc:	76873703          	ld	a4,1896(a4) # fffffffffffff768 <__global_pointer$+0xfffffffffffeff68>
    4ae0:	00e7b023          	sd	a4,0(a5)
    4ae4:	0000a797          	auipc	a5,0xa
    4ae8:	59078793          	addi	a5,a5,1424 # f074 <P3_is_marked>
    4aec:	0007a783          	lw	a5,0(a5)
    4af0:	0007879b          	sext.w	a5,a5
    4af4:	0027879b          	addiw	a5,a5,2
    4af8:	0007879b          	sext.w	a5,a5
    4afc:	0000a717          	auipc	a4,0xa
    4b00:	53c73703          	ld	a4,1340(a4) # f038 <_GLOBAL_OFFSET_TABLE_+0x10>
    4b04:	00379793          	slli	a5,a5,0x3
    4b08:	00f707b3          	add	a5,a4,a5
    4b0c:	fffff737          	lui	a4,0xfffff
    4b10:	ff040693          	addi	a3,s0,-16
    4b14:	00e68733          	add	a4,a3,a4
    4b18:	77073703          	ld	a4,1904(a4) # fffffffffffff770 <__global_pointer$+0xfffffffffffeff70>
    4b1c:	00e7b023          	sd	a4,0(a5)
    4b20:	0000a797          	auipc	a5,0xa
    4b24:	55478793          	addi	a5,a5,1364 # f074 <P3_is_marked>
    4b28:	0007a783          	lw	a5,0(a5)
    4b2c:	0007879b          	sext.w	a5,a5
    4b30:	0037879b          	addiw	a5,a5,3
    4b34:	0007871b          	sext.w	a4,a5
    4b38:	0000a797          	auipc	a5,0xa
    4b3c:	53c78793          	addi	a5,a5,1340 # f074 <P3_is_marked>
    4b40:	00e7a023          	sw	a4,0(a5)
    4b44:	0000a797          	auipc	a5,0xa
    4b48:	4c878793          	addi	a5,a5,1224 # f00c <P2_is_marked>
    4b4c:	0007a783          	lw	a5,0(a5)
    4b50:	0007879b          	sext.w	a5,a5
    4b54:	00078713          	mv	a4,a5
    4b58:	00400793          	li	a5,4
    4b5c:	1ee7da63          	bge	a5,a4,4d50 <main+0x4684>
    4b60:	0000a797          	auipc	a5,0xa
    4b64:	51478793          	addi	a5,a5,1300 # f074 <P3_is_marked>
    4b68:	0007a783          	lw	a5,0(a5)
    4b6c:	0007879b          	sext.w	a5,a5
    4b70:	00078713          	mv	a4,a5
    4b74:	00300793          	li	a5,3
    4b78:	1ce7cc63          	blt	a5,a4,4d50 <main+0x4684>
    4b7c:	0000a797          	auipc	a5,0xa
    4b80:	4d47b783          	ld	a5,1236(a5) # f050 <_GLOBAL_OFFSET_TABLE_+0x28>
    4b84:	0107b703          	ld	a4,16(a5)
    4b88:	0000a797          	auipc	a5,0xa
    4b8c:	4c87b783          	ld	a5,1224(a5) # f050 <_GLOBAL_OFFSET_TABLE_+0x28>
    4b90:	0187b783          	ld	a5,24(a5)
    4b94:	1af71e63          	bne	a4,a5,4d50 <main+0x4684>
    4b98:	0000a797          	auipc	a5,0xa
    4b9c:	4b87b783          	ld	a5,1208(a5) # f050 <_GLOBAL_OFFSET_TABLE_+0x28>
    4ba0:	0107b703          	ld	a4,16(a5)
    4ba4:	0000a797          	auipc	a5,0xa
    4ba8:	4ac7b783          	ld	a5,1196(a5) # f050 <_GLOBAL_OFFSET_TABLE_+0x28>
    4bac:	0207b783          	ld	a5,32(a5)
    4bb0:	1af71063          	bne	a4,a5,4d50 <main+0x4684>
    4bb4:	fffff7b7          	lui	a5,0xfffff
    4bb8:	ff040713          	addi	a4,s0,-16
    4bbc:	00f707b3          	add	a5,a4,a5
    4bc0:	0000a717          	auipc	a4,0xa
    4bc4:	49073703          	ld	a4,1168(a4) # f050 <_GLOBAL_OFFSET_TABLE_+0x28>
    4bc8:	00073703          	ld	a4,0(a4)
    4bcc:	76e7bc23          	sd	a4,1912(a5) # fffffffffffff778 <__global_pointer$+0xfffffffffffeff78>
    4bd0:	fffff7b7          	lui	a5,0xfffff
    4bd4:	ff040713          	addi	a4,s0,-16
    4bd8:	00f707b3          	add	a5,a4,a5
    4bdc:	0000a717          	auipc	a4,0xa
    4be0:	47473703          	ld	a4,1140(a4) # f050 <_GLOBAL_OFFSET_TABLE_+0x28>
    4be4:	01073703          	ld	a4,16(a4)
    4be8:	78e7b023          	sd	a4,1920(a5) # fffffffffffff780 <__global_pointer$+0xfffffffffffeff80>
    4bec:	fffff7b7          	lui	a5,0xfffff
    4bf0:	ff040713          	addi	a4,s0,-16
    4bf4:	00f70733          	add	a4,a4,a5
    4bf8:	fffff7b7          	lui	a5,0xfffff
    4bfc:	ff040693          	addi	a3,s0,-16
    4c00:	00f687b3          	add	a5,a3,a5
    4c04:	78073703          	ld	a4,1920(a4)
    4c08:	7787b783          	ld	a5,1912(a5) # fffffffffffff778 <__global_pointer$+0xfffffffffffeff78>
    4c0c:	14e7d263          	bge	a5,a4,4d50 <main+0x4684>
    4c10:	0000a797          	auipc	a5,0xa
    4c14:	4407b783          	ld	a5,1088(a5) # f050 <_GLOBAL_OFFSET_TABLE_+0x28>
    4c18:	0087b703          	ld	a4,8(a5)
    4c1c:	0000a797          	auipc	a5,0xa
    4c20:	4347b783          	ld	a5,1076(a5) # f050 <_GLOBAL_OFFSET_TABLE_+0x28>
    4c24:	00e7b023          	sd	a4,0(a5)
    4c28:	0000a797          	auipc	a5,0xa
    4c2c:	3e478793          	addi	a5,a5,996 # f00c <P2_is_marked>
    4c30:	0007a783          	lw	a5,0(a5)
    4c34:	0007879b          	sext.w	a5,a5
    4c38:	ffc7879b          	addiw	a5,a5,-4
    4c3c:	0007871b          	sext.w	a4,a5
    4c40:	0000a797          	auipc	a5,0xa
    4c44:	3cc78793          	addi	a5,a5,972 # f00c <P2_is_marked>
    4c48:	00e7a023          	sw	a4,0(a5)
    4c4c:	fffff7b7          	lui	a5,0xfffff
    4c50:	ff040713          	addi	a4,s0,-16
    4c54:	00f707b3          	add	a5,a4,a5
    4c58:	fffff737          	lui	a4,0xfffff
    4c5c:	ff040693          	addi	a3,s0,-16
    4c60:	00e686b3          	add	a3,a3,a4
    4c64:	fffff737          	lui	a4,0xfffff
    4c68:	ff040613          	addi	a2,s0,-16
    4c6c:	00e60733          	add	a4,a2,a4
    4c70:	7786b683          	ld	a3,1912(a3)
    4c74:	78073703          	ld	a4,1920(a4) # fffffffffffff780 <__global_pointer$+0xfffffffffffeff80>
    4c78:	00e68733          	add	a4,a3,a4
    4c7c:	78e7b423          	sd	a4,1928(a5) # fffffffffffff788 <__global_pointer$+0xfffffffffffeff88>
    4c80:	0000a797          	auipc	a5,0xa
    4c84:	3f478793          	addi	a5,a5,1012 # f074 <P3_is_marked>
    4c88:	0007a783          	lw	a5,0(a5)
    4c8c:	0007879b          	sext.w	a5,a5
    4c90:	0000a717          	auipc	a4,0xa
    4c94:	3a873703          	ld	a4,936(a4) # f038 <_GLOBAL_OFFSET_TABLE_+0x10>
    4c98:	00379793          	slli	a5,a5,0x3
    4c9c:	00f707b3          	add	a5,a4,a5
    4ca0:	fffff737          	lui	a4,0xfffff
    4ca4:	ff040693          	addi	a3,s0,-16
    4ca8:	00e68733          	add	a4,a3,a4
    4cac:	77873703          	ld	a4,1912(a4) # fffffffffffff778 <__global_pointer$+0xfffffffffffeff78>
    4cb0:	00e7b023          	sd	a4,0(a5)
    4cb4:	0000a797          	auipc	a5,0xa
    4cb8:	3c078793          	addi	a5,a5,960 # f074 <P3_is_marked>
    4cbc:	0007a783          	lw	a5,0(a5)
    4cc0:	0007879b          	sext.w	a5,a5
    4cc4:	0017879b          	addiw	a5,a5,1
    4cc8:	0007879b          	sext.w	a5,a5
    4ccc:	0000a717          	auipc	a4,0xa
    4cd0:	36c73703          	ld	a4,876(a4) # f038 <_GLOBAL_OFFSET_TABLE_+0x10>
    4cd4:	00379793          	slli	a5,a5,0x3
    4cd8:	00f707b3          	add	a5,a4,a5
    4cdc:	fffff737          	lui	a4,0xfffff
    4ce0:	ff040693          	addi	a3,s0,-16
    4ce4:	00e68733          	add	a4,a3,a4
    4ce8:	78073703          	ld	a4,1920(a4) # fffffffffffff780 <__global_pointer$+0xfffffffffffeff80>
    4cec:	00e7b023          	sd	a4,0(a5)
    4cf0:	0000a797          	auipc	a5,0xa
    4cf4:	38478793          	addi	a5,a5,900 # f074 <P3_is_marked>
    4cf8:	0007a783          	lw	a5,0(a5)
    4cfc:	0007879b          	sext.w	a5,a5
    4d00:	0027879b          	addiw	a5,a5,2
    4d04:	0007879b          	sext.w	a5,a5
    4d08:	0000a717          	auipc	a4,0xa
    4d0c:	33073703          	ld	a4,816(a4) # f038 <_GLOBAL_OFFSET_TABLE_+0x10>
    4d10:	00379793          	slli	a5,a5,0x3
    4d14:	00f707b3          	add	a5,a4,a5
    4d18:	fffff737          	lui	a4,0xfffff
    4d1c:	ff040693          	addi	a3,s0,-16
    4d20:	00e68733          	add	a4,a3,a4
    4d24:	78873703          	ld	a4,1928(a4) # fffffffffffff788 <__global_pointer$+0xfffffffffffeff88>
    4d28:	00e7b023          	sd	a4,0(a5)
    4d2c:	0000a797          	auipc	a5,0xa
    4d30:	34878793          	addi	a5,a5,840 # f074 <P3_is_marked>
    4d34:	0007a783          	lw	a5,0(a5)
    4d38:	0007879b          	sext.w	a5,a5
    4d3c:	0037879b          	addiw	a5,a5,3
    4d40:	0007871b          	sext.w	a4,a5
    4d44:	0000a797          	auipc	a5,0xa
    4d48:	33078793          	addi	a5,a5,816 # f074 <P3_is_marked>
    4d4c:	00e7a023          	sw	a4,0(a5)
    4d50:	0000a797          	auipc	a5,0xa
    4d54:	2bc78793          	addi	a5,a5,700 # f00c <P2_is_marked>
    4d58:	0007a783          	lw	a5,0(a5)
    4d5c:	0007879b          	sext.w	a5,a5
    4d60:	00078713          	mv	a4,a5
    4d64:	00400793          	li	a5,4
    4d68:	1ee7da63          	bge	a5,a4,4f5c <main+0x4890>
    4d6c:	0000a797          	auipc	a5,0xa
    4d70:	30878793          	addi	a5,a5,776 # f074 <P3_is_marked>
    4d74:	0007a783          	lw	a5,0(a5)
    4d78:	0007879b          	sext.w	a5,a5
    4d7c:	00078713          	mv	a4,a5
    4d80:	00300793          	li	a5,3
    4d84:	1ce7cc63          	blt	a5,a4,4f5c <main+0x4890>
    4d88:	0000a797          	auipc	a5,0xa
    4d8c:	2c87b783          	ld	a5,712(a5) # f050 <_GLOBAL_OFFSET_TABLE_+0x28>
    4d90:	0107b703          	ld	a4,16(a5)
    4d94:	0000a797          	auipc	a5,0xa
    4d98:	2bc7b783          	ld	a5,700(a5) # f050 <_GLOBAL_OFFSET_TABLE_+0x28>
    4d9c:	0207b783          	ld	a5,32(a5)
    4da0:	1af71e63          	bne	a4,a5,4f5c <main+0x4890>
    4da4:	0000a797          	auipc	a5,0xa
    4da8:	2ac7b783          	ld	a5,684(a5) # f050 <_GLOBAL_OFFSET_TABLE_+0x28>
    4dac:	0107b703          	ld	a4,16(a5)
    4db0:	0000a797          	auipc	a5,0xa
    4db4:	2a07b783          	ld	a5,672(a5) # f050 <_GLOBAL_OFFSET_TABLE_+0x28>
    4db8:	0087b783          	ld	a5,8(a5)
    4dbc:	1af71063          	bne	a4,a5,4f5c <main+0x4890>
    4dc0:	fffff7b7          	lui	a5,0xfffff
    4dc4:	ff040713          	addi	a4,s0,-16
    4dc8:	00f707b3          	add	a5,a4,a5
    4dcc:	0000a717          	auipc	a4,0xa
    4dd0:	28473703          	ld	a4,644(a4) # f050 <_GLOBAL_OFFSET_TABLE_+0x28>
    4dd4:	00073703          	ld	a4,0(a4)
    4dd8:	78e7b823          	sd	a4,1936(a5) # fffffffffffff790 <__global_pointer$+0xfffffffffffeff90>
    4ddc:	fffff7b7          	lui	a5,0xfffff
    4de0:	ff040713          	addi	a4,s0,-16
    4de4:	00f707b3          	add	a5,a4,a5
    4de8:	0000a717          	auipc	a4,0xa
    4dec:	26873703          	ld	a4,616(a4) # f050 <_GLOBAL_OFFSET_TABLE_+0x28>
    4df0:	01073703          	ld	a4,16(a4)
    4df4:	78e7bc23          	sd	a4,1944(a5) # fffffffffffff798 <__global_pointer$+0xfffffffffffeff98>
    4df8:	fffff7b7          	lui	a5,0xfffff
    4dfc:	ff040713          	addi	a4,s0,-16
    4e00:	00f70733          	add	a4,a4,a5
    4e04:	fffff7b7          	lui	a5,0xfffff
    4e08:	ff040693          	addi	a3,s0,-16
    4e0c:	00f687b3          	add	a5,a3,a5
    4e10:	79873703          	ld	a4,1944(a4)
    4e14:	7907b783          	ld	a5,1936(a5) # fffffffffffff790 <__global_pointer$+0xfffffffffffeff90>
    4e18:	14e7d263          	bge	a5,a4,4f5c <main+0x4890>
    4e1c:	0000a797          	auipc	a5,0xa
    4e20:	2347b783          	ld	a5,564(a5) # f050 <_GLOBAL_OFFSET_TABLE_+0x28>
    4e24:	0187b703          	ld	a4,24(a5)
    4e28:	0000a797          	auipc	a5,0xa
    4e2c:	2287b783          	ld	a5,552(a5) # f050 <_GLOBAL_OFFSET_TABLE_+0x28>
    4e30:	00e7b023          	sd	a4,0(a5)
    4e34:	0000a797          	auipc	a5,0xa
    4e38:	1d878793          	addi	a5,a5,472 # f00c <P2_is_marked>
    4e3c:	0007a783          	lw	a5,0(a5)
    4e40:	0007879b          	sext.w	a5,a5
    4e44:	ffc7879b          	addiw	a5,a5,-4
    4e48:	0007871b          	sext.w	a4,a5
    4e4c:	0000a797          	auipc	a5,0xa
    4e50:	1c078793          	addi	a5,a5,448 # f00c <P2_is_marked>
    4e54:	00e7a023          	sw	a4,0(a5)
    4e58:	fffff7b7          	lui	a5,0xfffff
    4e5c:	ff040713          	addi	a4,s0,-16
    4e60:	00f707b3          	add	a5,a4,a5
    4e64:	fffff737          	lui	a4,0xfffff
    4e68:	ff040693          	addi	a3,s0,-16
    4e6c:	00e686b3          	add	a3,a3,a4
    4e70:	fffff737          	lui	a4,0xfffff
    4e74:	ff040613          	addi	a2,s0,-16
    4e78:	00e60733          	add	a4,a2,a4
    4e7c:	7906b683          	ld	a3,1936(a3)
    4e80:	79873703          	ld	a4,1944(a4) # fffffffffffff798 <__global_pointer$+0xfffffffffffeff98>
    4e84:	00e68733          	add	a4,a3,a4
    4e88:	7ae7b023          	sd	a4,1952(a5) # fffffffffffff7a0 <__global_pointer$+0xfffffffffffeffa0>
    4e8c:	0000a797          	auipc	a5,0xa
    4e90:	1e878793          	addi	a5,a5,488 # f074 <P3_is_marked>
    4e94:	0007a783          	lw	a5,0(a5)
    4e98:	0007879b          	sext.w	a5,a5
    4e9c:	0000a717          	auipc	a4,0xa
    4ea0:	19c73703          	ld	a4,412(a4) # f038 <_GLOBAL_OFFSET_TABLE_+0x10>
    4ea4:	00379793          	slli	a5,a5,0x3
    4ea8:	00f707b3          	add	a5,a4,a5
    4eac:	fffff737          	lui	a4,0xfffff
    4eb0:	ff040693          	addi	a3,s0,-16
    4eb4:	00e68733          	add	a4,a3,a4
    4eb8:	79073703          	ld	a4,1936(a4) # fffffffffffff790 <__global_pointer$+0xfffffffffffeff90>
    4ebc:	00e7b023          	sd	a4,0(a5)
    4ec0:	0000a797          	auipc	a5,0xa
    4ec4:	1b478793          	addi	a5,a5,436 # f074 <P3_is_marked>
    4ec8:	0007a783          	lw	a5,0(a5)
    4ecc:	0007879b          	sext.w	a5,a5
    4ed0:	0017879b          	addiw	a5,a5,1
    4ed4:	0007879b          	sext.w	a5,a5
    4ed8:	0000a717          	auipc	a4,0xa
    4edc:	16073703          	ld	a4,352(a4) # f038 <_GLOBAL_OFFSET_TABLE_+0x10>
    4ee0:	00379793          	slli	a5,a5,0x3
    4ee4:	00f707b3          	add	a5,a4,a5
    4ee8:	fffff737          	lui	a4,0xfffff
    4eec:	ff040693          	addi	a3,s0,-16
    4ef0:	00e68733          	add	a4,a3,a4
    4ef4:	79873703          	ld	a4,1944(a4) # fffffffffffff798 <__global_pointer$+0xfffffffffffeff98>
    4ef8:	00e7b023          	sd	a4,0(a5)
    4efc:	0000a797          	auipc	a5,0xa
    4f00:	17878793          	addi	a5,a5,376 # f074 <P3_is_marked>
    4f04:	0007a783          	lw	a5,0(a5)
    4f08:	0007879b          	sext.w	a5,a5
    4f0c:	0027879b          	addiw	a5,a5,2
    4f10:	0007879b          	sext.w	a5,a5
    4f14:	0000a717          	auipc	a4,0xa
    4f18:	12473703          	ld	a4,292(a4) # f038 <_GLOBAL_OFFSET_TABLE_+0x10>
    4f1c:	00379793          	slli	a5,a5,0x3
    4f20:	00f707b3          	add	a5,a4,a5
    4f24:	fffff737          	lui	a4,0xfffff
    4f28:	ff040693          	addi	a3,s0,-16
    4f2c:	00e68733          	add	a4,a3,a4
    4f30:	7a073703          	ld	a4,1952(a4) # fffffffffffff7a0 <__global_pointer$+0xfffffffffffeffa0>
    4f34:	00e7b023          	sd	a4,0(a5)
    4f38:	0000a797          	auipc	a5,0xa
    4f3c:	13c78793          	addi	a5,a5,316 # f074 <P3_is_marked>
    4f40:	0007a783          	lw	a5,0(a5)
    4f44:	0007879b          	sext.w	a5,a5
    4f48:	0037879b          	addiw	a5,a5,3
    4f4c:	0007871b          	sext.w	a4,a5
    4f50:	0000a797          	auipc	a5,0xa
    4f54:	12478793          	addi	a5,a5,292 # f074 <P3_is_marked>
    4f58:	00e7a023          	sw	a4,0(a5)
    4f5c:	0000a797          	auipc	a5,0xa
    4f60:	0b078793          	addi	a5,a5,176 # f00c <P2_is_marked>
    4f64:	0007a783          	lw	a5,0(a5)
    4f68:	0007879b          	sext.w	a5,a5
    4f6c:	00078713          	mv	a4,a5
    4f70:	00400793          	li	a5,4
    4f74:	1ee7da63          	bge	a5,a4,5168 <main+0x4a9c>
    4f78:	0000a797          	auipc	a5,0xa
    4f7c:	0fc78793          	addi	a5,a5,252 # f074 <P3_is_marked>
    4f80:	0007a783          	lw	a5,0(a5)
    4f84:	0007879b          	sext.w	a5,a5
    4f88:	00078713          	mv	a4,a5
    4f8c:	00300793          	li	a5,3
    4f90:	1ce7cc63          	blt	a5,a4,5168 <main+0x4a9c>
    4f94:	0000a797          	auipc	a5,0xa
    4f98:	0bc7b783          	ld	a5,188(a5) # f050 <_GLOBAL_OFFSET_TABLE_+0x28>
    4f9c:	0107b703          	ld	a4,16(a5)
    4fa0:	0000a797          	auipc	a5,0xa
    4fa4:	0b07b783          	ld	a5,176(a5) # f050 <_GLOBAL_OFFSET_TABLE_+0x28>
    4fa8:	0207b783          	ld	a5,32(a5)
    4fac:	1af71e63          	bne	a4,a5,5168 <main+0x4a9c>
    4fb0:	0000a797          	auipc	a5,0xa
    4fb4:	0a07b783          	ld	a5,160(a5) # f050 <_GLOBAL_OFFSET_TABLE_+0x28>
    4fb8:	0107b703          	ld	a4,16(a5)
    4fbc:	0000a797          	auipc	a5,0xa
    4fc0:	0947b783          	ld	a5,148(a5) # f050 <_GLOBAL_OFFSET_TABLE_+0x28>
    4fc4:	0187b783          	ld	a5,24(a5)
    4fc8:	1af71063          	bne	a4,a5,5168 <main+0x4a9c>
    4fcc:	fffff7b7          	lui	a5,0xfffff
    4fd0:	ff040713          	addi	a4,s0,-16
    4fd4:	00f707b3          	add	a5,a4,a5
    4fd8:	0000a717          	auipc	a4,0xa
    4fdc:	07873703          	ld	a4,120(a4) # f050 <_GLOBAL_OFFSET_TABLE_+0x28>
    4fe0:	00073703          	ld	a4,0(a4)
    4fe4:	7ae7b423          	sd	a4,1960(a5) # fffffffffffff7a8 <__global_pointer$+0xfffffffffffeffa8>
    4fe8:	fffff7b7          	lui	a5,0xfffff
    4fec:	ff040713          	addi	a4,s0,-16
    4ff0:	00f707b3          	add	a5,a4,a5
    4ff4:	0000a717          	auipc	a4,0xa
    4ff8:	05c73703          	ld	a4,92(a4) # f050 <_GLOBAL_OFFSET_TABLE_+0x28>
    4ffc:	01073703          	ld	a4,16(a4)
    5000:	7ae7b823          	sd	a4,1968(a5) # fffffffffffff7b0 <__global_pointer$+0xfffffffffffeffb0>
    5004:	fffff7b7          	lui	a5,0xfffff
    5008:	ff040713          	addi	a4,s0,-16
    500c:	00f70733          	add	a4,a4,a5
    5010:	fffff7b7          	lui	a5,0xfffff
    5014:	ff040693          	addi	a3,s0,-16
    5018:	00f687b3          	add	a5,a3,a5
    501c:	7b073703          	ld	a4,1968(a4)
    5020:	7a87b783          	ld	a5,1960(a5) # fffffffffffff7a8 <__global_pointer$+0xfffffffffffeffa8>
    5024:	14e7d263          	bge	a5,a4,5168 <main+0x4a9c>
    5028:	0000a797          	auipc	a5,0xa
    502c:	0287b783          	ld	a5,40(a5) # f050 <_GLOBAL_OFFSET_TABLE_+0x28>
    5030:	0087b703          	ld	a4,8(a5)
    5034:	0000a797          	auipc	a5,0xa
    5038:	01c7b783          	ld	a5,28(a5) # f050 <_GLOBAL_OFFSET_TABLE_+0x28>
    503c:	00e7b023          	sd	a4,0(a5)
    5040:	0000a797          	auipc	a5,0xa
    5044:	fcc78793          	addi	a5,a5,-52 # f00c <P2_is_marked>
    5048:	0007a783          	lw	a5,0(a5)
    504c:	0007879b          	sext.w	a5,a5
    5050:	ffc7879b          	addiw	a5,a5,-4
    5054:	0007871b          	sext.w	a4,a5
    5058:	0000a797          	auipc	a5,0xa
    505c:	fb478793          	addi	a5,a5,-76 # f00c <P2_is_marked>
    5060:	00e7a023          	sw	a4,0(a5)
    5064:	fffff7b7          	lui	a5,0xfffff
    5068:	ff040713          	addi	a4,s0,-16
    506c:	00f707b3          	add	a5,a4,a5
    5070:	fffff737          	lui	a4,0xfffff
    5074:	ff040693          	addi	a3,s0,-16
    5078:	00e686b3          	add	a3,a3,a4
    507c:	fffff737          	lui	a4,0xfffff
    5080:	ff040613          	addi	a2,s0,-16
    5084:	00e60733          	add	a4,a2,a4
    5088:	7a86b683          	ld	a3,1960(a3)
    508c:	7b073703          	ld	a4,1968(a4) # fffffffffffff7b0 <__global_pointer$+0xfffffffffffeffb0>
    5090:	00e68733          	add	a4,a3,a4
    5094:	7ae7bc23          	sd	a4,1976(a5) # fffffffffffff7b8 <__global_pointer$+0xfffffffffffeffb8>
    5098:	0000a797          	auipc	a5,0xa
    509c:	fdc78793          	addi	a5,a5,-36 # f074 <P3_is_marked>
    50a0:	0007a783          	lw	a5,0(a5)
    50a4:	0007879b          	sext.w	a5,a5
    50a8:	0000a717          	auipc	a4,0xa
    50ac:	f9073703          	ld	a4,-112(a4) # f038 <_GLOBAL_OFFSET_TABLE_+0x10>
    50b0:	00379793          	slli	a5,a5,0x3
    50b4:	00f707b3          	add	a5,a4,a5
    50b8:	fffff737          	lui	a4,0xfffff
    50bc:	ff040693          	addi	a3,s0,-16
    50c0:	00e68733          	add	a4,a3,a4
    50c4:	7a873703          	ld	a4,1960(a4) # fffffffffffff7a8 <__global_pointer$+0xfffffffffffeffa8>
    50c8:	00e7b023          	sd	a4,0(a5)
    50cc:	0000a797          	auipc	a5,0xa
    50d0:	fa878793          	addi	a5,a5,-88 # f074 <P3_is_marked>
    50d4:	0007a783          	lw	a5,0(a5)
    50d8:	0007879b          	sext.w	a5,a5
    50dc:	0017879b          	addiw	a5,a5,1
    50e0:	0007879b          	sext.w	a5,a5
    50e4:	0000a717          	auipc	a4,0xa
    50e8:	f5473703          	ld	a4,-172(a4) # f038 <_GLOBAL_OFFSET_TABLE_+0x10>
    50ec:	00379793          	slli	a5,a5,0x3
    50f0:	00f707b3          	add	a5,a4,a5
    50f4:	fffff737          	lui	a4,0xfffff
    50f8:	ff040693          	addi	a3,s0,-16
    50fc:	00e68733          	add	a4,a3,a4
    5100:	7b073703          	ld	a4,1968(a4) # fffffffffffff7b0 <__global_pointer$+0xfffffffffffeffb0>
    5104:	00e7b023          	sd	a4,0(a5)
    5108:	0000a797          	auipc	a5,0xa
    510c:	f6c78793          	addi	a5,a5,-148 # f074 <P3_is_marked>
    5110:	0007a783          	lw	a5,0(a5)
    5114:	0007879b          	sext.w	a5,a5
    5118:	0027879b          	addiw	a5,a5,2
    511c:	0007879b          	sext.w	a5,a5
    5120:	0000a717          	auipc	a4,0xa
    5124:	f1873703          	ld	a4,-232(a4) # f038 <_GLOBAL_OFFSET_TABLE_+0x10>
    5128:	00379793          	slli	a5,a5,0x3
    512c:	00f707b3          	add	a5,a4,a5
    5130:	fffff737          	lui	a4,0xfffff
    5134:	ff040693          	addi	a3,s0,-16
    5138:	00e68733          	add	a4,a3,a4
    513c:	7b873703          	ld	a4,1976(a4) # fffffffffffff7b8 <__global_pointer$+0xfffffffffffeffb8>
    5140:	00e7b023          	sd	a4,0(a5)
    5144:	0000a797          	auipc	a5,0xa
    5148:	f3078793          	addi	a5,a5,-208 # f074 <P3_is_marked>
    514c:	0007a783          	lw	a5,0(a5)
    5150:	0007879b          	sext.w	a5,a5
    5154:	0037879b          	addiw	a5,a5,3
    5158:	0007871b          	sext.w	a4,a5
    515c:	0000a797          	auipc	a5,0xa
    5160:	f1878793          	addi	a5,a5,-232 # f074 <P3_is_marked>
    5164:	00e7a023          	sw	a4,0(a5)
    5168:	0000a797          	auipc	a5,0xa
    516c:	ea478793          	addi	a5,a5,-348 # f00c <P2_is_marked>
    5170:	0007a783          	lw	a5,0(a5)
    5174:	0007879b          	sext.w	a5,a5
    5178:	00078713          	mv	a4,a5
    517c:	00400793          	li	a5,4
    5180:	1ee7da63          	bge	a5,a4,5374 <main+0x4ca8>
    5184:	0000a797          	auipc	a5,0xa
    5188:	ef078793          	addi	a5,a5,-272 # f074 <P3_is_marked>
    518c:	0007a783          	lw	a5,0(a5)
    5190:	0007879b          	sext.w	a5,a5
    5194:	00078713          	mv	a4,a5
    5198:	00300793          	li	a5,3
    519c:	1ce7cc63          	blt	a5,a4,5374 <main+0x4ca8>
    51a0:	0000a797          	auipc	a5,0xa
    51a4:	eb07b783          	ld	a5,-336(a5) # f050 <_GLOBAL_OFFSET_TABLE_+0x28>
    51a8:	0187b703          	ld	a4,24(a5)
    51ac:	0000a797          	auipc	a5,0xa
    51b0:	ea47b783          	ld	a5,-348(a5) # f050 <_GLOBAL_OFFSET_TABLE_+0x28>
    51b4:	0087b783          	ld	a5,8(a5)
    51b8:	1af71e63          	bne	a4,a5,5374 <main+0x4ca8>
    51bc:	0000a797          	auipc	a5,0xa
    51c0:	e947b783          	ld	a5,-364(a5) # f050 <_GLOBAL_OFFSET_TABLE_+0x28>
    51c4:	0187b703          	ld	a4,24(a5)
    51c8:	0000a797          	auipc	a5,0xa
    51cc:	e887b783          	ld	a5,-376(a5) # f050 <_GLOBAL_OFFSET_TABLE_+0x28>
    51d0:	0207b783          	ld	a5,32(a5)
    51d4:	1af71063          	bne	a4,a5,5374 <main+0x4ca8>
