
lulesh2.0：     文件格式 elf64-littleaarch64


Disassembly of section .init:

0000000000401100 <_init>:
  401100:	d503201f 	nop
  401104:	a9bf7bfd 	stp	x29, x30, [sp, #-16]!
  401108:	910003fd 	mov	x29, sp
  40110c:	940007fe 	bl	403104 <call_weak_fn>
  401110:	a8c17bfd 	ldp	x29, x30, [sp], #16
  401114:	d65f03c0 	ret

Disassembly of section .plt:

0000000000401120 <.plt>:
  401120:	a9bf7bf0 	stp	x16, x30, [sp, #-16]!
  401124:	d0000170 	adrp	x16, 42f000 <__FRAME_END__+0x191c4>
  401128:	f947fe11 	ldr	x17, [x16, #4088]
  40112c:	913fe210 	add	x16, x16, #0xff8
  401130:	d61f0220 	br	x17
  401134:	d503201f 	nop
  401138:	d503201f 	nop
  40113c:	d503201f 	nop

0000000000401140 <_Znam@plt>:
  401140:	f0000170 	adrp	x16, 430000 <_Znam@GLIBCXX_3.4>
  401144:	f9400211 	ldr	x17, [x16]
  401148:	91000210 	add	x16, x16, #0x0
  40114c:	d61f0220 	br	x17

0000000000401150 <puts@plt>:
  401150:	f0000170 	adrp	x16, 430000 <_Znam@GLIBCXX_3.4>
  401154:	f9400611 	ldr	x17, [x16, #8]
  401158:	91002210 	add	x16, x16, #0x8
  40115c:	d61f0220 	br	x17

0000000000401160 <fprintf@plt>:
  401160:	f0000170 	adrp	x16, 430000 <_Znam@GLIBCXX_3.4>
  401164:	f9400a11 	ldr	x17, [x16, #16]
  401168:	91004210 	add	x16, x16, #0x10
  40116c:	d61f0220 	br	x17

0000000000401170 <MPI_Isend@plt>:
  401170:	f0000170 	adrp	x16, 430000 <_Znam@GLIBCXX_3.4>
  401174:	f9400e11 	ldr	x17, [x16, #24]
  401178:	91006210 	add	x16, x16, #0x18
  40117c:	d61f0220 	br	x17

0000000000401180 <strtol@plt>:
  401180:	f0000170 	adrp	x16, 430000 <_Znam@GLIBCXX_3.4>
  401184:	f9401211 	ldr	x17, [x16, #32]
  401188:	91008210 	add	x16, x16, #0x20
  40118c:	d61f0220 	br	x17

0000000000401190 <_ZSt20__throw_length_errorPKc@plt>:
  401190:	f0000170 	adrp	x16, 430000 <_Znam@GLIBCXX_3.4>
  401194:	f9401611 	ldr	x17, [x16, #40]
  401198:	9100a210 	add	x16, x16, #0x28
  40119c:	d61f0220 	br	x17

00000000004011a0 <free@plt>:
  4011a0:	f0000170 	adrp	x16, 430000 <_Znam@GLIBCXX_3.4>
  4011a4:	f9401a11 	ldr	x17, [x16, #48]
  4011a8:	9100c210 	add	x16, x16, #0x30
  4011ac:	d61f0220 	br	x17

00000000004011b0 <rand@plt>:
  4011b0:	f0000170 	adrp	x16, 430000 <_Znam@GLIBCXX_3.4>
  4011b4:	f9401e11 	ldr	x17, [x16, #56]
  4011b8:	9100e210 	add	x16, x16, #0x38
  4011bc:	d61f0220 	br	x17

00000000004011c0 <memset@plt>:
  4011c0:	f0000170 	adrp	x16, 430000 <_Znam@GLIBCXX_3.4>
  4011c4:	f9402211 	ldr	x17, [x16, #64]
  4011c8:	91010210 	add	x16, x16, #0x40
  4011cc:	d61f0220 	br	x17

00000000004011d0 <srand@plt>:
  4011d0:	f0000170 	adrp	x16, 430000 <_Znam@GLIBCXX_3.4>
  4011d4:	f9402611 	ldr	x17, [x16, #72]
  4011d8:	91012210 	add	x16, x16, #0x48
  4011dc:	d61f0220 	br	x17

00000000004011e0 <MPI_Barrier@plt>:
  4011e0:	f0000170 	adrp	x16, 430000 <_Znam@GLIBCXX_3.4>
  4011e4:	f9402a11 	ldr	x17, [x16, #80]
  4011e8:	91014210 	add	x16, x16, #0x50
  4011ec:	d61f0220 	br	x17

00000000004011f0 <__libc_start_main@plt>:
  4011f0:	f0000170 	adrp	x16, 430000 <_Znam@GLIBCXX_3.4>
  4011f4:	f9402e11 	ldr	x17, [x16, #88]
  4011f8:	91016210 	add	x16, x16, #0x58
  4011fc:	d61f0220 	br	x17

0000000000401200 <sprintf@plt>:
  401200:	f0000170 	adrp	x16, 430000 <_Znam@GLIBCXX_3.4>
  401204:	f9403211 	ldr	x17, [x16, #96]
  401208:	91018210 	add	x16, x16, #0x60
  40120c:	d61f0220 	br	x17

0000000000401210 <MPI_Finalize@plt>:
  401210:	f0000170 	adrp	x16, 430000 <_Znam@GLIBCXX_3.4>
  401214:	f9403611 	ldr	x17, [x16, #104]
  401218:	9101a210 	add	x16, x16, #0x68
  40121c:	d61f0220 	br	x17

0000000000401220 <_Znwm@plt>:
  401220:	f0000170 	adrp	x16, 430000 <_Znam@GLIBCXX_3.4>
  401224:	f9403a11 	ldr	x17, [x16, #112]
  401228:	9101c210 	add	x16, x16, #0x70
  40122c:	d61f0220 	br	x17

0000000000401230 <_ZdlPvm@plt>:
  401230:	f0000170 	adrp	x16, 430000 <_Znam@GLIBCXX_3.4>
  401234:	f9403e11 	ldr	x17, [x16, #120]
  401238:	9101e210 	add	x16, x16, #0x78
  40123c:	d61f0220 	br	x17

0000000000401240 <MPI_Abort@plt>:
  401240:	f0000170 	adrp	x16, 430000 <_Znam@GLIBCXX_3.4>
  401244:	f9404211 	ldr	x17, [x16, #128]
  401248:	91020210 	add	x16, x16, #0x80
  40124c:	d61f0220 	br	x17

0000000000401250 <__cxa_atexit@plt>:
  401250:	f0000170 	adrp	x16, 430000 <_Znam@GLIBCXX_3.4>
  401254:	f9404611 	ldr	x17, [x16, #136]
  401258:	91022210 	add	x16, x16, #0x88
  40125c:	d61f0220 	br	x17

0000000000401260 <MPI_Comm_size@plt>:
  401260:	f0000170 	adrp	x16, 430000 <_Znam@GLIBCXX_3.4>
  401264:	f9404a11 	ldr	x17, [x16, #144]
  401268:	91024210 	add	x16, x16, #0x90
  40126c:	d61f0220 	br	x17

0000000000401270 <MPI_Waitall@plt>:
  401270:	f0000170 	adrp	x16, 430000 <_Znam@GLIBCXX_3.4>
  401274:	f9404e11 	ldr	x17, [x16, #152]
  401278:	91026210 	add	x16, x16, #0x98
  40127c:	d61f0220 	br	x17

0000000000401280 <MPI_Allreduce@plt>:
  401280:	f0000170 	adrp	x16, 430000 <_Znam@GLIBCXX_3.4>
  401284:	f9405211 	ldr	x17, [x16, #160]
  401288:	91028210 	add	x16, x16, #0xa0
  40128c:	d61f0220 	br	x17

0000000000401290 <memmove@plt>:
  401290:	f0000170 	adrp	x16, 430000 <_Znam@GLIBCXX_3.4>
  401294:	f9405611 	ldr	x17, [x16, #168]
  401298:	9102a210 	add	x16, x16, #0xa8
  40129c:	d61f0220 	br	x17

00000000004012a0 <MPI_Wtime@plt>:
  4012a0:	f0000170 	adrp	x16, 430000 <_Znam@GLIBCXX_3.4>
  4012a4:	f9405a11 	ldr	x17, [x16, #176]
  4012a8:	9102c210 	add	x16, x16, #0xb0
  4012ac:	d61f0220 	br	x17

00000000004012b0 <_ZdaPv@plt>:
  4012b0:	f0000170 	adrp	x16, 430000 <_Znam@GLIBCXX_3.4>
  4012b4:	f9405e11 	ldr	x17, [x16, #184]
  4012b8:	9102e210 	add	x16, x16, #0xb8
  4012bc:	d61f0220 	br	x17

00000000004012c0 <MPI_Reduce@plt>:
  4012c0:	f0000170 	adrp	x16, 430000 <_Znam@GLIBCXX_3.4>
  4012c4:	f9406211 	ldr	x17, [x16, #192]
  4012c8:	91030210 	add	x16, x16, #0xc0
  4012cc:	d61f0220 	br	x17

00000000004012d0 <MPI_Wait@plt>:
  4012d0:	f0000170 	adrp	x16, 430000 <_Znam@GLIBCXX_3.4>
  4012d4:	f9406611 	ldr	x17, [x16, #200]
  4012d8:	91032210 	add	x16, x16, #0xc8
  4012dc:	d61f0220 	br	x17

00000000004012e0 <MPI_Irecv@plt>:
  4012e0:	f0000170 	adrp	x16, 430000 <_Znam@GLIBCXX_3.4>
  4012e4:	f9406a11 	ldr	x17, [x16, #208]
  4012e8:	91034210 	add	x16, x16, #0xd0
  4012ec:	d61f0220 	br	x17

00000000004012f0 <cbrt@plt>:
  4012f0:	f0000170 	adrp	x16, 430000 <_Znam@GLIBCXX_3.4>
  4012f4:	f9406e11 	ldr	x17, [x16, #216]
  4012f8:	91036210 	add	x16, x16, #0xd8
  4012fc:	d61f0220 	br	x17

0000000000401300 <__cxa_throw_bad_array_new_length@plt>:
  401300:	f0000170 	adrp	x16, 430000 <_Znam@GLIBCXX_3.4>
  401304:	f9407211 	ldr	x17, [x16, #224]
  401308:	91038210 	add	x16, x16, #0xe0
  40130c:	d61f0220 	br	x17

0000000000401310 <MPI_Comm_rank@plt>:
  401310:	f0000170 	adrp	x16, 430000 <_Znam@GLIBCXX_3.4>
  401314:	f9407611 	ldr	x17, [x16, #232]
  401318:	9103a210 	add	x16, x16, #0xe8
  40131c:	d61f0220 	br	x17

0000000000401320 <MPI_Init@plt>:
  401320:	f0000170 	adrp	x16, 430000 <_Znam@GLIBCXX_3.4>
  401324:	f9407a11 	ldr	x17, [x16, #240]
  401328:	9103c210 	add	x16, x16, #0xf0
  40132c:	d61f0220 	br	x17

0000000000401330 <GOMP_parallel@plt>:
  401330:	f0000170 	adrp	x16, 430000 <_Znam@GLIBCXX_3.4>
  401334:	f9407e11 	ldr	x17, [x16, #248]
  401338:	9103e210 	add	x16, x16, #0xf8
  40133c:	d61f0220 	br	x17

0000000000401340 <_ZNSt8ios_base4InitC1Ev@plt>:
  401340:	f0000170 	adrp	x16, 430000 <_Znam@GLIBCXX_3.4>
  401344:	f9408211 	ldr	x17, [x16, #256]
  401348:	91040210 	add	x16, x16, #0x100
  40134c:	d61f0220 	br	x17

0000000000401350 <malloc@plt>:
  401350:	f0000170 	adrp	x16, 430000 <_Znam@GLIBCXX_3.4>
  401354:	f9408611 	ldr	x17, [x16, #264]
  401358:	91042210 	add	x16, x16, #0x108
  40135c:	d61f0220 	br	x17

0000000000401360 <omp_get_thread_num@plt>:
  401360:	f0000170 	adrp	x16, 430000 <_Znam@GLIBCXX_3.4>
  401364:	f9408a11 	ldr	x17, [x16, #272]
  401368:	91044210 	add	x16, x16, #0x110
  40136c:	d61f0220 	br	x17

0000000000401370 <abort@plt>:
  401370:	f0000170 	adrp	x16, 430000 <_Znam@GLIBCXX_3.4>
  401374:	f9408e11 	ldr	x17, [x16, #280]
  401378:	91046210 	add	x16, x16, #0x118
  40137c:	d61f0220 	br	x17

0000000000401380 <__gxx_personality_v0@plt>:
  401380:	f0000170 	adrp	x16, 430000 <_Znam@GLIBCXX_3.4>
  401384:	f9409211 	ldr	x17, [x16, #288]
  401388:	91048210 	add	x16, x16, #0x120
  40138c:	d61f0220 	br	x17

0000000000401390 <omp_get_max_threads@plt>:
  401390:	f0000170 	adrp	x16, 430000 <_Znam@GLIBCXX_3.4>
  401394:	f9409611 	ldr	x17, [x16, #296]
  401398:	9104a210 	add	x16, x16, #0x128
  40139c:	d61f0220 	br	x17

00000000004013a0 <pow@plt>:
  4013a0:	f0000170 	adrp	x16, 430000 <_Znam@GLIBCXX_3.4>
  4013a4:	f9409a11 	ldr	x17, [x16, #304]
  4013a8:	9104c210 	add	x16, x16, #0x130
  4013ac:	d61f0220 	br	x17

00000000004013b0 <fwrite@plt>:
  4013b0:	f0000170 	adrp	x16, 430000 <_Znam@GLIBCXX_3.4>
  4013b4:	f9409e11 	ldr	x17, [x16, #312]
  4013b8:	9104e210 	add	x16, x16, #0x138
  4013bc:	d61f0220 	br	x17

00000000004013c0 <_Unwind_Resume@plt>:
  4013c0:	f0000170 	adrp	x16, 430000 <_Znam@GLIBCXX_3.4>
  4013c4:	f940a211 	ldr	x17, [x16, #320]
  4013c8:	91050210 	add	x16, x16, #0x140
  4013cc:	d61f0220 	br	x17

00000000004013d0 <GOMP_barrier@plt>:
  4013d0:	f0000170 	adrp	x16, 430000 <_Znam@GLIBCXX_3.4>
  4013d4:	f940a611 	ldr	x17, [x16, #328]
  4013d8:	91052210 	add	x16, x16, #0x148
  4013dc:	d61f0220 	br	x17

00000000004013e0 <omp_get_num_threads@plt>:
  4013e0:	f0000170 	adrp	x16, 430000 <_Znam@GLIBCXX_3.4>
  4013e4:	f940aa11 	ldr	x17, [x16, #336]
  4013e8:	91054210 	add	x16, x16, #0x150
  4013ec:	d61f0220 	br	x17

00000000004013f0 <__gmon_start__@plt>:
  4013f0:	f0000170 	adrp	x16, 430000 <_Znam@GLIBCXX_3.4>
  4013f4:	f940ae11 	ldr	x17, [x16, #344]
  4013f8:	91056210 	add	x16, x16, #0x158
  4013fc:	d61f0220 	br	x17

0000000000401400 <printf@plt>:
  401400:	f0000170 	adrp	x16, 430000 <_Znam@GLIBCXX_3.4>
  401404:	f940b211 	ldr	x17, [x16, #352]
  401408:	91058210 	add	x16, x16, #0x160
  40140c:	d61f0220 	br	x17

0000000000401410 <sqrt@plt>:
  401410:	f0000170 	adrp	x16, 430000 <_Znam@GLIBCXX_3.4>
  401414:	f940b611 	ldr	x17, [x16, #360]
  401418:	9105a210 	add	x16, x16, #0x168
  40141c:	d61f0220 	br	x17

Disassembly of section .text:

0000000000401440 <main>:
  401440:	d11143ff 	sub	sp, sp, #0x450
  401444:	a9017bfd 	stp	x29, x30, [sp, #16]
  401448:	910043fd 	add	x29, sp, #0x10
  40144c:	a9056bf9 	stp	x25, x26, [sp, #80]
  401450:	f900dbe1 	str	x1, [sp, #432]
  401454:	9106c3e1 	add	x1, sp, #0x1b0
  401458:	b901bfe0 	str	w0, [sp, #444]
  40145c:	9106f3e0 	add	x0, sp, #0x1bc
  401460:	97ffffb0 	bl	401320 <MPI_Init@plt>
  401464:	910703e1 	add	x1, sp, #0x1c0
  401468:	52a88000 	mov	w0, #0x44000000            	// #1140850688
  40146c:	97ffff7d 	bl	401260 <MPI_Comm_size@plt>
  401470:	910713e1 	add	x1, sp, #0x1c4
  401474:	52a88000 	mov	w0, #0x44000000            	// #1140850688
  401478:	97ffffa6 	bl	401310 <MPI_Comm_rank@plt>
  40147c:	f90127ff 	str	xzr, [sp, #584]
  401480:	b941c3e4 	ldr	w4, [sp, #448]
  401484:	5291c725 	mov	w5, #0x8e39                	// #36409
  401488:	72a71c65 	movk	w5, #0x38e3, lsl #16
  40148c:	d0000083 	adrp	x3, 413000 <_ZN6DomainC1Eiiiiiiiii+0x1200>
  401490:	11002884 	add	w4, w4, #0xa
  401494:	b941bfe0 	ldr	w0, [sp, #444]
  401498:	fd47cc61 	ldr	d1, [x3, #3992]
  40149c:	d0000083 	adrp	x3, 413000 <_ZN6DomainC1Eiiiiiiiii+0x1200>
  4014a0:	b941c7e2 	ldr	w2, [sp, #452]
  4014a4:	52800167 	mov	w7, #0xb                   	// #11
  4014a8:	9b257c85 	smull	x5, w4, w5
  4014ac:	fd47d060 	ldr	d0, [x3, #4000]
  4014b0:	f940dbe1 	ldr	x1, [sp, #432]
  4014b4:	52800026 	mov	w6, #0x1                   	// #1
  4014b8:	9361fca5 	asr	x5, x5, #33
  4014bc:	9108e3e3 	add	x3, sp, #0x238
  4014c0:	4b847ca4 	sub	w4, w5, w4, asr #31
  4014c4:	fd011fe1 	str	d1, [sp, #568]
  4014c8:	b90243e7 	str	w7, [sp, #576]
  4014cc:	b90247e4 	str	w4, [sp, #580]
  4014d0:	fd012be0 	str	d0, [sp, #592]
  4014d4:	b9025be6 	str	w6, [sp, #600]
  4014d8:	94003af2 	bl	4100a0 <_Z23ParseCommandLineOptionsiPPciP11cmdLineOpts>
  4014dc:	b941c7e1 	ldr	w1, [sp, #452]
  4014e0:	b9424fe0 	ldr	w0, [sp, #588]
  4014e4:	2a000020 	orr	w0, w1, w0
  4014e8:	3400d400 	cbz	w0, 402f68 <main+0x1b28>
  4014ec:	b941c3e0 	ldr	w0, [sp, #448]
  4014f0:	910753e5 	add	x5, sp, #0x1d4
  4014f4:	910743e4 	add	x4, sp, #0x1d0
  4014f8:	910733e3 	add	x3, sp, #0x1cc
  4014fc:	910723e2 	add	x2, sp, #0x1c8
  401500:	9400413c 	bl	4119f0 <_Z14InitMeshDecompiiPiS_S_S_>
  401504:	d280d200 	mov	x0, #0x690                 	// #1680
  401508:	97ffff46 	bl	401220 <_Znwm@plt>
  40150c:	910743ee 	add	x14, sp, #0x1d0
  401510:	910933ef 	add	x15, sp, #0x24c
  401514:	b941c3e1 	ldr	w1, [sp, #448]
  401518:	aa0003f9 	mov	x25, x0
  40151c:	297f0dc2 	ldp	w2, w3, [x14, #-8]
  401520:	294019c4 	ldp	w4, w6, [x14]
  401524:	297e1de5 	ldp	w5, w7, [x15, #-16]
  401528:	294125e8 	ldp	w8, w9, [x15, #8]
  40152c:	b90003e9 	str	w9, [sp]
  401530:	b9000be8 	str	w8, [sp, #8]
  401534:	94004233 	bl	411e00 <_ZN6DomainC1Eiiiiiiiii>
  401538:	d0000168 	adrp	x8, 42f000 <__FRAME_END__+0x191c4>
  40153c:	b9464f23 	ldr	w3, [x25, #1612]
  401540:	b9465324 	ldr	w4, [x25, #1616]
  401544:	aa1903e0 	mov	x0, x25
  401548:	f947d508 	ldr	x8, [x8, #4008]
  40154c:	11000463 	add	w3, w3, #0x1
  401550:	b9465725 	ldr	w5, [x25, #1620]
  401554:	11000484 	add	w4, w4, #0x1
  401558:	52800007 	mov	w7, #0x0                   	// #0
  40155c:	52800026 	mov	w6, #0x1                   	// #1
  401560:	110004a5 	add	w5, w5, #0x1
  401564:	52800022 	mov	w2, #0x1                   	// #1
  401568:	52808001 	mov	w1, #0x400                 	// #1024
  40156c:	a90253f3 	stp	x19, x20, [sp, #32]
  401570:	9108a3f3 	add	x19, sp, #0x228
  401574:	a90673fb 	stp	x27, x28, [sp, #96]
  401578:	910d43fb 	add	x27, sp, #0x350
  40157c:	6d0727e8 	stp	d8, d9, [sp, #112]
  401580:	f90117e8 	str	x8, [sp, #552]
  401584:	f9011bff 	str	xzr, [sp, #560]
  401588:	94001dd2 	bl	408cd0 <_Z8CommRecvR6Domainiiiiibb>
  40158c:	b9464f24 	ldr	w4, [x25, #1612]
  401590:	aa1303e3 	mov	x3, x19
  401594:	b9465325 	ldr	w5, [x25, #1616]
  401598:	52800027 	mov	w7, #0x1                   	// #1
  40159c:	b9465726 	ldr	w6, [x25, #1620]
  4015a0:	11000484 	add	w4, w4, #0x1
  4015a4:	390003ff 	strb	wzr, [sp]
  4015a8:	110004a5 	add	w5, w5, #0x1
  4015ac:	110004c6 	add	w6, w6, #0x1
  4015b0:	aa1903e0 	mov	x0, x25
  4015b4:	52800022 	mov	w2, #0x1                   	// #1
  4015b8:	52808001 	mov	w1, #0x400                 	// #1024
  4015bc:	94002199 	bl	409c20 <_Z8CommSendR6DomainiiPMS_FRdiEiiibb>
  4015c0:	aa1303e2 	mov	x2, x19
  4015c4:	52800021 	mov	w1, #0x1                   	// #1
  4015c8:	aa1903e0 	mov	x0, x25
  4015cc:	94002b35 	bl	40c2a0 <_Z7CommSBNR6DomainiPMS_FRdiE>
  4015d0:	52a88000 	mov	w0, #0x44000000            	// #1140850688
  4015d4:	97ffff03 	bl	4011e0 <MPI_Barrier@plt>
  4015d8:	97ffff32 	bl	4012a0 <MPI_Wtime@plt>
  4015dc:	fd00d7e0 	str	d0, [sp, #424]
  4015e0:	fd430721 	ldr	d1, [x25, #1544]
  4015e4:	fd431b29 	ldr	d9, [x25, #1584]
  4015e8:	1e612130 	fcmpe	d9, d1
  4015ec:	5400004c 	b.gt	4015f4 <main+0x1b4>
  4015f0:	1400014f 	b	401b2c <main+0x6ec>
  4015f4:	aa1903fa 	mov	x26, x25
  4015f8:	aa1b03fc 	mov	x28, x27
  4015fc:	a9035bf5 	stp	x21, x22, [sp, #48]
  401600:	a90463f7 	stp	x23, x24, [sp, #64]
  401604:	6d082fea 	stp	d10, d11, [sp, #128]
  401608:	6d0937ec 	stp	d12, d13, [sp, #144]
  40160c:	6d0a3fee 	stp	d14, d15, [sp, #160]
  401610:	b945fb40 	ldr	w0, [x26, #1528]
  401614:	b9423be1 	ldr	w1, [sp, #568]
  401618:	6b01001f 	cmp	w0, w1
  40161c:	540027aa 	b.ge	401b10 <main+0x6d0>  // b.tcont
  401620:	fd430340 	ldr	d0, [x26, #1536]
  401624:	1e613929 	fsub	d9, d9, d1
  401628:	fd430b48 	ldr	d8, [x26, #1552]
  40162c:	1e602018 	fcmpe	d0, #0.0
  401630:	7a409804 	ccmp	w0, #0x0, #0x4, ls  // ls = plast
  401634:	5400a281 	b.ne	402a84 <main+0x1644>  // b.any
  401638:	1e682130 	fcmpe	d9, d8
  40163c:	540089ec 	b.gt	402778 <main+0x1338>
  401640:	1e682130 	fcmpe	d9, d8
  401644:	54008ae4 	b.mi	4027a0 <main+0x1360>  // b.first
  401648:	1e682821 	fadd	d1, d1, d8
  40164c:	b9465344 	ldr	w4, [x26, #1616]
  401650:	b9465745 	ldr	w5, [x26, #1620]
  401654:	11000409 	add	w9, w0, #0x1
  401658:	fd42bb49 	ldr	d9, [x26, #1392]
  40165c:	11000484 	add	w4, w4, #0x1
  401660:	b9464f43 	ldr	w3, [x26, #1612]
  401664:	110004a5 	add	w5, w5, #0x1
  401668:	b905fb49 	str	w9, [x26, #1528]
  40166c:	52800007 	mov	w7, #0x0                   	// #0
  401670:	52800026 	mov	w6, #0x1                   	// #1
  401674:	b9465f53 	ldr	w19, [x26, #1628]
  401678:	aa1a03e0 	mov	x0, x26
  40167c:	11000463 	add	w3, w3, #0x1
  401680:	52800062 	mov	w2, #0x3                   	// #3
  401684:	52808001 	mov	w1, #0x400                 	// #1024
  401688:	fd030741 	str	d1, [x26, #1544]
  40168c:	94001d91 	bl	408cd0 <_Z8CommRecvR6Domainiiiiibb>
  401690:	aa1c03e1 	mov	x1, x28
  401694:	52800003 	mov	w3, #0x0                   	// #0
  401698:	d0000000 	adrp	x0, 403000 <main+0x1bc0>
  40169c:	52800002 	mov	w2, #0x0                   	// #0
  4016a0:	91074000 	add	x0, x0, #0x1d0
  4016a4:	f901abfa 	str	x26, [sp, #848]
  4016a8:	b9035bf3 	str	w19, [sp, #856]
  4016ac:	97ffff21 	bl	401330 <GOMP_parallel@plt>
  4016b0:	b9465b58 	ldr	w24, [x26, #1624]
  4016b4:	350087d8 	cbnz	w24, 4027ac <main+0x136c>
  4016b8:	d000016b 	adrp	x11, 42f000 <__FRAME_END__+0x191c4>
  4016bc:	d000016a 	adrp	x10, 42f000 <__FRAME_END__+0x191c4>
  4016c0:	d0000169 	adrp	x9, 42f000 <__FRAME_END__+0x191c4>
  4016c4:	910d43ed 	add	x13, sp, #0x350
  4016c8:	f947cd6b 	ldr	x11, [x11, #3992]
  4016cc:	aa1c03e3 	mov	x3, x28
  4016d0:	f947c14a 	ldr	x10, [x10, #3968]
  4016d4:	52800027 	mov	w7, #0x1                   	// #1
  4016d8:	f947ed29 	ldr	x9, [x9, #4056]
  4016dc:	aa1a03e0 	mov	x0, x26
  4016e0:	b9464f44 	ldr	w4, [x26, #1612]
  4016e4:	52800062 	mov	w2, #0x3                   	// #3
  4016e8:	b9465345 	ldr	w5, [x26, #1616]
  4016ec:	52808001 	mov	w1, #0x400                 	// #1024
  4016f0:	b9465746 	ldr	w6, [x26, #1620]
  4016f4:	11000484 	add	w4, w4, #0x1
  4016f8:	390003ff 	strb	wzr, [sp]
  4016fc:	110004a5 	add	w5, w5, #0x1
  401700:	110004c6 	add	w6, w6, #0x1
  401704:	a9007dab 	stp	x11, xzr, [x13]
  401708:	a9017daa 	stp	x10, xzr, [x13, #16]
  40170c:	f901bbe9 	str	x9, [sp, #880]
  401710:	f901bfff 	str	xzr, [sp, #888]
  401714:	94002143 	bl	409c20 <_Z8CommSendR6DomainiiPMS_FRdiEiiibb>
  401718:	aa1c03e2 	mov	x2, x28
  40171c:	aa1a03e0 	mov	x0, x26
  401720:	52800061 	mov	w1, #0x3                   	// #3
  401724:	94002adf 	bl	40c2a0 <_Z7CommSBNR6DomainiPMS_FRdiE>
  401728:	b9464f43 	ldr	w3, [x26, #1612]
  40172c:	52800007 	mov	w7, #0x0                   	// #0
  401730:	b9465344 	ldr	w4, [x26, #1616]
  401734:	52800006 	mov	w6, #0x0                   	// #0
  401738:	b9465745 	ldr	w5, [x26, #1620]
  40173c:	aa1a03e0 	mov	x0, x26
  401740:	11000484 	add	w4, w4, #0x1
  401744:	11000463 	add	w3, w3, #0x1
  401748:	110004a5 	add	w5, w5, #0x1
  40174c:	528000c2 	mov	w2, #0x6                   	// #6
  401750:	52810001 	mov	w1, #0x800                 	// #2048
  401754:	94001d5f 	bl	408cd0 <_Z8CommRecvR6Domainiiiiibb>
  401758:	b9465f44 	ldr	w4, [x26, #1628]
  40175c:	aa1c03e1 	mov	x1, x28
  401760:	52800003 	mov	w3, #0x0                   	// #0
  401764:	52800002 	mov	w2, #0x0                   	// #0
  401768:	f0000000 	adrp	x0, 404000 <_ZL28CalcFBHourglassForceForElemsR6DomainPdS1_S1_S1_S1_S1_S1_dii._omp_fn.0+0x860>
  40176c:	91155000 	add	x0, x0, #0x554
  401770:	f901abfa 	str	x26, [sp, #848]
  401774:	b9035be4 	str	w4, [sp, #856]
  401778:	97fffeee 	bl	401330 <GOMP_parallel@plt>
  40177c:	b9464f44 	ldr	w4, [x26, #1612]
  401780:	aa1c03e1 	mov	x1, x28
  401784:	52800003 	mov	w3, #0x0                   	// #0
  401788:	52800002 	mov	w2, #0x0                   	// #0
  40178c:	11000484 	add	w4, w4, #0x1
  401790:	f0000000 	adrp	x0, 404000 <_ZL28CalcFBHourglassForceForElemsR6DomainPdS1_S1_S1_S1_S1_S1_dii._omp_fn.0+0x860>
  401794:	91184000 	add	x0, x0, #0x610
  401798:	f901abfa 	str	x26, [sp, #848]
  40179c:	1b047c84 	mul	w4, w4, w4
  4017a0:	b9035be4 	str	w4, [sp, #856]
  4017a4:	97fffee3 	bl	401330 <GOMP_parallel@plt>
  4017a8:	f901abfa 	str	x26, [sp, #848]
  4017ac:	b9465f44 	ldr	w4, [x26, #1628]
  4017b0:	aa1c03e1 	mov	x1, x28
  4017b4:	52800003 	mov	w3, #0x0                   	// #0
  4017b8:	52800002 	mov	w2, #0x0                   	// #0
  4017bc:	f0000000 	adrp	x0, 404000 <_ZL28CalcFBHourglassForceForElemsR6DomainPdS1_S1_S1_S1_S1_S1_dii._omp_fn.0+0x860>
  4017c0:	911dd000 	add	x0, x0, #0x774
  4017c4:	fd01afe8 	str	d8, [sp, #856]
  4017c8:	fd01b3e9 	str	d9, [sp, #864]
  4017cc:	b9036be4 	str	w4, [sp, #872]
  4017d0:	97fffed8 	bl	401330 <GOMP_parallel@plt>
  4017d4:	b9465f44 	ldr	w4, [x26, #1628]
  4017d8:	aa1c03e1 	mov	x1, x28
  4017dc:	52800003 	mov	w3, #0x0                   	// #0
  4017e0:	52800002 	mov	w2, #0x0                   	// #0
  4017e4:	f0000000 	adrp	x0, 404000 <_ZL28CalcFBHourglassForceForElemsR6DomainPdS1_S1_S1_S1_S1_S1_dii._omp_fn.0+0x860>
  4017e8:	91221000 	add	x0, x0, #0x884
  4017ec:	f901abfa 	str	x26, [sp, #848]
  4017f0:	fd01afe8 	str	d8, [sp, #856]
  4017f4:	b90363e4 	str	w4, [sp, #864]
  4017f8:	97fffece 	bl	401330 <GOMP_parallel@plt>
  4017fc:	910d43ef 	add	x15, sp, #0x350
  401800:	d000016e 	adrp	x14, 42f000 <__FRAME_END__+0x191c4>
  401804:	d000016d 	adrp	x13, 42f000 <__FRAME_END__+0x191c4>
  401808:	910dc3f0 	add	x16, sp, #0x370
  40180c:	d000016c 	adrp	x12, 42f000 <__FRAME_END__+0x191c4>
  401810:	d000016b 	adrp	x11, 42f000 <__FRAME_END__+0x191c4>
  401814:	d000016a 	adrp	x10, 42f000 <__FRAME_END__+0x191c4>
  401818:	d0000169 	adrp	x9, 42f000 <__FRAME_END__+0x191c4>
  40181c:	910e43f1 	add	x17, sp, #0x390
  401820:	b9464f44 	ldr	w4, [x26, #1612]
  401824:	f947bdce 	ldr	x14, [x14, #3960]
  401828:	aa1c03e3 	mov	x3, x28
  40182c:	f947c9ad 	ldr	x13, [x13, #3984]
  401830:	11000484 	add	w4, w4, #0x1
  401834:	b9465345 	ldr	w5, [x26, #1616]
  401838:	52800007 	mov	w7, #0x0                   	// #0
  40183c:	b9465746 	ldr	w6, [x26, #1620]
  401840:	528000c2 	mov	w2, #0x6                   	// #6
  401844:	390003ff 	strb	wzr, [sp]
  401848:	110004a5 	add	w5, w5, #0x1
  40184c:	f947ad8c 	ldr	x12, [x12, #3928]
  401850:	a9007dee 	stp	x14, xzr, [x15]
  401854:	110004c6 	add	w6, w6, #0x1
  401858:	f947b56b 	ldr	x11, [x11, #3944]
  40185c:	a9017ded 	stp	x13, xzr, [x15, #16]
  401860:	52810001 	mov	w1, #0x800                 	// #2048
  401864:	f947b94a 	ldr	x10, [x10, #3952]
  401868:	a9007e0c 	stp	x12, xzr, [x16]
  40186c:	aa1a03e0 	mov	x0, x26
  401870:	f947b129 	ldr	x9, [x9, #3936]
  401874:	a9017e0b 	stp	x11, xzr, [x16, #16]
  401878:	a9007e2a 	stp	x10, xzr, [x17]
  40187c:	a9017e29 	stp	x9, xzr, [x17, #16]
  401880:	940020e8 	bl	409c20 <_Z8CommSendR6DomainiiPMS_FRdiEiiibb>
  401884:	aa1a03e0 	mov	x0, x26
  401888:	9400338e 	bl	40e6c0 <_Z14CommSyncPosVelR6Domain>
  40188c:	b9465b55 	ldr	w21, [x26, #1624]
  401890:	b901bbf5 	str	w21, [sp, #440]
  401894:	2a1503f6 	mov	w22, w21
  401898:	937d7eb4 	sbfiz	x20, x21, #3, #32
  40189c:	93407eb3 	sxtw	x19, w21
  4018a0:	aa1403e0 	mov	x0, x20
  4018a4:	97fffeab 	bl	401350 <malloc@plt>
  4018a8:	aa0003f8 	mov	x24, x0
  4018ac:	710002bf 	cmp	w21, #0x0
  4018b0:	5400178c 	b.gt	401ba0 <main+0x760>
  4018b4:	35002016 	cbnz	w22, 401cb4 <main+0x874>
  4018b8:	b941bbe0 	ldr	w0, [sp, #440]
  4018bc:	350071e0 	cbnz	w0, 4026f8 <main+0x12b8>
  4018c0:	b4000078 	cbz	x24, 4018cc <main+0x48c>
  4018c4:	aa1803e0 	mov	x0, x24
  4018c8:	97fffe36 	bl	4011a0 <free@plt>
  4018cc:	d0000080 	adrp	x0, 413000 <_ZN6DomainC1Eiiiiiiiii+0x1200>
  4018d0:	b9426341 	ldr	w1, [x26, #608]
  4018d4:	9117a342 	add	x2, x26, #0x5e8
  4018d8:	f90067e2 	str	x2, [sp, #200]
  4018dc:	3dc3f000 	ldr	q0, [x0, #4032]
  4018e0:	91180340 	add	x0, x26, #0x600
  4018e4:	d2800013 	mov	x19, #0x0                   	// #0
  4018e8:	f0000175 	adrp	x21, 430000 <_Znam@GLIBCXX_3.4>
  4018ec:	3c9e8000 	stur	q0, [x0, #-24]
  4018f0:	7100003f 	cmp	w1, #0x0
  4018f4:	54000fad 	b.le	401ae8 <main+0x6a8>
  4018f8:	f0000174 	adrp	x20, 430000 <_Znam@GLIBCXX_3.4>
  4018fc:	910602b5 	add	x21, x21, #0x180
  401900:	91066280 	add	x0, x20, #0x198
  401904:	aa1a03f6 	mov	x22, x26
  401908:	b000003b 	adrp	x27, 406000 <_ZL18CalcEnergyForElemsPdS_S_S_S_S_S_S_S_S_S_S_S_dddddS_S_ddiPi._omp_fn.1+0xec>
  40190c:	f9005fe0 	str	x0, [sp, #184]
  401910:	912a0360 	add	x0, x27, #0xa80
  401914:	f9006be0 	str	x0, [sp, #208]
  401918:	f94136c1 	ldr	x1, [x22, #616]
  40191c:	d37ef678 	lsl	x24, x19, #2
  401920:	f9413ec0 	ldr	x0, [x22, #632]
  401924:	d37df279 	lsl	x25, x19, #3
  401928:	fd42dac8 	ldr	d8, [x22, #1456]
  40192c:	b873783b 	ldr	w27, [x1, x19, lsl #2]
  401930:	f873781a 	ldr	x26, [x0, x19, lsl #3]
  401934:	97fffe97 	bl	401390 <omp_get_max_threads@plt>
  401938:	394002a1 	ldrb	w1, [x21]
  40193c:	2a0003f7 	mov	w23, w0
  401940:	34000221 	cbz	w1, 401984 <main+0x544>
  401944:	93407c01 	sxtw	x1, w0
  401948:	b27fefe0 	mov	x0, #0x1ffffffffffffffe    	// #2305843009213693950
  40194c:	eb00003f 	cmp	x1, x0
  401950:	5400b828 	b.hi	403054 <main+0x1c14>  // b.pmore
  401954:	d37ef420 	lsl	x0, x1, #2
  401958:	f90063e1 	str	x1, [sp, #192]
  40195c:	97fffdf9 	bl	401140 <_Znam@plt>
  401960:	aa0003e2 	mov	x2, x0
  401964:	f94063e1 	ldr	x1, [sp, #192]
  401968:	d37df020 	lsl	x0, x1, #3
  40196c:	f9405fe1 	ldr	x1, [sp, #184]
  401970:	f9000422 	str	x2, [x1, #8]
  401974:	97fffdf3 	bl	401140 <_Znam@plt>
  401978:	f9405fe1 	ldr	x1, [sp, #184]
  40197c:	390002bf 	strb	wzr, [x21]
  401980:	f9000020 	str	x0, [x1]
  401984:	a94c83e4 	ldp	x4, x0, [sp, #200]
  401988:	aa1c03e1 	mov	x1, x28
  40198c:	52800003 	mov	w3, #0x0                   	// #0
  401990:	52800002 	mov	w2, #0x0                   	// #0
  401994:	f901abf6 	str	x22, [sp, #848]
  401998:	f901affa 	str	x26, [sp, #856]
  40199c:	f901b3e4 	str	x4, [sp, #864]
  4019a0:	fd01b7e8 	str	d8, [sp, #872]
  4019a4:	b90373fb 	str	w27, [sp, #880]
  4019a8:	97fffe62 	bl	401330 <GOMP_parallel@plt>
  4019ac:	91066280 	add	x0, x20, #0x198
  4019b0:	710006ff 	cmp	w23, #0x1
  4019b4:	54006ded 	b.le	402770 <main+0x1330>
  4019b8:	f940ce82 	ldr	x2, [x20, #408]
  4019bc:	d2800021 	mov	x1, #0x1                   	// #1
  4019c0:	f9400400 	ldr	x0, [x0, #8]
  4019c4:	fd400041 	ldr	d1, [x2]
  4019c8:	fc617840 	ldr	d0, [x2, x1, lsl #3]
  4019cc:	1e612010 	fcmpe	d0, d1
  4019d0:	54006b84 	b.mi	402740 <main+0x1300>  // b.first
  4019d4:	91000421 	add	x1, x1, #0x1
  4019d8:	6b0102ff 	cmp	w23, w1
  4019dc:	54ffff6c 	b.gt	4019c8 <main+0x588>
  4019e0:	b9400000 	ldr	w0, [x0]
  4019e4:	3100041f 	cmn	w0, #0x1
  4019e8:	54000080 	b.eq	4019f8 <main+0x5b8>  // b.none
  4019ec:	f940ce80 	ldr	x0, [x20, #408]
  4019f0:	fd400000 	ldr	d0, [x0]
  4019f4:	fd02f6c0 	str	d0, [x22, #1512]
  4019f8:	f94136c1 	ldr	x1, [x22, #616]
  4019fc:	9117c2db 	add	x27, x22, #0x5f0
  401a00:	f9413ec0 	ldr	x0, [x22, #632]
  401a04:	fd42eec8 	ldr	d8, [x22, #1496]
  401a08:	b8786838 	ldr	w24, [x1, x24]
  401a0c:	f8796819 	ldr	x25, [x0, x25]
  401a10:	97fffe60 	bl	401390 <omp_get_max_threads@plt>
  401a14:	394006a1 	ldrb	w1, [x21, #1]
  401a18:	2a0003f7 	mov	w23, w0
  401a1c:	34000201 	cbz	w1, 401a5c <main+0x61c>
  401a20:	93407c01 	sxtw	x1, w0
  401a24:	b27fefe0 	mov	x0, #0x1ffffffffffffffe    	// #2305843009213693950
  401a28:	eb00003f 	cmp	x1, x0
  401a2c:	5400b148 	b.hi	403054 <main+0x1c14>  // b.pmore
  401a30:	d37ef420 	lsl	x0, x1, #2
  401a34:	f90063e1 	str	x1, [sp, #192]
  401a38:	97fffdc2 	bl	401140 <_Znam@plt>
  401a3c:	9106629a 	add	x26, x20, #0x198
  401a40:	f94063e1 	ldr	x1, [sp, #192]
  401a44:	aa0003e2 	mov	x2, x0
  401a48:	f9000f42 	str	x2, [x26, #24]
  401a4c:	d37df020 	lsl	x0, x1, #3
  401a50:	97fffdbc 	bl	401140 <_Znam@plt>
  401a54:	390006bf 	strb	wzr, [x21, #1]
  401a58:	f9000b40 	str	x0, [x26, #16]
  401a5c:	aa1c03e1 	mov	x1, x28
  401a60:	b0000020 	adrp	x0, 406000 <_ZL18CalcEnergyForElemsPdS_S_S_S_S_S_S_S_S_S_S_S_dddddS_S_ddiPi._omp_fn.1+0xec>
  401a64:	52800003 	mov	w3, #0x0                   	// #0
  401a68:	912f9000 	add	x0, x0, #0xbe4
  401a6c:	52800002 	mov	w2, #0x0                   	// #0
  401a70:	f901abf6 	str	x22, [sp, #848]
  401a74:	f901aff9 	str	x25, [sp, #856]
  401a78:	f901b3fb 	str	x27, [sp, #864]
  401a7c:	fd01b7e8 	str	d8, [sp, #872]
  401a80:	b90373f8 	str	w24, [sp, #880]
  401a84:	97fffe2b 	bl	401330 <GOMP_parallel@plt>
  401a88:	91066280 	add	x0, x20, #0x198
  401a8c:	710006ff 	cmp	w23, #0x1
  401a90:	540066cd 	b.le	402768 <main+0x1328>
  401a94:	a9410002 	ldp	x2, x0, [x0, #16]
  401a98:	d2800021 	mov	x1, #0x1                   	// #1
  401a9c:	fd400041 	ldr	d1, [x2]
  401aa0:	fc617840 	ldr	d0, [x2, x1, lsl #3]
  401aa4:	1e612010 	fcmpe	d0, d1
  401aa8:	54006424 	b.mi	40272c <main+0x12ec>  // b.first
  401aac:	91000421 	add	x1, x1, #0x1
  401ab0:	6b0102ff 	cmp	w23, w1
  401ab4:	54ffff6c 	b.gt	401aa0 <main+0x660>
  401ab8:	b9400000 	ldr	w0, [x0]
  401abc:	3100041f 	cmn	w0, #0x1
  401ac0:	540064a0 	b.eq	402754 <main+0x1314>  // b.none
  401ac4:	91066280 	add	x0, x20, #0x198
  401ac8:	b94262c1 	ldr	w1, [x22, #608]
  401acc:	91000673 	add	x19, x19, #0x1
  401ad0:	f9400800 	ldr	x0, [x0, #16]
  401ad4:	fd400000 	ldr	d0, [x0]
  401ad8:	fd02fac0 	str	d0, [x22, #1520]
  401adc:	6b13003f 	cmp	w1, w19
  401ae0:	54fff1cc 	b.gt	401918 <main+0x4d8>
  401ae4:	aa1603fa 	mov	x26, x22
  401ae8:	b9424be0 	ldr	w0, [sp, #584]
  401aec:	340000a0 	cbz	w0, 401b00 <main+0x6c0>
  401af0:	b941c7e1 	ldr	w1, [sp, #452]
  401af4:	b9424fe0 	ldr	w0, [sp, #588]
  401af8:	2a010000 	orr	w0, w0, w1
  401afc:	3400a080 	cbz	w0, 402f0c <main+0x1acc>
  401b00:	fd430741 	ldr	d1, [x26, #1544]
  401b04:	fd431b49 	ldr	d9, [x26, #1584]
  401b08:	1e692030 	fcmpe	d1, d9
  401b0c:	54ffd824 	b.mi	401610 <main+0x1d0>  // b.first
  401b10:	a9435bf5 	ldp	x21, x22, [sp, #48]
  401b14:	aa1a03f9 	mov	x25, x26
  401b18:	a94463f7 	ldp	x23, x24, [sp, #64]
  401b1c:	aa1c03fb 	mov	x27, x28
  401b20:	6d482fea 	ldp	d10, d11, [sp, #128]
  401b24:	6d4937ec 	ldp	d12, d13, [sp, #144]
  401b28:	6d4a3fee 	ldp	d14, d15, [sp, #160]
  401b2c:	97fffddd 	bl	4012a0 <MPI_Wtime@plt>
  401b30:	fd40d7e1 	ldr	d1, [sp, #424]
  401b34:	52800024 	mov	w4, #0x1                   	// #1
  401b38:	52810163 	mov	w3, #0x80b                 	// #2059
  401b3c:	aa1b03e1 	mov	x1, x27
  401b40:	910b83e0 	add	x0, sp, #0x2e0
  401b44:	72ab0004 	movk	w4, #0x5800, lsl #16
  401b48:	1e613800 	fsub	d0, d0, d1
  401b4c:	72a98003 	movk	w3, #0x4c00, lsl #16
  401b50:	52a88006 	mov	w6, #0x44000000            	// #1140850688
  401b54:	52800005 	mov	w5, #0x0                   	// #0
  401b58:	52800022 	mov	w2, #0x1                   	// #1
  401b5c:	fd0173e0 	str	d0, [sp, #736]
  401b60:	97fffdd8 	bl	4012c0 <MPI_Reduce@plt>
  401b64:	b94253e0 	ldr	w0, [sp, #592]
  401b68:	35009e80 	cbnz	w0, 402f38 <main+0x1af8>
  401b6c:	b941c7e0 	ldr	w0, [sp, #452]
  401b70:	b9424fe1 	ldr	w1, [sp, #588]
  401b74:	2a010000 	orr	w0, w0, w1
  401b78:	34009ec0 	cbz	w0, 402f50 <main+0x1b10>
  401b7c:	97fffda5 	bl	401210 <MPI_Finalize@plt>
  401b80:	52800000 	mov	w0, #0x0                   	// #0
  401b84:	a9417bfd 	ldp	x29, x30, [sp, #16]
  401b88:	a94253f3 	ldp	x19, x20, [sp, #32]
  401b8c:	a9456bf9 	ldp	x25, x26, [sp, #80]
  401b90:	a94673fb 	ldp	x27, x28, [sp, #96]
  401b94:	6d4727e8 	ldp	d8, d9, [sp, #112]
  401b98:	911143ff 	add	sp, sp, #0x450
  401b9c:	d65f03c0 	ret
  401ba0:	f941a340 	ldr	x0, [x26, #832]
  401ba4:	910d0355 	add	x21, x26, #0x340
  401ba8:	f94006a2 	ldr	x2, [x21, #8]
  401bac:	fd430b48 	ldr	d8, [x26, #1552]
  401bb0:	cb000041 	sub	x1, x2, x0
  401bb4:	9343fc21 	asr	x1, x1, #3
  401bb8:	eb01027f 	cmp	x19, x1
  401bbc:	54007c88 	b.hi	402b4c <main+0x170c>  // b.pmore
  401bc0:	540000a2 	b.cs	401bd4 <main+0x794>  // b.hs, b.nlast
  401bc4:	8b140000 	add	x0, x0, x20
  401bc8:	eb00005f 	cmp	x2, x0
  401bcc:	54000040 	b.eq	401bd4 <main+0x794>  // b.none
  401bd0:	f90006a0 	str	x0, [x21, #8]
  401bd4:	f941af40 	ldr	x0, [x26, #856]
  401bd8:	910d6356 	add	x22, x26, #0x358
  401bdc:	f94006c2 	ldr	x2, [x22, #8]
  401be0:	cb000041 	sub	x1, x2, x0
  401be4:	9343fc21 	asr	x1, x1, #3
  401be8:	eb01027f 	cmp	x19, x1
  401bec:	54007948 	b.hi	402b14 <main+0x16d4>  // b.pmore
  401bf0:	540000a2 	b.cs	401c04 <main+0x7c4>  // b.hs, b.nlast
  401bf4:	8b140000 	add	x0, x0, x20
  401bf8:	eb00005f 	cmp	x2, x0
  401bfc:	54000040 	b.eq	401c04 <main+0x7c4>  // b.none
  401c00:	f90006c0 	str	x0, [x22, #8]
  401c04:	f941bb40 	ldr	x0, [x26, #880]
  401c08:	910dc357 	add	x23, x26, #0x370
  401c0c:	f94006e2 	ldr	x2, [x23, #8]
  401c10:	cb000041 	sub	x1, x2, x0
  401c14:	9343fc21 	asr	x1, x1, #3
  401c18:	eb01027f 	cmp	x19, x1
  401c1c:	54007908 	b.hi	402b3c <main+0x16fc>  // b.pmore
  401c20:	540000a2 	b.cs	401c34 <main+0x7f4>  // b.hs, b.nlast
  401c24:	8b140000 	add	x0, x0, x20
  401c28:	eb00005f 	cmp	x2, x0
  401c2c:	54000040 	b.eq	401c34 <main+0x7f4>  // b.none
  401c30:	f90006e0 	str	x0, [x23, #8]
  401c34:	1e604100 	fmov	d0, d8
  401c38:	b941bbf3 	ldr	w19, [sp, #440]
  401c3c:	aa1803e1 	mov	x1, x24
  401c40:	aa1a03e0 	mov	x0, x26
  401c44:	2a1303e2 	mov	w2, w19
  401c48:	94001b86 	bl	408a60 <_Z22CalcKinematicsForElemsR6DomainPddi>
  401c4c:	f901abfa 	str	x26, [sp, #848]
  401c50:	aa1c03e1 	mov	x1, x28
  401c54:	f0000000 	adrp	x0, 404000 <_ZL28CalcFBHourglassForceForElemsR6DomainPdS1_S1_S1_S1_S1_S1_dii._omp_fn.0+0x860>
  401c58:	52800003 	mov	w3, #0x0                   	// #0
  401c5c:	91251000 	add	x0, x0, #0x944
  401c60:	52800002 	mov	w2, #0x0                   	// #0
  401c64:	f901aff8 	str	x24, [sp, #856]
  401c68:	b90363f3 	str	w19, [sp, #864]
  401c6c:	97fffdb1 	bl	401330 <GOMP_parallel@plt>
  401c70:	f94006e1 	ldr	x1, [x23, #8]
  401c74:	f941bb40 	ldr	x0, [x26, #880]
  401c78:	eb01001f 	cmp	x0, x1
  401c7c:	54000040 	b.eq	401c84 <main+0x844>  // b.none
  401c80:	f90006e0 	str	x0, [x23, #8]
  401c84:	f94006c1 	ldr	x1, [x22, #8]
  401c88:	f941af40 	ldr	x0, [x26, #856]
  401c8c:	eb01001f 	cmp	x0, x1
  401c90:	54000040 	b.eq	401c98 <main+0x858>  // b.none
  401c94:	f90006c0 	str	x0, [x22, #8]
  401c98:	f94006a1 	ldr	x1, [x21, #8]
  401c9c:	f941a340 	ldr	x0, [x26, #832]
  401ca0:	b9465b56 	ldr	w22, [x26, #1624]
  401ca4:	eb01001f 	cmp	x0, x1
  401ca8:	54ffe060 	b.eq	4018b4 <main+0x474>  // b.none
  401cac:	f90006a0 	str	x0, [x21, #8]
  401cb0:	34ffe056 	cbz	w22, 4018b8 <main+0x478>
  401cb4:	910f4340 	add	x0, x26, #0x3d0
  401cb8:	b9464f41 	ldr	w1, [x26, #1612]
  401cbc:	aa0003e2 	mov	x2, x0
  401cc0:	b9465340 	ldr	w0, [x26, #1616]
  401cc4:	b9465759 	ldr	w25, [x26, #1620]
  401cc8:	93407ed3 	sxtw	x19, w22
  401ccc:	f941eb44 	ldr	x4, [x26, #976]
  401cd0:	f90063e2 	str	x2, [sp, #192]
  401cd4:	f9400445 	ldr	x5, [x2, #8]
  401cd8:	1b007c23 	mul	w3, w1, w0
  401cdc:	1b197c21 	mul	w1, w1, w25
  401ce0:	cb0400a2 	sub	x2, x5, x4
  401ce4:	1b197c19 	mul	w25, w0, w25
  401ce8:	0b0306c0 	add	w0, w22, w3, lsl #1
  401cec:	0b010400 	add	w0, w0, w1, lsl #1
  401cf0:	9343fc41 	asr	x1, x2, #3
  401cf4:	0b190419 	add	w25, w0, w25, lsl #1
  401cf8:	eb01027f 	cmp	x19, x1
  401cfc:	540089a8 	b.hi	402e30 <main+0x19f0>  // b.pmore
  401d00:	540000c2 	b.cs	401d18 <main+0x8d8>  // b.hs, b.nlast
  401d04:	8b130c84 	add	x4, x4, x19, lsl #3
  401d08:	eb0400bf 	cmp	x5, x4
  401d0c:	54000060 	b.eq	401d18 <main+0x8d8>  // b.none
  401d10:	f94063e0 	ldr	x0, [sp, #192]
  401d14:	f9000404 	str	x4, [x0, #8]
  401d18:	f941f740 	ldr	x0, [x26, #1000]
  401d1c:	910fa357 	add	x23, x26, #0x3e8
  401d20:	f94006e2 	ldr	x2, [x23, #8]
  401d24:	cb000041 	sub	x1, x2, x0
  401d28:	9343fc21 	asr	x1, x1, #3
  401d2c:	eb01027f 	cmp	x19, x1
  401d30:	54008948 	b.hi	402e58 <main+0x1a18>  // b.pmore
  401d34:	540000a2 	b.cs	401d48 <main+0x908>  // b.hs, b.nlast
  401d38:	8b130c00 	add	x0, x0, x19, lsl #3
  401d3c:	eb00005f 	cmp	x2, x0
  401d40:	54000040 	b.eq	401d48 <main+0x908>  // b.none
  401d44:	f90006e0 	str	x0, [x23, #8]
  401d48:	91100340 	add	x0, x26, #0x400
  401d4c:	f9005fe0 	str	x0, [sp, #184]
  401d50:	f9420342 	ldr	x2, [x26, #1024]
  401d54:	f9420740 	ldr	x0, [x26, #1032]
  401d58:	cb020001 	sub	x1, x0, x2
  401d5c:	9343fc21 	asr	x1, x1, #3
  401d60:	eb01027f 	cmp	x19, x1
  401d64:	54008908 	b.hi	402e84 <main+0x1a44>  // b.pmore
  401d68:	540000c2 	b.cs	401d80 <main+0x940>  // b.hs, b.nlast
  401d6c:	8b130c53 	add	x19, x2, x19, lsl #3
  401d70:	eb13001f 	cmp	x0, x19
  401d74:	54000060 	b.eq	401d80 <main+0x940>  // b.none
  401d78:	f9405fe0 	ldr	x0, [sp, #184]
  401d7c:	f9000413 	str	x19, [x0, #8]
  401d80:	f941c740 	ldr	x0, [x26, #904]
  401d84:	93407f39 	sxtw	x25, w25
  401d88:	f941cb42 	ldr	x2, [x26, #912]
  401d8c:	910e2353 	add	x19, x26, #0x388
  401d90:	cb000041 	sub	x1, x2, x0
  401d94:	9343fc21 	asr	x1, x1, #3
  401d98:	eb01033f 	cmp	x25, x1
  401d9c:	540088a8 	b.hi	402eb0 <main+0x1a70>  // b.pmore
  401da0:	540000a2 	b.cs	401db4 <main+0x974>  // b.hs, b.nlast
  401da4:	8b190c00 	add	x0, x0, x25, lsl #3
  401da8:	eb00005f 	cmp	x2, x0
  401dac:	54000040 	b.eq	401db4 <main+0x974>  // b.none
  401db0:	f9000660 	str	x0, [x19, #8]
  401db4:	f941d340 	ldr	x0, [x26, #928]
  401db8:	910e8354 	add	x20, x26, #0x3a0
  401dbc:	f9400682 	ldr	x2, [x20, #8]
  401dc0:	cb000041 	sub	x1, x2, x0
  401dc4:	9343fc21 	asr	x1, x1, #3
  401dc8:	eb01033f 	cmp	x25, x1
  401dcc:	54008868 	b.hi	402ed8 <main+0x1a98>  // b.pmore
  401dd0:	540000a2 	b.cs	401de4 <main+0x9a4>  // b.hs, b.nlast
  401dd4:	8b190c00 	add	x0, x0, x25, lsl #3
  401dd8:	eb00005f 	cmp	x2, x0
  401ddc:	54000040 	b.eq	401de4 <main+0x9a4>  // b.none
  401de0:	f9000680 	str	x0, [x20, #8]
  401de4:	f941df42 	ldr	x2, [x26, #952]
  401de8:	910ee355 	add	x21, x26, #0x3b8
  401dec:	f94006a0 	ldr	x0, [x21, #8]
  401df0:	cb020001 	sub	x1, x0, x2
  401df4:	9343fc21 	asr	x1, x1, #3
  401df8:	eb01033f 	cmp	x25, x1
  401dfc:	54008128 	b.hi	402e20 <main+0x19e0>  // b.pmore
  401e00:	540000a2 	b.cs	401e14 <main+0x9d4>  // b.hs, b.nlast
  401e04:	8b190c59 	add	x25, x2, x25, lsl #3
  401e08:	eb19001f 	cmp	x0, x25
  401e0c:	54000040 	b.eq	401e14 <main+0x9d4>  // b.none
  401e10:	f90006b9 	str	x25, [x21, #8]
  401e14:	b9465745 	ldr	w5, [x26, #1620]
  401e18:	52800027 	mov	w7, #0x1                   	// #1
  401e1c:	b9464f43 	ldr	w3, [x26, #1612]
  401e20:	2a0703e6 	mov	w6, w7
  401e24:	b9465344 	ldr	w4, [x26, #1616]
  401e28:	aa1a03e0 	mov	x0, x26
  401e2c:	910b83f9 	add	x25, sp, #0x2e0
  401e30:	52800062 	mov	w2, #0x3                   	// #3
  401e34:	52818001 	mov	w1, #0xc00                 	// #3072
  401e38:	f90083f9 	str	x25, [sp, #256]
  401e3c:	94001ba5 	bl	408cd0 <_Z8CommRecvR6Domainiiiiibb>
  401e40:	f901abfa 	str	x26, [sp, #848]
  401e44:	b9465b44 	ldr	w4, [x26, #1624]
  401e48:	aa1c03e1 	mov	x1, x28
  401e4c:	52800003 	mov	w3, #0x0                   	// #0
  401e50:	52800002 	mov	w2, #0x0                   	// #0
  401e54:	f0000000 	adrp	x0, 404000 <_ZL28CalcFBHourglassForceForElemsR6DomainPdS1_S1_S1_S1_S1_S1_dii._omp_fn.0+0x860>
  401e58:	91294000 	add	x0, x0, #0xa50
  401e5c:	f901aff8 	str	x24, [sp, #856]
  401e60:	b90363e4 	str	w4, [sp, #864]
  401e64:	97fffd33 	bl	401330 <GOMP_parallel@plt>
  401e68:	d000016b 	adrp	x11, 42f000 <__FRAME_END__+0x191c4>
  401e6c:	d000016a 	adrp	x10, 42f000 <__FRAME_END__+0x191c4>
  401e70:	d0000169 	adrp	x9, 42f000 <__FRAME_END__+0x191c4>
  401e74:	910b83ec 	add	x12, sp, #0x2e0
  401e78:	f947d16b 	ldr	x11, [x11, #4000]
  401e7c:	52800027 	mov	w7, #0x1                   	// #1
  401e80:	f947d94a 	ldr	x10, [x10, #4016]
  401e84:	aa1903e3 	mov	x3, x25
  401e88:	f947c529 	ldr	x9, [x9, #3976]
  401e8c:	52800062 	mov	w2, #0x3                   	// #3
  401e90:	b9464f44 	ldr	w4, [x26, #1612]
  401e94:	52818001 	mov	w1, #0xc00                 	// #3072
  401e98:	b9465345 	ldr	w5, [x26, #1616]
  401e9c:	aa1a03e0 	mov	x0, x26
  401ea0:	b9465746 	ldr	w6, [x26, #1620]
  401ea4:	390003e7 	strb	w7, [sp]
  401ea8:	a9007d8b 	stp	x11, xzr, [x12]
  401eac:	a9017d8a 	stp	x10, xzr, [x12, #16]
  401eb0:	f90183e9 	str	x9, [sp, #768]
  401eb4:	f90187ff 	str	xzr, [sp, #776]
  401eb8:	94001f5a 	bl	409c20 <_Z8CommSendR6DomainiiPMS_FRdiEiiibb>
  401ebc:	aa1a03e0 	mov	x0, x26
  401ec0:	9400365d 	bl	40f834 <_Z9CommMonoQR6Domain>
  401ec4:	b9426342 	ldr	w2, [x26, #608]
  401ec8:	7100005f 	cmp	w2, #0x0
  401ecc:	5400016d 	b.le	401ef8 <main+0xab8>
  401ed0:	f9413743 	ldr	x3, [x26, #616]
  401ed4:	9000003b 	adrp	x27, 405000 <_ZL31CalcMonotonicQGradientsForElemsR6DomainPd._omp_fn.0+0x5b0>
  401ed8:	9105837b 	add	x27, x27, #0x160
  401edc:	d2800019 	mov	x25, #0x0                   	// #0
  401ee0:	b8797864 	ldr	w4, [x3, x25, lsl #2]
  401ee4:	7100009f 	cmp	w4, #0x0
  401ee8:	54005a0c 	b.gt	402a28 <main+0x15e8>
  401eec:	91000739 	add	x25, x25, #0x1
  401ef0:	6b19005f 	cmp	w2, w25
  401ef4:	54ffff6c 	b.gt	401ee0 <main+0xaa0>
  401ef8:	f9405fe0 	ldr	x0, [sp, #184]
  401efc:	f9400401 	ldr	x1, [x0, #8]
  401f00:	f9420340 	ldr	x0, [x26, #1024]
  401f04:	eb01001f 	cmp	x0, x1
  401f08:	54000060 	b.eq	401f14 <main+0xad4>  // b.none
  401f0c:	f9405fe1 	ldr	x1, [sp, #184]
  401f10:	f9000420 	str	x0, [x1, #8]
  401f14:	f94006e1 	ldr	x1, [x23, #8]
  401f18:	f941f740 	ldr	x0, [x26, #1000]
  401f1c:	eb01001f 	cmp	x0, x1
  401f20:	54000040 	b.eq	401f28 <main+0xae8>  // b.none
  401f24:	f90006e0 	str	x0, [x23, #8]
  401f28:	f94063e2 	ldr	x2, [sp, #192]
  401f2c:	f941eb40 	ldr	x0, [x26, #976]
  401f30:	f9400441 	ldr	x1, [x2, #8]
  401f34:	eb01001f 	cmp	x0, x1
  401f38:	54000040 	b.eq	401f40 <main+0xb00>  // b.none
  401f3c:	f9000440 	str	x0, [x2, #8]
  401f40:	f94006a1 	ldr	x1, [x21, #8]
  401f44:	f941df40 	ldr	x0, [x26, #952]
  401f48:	eb01001f 	cmp	x0, x1
  401f4c:	54000040 	b.eq	401f54 <main+0xb14>  // b.none
  401f50:	f90006a0 	str	x0, [x21, #8]
  401f54:	f9400681 	ldr	x1, [x20, #8]
  401f58:	f941d340 	ldr	x0, [x26, #928]
  401f5c:	eb01001f 	cmp	x0, x1
  401f60:	54000040 	b.eq	401f68 <main+0xb28>  // b.none
  401f64:	f9000680 	str	x0, [x20, #8]
  401f68:	f9400661 	ldr	x1, [x19, #8]
  401f6c:	f941c740 	ldr	x0, [x26, #904]
  401f70:	eb01001f 	cmp	x0, x1
  401f74:	54000040 	b.eq	401f7c <main+0xb3c>  // b.none
  401f78:	f9000660 	str	x0, [x19, #8]
  401f7c:	710002df 	cmp	w22, #0x0
  401f80:	5400014d 	b.le	401fa8 <main+0xb68>
  401f84:	f9422741 	ldr	x1, [x26, #1096]
  401f88:	d2800000 	mov	x0, #0x0                   	// #0
  401f8c:	fd42c741 	ldr	d1, [x26, #1416]
  401f90:	fc607820 	ldr	d0, [x1, x0, lsl #3]
  401f94:	1e612010 	fcmpe	d0, d1
  401f98:	54005b6c 	b.gt	402b04 <main+0x16c4>
  401f9c:	91000400 	add	x0, x0, #0x1
  401fa0:	6b0002df 	cmp	w22, w0
  401fa4:	54ffff6c 	b.gt	401f90 <main+0xb50>
  401fa8:	b9465b44 	ldr	w4, [x26, #1624]
  401fac:	34ffc864 	cbz	w4, 4018b8 <main+0x478>
  401fb0:	fd42df40 	ldr	d0, [x26, #1464]
  401fb4:	aa1c03e1 	mov	x1, x28
  401fb8:	fd42e341 	ldr	d1, [x26, #1472]
  401fbc:	90000020 	adrp	x0, 405000 <_ZL31CalcMonotonicQGradientsForElemsR6DomainPd._omp_fn.0+0x5b0>
  401fc0:	52800003 	mov	w3, #0x0                   	// #0
  401fc4:	911ec000 	add	x0, x0, #0x7b0
  401fc8:	52800002 	mov	w2, #0x0                   	// #0
  401fcc:	f901abfa 	str	x26, [sp, #848]
  401fd0:	f901aff8 	str	x24, [sp, #856]
  401fd4:	fd01b3e1 	str	d1, [sp, #864]
  401fd8:	fd01b7e0 	str	d0, [sp, #872]
  401fdc:	b90373e4 	str	w4, [sp, #880]
  401fe0:	97fffcd4 	bl	401330 <GOMP_parallel@plt>
  401fe4:	b9426340 	ldr	w0, [x26, #608]
  401fe8:	7100001f 	cmp	w0, #0x0
  401fec:	54ffc66d 	b.le	4018b8 <main+0x478>
  401ff0:	90000021 	adrp	x1, 405000 <_ZL31CalcMonotonicQGradientsForElemsR6DomainPd._omp_fn.0+0x5b0>
  401ff4:	91354021 	add	x1, x1, #0xd50
  401ff8:	90000022 	adrp	x2, 405000 <_ZL31CalcMonotonicQGradientsForElemsR6DomainPd._omp_fn.0+0x5b0>
  401ffc:	9129d042 	add	x2, x2, #0xa74
  402000:	a91787e2 	stp	x2, x1, [sp, #376]
  402004:	910883e1 	add	x1, sp, #0x220
  402008:	aa1803fb 	mov	x27, x24
  40200c:	f900cbe1 	str	x1, [sp, #400]
  402010:	910983e1 	add	x1, sp, #0x260
  402014:	f9008bfa 	str	x26, [sp, #272]
  402018:	f900c7ff 	str	xzr, [sp, #392]
  40201c:	f900cfe1 	str	x1, [sp, #408]
  402020:	910a83e1 	add	x1, sp, #0x2a0
  402024:	f900d3e1 	str	x1, [sp, #416]
  402028:	f9408be3 	ldr	x3, [sp, #272]
  40202c:	52800021 	mov	w1, #0x1                   	// #1
  402030:	b9011fe1 	str	w1, [sp, #284]
  402034:	f940c7e4 	ldr	x4, [sp, #392]
  402038:	f9413462 	ldr	x2, [x3, #616]
  40203c:	f9413c61 	ldr	x1, [x3, #632]
  402040:	b8647858 	ldr	w24, [x2, x4, lsl #2]
  402044:	f8647839 	ldr	x25, [x1, x4, lsl #3]
  402048:	6b80049f 	cmp	w4, w0, asr #1
  40204c:	5400020b 	b.lt	40208c <main+0xc4c>  // b.tstop
  402050:	b9426462 	ldr	w2, [x3, #612]
  402054:	11003c01 	add	w1, w0, #0xf
  402058:	528ccce3 	mov	w3, #0x6667                	// #26215
  40205c:	72acccc3 	movk	w3, #0x6666, lsl #16
  402060:	11000445 	add	w5, w2, #0x1
  402064:	131f7c22 	asr	w2, w1, #31
  402068:	9b237c21 	smull	x1, w1, w3
  40206c:	0b0508a3 	add	w3, w5, w5, lsl #2
  402070:	531f7863 	lsl	w3, w3, #1
  402074:	9363fc21 	asr	x1, x1, #35
  402078:	4b010041 	sub	w1, w2, w1
  40207c:	0b000020 	add	w0, w1, w0
  402080:	6b04001f 	cmp	w0, w4
  402084:	1a83c0a0 	csel	w0, w5, w3, gt
  402088:	b9011fe0 	str	w0, [sp, #284]
  40208c:	f9408be1 	ldr	x1, [sp, #272]
  402090:	937d7f13 	sbfiz	x19, x24, #3, #32
  402094:	aa1303e0 	mov	x0, x19
  402098:	f90093f3 	str	x19, [sp, #288]
  40209c:	91156028 	add	x8, x1, #0x558
  4020a0:	fd42a82d 	ldr	d13, [x1, #1360]
  4020a4:	fd42e42b 	ldr	d11, [x1, #1480]
  4020a8:	6d40390a 	ldp	d10, d14, [x8]
  4020ac:	6d463d08 	ldp	d8, d15, [x8, #96]
  4020b0:	fd42e82c 	ldr	d12, [x1, #1488]
  4020b4:	fd42f029 	ldr	d9, [x1, #1504]
  4020b8:	97fffca6 	bl	401350 <malloc@plt>
  4020bc:	aa0003e1 	mov	x1, x0
  4020c0:	aa1303e0 	mov	x0, x19
  4020c4:	f900efe1 	str	x1, [sp, #472]
  4020c8:	97fffca2 	bl	401350 <malloc@plt>
  4020cc:	aa0003e1 	mov	x1, x0
  4020d0:	aa1303e0 	mov	x0, x19
  4020d4:	f900f3e1 	str	x1, [sp, #480]
  4020d8:	97fffc9e 	bl	401350 <malloc@plt>
  4020dc:	aa0003e1 	mov	x1, x0
  4020e0:	aa1303e0 	mov	x0, x19
  4020e4:	f900f7e1 	str	x1, [sp, #488]
  4020e8:	97fffc9a 	bl	401350 <malloc@plt>
  4020ec:	aa0003e1 	mov	x1, x0
  4020f0:	aa1303e0 	mov	x0, x19
  4020f4:	f900fbe1 	str	x1, [sp, #496]
  4020f8:	97fffc96 	bl	401350 <malloc@plt>
  4020fc:	aa0003e1 	mov	x1, x0
  402100:	aa1303e0 	mov	x0, x19
  402104:	f900ffe1 	str	x1, [sp, #504]
  402108:	97fffc92 	bl	401350 <malloc@plt>
  40210c:	aa0003e1 	mov	x1, x0
  402110:	aa1303e0 	mov	x0, x19
  402114:	f90103e1 	str	x1, [sp, #512]
  402118:	97fffc8e 	bl	401350 <malloc@plt>
  40211c:	aa0003e1 	mov	x1, x0
  402120:	aa1303e0 	mov	x0, x19
  402124:	f90107e1 	str	x1, [sp, #520]
  402128:	97fffc8a 	bl	401350 <malloc@plt>
  40212c:	aa0003e1 	mov	x1, x0
  402130:	aa1303e0 	mov	x0, x19
  402134:	f9010be1 	str	x1, [sp, #528]
  402138:	97fffc86 	bl	401350 <malloc@plt>
  40213c:	aa0003e1 	mov	x1, x0
  402140:	aa1303e0 	mov	x0, x19
  402144:	f9010fe1 	str	x1, [sp, #536]
  402148:	97fffc82 	bl	401350 <malloc@plt>
  40214c:	aa0003e1 	mov	x1, x0
  402150:	aa1303e0 	mov	x0, x19
  402154:	f90113e1 	str	x1, [sp, #544]
  402158:	97fffc7e 	bl	401350 <malloc@plt>
  40215c:	aa0003e1 	mov	x1, x0
  402160:	aa1303e0 	mov	x0, x19
  402164:	f90133e1 	str	x1, [sp, #608]
  402168:	97fffc7a 	bl	401350 <malloc@plt>
  40216c:	aa0003e1 	mov	x1, x0
  402170:	aa1303e0 	mov	x0, x19
  402174:	f90153e1 	str	x1, [sp, #672]
  402178:	97fffc76 	bl	401350 <malloc@plt>
  40217c:	aa0003f6 	mov	x22, x0
  402180:	aa1303e0 	mov	x0, x19
  402184:	97fffc73 	bl	401350 <malloc@plt>
  402188:	aa0003f7 	mov	x23, x0
  40218c:	b9411fe0 	ldr	w0, [sp, #284]
  402190:	7100001f 	cmp	w0, #0x0
  402194:	54001f6d 	b.le	402580 <main+0x1140>
  402198:	90000020 	adrp	x0, 406000 <_ZL18CalcEnergyForElemsPdS_S_S_S_S_S_S_S_S_S_S_S_dddddS_S_ddiPi._omp_fn.1+0xec>
  40219c:	911c801a 	add	x26, x0, #0x720
  4021a0:	f0000000 	adrp	x0, 405000 <_ZL31CalcMonotonicQGradientsForElemsR6DomainPd._omp_fn.0+0x5b0>
  4021a4:	913c5000 	add	x0, x0, #0xf14
  4021a8:	f90097e0 	str	x0, [sp, #296]
  4021ac:	910863e0 	add	x0, sp, #0x218
  4021b0:	f900b7e0 	str	x0, [sp, #360]
  4021b4:	9107a3e0 	add	x0, sp, #0x1e8
  4021b8:	f900b3e0 	str	x0, [sp, #352]
  4021bc:	9107c3e0 	add	x0, sp, #0x1f0
  4021c0:	f900afe0 	str	x0, [sp, #344]
  4021c4:	9107e3e0 	add	x0, sp, #0x1f8
  4021c8:	f900abe0 	str	x0, [sp, #336]
  4021cc:	910803e0 	add	x0, sp, #0x200
  4021d0:	f900a7e0 	str	x0, [sp, #328]
  4021d4:	910823e0 	add	x0, sp, #0x208
  4021d8:	90000021 	adrp	x1, 406000 <_ZL18CalcEnergyForElemsPdS_S_S_S_S_S_S_S_S_S_S_S_dddddS_S_ddiPi._omp_fn.1+0xec>
  4021dc:	f900a3e0 	str	x0, [sp, #320]
  4021e0:	910763e0 	add	x0, sp, #0x1d8
  4021e4:	91170034 	add	x20, x1, #0x5c0
  4021e8:	52800004 	mov	w4, #0x0                   	// #0
  4021ec:	910843e1 	add	x1, sp, #0x210
  4021f0:	f9009be0 	str	x0, [sp, #304]
  4021f4:	910783e0 	add	x0, sp, #0x1e0
  4021f8:	f9009fe0 	str	x0, [sp, #312]
  4021fc:	f900bbe1 	str	x1, [sp, #368]
  402200:	b9011be4 	str	w4, [sp, #280]
  402204:	aa1c03e1 	mov	x1, x28
  402208:	f9408be4 	ldr	x4, [sp, #272]
  40220c:	f901abe4 	str	x4, [sp, #848]
  402210:	f9409be4 	ldr	x4, [sp, #304]
  402214:	f901bfe4 	str	x4, [sp, #888]
  402218:	f9409fe4 	ldr	x4, [sp, #312]
  40221c:	f901c3e4 	str	x4, [sp, #896]
  402220:	f940b3e4 	ldr	x4, [sp, #352]
  402224:	f901c7e4 	str	x4, [sp, #904]
  402228:	f940afe4 	ldr	x4, [sp, #344]
  40222c:	f901cbe4 	str	x4, [sp, #912]
  402230:	f940abe4 	ldr	x4, [sp, #336]
  402234:	f901cfe4 	str	x4, [sp, #920]
  402238:	f940a7e4 	ldr	x4, [sp, #328]
  40223c:	f901d3e4 	str	x4, [sp, #928]
  402240:	f940a3e4 	ldr	x4, [sp, #320]
  402244:	f901d7e4 	str	x4, [sp, #936]
  402248:	f940bbe4 	ldr	x4, [sp, #368]
  40224c:	f901dbe4 	str	x4, [sp, #944]
  402250:	f940b7e4 	ldr	x4, [sp, #360]
  402254:	52800003 	mov	w3, #0x0                   	// #0
  402258:	f940bfe0 	ldr	x0, [sp, #376]
  40225c:	52800002 	mov	w2, #0x0                   	// #0
  402260:	f901affb 	str	x27, [sp, #856]
  402264:	f901b3f9 	str	x25, [sp, #864]
  402268:	fd01b7e8 	str	d8, [sp, #872]
  40226c:	fd01bbef 	str	d15, [sp, #880]
  402270:	f901dfe4 	str	x4, [sp, #952]
  402274:	b903c3f8 	str	w24, [sp, #960]
  402278:	97fffc2e 	bl	401330 <GOMP_parallel@plt>
  40227c:	a95dd7e5 	ldp	x5, x21, [sp, #472]
  402280:	f90087e5 	str	x5, [sp, #264]
  402284:	a95e8be1 	ldp	x1, x2, [sp, #488]
  402288:	a90c8be1 	stp	x1, x2, [sp, #200]
  40228c:	a95f93e3 	ldp	x3, x4, [sp, #504]
  402290:	a90e93e3 	stp	x3, x4, [sp, #232]
  402294:	f9410fe9 	ldr	x9, [sp, #536]
  402298:	f9007fe9 	str	x9, [sp, #248]
  40229c:	f94093e0 	ldr	x0, [sp, #288]
  4022a0:	f94107e3 	ldr	x3, [sp, #520]
  4022a4:	f9410be4 	ldr	x4, [sp, #528]
  4022a8:	a90d93e3 	stp	x3, x4, [sp, #216]
  4022ac:	f94113e1 	ldr	x1, [sp, #544]
  4022b0:	f94153e9 	ldr	x9, [sp, #672]
  4022b4:	a90ba7e1 	stp	x1, x9, [sp, #184]
  4022b8:	f94133f3 	ldr	x19, [sp, #608]
  4022bc:	97fffc25 	bl	401350 <malloc@plt>
  4022c0:	910d43eb 	add	x11, sp, #0x350
  4022c4:	f90173e0 	str	x0, [sp, #736]
  4022c8:	a94c9be5 	ldp	x5, x6, [sp, #200]
  4022cc:	aa1c03e1 	mov	x1, x28
  4022d0:	a9001573 	stp	x19, x5, [x11]
  4022d4:	52800003 	mov	w3, #0x0                   	// #0
  4022d8:	52800002 	mov	w2, #0x0                   	// #0
  4022dc:	f9407fec 	ldr	x12, [sp, #248]
  4022e0:	a901b166 	stp	x6, x12, [x11, #24]
  4022e4:	f94087e5 	ldr	x5, [sp, #264]
  4022e8:	f901b3e5 	str	x5, [sp, #864]
  4022ec:	f940c3e0 	ldr	x0, [sp, #384]
  4022f0:	f901bff5 	str	x21, [sp, #888]
  4022f4:	fd01c3ec 	str	d12, [sp, #896]
  4022f8:	b9038bf8 	str	w24, [sp, #904]
  4022fc:	97fffc0d 	bl	401330 <GOMP_parallel@plt>
  402300:	f901abf6 	str	x22, [sp, #848]
  402304:	f9407beb 	ldr	x11, [sp, #240]
  402308:	aa1c03e1 	mov	x1, x28
  40230c:	f94173e5 	ldr	x5, [sp, #736]
  402310:	aa1403e0 	mov	x0, x20
  402314:	52800003 	mov	w3, #0x0                   	// #0
  402318:	52800002 	mov	w2, #0x0                   	// #0
  40231c:	f90087e5 	str	x5, [sp, #264]
  402320:	f901aff7 	str	x23, [sp, #856]
  402324:	f901b3eb 	str	x11, [sp, #864]
  402328:	b9036bf8 	str	w24, [sp, #872]
  40232c:	97fffc01 	bl	401330 <GOMP_parallel@plt>
  402330:	910d43ec 	add	x12, sp, #0x350
  402334:	aa1c03e1 	mov	x1, x28
  402338:	f94087e5 	ldr	x5, [sp, #264]
  40233c:	aa1a03e0 	mov	x0, x26
  402340:	a9005985 	stp	x5, x22, [x12]
  402344:	52800003 	mov	w3, #0x0                   	// #0
  402348:	52800002 	mov	w2, #0x0                   	// #0
  40234c:	a9016d93 	stp	x19, x27, [x12, #16]
  402350:	f901bbf9 	str	x25, [sp, #880]
  402354:	fd01bfe8 	str	d8, [sp, #888]
  402358:	fd01c3ea 	str	d10, [sp, #896]
  40235c:	fd01c7eb 	str	d11, [sp, #904]
  402360:	b90393f8 	str	w24, [sp, #912]
  402364:	97fffbf3 	bl	401330 <GOMP_parallel@plt>
  402368:	910d43ed 	add	x13, sp, #0x350
  40236c:	910dc3ee 	add	x14, sp, #0x370
  402370:	a94c17e9 	ldp	x9, x5, [sp, #192]
  402374:	aa1c03e1 	mov	x1, x28
  402378:	a94d1fe6 	ldp	x6, x7, [sp, #208]
  40237c:	a90025b3 	stp	x19, x9, [x13]
  402380:	52800003 	mov	w3, #0x0                   	// #0
  402384:	a9015db6 	stp	x22, x23, [x13, #16]
  402388:	52800002 	mov	w2, #0x0                   	// #0
  40238c:	f9407beb 	ldr	x11, [sp, #240]
  402390:	a90155cb 	stp	x11, x21, [x14, #16]
  402394:	f94073e8 	ldr	x8, [sp, #224]
  402398:	a90019c5 	stp	x5, x6, [x14]
  40239c:	f94083eb 	ldr	x11, [sp, #256]
  4023a0:	f901cbe7 	str	x7, [sp, #912]
  4023a4:	f94097e0 	ldr	x0, [sp, #296]
  4023a8:	f901cfe8 	str	x8, [sp, #920]
  4023ac:	f901d3eb 	str	x11, [sp, #928]
  4023b0:	fd01d7e9 	str	d9, [sp, #936]
  4023b4:	b903b3f8 	str	w24, [sp, #944]
  4023b8:	97fffbde 	bl	401330 <GOMP_parallel@plt>
  4023bc:	f9407fec 	ldr	x12, [sp, #248]
  4023c0:	aa1c03e1 	mov	x1, x28
  4023c4:	52800003 	mov	w3, #0x0                   	// #0
  4023c8:	52800002 	mov	w2, #0x0                   	// #0
  4023cc:	90000020 	adrp	x0, 406000 <_ZL18CalcEnergyForElemsPdS_S_S_S_S_S_S_S_S_S_S_S_dddddS_S_ddiPi._omp_fn.1+0xec>
  4023d0:	91039000 	add	x0, x0, #0xe4
  4023d4:	f901abf3 	str	x19, [sp, #848]
  4023d8:	f901afec 	str	x12, [sp, #856]
  4023dc:	fd01b3ed 	str	d13, [sp, #864]
  4023e0:	fd01b7ec 	str	d12, [sp, #872]
  4023e4:	b90373f8 	str	w24, [sp, #880]
  4023e8:	97fffbd2 	bl	401330 <GOMP_parallel@plt>
  4023ec:	f94077ea 	ldr	x10, [sp, #232]
  4023f0:	aa1c03e1 	mov	x1, x28
  4023f4:	aa1403e0 	mov	x0, x20
  4023f8:	52800003 	mov	w3, #0x0                   	// #0
  4023fc:	52800002 	mov	w2, #0x0                   	// #0
  402400:	f901abf6 	str	x22, [sp, #848]
  402404:	f901aff7 	str	x23, [sp, #856]
  402408:	f901b3ea 	str	x10, [sp, #864]
  40240c:	b9036bf8 	str	w24, [sp, #872]
  402410:	97fffbc8 	bl	401330 <GOMP_parallel@plt>
  402414:	910d43ef 	add	x15, sp, #0x350
  402418:	aa1c03e1 	mov	x1, x28
  40241c:	f9405fe4 	ldr	x4, [sp, #184]
  402420:	aa1a03e0 	mov	x0, x26
  402424:	a90059e4 	stp	x4, x22, [x15]
  402428:	52800003 	mov	w3, #0x0                   	// #0
  40242c:	52800002 	mov	w2, #0x0                   	// #0
  402430:	a9016df3 	stp	x19, x27, [x15, #16]
  402434:	f901bbf9 	str	x25, [sp, #880]
  402438:	fd01bfe8 	str	d8, [sp, #888]
  40243c:	fd01c3ea 	str	d10, [sp, #896]
  402440:	fd01c7eb 	str	d11, [sp, #904]
  402444:	b90393f8 	str	w24, [sp, #912]
  402448:	97fffbba 	bl	401330 <GOMP_parallel@plt>
  40244c:	910d43f0 	add	x16, sp, #0x350
  402450:	910dc3f1 	add	x17, sp, #0x370
  402454:	a94ba7e4 	ldp	x4, x9, [sp, #184]
  402458:	910e43f2 	add	x18, sp, #0x390
  40245c:	a94c9be5 	ldp	x5, x6, [sp, #200]
  402460:	a9004e04 	stp	x4, x19, [x16]
  402464:	aa1c03e1 	mov	x1, x28
  402468:	a94da3e7 	ldp	x7, x8, [sp, #216]
  40246c:	a9015a09 	stp	x9, x22, [x16, #16]
  402470:	52800003 	mov	w3, #0x0                   	// #0
  402474:	f94083eb 	ldr	x11, [sp, #256]
  402478:	a9001637 	stp	x23, x5, [x17]
  40247c:	52800002 	mov	w2, #0x0                   	// #0
  402480:	a9016e26 	stp	x6, x27, [x17, #16]
  402484:	90000020 	adrp	x0, 406000 <_ZL18CalcEnergyForElemsPdS_S_S_S_S_S_S_S_S_S_S_S_dddddS_S_ddiPi._omp_fn.1+0xec>
  402488:	91095000 	add	x0, x0, #0x254
  40248c:	a9001e55 	stp	x21, x7, [x18]
  402490:	a9016648 	stp	x8, x25, [x18, #16]
  402494:	f901dbeb 	str	x11, [sp, #944]
  402498:	fd01dfed 	str	d13, [sp, #952]
  40249c:	fd01e3ec 	str	d12, [sp, #960]
  4024a0:	fd01e7e9 	str	d9, [sp, #968]
  4024a4:	b903d3f8 	str	w24, [sp, #976]
  4024a8:	97fffba2 	bl	401330 <GOMP_parallel@plt>
  4024ac:	f94077ea 	ldr	x10, [sp, #232]
  4024b0:	aa1c03e1 	mov	x1, x28
  4024b4:	aa1403e0 	mov	x0, x20
  4024b8:	52800003 	mov	w3, #0x0                   	// #0
  4024bc:	52800002 	mov	w2, #0x0                   	// #0
  4024c0:	f901abf6 	str	x22, [sp, #848]
  4024c4:	f901aff7 	str	x23, [sp, #856]
  4024c8:	f901b3ea 	str	x10, [sp, #864]
  4024cc:	b9036bf8 	str	w24, [sp, #872]
  4024d0:	97fffb98 	bl	401330 <GOMP_parallel@plt>
  4024d4:	910d43fe 	add	x30, sp, #0x350
  4024d8:	aa1c03e1 	mov	x1, x28
  4024dc:	f9405fe4 	ldr	x4, [sp, #184]
  4024e0:	aa1a03e0 	mov	x0, x26
  4024e4:	a9005bc4 	stp	x4, x22, [x30]
  4024e8:	52800003 	mov	w3, #0x0                   	// #0
  4024ec:	52800002 	mov	w2, #0x0                   	// #0
  4024f0:	a9016fd3 	stp	x19, x27, [x30, #16]
  4024f4:	f901bbf9 	str	x25, [sp, #880]
  4024f8:	fd01bfe8 	str	d8, [sp, #888]
  4024fc:	fd01c3ea 	str	d10, [sp, #896]
  402500:	fd01c7eb 	str	d11, [sp, #904]
  402504:	b90393f8 	str	w24, [sp, #912]
  402508:	97fffb8a 	bl	401330 <GOMP_parallel@plt>
  40250c:	910d43e5 	add	x5, sp, #0x350
  402510:	910dc3e6 	add	x6, sp, #0x370
  402514:	a94ba7e4 	ldp	x4, x9, [sp, #184]
  402518:	aa1c03e1 	mov	x1, x28
  40251c:	a94da3e7 	ldp	x7, x8, [sp, #216]
  402520:	a9004ca4 	stp	x4, x19, [x5]
  402524:	52800003 	mov	w3, #0x0                   	// #0
  402528:	a90158a9 	stp	x9, x22, [x5, #16]
  40252c:	52800002 	mov	w2, #0x0                   	// #0
  402530:	90000020 	adrp	x0, 406000 <_ZL18CalcEnergyForElemsPdS_S_S_S_S_S_S_S_S_S_S_S_dddddS_S_ddiPi._omp_fn.1+0xec>
  402534:	a9006cd7 	stp	x23, x27, [x6]
  402538:	91111000 	add	x0, x0, #0x444
  40253c:	a9011cd5 	stp	x21, x7, [x6, #16]
  402540:	f901cbe8 	str	x8, [sp, #912]
  402544:	f901cff9 	str	x25, [sp, #920]
  402548:	fd01d3ee 	str	d14, [sp, #928]
  40254c:	fd01d7e9 	str	d9, [sp, #936]
  402550:	b903b3f8 	str	w24, [sp, #944]
  402554:	97fffb77 	bl	401330 <GOMP_parallel@plt>
  402558:	f94173e0 	ldr	x0, [sp, #736]
  40255c:	b9411be4 	ldr	w4, [sp, #280]
  402560:	11000484 	add	w4, w4, #0x1
  402564:	b40025a0 	cbz	x0, 402a18 <main+0x15d8>
  402568:	b900bbe4 	str	w4, [sp, #184]
  40256c:	97fffb0d 	bl	4011a0 <free@plt>
  402570:	b940bbe4 	ldr	w4, [sp, #184]
  402574:	b9411fe0 	ldr	w0, [sp, #284]
  402578:	6b00009f 	cmp	w4, w0
  40257c:	54ffe421 	b.ne	402200 <main+0xdc0>  // b.any
  402580:	f940cbe4 	ldr	x4, [sp, #400]
  402584:	f901b3e4 	str	x4, [sp, #864]
  402588:	f940cfe4 	ldr	x4, [sp, #408]
  40258c:	f901b7e4 	str	x4, [sp, #872]
  402590:	f940d3e4 	ldr	x4, [sp, #416]
  402594:	aa1c03e1 	mov	x1, x28
  402598:	f9408bf3 	ldr	x19, [sp, #272]
  40259c:	52800003 	mov	w3, #0x0                   	// #0
  4025a0:	52800002 	mov	w2, #0x0                   	// #0
  4025a4:	f0000000 	adrp	x0, 405000 <_ZL31CalcMonotonicQGradientsForElemsR6DomainPd._omp_fn.0+0x5b0>
  4025a8:	91328000 	add	x0, x0, #0xca0
  4025ac:	f901abf3 	str	x19, [sp, #848]
  4025b0:	f901aff9 	str	x25, [sp, #856]
  4025b4:	f901bbe4 	str	x4, [sp, #880]
  4025b8:	b9037bf8 	str	w24, [sp, #888]
  4025bc:	97fffb5d 	bl	401330 <GOMP_parallel@plt>
  4025c0:	910d43e7 	add	x7, sp, #0x350
  4025c4:	90000020 	adrp	x0, 406000 <_ZL18CalcEnergyForElemsPdS_S_S_S_S_S_S_S_S_S_S_S_dddddS_S_ddiPi._omp_fn.1+0xec>
  4025c8:	f94113e4 	ldr	x4, [sp, #544]
  4025cc:	aa1c03e1 	mov	x1, x28
  4025d0:	f94133e5 	ldr	x5, [sp, #608]
  4025d4:	a9006cf3 	stp	x19, x27, [x7]
  4025d8:	911fd000 	add	x0, x0, #0x7f4
  4025dc:	a90110e5 	stp	x5, x4, [x7, #16]
  4025e0:	52800003 	mov	w3, #0x0                   	// #0
  4025e4:	52800002 	mov	w2, #0x0                   	// #0
  4025e8:	f901bbf7 	str	x23, [sp, #880]
  4025ec:	f901bff6 	str	x22, [sp, #888]
  4025f0:	f901c3f9 	str	x25, [sp, #896]
  4025f4:	fd01c7e9 	str	d9, [sp, #904]
  4025f8:	b90393f8 	str	w24, [sp, #912]
  4025fc:	97fffb4d 	bl	401330 <GOMP_parallel@plt>
  402600:	b4000077 	cbz	x23, 40260c <main+0x11cc>
  402604:	aa1703e0 	mov	x0, x23
  402608:	97fffae6 	bl	4011a0 <free@plt>
  40260c:	b4000076 	cbz	x22, 402618 <main+0x11d8>
  402610:	aa1603e0 	mov	x0, x22
  402614:	97fffae3 	bl	4011a0 <free@plt>
  402618:	f94153e0 	ldr	x0, [sp, #672]
  40261c:	b4000060 	cbz	x0, 402628 <main+0x11e8>
  402620:	97fffae0 	bl	4011a0 <free@plt>
  402624:	f90153ff 	str	xzr, [sp, #672]
  402628:	f94133e0 	ldr	x0, [sp, #608]
  40262c:	b4000060 	cbz	x0, 402638 <main+0x11f8>
  402630:	97fffadc 	bl	4011a0 <free@plt>
  402634:	f90133ff 	str	xzr, [sp, #608]
  402638:	f94113e0 	ldr	x0, [sp, #544]
  40263c:	b4000060 	cbz	x0, 402648 <main+0x1208>
  402640:	97fffad8 	bl	4011a0 <free@plt>
  402644:	f90113ff 	str	xzr, [sp, #544]
  402648:	f9410fe0 	ldr	x0, [sp, #536]
  40264c:	b4000060 	cbz	x0, 402658 <main+0x1218>
  402650:	97fffad4 	bl	4011a0 <free@plt>
  402654:	f9010fff 	str	xzr, [sp, #536]
  402658:	f9410be0 	ldr	x0, [sp, #528]
  40265c:	b4000060 	cbz	x0, 402668 <main+0x1228>
  402660:	97fffad0 	bl	4011a0 <free@plt>
  402664:	f9010bff 	str	xzr, [sp, #528]
  402668:	f94107e0 	ldr	x0, [sp, #520]
  40266c:	b4000060 	cbz	x0, 402678 <main+0x1238>
  402670:	97fffacc 	bl	4011a0 <free@plt>
  402674:	f90107ff 	str	xzr, [sp, #520]
  402678:	f94103e0 	ldr	x0, [sp, #512]
  40267c:	b4000060 	cbz	x0, 402688 <main+0x1248>
  402680:	97fffac8 	bl	4011a0 <free@plt>
  402684:	f90103ff 	str	xzr, [sp, #512]
  402688:	f940ffe0 	ldr	x0, [sp, #504]
  40268c:	b4000060 	cbz	x0, 402698 <main+0x1258>
  402690:	97fffac4 	bl	4011a0 <free@plt>
  402694:	f900ffff 	str	xzr, [sp, #504]
  402698:	f940fbe0 	ldr	x0, [sp, #496]
  40269c:	b4000060 	cbz	x0, 4026a8 <main+0x1268>
  4026a0:	97fffac0 	bl	4011a0 <free@plt>
  4026a4:	f900fbff 	str	xzr, [sp, #496]
  4026a8:	f940f7e0 	ldr	x0, [sp, #488]
  4026ac:	b4000040 	cbz	x0, 4026b4 <main+0x1274>
  4026b0:	97fffabc 	bl	4011a0 <free@plt>
  4026b4:	f940f3e0 	ldr	x0, [sp, #480]
  4026b8:	b4000040 	cbz	x0, 4026c0 <main+0x1280>
  4026bc:	97fffab9 	bl	4011a0 <free@plt>
  4026c0:	f940efe0 	ldr	x0, [sp, #472]
  4026c4:	b4000040 	cbz	x0, 4026cc <main+0x128c>
  4026c8:	97fffab6 	bl	4011a0 <free@plt>
  4026cc:	f9408be0 	ldr	x0, [sp, #272]
  4026d0:	f940c7e1 	ldr	x1, [sp, #392]
  4026d4:	b9426000 	ldr	w0, [x0, #608]
  4026d8:	91000421 	add	x1, x1, #0x1
  4026dc:	f900c7e1 	str	x1, [sp, #392]
  4026e0:	6b01001f 	cmp	w0, w1
  4026e4:	54ffca2c 	b.gt	402028 <main+0xbe8>
  4026e8:	b941bbe0 	ldr	w0, [sp, #440]
  4026ec:	aa1b03f8 	mov	x24, x27
  4026f0:	f9408bfa 	ldr	x26, [sp, #272]
  4026f4:	34ff8e60 	cbz	w0, 4018c0 <main+0x480>
  4026f8:	b941bbe4 	ldr	w4, [sp, #440]
  4026fc:	aa1c03e1 	mov	x1, x28
  402700:	fd42b740 	ldr	d0, [x26, #1384]
  402704:	90000020 	adrp	x0, 406000 <_ZL18CalcEnergyForElemsPdS_S_S_S_S_S_S_S_S_S_S_S_dddddS_S_ddiPi._omp_fn.1+0xec>
  402708:	52800003 	mov	w3, #0x0                   	// #0
  40270c:	9124c000 	add	x0, x0, #0x930
  402710:	52800002 	mov	w2, #0x0                   	// #0
  402714:	f901abfa 	str	x26, [sp, #848]
  402718:	f901aff8 	str	x24, [sp, #856]
  40271c:	fd01b3e0 	str	d0, [sp, #864]
  402720:	b9036be4 	str	w4, [sp, #872]
  402724:	97fffb03 	bl	401330 <GOMP_parallel@plt>
  402728:	17fffc66 	b	4018c0 <main+0x480>
  40272c:	b8617803 	ldr	w3, [x0, x1, lsl #2]
  402730:	1e604001 	fmov	d1, d0
  402734:	fd000040 	str	d0, [x2]
  402738:	b9000003 	str	w3, [x0]
  40273c:	17fffcdc 	b	401aac <main+0x66c>
  402740:	b8617803 	ldr	w3, [x0, x1, lsl #2]
  402744:	1e604001 	fmov	d1, d0
  402748:	fd000040 	str	d0, [x2]
  40274c:	b9000003 	str	w3, [x0]
  402750:	17fffca1 	b	4019d4 <main+0x594>
  402754:	b94262c0 	ldr	w0, [x22, #608]
  402758:	91000673 	add	x19, x19, #0x1
  40275c:	6b13001f 	cmp	w0, w19
  402760:	54ff8dcc 	b.gt	401918 <main+0x4d8>
  402764:	17fffce0 	b	401ae4 <main+0x6a4>
  402768:	f9400c00 	ldr	x0, [x0, #24]
  40276c:	17fffcd3 	b	401ab8 <main+0x678>
  402770:	f9400400 	ldr	x0, [x0, #8]
  402774:	17fffc9b 	b	4019e0 <main+0x5a0>
  402778:	1e621000 	fmov	d0, #4.000000000000000000e+00
  40277c:	1e611002 	fmov	d2, #3.000000000000000000e+00
  402780:	1e600900 	fmul	d0, d8, d0
  402784:	1e621800 	fdiv	d0, d0, d2
  402788:	1e602130 	fcmpe	d9, d0
  40278c:	54000044 	b.mi	402794 <main+0x1354>  // b.first
  402790:	17fffbac 	b	401640 <main+0x200>
  402794:	1e682909 	fadd	d9, d8, d8
  402798:	1e621929 	fdiv	d9, d9, d2
  40279c:	17fffba9 	b	401640 <main+0x200>
  4027a0:	1e604128 	fmov	d8, d9
  4027a4:	fd030b49 	str	d9, [x26, #1552]
  4027a8:	17fffba8 	b	401648 <main+0x208>
  4027ac:	fd42bf4a 	ldr	d10, [x26, #1400]
  4027b0:	937d7f13 	sbfiz	x19, x24, #3, #32
  4027b4:	aa1303e0 	mov	x0, x19
  4027b8:	93407f1b 	sxtw	x27, w24
  4027bc:	97fffae5 	bl	401350 <malloc@plt>
  4027c0:	aa0003f6 	mov	x22, x0
  4027c4:	aa1303e0 	mov	x0, x19
  4027c8:	97fffae2 	bl	401350 <malloc@plt>
  4027cc:	aa0003f5 	mov	x21, x0
  4027d0:	aa1303e0 	mov	x0, x19
  4027d4:	97fffadf 	bl	401350 <malloc@plt>
  4027d8:	aa0003f4 	mov	x20, x0
  4027dc:	aa1303e0 	mov	x0, x19
  4027e0:	97fffadc 	bl	401350 <malloc@plt>
  4027e4:	910d43ed 	add	x13, sp, #0x350
  4027e8:	aa0003e4 	mov	x4, x0
  4027ec:	aa1c03e1 	mov	x1, x28
  4027f0:	b0000000 	adrp	x0, 403000 <main+0x1bc0>
  4027f4:	910ec000 	add	x0, x0, #0x3b0
  4027f8:	52800003 	mov	w3, #0x0                   	// #0
  4027fc:	a90059ba 	stp	x26, x22, [x13]
  402800:	52800002 	mov	w2, #0x0                   	// #0
  402804:	a90151b5 	stp	x21, x20, [x13, #16]
  402808:	f900f7e4 	str	x4, [sp, #488]
  40280c:	b90373f8 	str	w24, [sp, #880]
  402810:	97fffac8 	bl	401330 <GOMP_parallel@plt>
  402814:	b9465f57 	ldr	w23, [x26, #1628]
  402818:	f940f7f3 	ldr	x19, [sp, #488]
  40281c:	97fffadd 	bl	401390 <omp_get_max_threads@plt>
  402820:	2a0003f9 	mov	w25, w0
  402824:	7100041f 	cmp	w0, #0x1
  402828:	540026cc 	b.gt	402d00 <main+0x18c0>
  40282c:	910d43e9 	add	x9, sp, #0x350
  402830:	910dc3ea 	add	x10, sp, #0x370
  402834:	910863e4 	add	x4, sp, #0x218
  402838:	910883e5 	add	x5, sp, #0x220
  40283c:	910983e6 	add	x6, sp, #0x260
  402840:	910a83e7 	add	x7, sp, #0x2a0
  402844:	910b83e8 	add	x8, sp, #0x2e0
  402848:	a900593a 	stp	x26, x22, [x9]
  40284c:	910843fb 	add	x27, sp, #0x210
  402850:	a9015135 	stp	x21, x20, [x9, #16]
  402854:	90000020 	adrp	x0, 406000 <_ZL18CalcEnergyForElemsPdS_S_S_S_S_S_S_S_S_S_S_S_dddddS_S_ddiPi._omp_fn.1+0xec>
  402858:	aa1c03e1 	mov	x1, x28
  40285c:	a9006d53 	stp	x19, x27, [x10]
  402860:	91331000 	add	x0, x0, #0xcc4
  402864:	52800003 	mov	w3, #0x0                   	// #0
  402868:	a9011544 	stp	x4, x5, [x10, #16]
  40286c:	52800002 	mov	w2, #0x0                   	// #0
  402870:	f9006be4 	str	x4, [sp, #208]
  402874:	f90083e8 	str	x8, [sp, #256]
  402878:	a9191be5 	stp	x5, x6, [sp, #400]
  40287c:	f900d3e7 	str	x7, [sp, #416]
  402880:	f901cbe6 	str	x6, [sp, #912]
  402884:	f901cfe7 	str	x7, [sp, #920]
  402888:	f901d3e8 	str	x8, [sp, #928]
  40288c:	b903abf9 	str	w25, [sp, #936]
  402890:	b903aff8 	str	w24, [sp, #940]
  402894:	97fffaa7 	bl	401330 <GOMP_parallel@plt>
  402898:	9107c3e5 	add	x5, sp, #0x1f0
  40289c:	9107a3e4 	add	x4, sp, #0x1e8
  4028a0:	52800003 	mov	w3, #0x0                   	// #0
  4028a4:	52800002 	mov	w2, #0x0                   	// #0
  4028a8:	aa1c03e1 	mov	x1, x28
  4028ac:	b0000000 	adrp	x0, 403000 <main+0x1bc0>
  4028b0:	910c0000 	add	x0, x0, #0x300
  4028b4:	f90067e5 	str	x5, [sp, #200]
  4028b8:	f901abe4 	str	x4, [sp, #848]
  4028bc:	910823f9 	add	x25, sp, #0x208
  4028c0:	b9035bf8 	str	w24, [sp, #856]
  4028c4:	97fffa9b 	bl	401330 <GOMP_parallel@plt>
  4028c8:	b9465b57 	ldr	w23, [x26, #1624]
  4028cc:	9107e3e4 	add	x4, sp, #0x1f8
  4028d0:	910803e7 	add	x7, sp, #0x200
  4028d4:	a90b93e7 	stp	x7, x4, [sp, #184]
  4028d8:	531d72f3 	lsl	w19, w23, #3
  4028dc:	f940f7f8 	ldr	x24, [sp, #488]
  4028e0:	937d7e73 	sbfiz	x19, x19, #3, #32
  4028e4:	aa1303e0 	mov	x0, x19
  4028e8:	97fffa9a 	bl	401350 <malloc@plt>
  4028ec:	aa0003e1 	mov	x1, x0
  4028f0:	aa1303e0 	mov	x0, x19
  4028f4:	f900fbe1 	str	x1, [sp, #496]
  4028f8:	97fffa96 	bl	401350 <malloc@plt>
  4028fc:	aa0003e1 	mov	x1, x0
  402900:	aa1303e0 	mov	x0, x19
  402904:	f900ffe1 	str	x1, [sp, #504]
  402908:	97fffa92 	bl	401350 <malloc@plt>
  40290c:	aa0003e1 	mov	x1, x0
  402910:	aa1303e0 	mov	x0, x19
  402914:	f90103e1 	str	x1, [sp, #512]
  402918:	97fffa8e 	bl	401350 <malloc@plt>
  40291c:	aa0003e1 	mov	x1, x0
  402920:	aa1303e0 	mov	x0, x19
  402924:	f90107e1 	str	x1, [sp, #520]
  402928:	97fffa8a 	bl	401350 <malloc@plt>
  40292c:	aa0003e1 	mov	x1, x0
  402930:	aa1303e0 	mov	x0, x19
  402934:	f9010be1 	str	x1, [sp, #528]
  402938:	97fffa86 	bl	401350 <malloc@plt>
  40293c:	aa0003e6 	mov	x6, x0
  402940:	910d43e9 	add	x9, sp, #0x350
  402944:	aa1c03e1 	mov	x1, x28
  402948:	a94b93e7 	ldp	x7, x4, [sp, #184]
  40294c:	b0000020 	adrp	x0, 407000 <_ZL23IntegrateStressForElemsR6DomainPdS1_S1_S1_ii._omp_fn.0+0x33c>
  402950:	f94067e5 	ldr	x5, [sp, #200]
  402954:	a9011125 	stp	x5, x4, [x9, #16]
  402958:	91208000 	add	x0, x0, #0x820
  40295c:	f9406be4 	ldr	x4, [sp, #208]
  402960:	a900613a 	stp	x26, x24, [x9]
  402964:	52800003 	mov	w3, #0x0                   	// #0
  402968:	52800002 	mov	w2, #0x0                   	// #0
  40296c:	f9010fe6 	str	x6, [sp, #536]
  402970:	f901bbe7 	str	x7, [sp, #880]
  402974:	f901bff9 	str	x25, [sp, #888]
  402978:	f901c3fb 	str	x27, [sp, #896]
  40297c:	f901c7e4 	str	x4, [sp, #904]
  402980:	b90393f7 	str	w23, [sp, #912]
  402984:	97fffa6b 	bl	401330 <GOMP_parallel@plt>
  402988:	1e602158 	fcmpe	d10, #0.0
  40298c:	54000e8c 	b.gt	402b5c <main+0x171c>
  402990:	f9410fe0 	ldr	x0, [sp, #536]
  402994:	b4000060 	cbz	x0, 4029a0 <main+0x1560>
  402998:	97fffa02 	bl	4011a0 <free@plt>
  40299c:	f9010fff 	str	xzr, [sp, #536]
  4029a0:	f9410be0 	ldr	x0, [sp, #528]
  4029a4:	b4000060 	cbz	x0, 4029b0 <main+0x1570>
  4029a8:	97fff9fe 	bl	4011a0 <free@plt>
  4029ac:	f9010bff 	str	xzr, [sp, #528]
  4029b0:	f94107e0 	ldr	x0, [sp, #520]
  4029b4:	b4000060 	cbz	x0, 4029c0 <main+0x1580>
  4029b8:	97fff9fa 	bl	4011a0 <free@plt>
  4029bc:	f90107ff 	str	xzr, [sp, #520]
  4029c0:	f94103e0 	ldr	x0, [sp, #512]
  4029c4:	b4000040 	cbz	x0, 4029cc <main+0x158c>
  4029c8:	97fff9f6 	bl	4011a0 <free@plt>
  4029cc:	f940ffe0 	ldr	x0, [sp, #504]
  4029d0:	b4000040 	cbz	x0, 4029d8 <main+0x1598>
  4029d4:	97fff9f3 	bl	4011a0 <free@plt>
  4029d8:	f940fbe0 	ldr	x0, [sp, #496]
  4029dc:	b4000040 	cbz	x0, 4029e4 <main+0x15a4>
  4029e0:	97fff9f0 	bl	4011a0 <free@plt>
  4029e4:	f940f7e0 	ldr	x0, [sp, #488]
  4029e8:	b4000040 	cbz	x0, 4029f0 <main+0x15b0>
  4029ec:	97fff9ed 	bl	4011a0 <free@plt>
  4029f0:	b4000074 	cbz	x20, 4029fc <main+0x15bc>
  4029f4:	aa1403e0 	mov	x0, x20
  4029f8:	97fff9ea 	bl	4011a0 <free@plt>
  4029fc:	b4000075 	cbz	x21, 402a08 <main+0x15c8>
  402a00:	aa1503e0 	mov	x0, x21
  402a04:	97fff9e7 	bl	4011a0 <free@plt>
  402a08:	b4ff6596 	cbz	x22, 4016b8 <main+0x278>
  402a0c:	aa1603e0 	mov	x0, x22
  402a10:	97fff9e4 	bl	4011a0 <free@plt>
  402a14:	17fffb29 	b	4016b8 <main+0x278>
  402a18:	b9411fe0 	ldr	w0, [sp, #284]
  402a1c:	6b04001f 	cmp	w0, w4
  402a20:	54ffbf01 	b.ne	402200 <main+0xdc0>  // b.any
  402a24:	17fffed7 	b	402580 <main+0x1140>
  402a28:	91164349 	add	x9, x26, #0x590
  402a2c:	b0000084 	adrp	x4, 413000 <_ZN6DomainC1Eiiiiiiiii+0x1200>
  402a30:	910d83ea 	add	x10, sp, #0x360
  402a34:	f901abfa 	str	x26, [sp, #848]
  402a38:	fd47b884 	ldr	d4, [x4, #3952]
  402a3c:	52800002 	mov	w2, #0x0                   	// #0
  402a40:	6d400923 	ldp	d3, d2, [x9]
  402a44:	f901aff8 	str	x24, [sp, #856]
  402a48:	6d410520 	ldp	d0, d1, [x9, #16]
  402a4c:	aa1c03e1 	mov	x1, x28
  402a50:	6d000d44 	stp	d4, d3, [x10]
  402a54:	aa1b03e0 	mov	x0, x27
  402a58:	52800003 	mov	w3, #0x0                   	// #0
  402a5c:	6d010542 	stp	d2, d1, [x10, #16]
  402a60:	fd01c3e0 	str	d0, [sp, #896]
  402a64:	b9038bf9 	str	w25, [sp, #904]
  402a68:	97fffa32 	bl	401330 <GOMP_parallel@plt>
  402a6c:	b9426342 	ldr	w2, [x26, #608]
  402a70:	91000739 	add	x25, x25, #0x1
  402a74:	6b19005f 	cmp	w2, w25
  402a78:	54ffa40d 	b.le	401ef8 <main+0xab8>
  402a7c:	f9413743 	ldr	x3, [x26, #616]
  402a80:	17fffd18 	b	401ee0 <main+0xaa0>
  402a84:	b0000080 	adrp	x0, 413000 <_ZN6DomainC1Eiiiiiiiii+0x1200>
  402a88:	fd42f741 	ldr	d1, [x26, #1512]
  402a8c:	fd47d400 	ldr	d0, [x0, #4008]
  402a90:	1e602030 	fcmpe	d1, d0
  402a94:	fd0173e0 	str	d0, [sp, #736]
  402a98:	54002324 	b.mi	402efc <main+0x1abc>  // b.first
  402a9c:	b0000080 	adrp	x0, 413000 <_ZN6DomainC1Eiiiiiiiii+0x1200>
  402aa0:	fd47d401 	ldr	d1, [x0, #4008]
  402aa4:	fd42fb40 	ldr	d0, [x26, #1520]
  402aa8:	1e612010 	fcmpe	d0, d1
  402aac:	540021e4 	b.mi	402ee8 <main+0x1aa8>  // b.first
  402ab0:	52800044 	mov	w4, #0x2                   	// #2
  402ab4:	52810163 	mov	w3, #0x80b                 	// #2059
  402ab8:	aa1c03e1 	mov	x1, x28
  402abc:	910b83e0 	add	x0, sp, #0x2e0
  402ac0:	72ab0004 	movk	w4, #0x5800, lsl #16
  402ac4:	72a98003 	movk	w3, #0x4c00, lsl #16
  402ac8:	52a88005 	mov	w5, #0x44000000            	// #1140850688
  402acc:	52800022 	mov	w2, #0x1                   	// #1
  402ad0:	97fff9ec 	bl	401280 <MPI_Allreduce@plt>
  402ad4:	fd41abe0 	ldr	d0, [sp, #848]
  402ad8:	1e6e1002 	fmov	d2, #1.000000000000000000e+00
  402adc:	1e681801 	fdiv	d1, d0, d8
  402ae0:	1e622030 	fcmpe	d1, d2
  402ae4:	5400190a 	b.ge	402e04 <main+0x19c4>  // b.tcont
  402ae8:	fd431748 	ldr	d8, [x26, #1576]
  402aec:	b945fb40 	ldr	w0, [x26, #1528]
  402af0:	fd430741 	ldr	d1, [x26, #1544]
  402af4:	1e602110 	fcmpe	d8, d0
  402af8:	1e604d08 	fcsel	d8, d8, d0, mi  // mi = first
  402afc:	fd030b48 	str	d8, [x26, #1552]
  402b00:	17ffface 	b	401638 <main+0x1f8>
  402b04:	12800021 	mov	w1, #0xfffffffe            	// #-2
  402b08:	52a88000 	mov	w0, #0x44000000            	// #1140850688
  402b0c:	97fff9cd 	bl	401240 <MPI_Abort@plt>
  402b10:	17fffd26 	b	401fa8 <main+0xb68>
  402b14:	910dc357 	add	x23, x26, #0x370
  402b18:	cb010261 	sub	x1, x19, x1
  402b1c:	aa1603e0 	mov	x0, x22
  402b20:	94001814 	bl	408b70 <_ZNSt6vectorIdSaIdEE17_M_default_appendEm>
  402b24:	f941bb40 	ldr	x0, [x26, #880]
  402b28:	f94006e2 	ldr	x2, [x23, #8]
  402b2c:	cb000041 	sub	x1, x2, x0
  402b30:	9343fc21 	asr	x1, x1, #3
  402b34:	eb01027f 	cmp	x19, x1
  402b38:	54ff8749 	b.ls	401c20 <main+0x7e0>  // b.plast
  402b3c:	cb010261 	sub	x1, x19, x1
  402b40:	aa1703e0 	mov	x0, x23
  402b44:	9400180b 	bl	408b70 <_ZNSt6vectorIdSaIdEE17_M_default_appendEm>
  402b48:	17fffc3b 	b	401c34 <main+0x7f4>
  402b4c:	cb010261 	sub	x1, x19, x1
  402b50:	aa1503e0 	mov	x0, x21
  402b54:	94001807 	bl	408b70 <_ZNSt6vectorIdSaIdEE17_M_default_appendEm>
  402b58:	17fffc1f 	b	401bd4 <main+0x794>
  402b5c:	f940fbe0 	ldr	x0, [sp, #496]
  402b60:	f90067e0 	str	x0, [sp, #200]
  402b64:	f940ffe0 	ldr	x0, [sp, #504]
  402b68:	f9006be0 	str	x0, [sp, #208]
  402b6c:	f94103e0 	ldr	x0, [sp, #512]
  402b70:	f9006fe0 	str	x0, [sp, #216]
  402b74:	f94107e0 	ldr	x0, [sp, #520]
  402b78:	f9005fe0 	str	x0, [sp, #184]
  402b7c:	f9410fe0 	ldr	x0, [sp, #536]
  402b80:	f90063e0 	str	x0, [sp, #192]
  402b84:	b9465f40 	ldr	w0, [x26, #1628]
  402b88:	b900e3e0 	str	w0, [sp, #224]
  402b8c:	f9410bfb 	ldr	x27, [sp, #528]
  402b90:	97fffa00 	bl	401390 <omp_get_max_threads@plt>
  402b94:	2a0003f9 	mov	w25, w0
  402b98:	7100041f 	cmp	w0, #0x1
  402b9c:	5400016d 	b.le	402bc8 <main+0x1788>
  402ba0:	aa1303e0 	mov	x0, x19
  402ba4:	97fff9eb 	bl	401350 <malloc@plt>
  402ba8:	f90113e0 	str	x0, [sp, #544]
  402bac:	aa1303e0 	mov	x0, x19
  402bb0:	97fff9e8 	bl	401350 <malloc@plt>
  402bb4:	aa0003e1 	mov	x1, x0
  402bb8:	aa1303e0 	mov	x0, x19
  402bbc:	f90133e1 	str	x1, [sp, #608]
  402bc0:	97fff9e4 	bl	401350 <malloc@plt>
  402bc4:	f90153e0 	str	x0, [sp, #672]
  402bc8:	910d43f3 	add	x19, sp, #0x350
  402bcc:	1e6e1001 	fmov	d1, #1.000000000000000000e+00
  402bd0:	1e7e1000 	fmov	d0, #-1.000000000000000000e+00
  402bd4:	910dc3fe 	add	x30, sp, #0x370
  402bd8:	910e43e1 	add	x1, sp, #0x390
  402bdc:	910ec3e4 	add	x4, sp, #0x3b0
  402be0:	6d000661 	stp	d1, d1, [x19]
  402be4:	910f43e5 	add	x5, sp, #0x3d0
  402be8:	910fc3e6 	add	x6, sp, #0x3f0
  402bec:	6d010260 	stp	d0, d0, [x19, #16]
  402bf0:	911043e7 	add	x7, sp, #0x410
  402bf4:	9110c3e8 	add	x8, sp, #0x430
  402bf8:	6d0003c0 	stp	d0, d0, [x30]
  402bfc:	b0000000 	adrp	x0, 403000 <main+0x1bc0>
  402c00:	52800003 	mov	w3, #0x0                   	// #0
  402c04:	6d0107c1 	stp	d1, d1, [x30, #16]
  402c08:	911e8000 	add	x0, x0, #0x7a0
  402c0c:	52800002 	mov	w2, #0x0                   	// #0
  402c10:	6d000021 	stp	d1, d0, [x1]
  402c14:	6d010420 	stp	d0, d1, [x1, #16]
  402c18:	6d000480 	stp	d0, d1, [x4]
  402c1c:	6d010081 	stp	d1, d0, [x4, #16]
  402c20:	6d0000a1 	stp	d1, d0, [x5]
  402c24:	6d0100a1 	stp	d1, d0, [x5, #16]
  402c28:	6d0000c1 	stp	d1, d0, [x6]
  402c2c:	6d0100c1 	stp	d1, d0, [x6, #16]
  402c30:	6d0004e0 	stp	d0, d1, [x7]
  402c34:	6d0104e0 	stp	d0, d1, [x7, #16]
  402c38:	6d000101 	stp	d1, d0, [x8]
  402c3c:	6d010101 	stp	d1, d0, [x8, #16]
  402c40:	b9034ff7 	str	w23, [sp, #844]
  402c44:	f9405fe4 	ldr	x4, [sp, #184]
  402c48:	f9017be4 	str	x4, [sp, #752]
  402c4c:	f94063e4 	ldr	x4, [sp, #192]
  402c50:	f90183e4 	str	x4, [sp, #768]
  402c54:	f94067e4 	ldr	x4, [sp, #200]
  402c58:	f90187e4 	str	x4, [sp, #776]
  402c5c:	f9406be4 	ldr	x4, [sp, #208]
  402c60:	f9018be4 	str	x4, [sp, #784]
  402c64:	f9406fe4 	ldr	x4, [sp, #216]
  402c68:	f90177f8 	str	x24, [sp, #744]
  402c6c:	f94083e1 	ldr	x1, [sp, #256]
  402c70:	f90173fa 	str	x26, [sp, #736]
  402c74:	a9595ff3 	ldp	x19, x23, [sp, #400]
  402c78:	f9017ffb 	str	x27, [sp, #760]
  402c7c:	f940d3f8 	ldr	x24, [sp, #416]
  402c80:	f9018fe4 	str	x4, [sp, #792]
  402c84:	f90193f3 	str	x19, [sp, #800]
  402c88:	f90197f7 	str	x23, [sp, #808]
  402c8c:	f9019bf8 	str	x24, [sp, #816]
  402c90:	f9019ffc 	str	x28, [sp, #824]
  402c94:	fd01a3ea 	str	d10, [sp, #832]
  402c98:	b9034bf9 	str	w25, [sp, #840]
  402c9c:	97fff9a5 	bl	401330 <GOMP_parallel@plt>
  402ca0:	7100073f 	cmp	w25, #0x1
  402ca4:	54ffe76d 	b.le	402990 <main+0x1550>
  402ca8:	910b83f2 	add	x18, sp, #0x2e0
  402cac:	b940e3e4 	ldr	w4, [sp, #224]
  402cb0:	f94083e1 	ldr	x1, [sp, #256]
  402cb4:	b0000000 	adrp	x0, 403000 <main+0x1bc0>
  402cb8:	a9004e5a 	stp	x26, x19, [x18]
  402cbc:	9119c000 	add	x0, x0, #0x670
  402cc0:	52800003 	mov	w3, #0x0                   	// #0
  402cc4:	a9016257 	stp	x23, x24, [x18, #16]
  402cc8:	52800002 	mov	w2, #0x0                   	// #0
  402ccc:	b90303e4 	str	w4, [sp, #768]
  402cd0:	97fff998 	bl	401330 <GOMP_parallel@plt>
  402cd4:	f94153e0 	ldr	x0, [sp, #672]
  402cd8:	b4000060 	cbz	x0, 402ce4 <main+0x18a4>
  402cdc:	97fff931 	bl	4011a0 <free@plt>
  402ce0:	f90153ff 	str	xzr, [sp, #672]
  402ce4:	f94133e0 	ldr	x0, [sp, #608]
  402ce8:	b4000040 	cbz	x0, 402cf0 <main+0x18b0>
  402cec:	97fff92d 	bl	4011a0 <free@plt>
  402cf0:	f94113e0 	ldr	x0, [sp, #544]
  402cf4:	b4ffe4e0 	cbz	x0, 402990 <main+0x1550>
  402cf8:	97fff92a 	bl	4011a0 <free@plt>
  402cfc:	17ffff25 	b	402990 <main+0x1550>
  402d00:	d37ae762 	lsl	x2, x27, #6
  402d04:	f9005fe2 	str	x2, [sp, #184]
  402d08:	aa0203e0 	mov	x0, x2
  402d0c:	910843fb 	add	x27, sp, #0x210
  402d10:	97fff990 	bl	401350 <malloc@plt>
  402d14:	aa0003e1 	mov	x1, x0
  402d18:	f9405fe2 	ldr	x2, [sp, #184]
  402d1c:	f9010be1 	str	x1, [sp, #528]
  402d20:	aa0203e0 	mov	x0, x2
  402d24:	97fff98b 	bl	401350 <malloc@plt>
  402d28:	aa0003e1 	mov	x1, x0
  402d2c:	f9405fe2 	ldr	x2, [sp, #184]
  402d30:	f9010fe1 	str	x1, [sp, #536]
  402d34:	aa0203e0 	mov	x0, x2
  402d38:	97fff986 	bl	401350 <malloc@plt>
  402d3c:	aa0003e4 	mov	x4, x0
  402d40:	910d43ea 	add	x10, sp, #0x350
  402d44:	910dc3eb 	add	x11, sp, #0x370
  402d48:	910863e5 	add	x5, sp, #0x218
  402d4c:	910883e6 	add	x6, sp, #0x220
  402d50:	910983e7 	add	x7, sp, #0x260
  402d54:	910a83e8 	add	x8, sp, #0x2a0
  402d58:	910b83e9 	add	x9, sp, #0x2e0
  402d5c:	a900595a 	stp	x26, x22, [x10]
  402d60:	aa1c03e1 	mov	x1, x28
  402d64:	a9015155 	stp	x21, x20, [x10, #16]
  402d68:	52800003 	mov	w3, #0x0                   	// #0
  402d6c:	52800002 	mov	w2, #0x0                   	// #0
  402d70:	a9006d73 	stp	x19, x27, [x11]
  402d74:	90000020 	adrp	x0, 406000 <_ZL18CalcEnergyForElemsPdS_S_S_S_S_S_S_S_S_S_S_S_dddddS_S_ddiPi._omp_fn.1+0xec>
  402d78:	aa0503f3 	mov	x19, x5
  402d7c:	a9019d66 	stp	x6, x7, [x11, #24]
  402d80:	91331000 	add	x0, x0, #0xcc4
  402d84:	f9006be5 	str	x5, [sp, #208]
  402d88:	f90083e9 	str	x9, [sp, #256]
  402d8c:	a9191fe6 	stp	x6, x7, [sp, #400]
  402d90:	f900d3e8 	str	x8, [sp, #416]
  402d94:	f90113e4 	str	x4, [sp, #544]
  402d98:	f901c3e5 	str	x5, [sp, #896]
  402d9c:	f901cfe8 	str	x8, [sp, #920]
  402da0:	f901d3e9 	str	x9, [sp, #928]
  402da4:	b903abf9 	str	w25, [sp, #936]
  402da8:	b903aff8 	str	w24, [sp, #940]
  402dac:	97fff961 	bl	401330 <GOMP_parallel@plt>
  402db0:	910d43ec 	add	x12, sp, #0x350
  402db4:	aa1c03e1 	mov	x1, x28
  402db8:	f940cbe6 	ldr	x6, [sp, #400]
  402dbc:	52800003 	mov	w3, #0x0                   	// #0
  402dc0:	a9006d9a 	stp	x26, x27, [x12]
  402dc4:	b0000000 	adrp	x0, 403000 <main+0x1bc0>
  402dc8:	52800002 	mov	w2, #0x0                   	// #0
  402dcc:	a9011993 	stp	x19, x6, [x12, #16]
  402dd0:	91150000 	add	x0, x0, #0x540
  402dd4:	b90373f7 	str	w23, [sp, #880]
  402dd8:	97fff956 	bl	401330 <GOMP_parallel@plt>
  402ddc:	f94113e0 	ldr	x0, [sp, #544]
  402de0:	b4000040 	cbz	x0, 402de8 <main+0x19a8>
  402de4:	97fff8ef 	bl	4011a0 <free@plt>
  402de8:	f9410fe0 	ldr	x0, [sp, #536]
  402dec:	b4000040 	cbz	x0, 402df4 <main+0x19b4>
  402df0:	97fff8ec 	bl	4011a0 <free@plt>
  402df4:	f9410be0 	ldr	x0, [sp, #528]
  402df8:	b4ffd500 	cbz	x0, 402898 <main+0x1458>
  402dfc:	97fff8e9 	bl	4011a0 <free@plt>
  402e00:	17fffea6 	b	402898 <main+0x1458>
  402e04:	fd430f42 	ldr	d2, [x26, #1560]
  402e08:	1e622030 	fcmpe	d1, d2
  402e0c:	540008e4 	b.mi	402f28 <main+0x1ae8>  // b.first
  402e10:	fd431342 	ldr	d2, [x26, #1568]
  402e14:	1e622030 	fcmpe	d1, d2
  402e18:	540008cc 	b.gt	402f30 <main+0x1af0>
  402e1c:	17ffff33 	b	402ae8 <main+0x16a8>
  402e20:	cb010321 	sub	x1, x25, x1
  402e24:	aa1503e0 	mov	x0, x21
  402e28:	94001752 	bl	408b70 <_ZNSt6vectorIdSaIdEE17_M_default_appendEm>
  402e2c:	17fffbfa 	b	401e14 <main+0x9d4>
  402e30:	f94063e0 	ldr	x0, [sp, #192]
  402e34:	910fa357 	add	x23, x26, #0x3e8
  402e38:	cb010261 	sub	x1, x19, x1
  402e3c:	9400174d 	bl	408b70 <_ZNSt6vectorIdSaIdEE17_M_default_appendEm>
  402e40:	f94006e2 	ldr	x2, [x23, #8]
  402e44:	f941f740 	ldr	x0, [x26, #1000]
  402e48:	cb000041 	sub	x1, x2, x0
  402e4c:	9343fc21 	asr	x1, x1, #3
  402e50:	eb01027f 	cmp	x19, x1
  402e54:	54ff7709 	b.ls	401d34 <main+0x8f4>  // b.plast
  402e58:	cb010261 	sub	x1, x19, x1
  402e5c:	aa1703e0 	mov	x0, x23
  402e60:	94001744 	bl	408b70 <_ZNSt6vectorIdSaIdEE17_M_default_appendEm>
  402e64:	91100340 	add	x0, x26, #0x400
  402e68:	f9005fe0 	str	x0, [sp, #184]
  402e6c:	f9420342 	ldr	x2, [x26, #1024]
  402e70:	f9420740 	ldr	x0, [x26, #1032]
  402e74:	cb020001 	sub	x1, x0, x2
  402e78:	9343fc21 	asr	x1, x1, #3
  402e7c:	eb01027f 	cmp	x19, x1
  402e80:	54ff7749 	b.ls	401d68 <main+0x928>  // b.plast
  402e84:	f9405fe0 	ldr	x0, [sp, #184]
  402e88:	cb010261 	sub	x1, x19, x1
  402e8c:	910e2353 	add	x19, x26, #0x388
  402e90:	93407f39 	sxtw	x25, w25
  402e94:	94001737 	bl	408b70 <_ZNSt6vectorIdSaIdEE17_M_default_appendEm>
  402e98:	f9400662 	ldr	x2, [x19, #8]
  402e9c:	f941c740 	ldr	x0, [x26, #904]
  402ea0:	cb000041 	sub	x1, x2, x0
  402ea4:	9343fc21 	asr	x1, x1, #3
  402ea8:	eb01033f 	cmp	x25, x1
  402eac:	54ff77a9 	b.ls	401da0 <main+0x960>  // b.plast
  402eb0:	910e8354 	add	x20, x26, #0x3a0
  402eb4:	cb010321 	sub	x1, x25, x1
  402eb8:	aa1303e0 	mov	x0, x19
  402ebc:	9400172d 	bl	408b70 <_ZNSt6vectorIdSaIdEE17_M_default_appendEm>
  402ec0:	f941d340 	ldr	x0, [x26, #928]
  402ec4:	f9400682 	ldr	x2, [x20, #8]
  402ec8:	cb000041 	sub	x1, x2, x0
  402ecc:	9343fc21 	asr	x1, x1, #3
  402ed0:	eb01033f 	cmp	x25, x1
  402ed4:	54ff77e9 	b.ls	401dd0 <main+0x990>  // b.plast
  402ed8:	cb010321 	sub	x1, x25, x1
  402edc:	aa1403e0 	mov	x0, x20
  402ee0:	94001724 	bl	408b70 <_ZNSt6vectorIdSaIdEE17_M_default_appendEm>
  402ee4:	17fffbc0 	b	401de4 <main+0x9a4>
  402ee8:	1e602800 	fadd	d0, d0, d0
  402eec:	1e611001 	fmov	d1, #3.000000000000000000e+00
  402ef0:	1e611800 	fdiv	d0, d0, d1
  402ef4:	fd0173e0 	str	d0, [sp, #736]
  402ef8:	17fffeee 	b	402ab0 <main+0x1670>
  402efc:	1e6c1000 	fmov	d0, #5.000000000000000000e-01
  402f00:	1e600821 	fmul	d1, d1, d0
  402f04:	fd0173e1 	str	d1, [sp, #736]
  402f08:	17fffee7 	b	402aa4 <main+0x1664>
  402f0c:	b945fb41 	ldr	w1, [x26, #1528]
  402f10:	b0000080 	adrp	x0, 413000 <_ZN6DomainC1Eiiiiiiiii+0x1200>
  402f14:	fd430740 	ldr	d0, [x26, #1544]
  402f18:	913ca000 	add	x0, x0, #0xf28
  402f1c:	fd430b41 	ldr	d1, [x26, #1552]
  402f20:	97fff938 	bl	401400 <printf@plt>
  402f24:	17fffaf7 	b	401b00 <main+0x6c0>
  402f28:	1e604100 	fmov	d0, d8
  402f2c:	17fffeef 	b	402ae8 <main+0x16a8>
  402f30:	1e680840 	fmul	d0, d2, d8
  402f34:	17fffeed 	b	402ae8 <main+0x16a8>
  402f38:	b941c3e3 	ldr	w3, [sp, #448]
  402f3c:	aa1903e0 	mov	x0, x25
  402f40:	b941c7e2 	ldr	w2, [sp, #452]
  402f44:	b94247e1 	ldr	w1, [sp, #580]
  402f48:	94003432 	bl	410010 <_Z11DumpToVisitR6Domainiii>
  402f4c:	17fffb08 	b	401b6c <main+0x72c>
  402f50:	b941c3e2 	ldr	w2, [sp, #448]
  402f54:	aa1903e0 	mov	x0, x25
  402f58:	b9423fe1 	ldr	w1, [sp, #572]
  402f5c:	fd41abe0 	ldr	d0, [sp, #848]
  402f60:	940035e9 	bl	410704 <_Z25VerifyAndWriteFinalOutputdR6Domainii>
  402f64:	17fffb06 	b	401b7c <main+0x73c>
  402f68:	b9423fe1 	ldr	w1, [sp, #572]
  402f6c:	b0000080 	adrp	x0, 413000 <_ZN6DomainC1Eiiiiiiiii+0x1200>
  402f70:	91352000 	add	x0, x0, #0xd48
  402f74:	97fff923 	bl	401400 <printf@plt>
  402f78:	b941c3e1 	ldr	w1, [sp, #448]
  402f7c:	b0000080 	adrp	x0, 413000 <_ZN6DomainC1Eiiiiiiiii+0x1200>
  402f80:	91360000 	add	x0, x0, #0xd80
  402f84:	97fff91f 	bl	401400 <printf@plt>
  402f88:	97fff902 	bl	401390 <omp_get_max_threads@plt>
  402f8c:	2a0003e1 	mov	w1, w0
  402f90:	b0000080 	adrp	x0, 413000 <_ZN6DomainC1Eiiiiiiiii+0x1200>
  402f94:	91366000 	add	x0, x0, #0xd98
  402f98:	97fff91a 	bl	401400 <printf@plt>
  402f9c:	b9423fe2 	ldr	w2, [sp, #572]
  402fa0:	b0000080 	adrp	x0, 413000 <_ZN6DomainC1Eiiiiiiiii+0x1200>
  402fa4:	b941c3e1 	ldr	w1, [sp, #448]
  402fa8:	9136c000 	add	x0, x0, #0xdb0
  402fac:	1b017c41 	mul	w1, w2, w1
  402fb0:	1b027c21 	mul	w1, w1, w2
  402fb4:	1b027c21 	mul	w1, w1, w2
  402fb8:	93407c21 	sxtw	x1, w1
  402fbc:	97fff911 	bl	401400 <printf@plt>
  402fc0:	b0000080 	adrp	x0, 413000 <_ZN6DomainC1Eiiiiiiiii+0x1200>
  402fc4:	91376000 	add	x0, x0, #0xdd8
  402fc8:	97fff862 	bl	401150 <puts@plt>
  402fcc:	b0000080 	adrp	x0, 413000 <_ZN6DomainC1Eiiiiiiiii+0x1200>
  402fd0:	91380000 	add	x0, x0, #0xe00
  402fd4:	97fff85f 	bl	401150 <puts@plt>
  402fd8:	b0000080 	adrp	x0, 413000 <_ZN6DomainC1Eiiiiiiiii+0x1200>
  402fdc:	9138e000 	add	x0, x0, #0xe38
  402fe0:	97fff85c 	bl	401150 <puts@plt>
  402fe4:	b0000080 	adrp	x0, 413000 <_ZN6DomainC1Eiiiiiiiii+0x1200>
  402fe8:	9139e000 	add	x0, x0, #0xe78
  402fec:	97fff859 	bl	401150 <puts@plt>
  402ff0:	b0000080 	adrp	x0, 413000 <_ZN6DomainC1Eiiiiiiiii+0x1200>
  402ff4:	913ae000 	add	x0, x0, #0xeb8
  402ff8:	97fff856 	bl	401150 <puts@plt>
  402ffc:	b0000080 	adrp	x0, 413000 <_ZN6DomainC1Eiiiiiiiii+0x1200>
  403000:	913b6000 	add	x0, x0, #0xed8
  403004:	97fff853 	bl	401150 <puts@plt>
  403008:	90000080 	adrp	x0, 413000 <_ZN6DomainC1Eiiiiiiiii+0x1200>
  40300c:	913c2000 	add	x0, x0, #0xf08
  403010:	97fff850 	bl	401150 <puts@plt>
  403014:	b941c7e1 	ldr	w1, [sp, #452]
  403018:	17fff935 	b	4014ec <main+0xac>
  40301c:	d280d201 	mov	x1, #0x690                 	// #1680
  403020:	a90253f3 	stp	x19, x20, [sp, #32]
  403024:	aa0003f3 	mov	x19, x0
  403028:	aa1903e0 	mov	x0, x25
  40302c:	a9035bf5 	stp	x21, x22, [sp, #48]
  403030:	a90463f7 	stp	x23, x24, [sp, #64]
  403034:	a90673fb 	stp	x27, x28, [sp, #96]
  403038:	6d0727e8 	stp	d8, d9, [sp, #112]
  40303c:	6d082fea 	stp	d10, d11, [sp, #128]
  403040:	6d0937ec 	stp	d12, d13, [sp, #144]
  403044:	6d0a3fee 	stp	d14, d15, [sp, #160]
  403048:	97fff87a 	bl	401230 <_ZdlPvm@plt>
  40304c:	aa1303e0 	mov	x0, x19
  403050:	97fff8dc 	bl	4013c0 <_Unwind_Resume@plt>
  403054:	97fff8ab 	bl	401300 <__cxa_throw_bad_array_new_length@plt>
  403058:	d503201f 	nop
  40305c:	d503201f 	nop

0000000000403060 <_GLOBAL__sub_I_lulesh.cc>:
  403060:	a9be7bfd 	stp	x29, x30, [sp, #-32]!
  403064:	910003fd 	mov	x29, sp
  403068:	f9000bf3 	str	x19, [sp, #16]
  40306c:	b0000173 	adrp	x19, 430000 <_Znam@GLIBCXX_3.4>
  403070:	91066273 	add	x19, x19, #0x198
  403074:	91008273 	add	x19, x19, #0x20
  403078:	aa1303e0 	mov	x0, x19
  40307c:	97fff8b1 	bl	401340 <_ZNSt8ios_base4InitC1Ev@plt>
  403080:	aa1303e1 	mov	x1, x19
  403084:	90000160 	adrp	x0, 42f000 <__FRAME_END__+0x191c4>
  403088:	f9400bf3 	ldr	x19, [sp, #16]
  40308c:	b0000162 	adrp	x2, 430000 <_Znam@GLIBCXX_3.4>
  403090:	a8c27bfd 	ldp	x29, x30, [sp], #32
  403094:	9105e042 	add	x2, x2, #0x178
  403098:	f947f000 	ldr	x0, [x0, #4064]
  40309c:	17fff86d 	b	401250 <__cxa_atexit@plt>
  4030a0:	d503201f 	nop
  4030a4:	d503201f 	nop
  4030a8:	d503201f 	nop
  4030ac:	d503201f 	nop
  4030b0:	d503201f 	nop
  4030b4:	d503201f 	nop
  4030b8:	d503201f 	nop
  4030bc:	d503201f 	nop

00000000004030c0 <_start>:
  4030c0:	d503201f 	nop
  4030c4:	d280001d 	mov	x29, #0x0                   	// #0
  4030c8:	d280001e 	mov	x30, #0x0                   	// #0
  4030cc:	aa0003e5 	mov	x5, x0
  4030d0:	f94003e1 	ldr	x1, [sp]
  4030d4:	910023e2 	add	x2, sp, #0x8
  4030d8:	910003e6 	mov	x6, sp
  4030dc:	90000000 	adrp	x0, 403000 <main+0x1bc0>
  4030e0:	9103d000 	add	x0, x0, #0xf4
  4030e4:	d2800003 	mov	x3, #0x0                   	// #0
  4030e8:	d2800004 	mov	x4, #0x0                   	// #0
  4030ec:	97fff841 	bl	4011f0 <__libc_start_main@plt>
  4030f0:	97fff8a0 	bl	401370 <abort@plt>

00000000004030f4 <__wrap_main>:
  4030f4:	d503201f 	nop
  4030f8:	17fff8d2 	b	401440 <main>
  4030fc:	d503201f 	nop

0000000000403100 <_dl_relocate_static_pie>:
  403100:	d65f03c0 	ret

0000000000403104 <call_weak_fn>:
  403104:	90000160 	adrp	x0, 42f000 <__FRAME_END__+0x191c4>
  403108:	f947e000 	ldr	x0, [x0, #4032]
  40310c:	b4000040 	cbz	x0, 403114 <call_weak_fn+0x10>
  403110:	17fff8b8 	b	4013f0 <__gmon_start__@plt>
  403114:	d65f03c0 	ret
  403118:	d503201f 	nop
  40311c:	d503201f 	nop

0000000000403120 <deregister_tm_clones>:
  403120:	b0000160 	adrp	x0, 430000 <_Znam@GLIBCXX_3.4>
  403124:	91064000 	add	x0, x0, #0x190
  403128:	b0000161 	adrp	x1, 430000 <_Znam@GLIBCXX_3.4>
  40312c:	91064021 	add	x1, x1, #0x190
  403130:	eb00003f 	cmp	x1, x0
  403134:	540000c0 	b.eq	40314c <deregister_tm_clones+0x2c>  // b.none
  403138:	90000161 	adrp	x1, 42f000 <__FRAME_END__+0x191c4>
  40313c:	f947dc21 	ldr	x1, [x1, #4024]
  403140:	b4000061 	cbz	x1, 40314c <deregister_tm_clones+0x2c>
  403144:	aa0103f0 	mov	x16, x1
  403148:	d61f0200 	br	x16
  40314c:	d65f03c0 	ret

0000000000403150 <register_tm_clones>:
  403150:	b0000160 	adrp	x0, 430000 <_Znam@GLIBCXX_3.4>
  403154:	91064000 	add	x0, x0, #0x190
  403158:	b0000161 	adrp	x1, 430000 <_Znam@GLIBCXX_3.4>
  40315c:	91064021 	add	x1, x1, #0x190
  403160:	cb000021 	sub	x1, x1, x0
  403164:	d37ffc22 	lsr	x2, x1, #63
  403168:	8b810c41 	add	x1, x2, x1, asr #3
  40316c:	9341fc21 	asr	x1, x1, #1
  403170:	b40000c1 	cbz	x1, 403188 <register_tm_clones+0x38>
  403174:	90000162 	adrp	x2, 42f000 <__FRAME_END__+0x191c4>
  403178:	f947e842 	ldr	x2, [x2, #4048]
  40317c:	b4000062 	cbz	x2, 403188 <register_tm_clones+0x38>
  403180:	aa0203f0 	mov	x16, x2
  403184:	d61f0200 	br	x16
  403188:	d65f03c0 	ret
  40318c:	d503201f 	nop

0000000000403190 <__do_global_dtors_aux>:
  403190:	a9be7bfd 	stp	x29, x30, [sp, #-32]!
  403194:	910003fd 	mov	x29, sp
  403198:	f9000bf3 	str	x19, [sp, #16]
  40319c:	b0000173 	adrp	x19, 430000 <_Znam@GLIBCXX_3.4>
  4031a0:	39464260 	ldrb	w0, [x19, #400]
  4031a4:	35000080 	cbnz	w0, 4031b4 <__do_global_dtors_aux+0x24>
  4031a8:	97ffffde 	bl	403120 <deregister_tm_clones>
  4031ac:	52800020 	mov	w0, #0x1                   	// #1
  4031b0:	39064260 	strb	w0, [x19, #400]
  4031b4:	f9400bf3 	ldr	x19, [sp, #16]
  4031b8:	a8c27bfd 	ldp	x29, x30, [sp], #32
  4031bc:	d65f03c0 	ret

00000000004031c0 <frame_dummy>:
  4031c0:	17ffffe4 	b	403150 <register_tm_clones>
  4031c4:	d503201f 	nop
  4031c8:	d503201f 	nop
  4031cc:	d503201f 	nop

00000000004031d0 <_ZL17CalcForceForNodesR6Domain._omp_fn.0>:
  4031d0:	a9bd7bfd 	stp	x29, x30, [sp, #-48]!
  4031d4:	910003fd 	mov	x29, sp
  4031d8:	a90153f3 	stp	x19, x20, [sp, #16]
  4031dc:	aa0003f4 	mov	x20, x0
  4031e0:	97fff880 	bl	4013e0 <omp_get_num_threads@plt>
  4031e4:	2a0003f3 	mov	w19, w0
  4031e8:	97fff85e 	bl	401360 <omp_get_thread_num@plt>
  4031ec:	b9400a83 	ldr	w3, [x20, #8]
  4031f0:	2a0003e1 	mov	w1, w0
  4031f4:	1ad30c62 	sdiv	w2, w3, w19
  4031f8:	1b138c43 	msub	w3, w2, w19, w3
  4031fc:	6b03001f 	cmp	w0, w3
  403200:	540007ab 	b.lt	4032f4 <_ZL17CalcForceForNodesR6Domain._omp_fn.0+0x124>  // b.tstop
  403204:	1b010c41 	madd	w1, w2, w1, w3
  403208:	0b010045 	add	w5, w2, w1
  40320c:	6b05003f 	cmp	w1, w5
  403210:	540006ca 	b.ge	4032e8 <_ZL17CalcForceForNodesR6Domain._omp_fn.0+0x118>  // b.tcont
  403214:	f9400286 	ldr	x6, [x20]
  403218:	93407c21 	sxtw	x1, w1
  40321c:	51000442 	sub	w2, w2, #0x1
  403220:	91000424 	add	x4, x1, #0x1
  403224:	8b020083 	add	x3, x4, x2
  403228:	d37df020 	lsl	x0, x1, #3
  40322c:	f940e8c8 	ldr	x8, [x6, #464]
  403230:	d37df063 	lsl	x3, x3, #3
  403234:	f940f4c9 	ldr	x9, [x6, #488]
  403238:	8b03010a 	add	x10, x8, x3
  40323c:	f940dcc7 	ldr	x7, [x6, #440]
  403240:	f90013f5 	str	x21, [sp, #32]
  403244:	8b000135 	add	x21, x9, x0
  403248:	8b03012b 	add	x11, x9, x3
  40324c:	8b000114 	add	x20, x8, x0
  403250:	eb0a02bf 	cmp	x21, x10
  403254:	8b0300e3 	add	x3, x7, x3
  403258:	fa543160 	ccmp	x11, x20, #0x0, cc  // cc = lo, ul, last
  40325c:	1a9f87e6 	cset	w6, ls  // ls = plast
  403260:	8b0000e0 	add	x0, x7, x0
  403264:	eb0302bf 	cmp	x21, x3
  403268:	fa403160 	ccmp	x11, x0, #0x0, cc  // cc = lo, ul, last
  40326c:	1a9f87eb 	cset	w11, ls  // ls = plast
  403270:	eb03029f 	cmp	x20, x3
  403274:	fa403140 	ccmp	x10, x0, #0x0, cc  // cc = lo, ul, last
  403278:	0a0b00c3 	and	w3, w6, w11
  40327c:	1a9f87e6 	cset	w6, ls  // ls = plast
  403280:	6a0300df 	tst	w6, w3
  403284:	54000240 	b.eq	4032cc <_ZL17CalcForceForNodesR6Domain._omp_fn.0+0xfc>  // b.none
  403288:	91000442 	add	x2, x2, #0x1
  40328c:	52800001 	mov	w1, #0x0                   	// #0
  403290:	d37df053 	lsl	x19, x2, #3
  403294:	aa1303e2 	mov	x2, x19
  403298:	97fff7ca 	bl	4011c0 <memset@plt>
  40329c:	aa1303e2 	mov	x2, x19
  4032a0:	aa1503e0 	mov	x0, x21
  4032a4:	52800001 	mov	w1, #0x0                   	// #0
  4032a8:	97fff7c6 	bl	4011c0 <memset@plt>
  4032ac:	aa1303e2 	mov	x2, x19
  4032b0:	aa1403e0 	mov	x0, x20
  4032b4:	a94153f3 	ldp	x19, x20, [sp, #16]
  4032b8:	52800001 	mov	w1, #0x0                   	// #0
  4032bc:	f94013f5 	ldr	x21, [sp, #32]
  4032c0:	a8c37bfd 	ldp	x29, x30, [sp], #48
  4032c4:	17fff7bf 	b	4011c0 <memset@plt>
  4032c8:	91000484 	add	x4, x4, #0x1
  4032cc:	f82178ff 	str	xzr, [x7, x1, lsl #3]
  4032d0:	f821791f 	str	xzr, [x8, x1, lsl #3]
  4032d4:	f821793f 	str	xzr, [x9, x1, lsl #3]
  4032d8:	aa0403e1 	mov	x1, x4
  4032dc:	6b0400bf 	cmp	w5, w4
  4032e0:	54ffff4c 	b.gt	4032c8 <_ZL17CalcForceForNodesR6Domain._omp_fn.0+0xf8>
  4032e4:	f94013f5 	ldr	x21, [sp, #32]
  4032e8:	a94153f3 	ldp	x19, x20, [sp, #16]
  4032ec:	a8c37bfd 	ldp	x29, x30, [sp], #48
  4032f0:	d65f03c0 	ret
  4032f4:	11000442 	add	w2, w2, #0x1
  4032f8:	52800003 	mov	w3, #0x0                   	// #0
  4032fc:	17ffffc2 	b	403204 <_ZL17CalcForceForNodesR6Domain._omp_fn.0+0x34>

0000000000403300 <_ZL23CalcVolumeForceForElemsR6Domain._omp_fn.0>:
  403300:	a9bd7bfd 	stp	x29, x30, [sp, #-48]!
  403304:	910003fd 	mov	x29, sp
  403308:	a90153f3 	stp	x19, x20, [sp, #16]
  40330c:	aa0003f4 	mov	x20, x0
  403310:	f90013f5 	str	x21, [sp, #32]
  403314:	97fff833 	bl	4013e0 <omp_get_num_threads@plt>
  403318:	2a0003f5 	mov	w21, w0
  40331c:	97fff811 	bl	401360 <omp_get_thread_num@plt>
  403320:	2a0003f3 	mov	w19, w0
  403324:	b9400a80 	ldr	w0, [x20, #8]
  403328:	1ad50c01 	sdiv	w1, w0, w21
  40332c:	1b158020 	msub	w0, w1, w21, w0
  403330:	6b00027f 	cmp	w19, w0
  403334:	5400036b 	b.lt	4033a0 <_ZL23CalcVolumeForceForElemsR6Domain._omp_fn.0+0xa0>  // b.tstop
  403338:	1b130033 	madd	w19, w1, w19, w0
  40333c:	0b130020 	add	w0, w1, w19
  403340:	6b00027f 	cmp	w19, w0
  403344:	540001ea 	b.ge	403380 <_ZL23CalcVolumeForceForElemsR6Domain._omp_fn.0+0x80>  // b.tcont
  403348:	93407e75 	sxtw	x21, w19
  40334c:	51000421 	sub	w1, w1, #0x1
  403350:	910006b5 	add	x21, x21, #0x1
  403354:	937d7e73 	sbfiz	x19, x19, #3, #32
  403358:	8b0102b5 	add	x21, x21, x1
  40335c:	d37df2b5 	lsl	x21, x21, #3
  403360:	f9400281 	ldr	x1, [x20]
  403364:	f9400021 	ldr	x1, [x1]
  403368:	fc736820 	ldr	d0, [x1, x19]
  40336c:	1e602018 	fcmpe	d0, #0.0
  403370:	54000109 	b.ls	403390 <_ZL23CalcVolumeForceForElemsR6Domain._omp_fn.0+0x90>  // b.plast
  403374:	91002273 	add	x19, x19, #0x8
  403378:	eb1302bf 	cmp	x21, x19
  40337c:	54ffff21 	b.ne	403360 <_ZL23CalcVolumeForceForElemsR6Domain._omp_fn.0+0x60>  // b.any
  403380:	a94153f3 	ldp	x19, x20, [sp, #16]
  403384:	f94013f5 	ldr	x21, [sp, #32]
  403388:	a8c37bfd 	ldp	x29, x30, [sp], #48
  40338c:	d65f03c0 	ret
  403390:	12800001 	mov	w1, #0xffffffff            	// #-1
  403394:	52a88000 	mov	w0, #0x44000000            	// #1140850688
  403398:	97fff7aa 	bl	401240 <MPI_Abort@plt>
  40339c:	17fffff6 	b	403374 <_ZL23CalcVolumeForceForElemsR6Domain._omp_fn.0+0x74>
  4033a0:	11000421 	add	w1, w1, #0x1
  4033a4:	52800000 	mov	w0, #0x0                   	// #0
  4033a8:	17ffffe4 	b	403338 <_ZL23CalcVolumeForceForElemsR6Domain._omp_fn.0+0x38>
  4033ac:	d503201f 	nop

00000000004033b0 <_ZL23InitStressTermsForElemsR6DomainPdS1_S1_i._omp_fn.0>:
  4033b0:	a9be7bfd 	stp	x29, x30, [sp, #-32]!
  4033b4:	910003fd 	mov	x29, sp
  4033b8:	a90153f3 	stp	x19, x20, [sp, #16]
  4033bc:	aa0003f4 	mov	x20, x0
  4033c0:	97fff808 	bl	4013e0 <omp_get_num_threads@plt>
  4033c4:	2a0003f3 	mov	w19, w0
  4033c8:	97fff7e6 	bl	401360 <omp_get_thread_num@plt>
  4033cc:	b9402282 	ldr	w2, [x20, #32]
  4033d0:	2a0003e1 	mov	w1, w0
  4033d4:	1ad30c43 	sdiv	w3, w2, w19
  4033d8:	1b138862 	msub	w2, w3, w19, w2
  4033dc:	6b02001f 	cmp	w0, w2
  4033e0:	54000a6b 	b.lt	40352c <_ZL23InitStressTermsForElemsR6DomainPdS1_S1_i._omp_fn.0+0x17c>  // b.tstop
  4033e4:	1b010861 	madd	w1, w3, w1, w2
  4033e8:	0b01006e 	add	w14, w3, w1
  4033ec:	6b0e003f 	cmp	w1, w14
  4033f0:	5400080a 	b.ge	4034f0 <_ZL23InitStressTermsForElemsR6DomainPdS1_S1_i._omp_fn.0+0x140>  // b.tcont
  4033f4:	a9403288 	ldp	x8, x12, [x20]
  4033f8:	93407c22 	sxtw	x2, w1
  4033fc:	a9411a85 	ldp	x5, x6, [x20, #16]
  403400:	9100044a 	add	x10, x2, #0x1
  403404:	937d7c20 	sbfiz	x0, x1, #3, #32
  403408:	51000464 	sub	w4, w3, #0x1
  40340c:	d37df149 	lsl	x9, x10, #3
  403410:	7100109f 	cmp	w4, #0x4
  403414:	f9422507 	ldr	x7, [x8, #1096]
  403418:	8b000184 	add	x4, x12, x0
  40341c:	8b0900cf 	add	x15, x6, x9
  403420:	8b0000ab 	add	x11, x5, x0
  403424:	fa4b81e4 	ccmp	x15, x11, #0x4, hi  // hi = pmore
  403428:	8b0900f1 	add	x17, x7, x9
  40342c:	f9421908 	ldr	x8, [x8, #1072]
  403430:	1a9f07f0 	cset	w16, ne  // ne = any
  403434:	8b0000cd 	add	x13, x6, x0
  403438:	eb0f009f 	cmp	x4, x15
  40343c:	8b0900b2 	add	x18, x5, x9
  403440:	fa5111a4 	ccmp	x13, x17, #0x4, ne  // ne = any
  403444:	8b090109 	add	x9, x8, x9
  403448:	1a9f07ef 	cset	w15, ne  // ne = any
  40344c:	eb04025f 	cmp	x18, x4
  403450:	0a0f020f 	and	w15, w16, w15
  403454:	fa4911a4 	ccmp	x13, x9, #0x4, ne  // ne = any
  403458:	1a9f07f0 	cset	w16, ne  // ne = any
  40345c:	eb11017f 	cmp	x11, x17
  403460:	fa491164 	ccmp	x11, x9, #0x4, ne  // ne = any
  403464:	0a0f0210 	and	w16, w16, w15
  403468:	1a9f07ef 	cset	w15, ne  // ne = any
  40346c:	eb11009f 	cmp	x4, x17
  403470:	fa491084 	ccmp	x4, x9, #0x4, ne  // ne = any
  403474:	0a1001e9 	and	w9, w15, w16
  403478:	1a9f07ef 	cset	w15, ne  // ne = any
  40347c:	6a0901ff 	tst	w15, w9
  403480:	54000400 	b.eq	403500 <_ZL23InitStressTermsForElemsR6DomainPdS1_S1_i._omp_fn.0+0x150>  // b.none
  403484:	53017c69 	lsr	w9, w3, #1
  403488:	8b00010a 	add	x10, x8, x0
  40348c:	8b0000e2 	add	x2, x7, x0
  403490:	d2800000 	mov	x0, #0x0                   	// #0
  403494:	d37ced29 	lsl	x9, x9, #4
  403498:	3ce06940 	ldr	q0, [x10, x0]
  40349c:	3ce06841 	ldr	q1, [x2, x0]
  4034a0:	6ee0f800 	fneg	v0.2d, v0.2d
  4034a4:	4ee1d400 	fsub	v0.2d, v0.2d, v1.2d
  4034a8:	3ca069a0 	str	q0, [x13, x0]
  4034ac:	3ca06960 	str	q0, [x11, x0]
  4034b0:	3ca06880 	str	q0, [x4, x0]
  4034b4:	91004000 	add	x0, x0, #0x10
  4034b8:	eb09001f 	cmp	x0, x9
  4034bc:	54fffee1 	b.ne	403498 <_ZL23InitStressTermsForElemsR6DomainPdS1_S1_i._omp_fn.0+0xe8>  // b.any
  4034c0:	121f7862 	and	w2, w3, #0xfffffffe
  4034c4:	0b010040 	add	w0, w2, w1
  4034c8:	6b02007f 	cmp	w3, w2
  4034cc:	54000120 	b.eq	4034f0 <_ZL23InitStressTermsForElemsR6DomainPdS1_S1_i._omp_fn.0+0x140>  // b.none
  4034d0:	93407c00 	sxtw	x0, w0
  4034d4:	fc607900 	ldr	d0, [x8, x0, lsl #3]
  4034d8:	fc6078e1 	ldr	d1, [x7, x0, lsl #3]
  4034dc:	1e614000 	fneg	d0, d0
  4034e0:	1e613800 	fsub	d0, d0, d1
  4034e4:	fc2078c0 	str	d0, [x6, x0, lsl #3]
  4034e8:	fc2078a0 	str	d0, [x5, x0, lsl #3]
  4034ec:	fc207980 	str	d0, [x12, x0, lsl #3]
  4034f0:	a94153f3 	ldp	x19, x20, [sp, #16]
  4034f4:	a8c27bfd 	ldp	x29, x30, [sp], #32
  4034f8:	d65f03c0 	ret
  4034fc:	9100054a 	add	x10, x10, #0x1
  403500:	fc627900 	ldr	d0, [x8, x2, lsl #3]
  403504:	fc6278e1 	ldr	d1, [x7, x2, lsl #3]
  403508:	1e614000 	fneg	d0, d0
  40350c:	1e613800 	fsub	d0, d0, d1
  403510:	fc2278c0 	str	d0, [x6, x2, lsl #3]
  403514:	fc2278a0 	str	d0, [x5, x2, lsl #3]
  403518:	fc227980 	str	d0, [x12, x2, lsl #3]
  40351c:	aa0a03e2 	mov	x2, x10
  403520:	6b0a01df 	cmp	w14, w10
  403524:	54fffecc 	b.gt	4034fc <_ZL23InitStressTermsForElemsR6DomainPdS1_S1_i._omp_fn.0+0x14c>
  403528:	17fffff2 	b	4034f0 <_ZL23InitStressTermsForElemsR6DomainPdS1_S1_i._omp_fn.0+0x140>
  40352c:	11000463 	add	w3, w3, #0x1
  403530:	52800002 	mov	w2, #0x0                   	// #0
  403534:	17ffffac 	b	4033e4 <_ZL23InitStressTermsForElemsR6DomainPdS1_S1_i._omp_fn.0+0x34>
  403538:	d503201f 	nop
  40353c:	d503201f 	nop

0000000000403540 <_ZL23IntegrateStressForElemsR6DomainPdS1_S1_S1_ii._omp_fn.1>:
  403540:	a9be7bfd 	stp	x29, x30, [sp, #-32]!
  403544:	910003fd 	mov	x29, sp
  403548:	a90153f3 	stp	x19, x20, [sp, #16]
  40354c:	aa0003f4 	mov	x20, x0
  403550:	97fff7a4 	bl	4013e0 <omp_get_num_threads@plt>
  403554:	2a0003f3 	mov	w19, w0
  403558:	97fff782 	bl	401360 <omp_get_thread_num@plt>
  40355c:	b9402281 	ldr	w1, [x20, #32]
  403560:	2a0003e3 	mov	w3, w0
  403564:	1ad30c27 	sdiv	w7, w1, w19
  403568:	1b1384e1 	msub	w1, w7, w19, w1
  40356c:	6b01001f 	cmp	w0, w1
  403570:	5400078b 	b.lt	403660 <_ZL23IntegrateStressForElemsR6DomainPdS1_S1_S1_ii._omp_fn.1+0x120>  // b.tstop
  403574:	1b0304e3 	madd	w3, w7, w3, w1
  403578:	0b0300e7 	add	w7, w7, w3
  40357c:	6b07007f 	cmp	w3, w7
  403580:	5400056a 	b.ge	40362c <_ZL23IntegrateStressForElemsR6DomainPdS1_S1_S1_ii._omp_fn.1+0xec>  // b.tcont
  403584:	a9401280 	ldp	x0, x4, [x20]
  403588:	93407c63 	sxtw	x3, w3
  40358c:	a9410682 	ldp	x2, x1, [x20, #16]
  403590:	f9433408 	ldr	x8, [x0, #1640]
  403594:	f943380d 	ldr	x13, [x0, #1648]
  403598:	9100110c 	add	x12, x8, #0x4
  40359c:	f9400086 	ldr	x6, [x4]
  4035a0:	910011ae 	add	x14, x13, #0x4
  4035a4:	f9400045 	ldr	x5, [x2]
  4035a8:	f9400024 	ldr	x4, [x1]
  4035ac:	f940dc0b 	ldr	x11, [x0, #440]
  4035b0:	f940e80a 	ldr	x10, [x0, #464]
  4035b4:	f940f409 	ldr	x9, [x0, #488]
  4035b8:	b8637901 	ldr	w1, [x8, x3, lsl #2]
  4035bc:	b8637980 	ldr	w0, [x12, x3, lsl #2]
  4035c0:	4b010000 	sub	w0, w0, w1
  4035c4:	93407c21 	sxtw	x1, w1
  4035c8:	7100001f 	cmp	w0, #0x0
  4035cc:	5400036d 	b.le	403638 <_ZL23IntegrateStressForElemsR6DomainPdS1_S1_S1_ii._omp_fn.1+0xf8>
  4035d0:	2f00e400 	movi	d0, #0x0
  4035d4:	51000402 	sub	w2, w0, #0x1
  4035d8:	8b010042 	add	x2, x2, x1
  4035dc:	8b0109a1 	add	x1, x13, x1, lsl #2
  4035e0:	8b0209c2 	add	x2, x14, x2, lsl #2
  4035e4:	1e604002 	fmov	d2, d0
  4035e8:	1e604001 	fmov	d1, d0
  4035ec:	d503201f 	nop
  4035f0:	b8804420 	ldrsw	x0, [x1], #4
  4035f4:	fc6078c5 	ldr	d5, [x6, x0, lsl #3]
  4035f8:	fc6078a4 	ldr	d4, [x5, x0, lsl #3]
  4035fc:	fc607883 	ldr	d3, [x4, x0, lsl #3]
  403600:	1e652821 	fadd	d1, d1, d5
  403604:	1e642842 	fadd	d2, d2, d4
  403608:	1e632800 	fadd	d0, d0, d3
  40360c:	eb01005f 	cmp	x2, x1
  403610:	54ffff01 	b.ne	4035f0 <_ZL23IntegrateStressForElemsR6DomainPdS1_S1_S1_ii._omp_fn.1+0xb0>  // b.any
  403614:	fc237961 	str	d1, [x11, x3, lsl #3]
  403618:	fc237942 	str	d2, [x10, x3, lsl #3]
  40361c:	fc237920 	str	d0, [x9, x3, lsl #3]
  403620:	91000463 	add	x3, x3, #0x1
  403624:	6b0300ff 	cmp	w7, w3
  403628:	54fffc8c 	b.gt	4035b8 <_ZL23IntegrateStressForElemsR6DomainPdS1_S1_S1_ii._omp_fn.1+0x78>
  40362c:	a94153f3 	ldp	x19, x20, [sp, #16]
  403630:	a8c27bfd 	ldp	x29, x30, [sp], #32
  403634:	d65f03c0 	ret
  403638:	2f00e400 	movi	d0, #0x0
  40363c:	1e604001 	fmov	d1, d0
  403640:	1e604002 	fmov	d2, d0
  403644:	fc237961 	str	d1, [x11, x3, lsl #3]
  403648:	fc237942 	str	d2, [x10, x3, lsl #3]
  40364c:	fc237920 	str	d0, [x9, x3, lsl #3]
  403650:	91000463 	add	x3, x3, #0x1
  403654:	6b0300ff 	cmp	w7, w3
  403658:	54fffb0c 	b.gt	4035b8 <_ZL23IntegrateStressForElemsR6DomainPdS1_S1_S1_ii._omp_fn.1+0x78>
  40365c:	17fffff4 	b	40362c <_ZL23IntegrateStressForElemsR6DomainPdS1_S1_S1_ii._omp_fn.1+0xec>
  403660:	110004e7 	add	w7, w7, #0x1
  403664:	52800001 	mov	w1, #0x0                   	// #0
  403668:	17ffffc3 	b	403574 <_ZL23IntegrateStressForElemsR6DomainPdS1_S1_S1_ii._omp_fn.1+0x34>
  40366c:	d503201f 	nop

0000000000403670 <_ZL28CalcFBHourglassForceForElemsR6DomainPdS1_S1_S1_S1_S1_S1_dii._omp_fn.1>:
  403670:	a9be7bfd 	stp	x29, x30, [sp, #-32]!
  403674:	910003fd 	mov	x29, sp
  403678:	a90153f3 	stp	x19, x20, [sp, #16]
  40367c:	aa0003f4 	mov	x20, x0
  403680:	97fff758 	bl	4013e0 <omp_get_num_threads@plt>
  403684:	2a0003f3 	mov	w19, w0
  403688:	97fff736 	bl	401360 <omp_get_thread_num@plt>
  40368c:	b9402281 	ldr	w1, [x20, #32]
  403690:	2a0003e3 	mov	w3, w0
  403694:	1ad30c27 	sdiv	w7, w1, w19
  403698:	1b1384e1 	msub	w1, w7, w19, w1
  40369c:	6b01001f 	cmp	w0, w1
  4036a0:	5400078b 	b.lt	403790 <_ZL28CalcFBHourglassForceForElemsR6DomainPdS1_S1_S1_S1_S1_S1_dii._omp_fn.1+0x120>  // b.tstop
  4036a4:	1b0304e3 	madd	w3, w7, w3, w1
  4036a8:	0b0300e7 	add	w7, w7, w3
  4036ac:	6b07007f 	cmp	w3, w7
  4036b0:	5400062a 	b.ge	403774 <_ZL28CalcFBHourglassForceForElemsR6DomainPdS1_S1_S1_S1_S1_S1_dii._omp_fn.1+0x104>  // b.tcont
  4036b4:	a9401280 	ldp	x0, x4, [x20]
  4036b8:	93407c63 	sxtw	x3, w3
  4036bc:	a9410682 	ldp	x2, x1, [x20, #16]
  4036c0:	f943340b 	ldr	x11, [x0, #1640]
  4036c4:	f943380d 	ldr	x13, [x0, #1648]
  4036c8:	9100116c 	add	x12, x11, #0x4
  4036cc:	f9400086 	ldr	x6, [x4]
  4036d0:	910011ae 	add	x14, x13, #0x4
  4036d4:	f9400045 	ldr	x5, [x2]
  4036d8:	f9400024 	ldr	x4, [x1]
  4036dc:	f940dc0a 	ldr	x10, [x0, #440]
  4036e0:	f940e809 	ldr	x9, [x0, #464]
  4036e4:	f940f408 	ldr	x8, [x0, #488]
  4036e8:	b8637961 	ldr	w1, [x11, x3, lsl #2]
  4036ec:	b8637980 	ldr	w0, [x12, x3, lsl #2]
  4036f0:	4b010000 	sub	w0, w0, w1
  4036f4:	93407c21 	sxtw	x1, w1
  4036f8:	7100001f 	cmp	w0, #0x0
  4036fc:	5400042d 	b.le	403780 <_ZL28CalcFBHourglassForceForElemsR6DomainPdS1_S1_S1_S1_S1_S1_dii._omp_fn.1+0x110>
  403700:	2f00e400 	movi	d0, #0x0
  403704:	51000402 	sub	w2, w0, #0x1
  403708:	8b010042 	add	x2, x2, x1
  40370c:	8b0109a1 	add	x1, x13, x1, lsl #2
  403710:	8b0209c2 	add	x2, x14, x2, lsl #2
  403714:	1e604002 	fmov	d2, d0
  403718:	1e604001 	fmov	d1, d0
  40371c:	d503201f 	nop
  403720:	b8804420 	ldrsw	x0, [x1], #4
  403724:	fc6078c5 	ldr	d5, [x6, x0, lsl #3]
  403728:	fc6078a4 	ldr	d4, [x5, x0, lsl #3]
  40372c:	fc607883 	ldr	d3, [x4, x0, lsl #3]
  403730:	1e652821 	fadd	d1, d1, d5
  403734:	1e642842 	fadd	d2, d2, d4
  403738:	1e632800 	fadd	d0, d0, d3
  40373c:	eb01005f 	cmp	x2, x1
  403740:	54ffff01 	b.ne	403720 <_ZL28CalcFBHourglassForceForElemsR6DomainPdS1_S1_S1_S1_S1_S1_dii._omp_fn.1+0xb0>  // b.any
  403744:	fc637943 	ldr	d3, [x10, x3, lsl #3]
  403748:	1e612861 	fadd	d1, d3, d1
  40374c:	fc237941 	str	d1, [x10, x3, lsl #3]
  403750:	fc637921 	ldr	d1, [x9, x3, lsl #3]
  403754:	1e622822 	fadd	d2, d1, d2
  403758:	fc237922 	str	d2, [x9, x3, lsl #3]
  40375c:	fc637901 	ldr	d1, [x8, x3, lsl #3]
  403760:	1e602820 	fadd	d0, d1, d0
  403764:	fc237900 	str	d0, [x8, x3, lsl #3]
  403768:	91000463 	add	x3, x3, #0x1
  40376c:	6b0300ff 	cmp	w7, w3
  403770:	54fffbcc 	b.gt	4036e8 <_ZL28CalcFBHourglassForceForElemsR6DomainPdS1_S1_S1_S1_S1_S1_dii._omp_fn.1+0x78>
  403774:	a94153f3 	ldp	x19, x20, [sp, #16]
  403778:	a8c27bfd 	ldp	x29, x30, [sp], #32
  40377c:	d65f03c0 	ret
  403780:	2f00e400 	movi	d0, #0x0
  403784:	1e604002 	fmov	d2, d0
  403788:	1e604001 	fmov	d1, d0
  40378c:	17ffffee 	b	403744 <_ZL28CalcFBHourglassForceForElemsR6DomainPdS1_S1_S1_S1_S1_S1_dii._omp_fn.1+0xd4>
  403790:	110004e7 	add	w7, w7, #0x1
  403794:	52800001 	mov	w1, #0x0                   	// #0
  403798:	17ffffc3 	b	4036a4 <_ZL28CalcFBHourglassForceForElemsR6DomainPdS1_S1_S1_S1_S1_S1_dii._omp_fn.1+0x34>
  40379c:	d503201f 	nop

00000000004037a0 <_ZL28CalcFBHourglassForceForElemsR6DomainPdS1_S1_S1_S1_S1_S1_dii._omp_fn.0>:
  4037a0:	d11083ff 	sub	sp, sp, #0x420
  4037a4:	a9007bfd 	stp	x29, x30, [sp]
  4037a8:	910003fd 	mov	x29, sp
  4037ac:	a90573fb 	stp	x27, x28, [sp, #80]
  4037b0:	aa0003fc 	mov	x28, x0
  4037b4:	a90153f3 	stp	x19, x20, [sp, #16]
  4037b8:	a9046bf9 	stp	x25, x26, [sp, #64]
  4037bc:	97fff709 	bl	4013e0 <omp_get_num_threads@plt>
  4037c0:	2a0003f3 	mov	w19, w0
  4037c4:	97fff6e7 	bl	401360 <omp_get_thread_num@plt>
  4037c8:	2a0003e1 	mov	w1, w0
  4037cc:	b9406f80 	ldr	w0, [x28, #108]
  4037d0:	1ad30c1a 	sdiv	w26, w0, w19
  4037d4:	1b138340 	msub	w0, w26, w19, w0
  4037d8:	6b00003f 	cmp	w1, w0
  4037dc:	54006b6b 	b.lt	404548 <_ZL28CalcFBHourglassForceForElemsR6DomainPdS1_S1_S1_S1_S1_S1_dii._omp_fn.0+0xda8>  // b.tstop
  4037e0:	1b010341 	madd	w1, w26, w1, w0
  4037e4:	0b010340 	add	w0, w26, w1
  4037e8:	b902f3e0 	str	w0, [sp, #752]
  4037ec:	6b00003f 	cmp	w1, w0
  4037f0:	54006a0a 	b.ge	404530 <_ZL28CalcFBHourglassForceForElemsR6DomainPdS1_S1_S1_S1_S1_S1_dii._omp_fn.0+0xd90>  // b.tcont
  4037f4:	a9400f9a 	ldp	x26, x3, [x28]
  4037f8:	90000080 	adrp	x0, 413000 <_ZN6DomainC1Eiiiiiiiii+0x1200>
  4037fc:	a9025bf5 	stp	x21, x22, [sp, #32]
  403800:	531d7033 	lsl	w19, w1, #3
  403804:	fd47b400 	ldr	d0, [x0, #3944]
  403808:	a90363f7 	stp	x23, x24, [sp, #48]
  40380c:	937d7e60 	sbfiz	x0, x19, #3, #32
  403810:	fd403381 	ldr	d1, [x28, #96]
  403814:	f9414342 	ldr	x2, [x26, #640]
  403818:	f9017fe3 	str	x3, [sp, #760]
  40381c:	a9416399 	ldp	x25, x24, [x28, #16]
  403820:	1e608820 	fnmul	d0, d1, d0
  403824:	a9425b97 	ldp	x23, x22, [x28, #32]
  403828:	8b33c853 	add	x19, x2, w19, sxtw #2
  40382c:	a9435395 	ldp	x21, x20, [x28, #48]
  403830:	6d0627e8 	stp	d8, d9, [sp, #96]
  403834:	b9406b83 	ldr	w3, [x28, #104]
  403838:	f9402f82 	ldr	x2, [x28, #88]
  40383c:	8b000339 	add	x25, x25, x0
  403840:	8b000318 	add	x24, x24, x0
  403844:	8b0002f7 	add	x23, x23, x0
  403848:	8b0002d6 	add	x22, x22, x0
  40384c:	8b0002b5 	add	x21, x21, x0
  403850:	8b000294 	add	x20, x20, x0
  403854:	91040040 	add	x0, x2, #0x100
  403858:	f90187e2 	str	x2, [sp, #776]
  40385c:	910c83e2 	add	x2, sp, #0x320
  403860:	6d072fea 	stp	d10, d11, [sp, #112]
  403864:	93407c21 	sxtw	x1, w1
  403868:	aa1c03ee 	mov	x14, x28
  40386c:	6d0837ec 	stp	d12, d13, [sp, #128]
  403870:	6d093fee 	stp	d14, d15, [sp, #144]
  403874:	b902f7e3 	str	w3, [sp, #756]
  403878:	fd0183e0 	str	d0, [sp, #768]
  40387c:	f9018be2 	str	x2, [sp, #784]
  403880:	f9409744 	ldr	x4, [x26, #296]
  403884:	f940a343 	ldr	x3, [x26, #320]
  403888:	f940af42 	ldr	x2, [x26, #344]
  40388c:	f9018ffa 	str	x26, [sp, #792]
  403890:	f9429f5b 	ldr	x27, [x26, #1336]
  403894:	aa0203fc 	mov	x28, x2
  403898:	f9429352 	ldr	x18, [x26, #1312]
  40389c:	aa1b03ef 	mov	x15, x27
  4038a0:	aa0303fa 	mov	x26, x3
  4038a4:	aa1303fb 	mov	x27, x19
  4038a8:	aa0103f3 	mov	x19, x1
  4038ac:	14000023 	b	403938 <_ZL28CalcFBHourglassForceForElemsR6DomainPdS1_S1_S1_S1_S1_S1_dii._omp_fn.0+0x198>
  4038b0:	a94429c7 	ldp	x7, x10, [x14, #64]
  4038b4:	f94029c8 	ldr	x8, [x14, #80]
  4038b8:	f94000e7 	ldr	x7, [x7]
  4038bc:	f940014b 	ldr	x11, [x10]
  4038c0:	8b0600e9 	add	x9, x7, x6
  4038c4:	f940010a 	ldr	x10, [x8]
  4038c8:	8b060168 	add	x8, x11, x6
  4038cc:	fc2668fd 	str	d29, [x7, x6]
  4038d0:	6d00ed3c 	stp	d28, d27, [x9, #8]
  4038d4:	8b060147 	add	x7, x10, x6
  4038d8:	6d01e53a 	stp	d26, d25, [x9, #24]
  4038dc:	6d02dd38 	stp	d24, d23, [x9, #40]
  4038e0:	fd001d23 	str	d3, [x9, #56]
  4038e4:	fc266976 	str	d22, [x11, x6]
  4038e8:	6d00d115 	stp	d21, d20, [x8, #8]
  4038ec:	6d01c913 	stp	d19, d18, [x8, #24]
  4038f0:	6d02c111 	stp	d17, d16, [x8, #40]
  4038f4:	fd001d02 	str	d2, [x8, #56]
  4038f8:	fc26694f 	str	d15, [x10, x6]
  4038fc:	6d00b4ee 	stp	d14, d13, [x7, #8]
  403900:	6d01a4ec 	stp	d12, d9, [x7, #24]
  403904:	6d02acff 	stp	d31, d11, [x7, #40]
  403908:	fd001ce1 	str	d1, [x7, #56]
  40390c:	b942f3e1 	ldr	w1, [sp, #752]
  403910:	91000673 	add	x19, x19, #0x1
  403914:	91010339 	add	x25, x25, #0x40
  403918:	91010318 	add	x24, x24, #0x40
  40391c:	910102f7 	add	x23, x23, #0x40
  403920:	910102d6 	add	x22, x22, #0x40
  403924:	910102b5 	add	x21, x21, #0x40
  403928:	91010294 	add	x20, x20, #0x40
  40392c:	9100837b 	add	x27, x27, #0x20
  403930:	6b13003f 	cmp	w1, w19
  403934:	54005f2d 	b.le	404518 <_ZL28CalcFBHourglassForceForElemsR6DomainPdS1_S1_S1_S1_S1_S1_dii._omp_fn.0+0xd78>
  403938:	f9417fe1 	ldr	x1, [sp, #760]
  40393c:	1e6e1001 	fmov	d1, #1.000000000000000000e+00
  403940:	6d40fab4 	ldp	d20, d30, [x21, #8]
  403944:	d37ae666 	lsl	x6, x19, #6
  403948:	fc737820 	ldr	d0, [x1, x19, lsl #3]
  40394c:	6d409ef5 	ldp	d21, d7, [x23, #8]
  403950:	1e601828 	fdiv	d8, d1, d0
  403954:	fd4006c1 	ldr	d1, [x22, #8]
  403958:	6d40bb16 	ldp	d22, d14, [x24, #8]
  40395c:	fd0053e1 	str	d1, [sp, #160]
  403960:	fd400690 	ldr	d16, [x20, #8]
  403964:	fd400ad2 	ldr	d18, [x22, #16]
  403968:	6d41f2bd 	ldp	d29, d28, [x21, #24]
  40396c:	6d4196e6 	ldp	d6, d5, [x23, #24]
  403970:	6d41b30d 	ldp	d13, d12, [x24, #24]
  403974:	6d424f3f 	ldp	d31, d19, [x25, #32]
  403978:	fd40129b 	ldr	d27, [x20, #32]
  40397c:	6d428ee4 	ldp	d4, d3, [x23, #40]
  403980:	6d42ab0b 	ldp	d11, d10, [x24, #40]
  403984:	fd4016ba 	ldr	d26, [x21, #40]
  403988:	6d433f31 	ldp	d17, d15, [x25, #48]
  40398c:	fd401ee2 	ldr	d2, [x23, #56]
  403990:	fd401f09 	ldr	d9, [x24, #56]
  403994:	f94187e7 	ldr	x7, [sp, #776]
  403998:	f9418be8 	ldr	x8, [sp, #784]
  40399c:	4e08077b 	dup	v27.2d, v27.d[0]
  4039a0:	fd401699 	ldr	d25, [x20, #40]
  4039a4:	fd400721 	ldr	d1, [x25, #8]
  4039a8:	6d435eb8 	ldp	d24, d23, [x21, #48]
  4039ac:	4e080421 	dup	v1.2d, v1.d[0]
  4039b0:	4e080694 	dup	v20.2d, v20.d[0]
  4039b4:	4e0807de 	dup	v30.2d, v30.d[0]
  4039b8:	4e0807bd 	dup	v29.2d, v29.d[0]
  4039bc:	4e08079c 	dup	v28.2d, v28.d[0]
  4039c0:	3d80b3e1 	str	q1, [sp, #704]
  4039c4:	4d40cf21 	ld1r	{v1.2d}, [x25]
  4039c8:	4e08075a 	dup	v26.2d, v26.d[0]
  4039cc:	4e0806b5 	dup	v21.2d, v21.d[0]
  4039d0:	4e0806d6 	dup	v22.2d, v22.d[0]
  4039d4:	3d80b7e1 	str	q1, [sp, #720]
  4039d8:	fd400b21 	ldr	d1, [x25, #16]
  4039dc:	4e080508 	dup	v8.2d, v8.d[0]
  4039e0:	4e080739 	dup	v25.2d, v25.d[0]
  4039e4:	4e080421 	dup	v1.2d, v1.d[0]
  4039e8:	4e080718 	dup	v24.2d, v24.d[0]
  4039ec:	4e0806f7 	dup	v23.2d, v23.d[0]
  4039f0:	3d80afe1 	str	q1, [sp, #688]
  4039f4:	4d40cf01 	ld1r	{v1.2d}, [x24]
  4039f8:	3d8097e1 	str	q1, [sp, #592]
  4039fc:	fd400f21 	ldr	d1, [x25, #24]
  403a00:	4e080421 	dup	v1.2d, v1.d[0]
  403a04:	3d80abe1 	str	q1, [sp, #672]
  403a08:	4d40cee1 	ld1r	{v1.2d}, [x23]
  403a0c:	3d807be1 	str	q1, [sp, #480]
  403a10:	4e0807e1 	dup	v1.2d, v31.d[0]
  403a14:	4d40cebf 	ld1r	{v31.2d}, [x21]
  403a18:	3d80a7e1 	str	q1, [sp, #656]
  403a1c:	4d40cec1 	ld1r	{v1.2d}, [x22]
  403a20:	3d805fe1 	str	q1, [sp, #368]
  403a24:	4e080661 	dup	v1.2d, v19.d[0]
  403a28:	3d80a3e1 	str	q1, [sp, #640]
  403a2c:	4e080621 	dup	v1.2d, v17.d[0]
  403a30:	3d809fe1 	str	q1, [sp, #624]
  403a34:	4d40ce81 	ld1r	{v1.2d}, [x20]
  403a38:	3d805be1 	str	q1, [sp, #352]
  403a3c:	4e0805e1 	dup	v1.2d, v15.d[0]
  403a40:	3d809be1 	str	q1, [sp, #608]
  403a44:	4e0805c1 	dup	v1.2d, v14.d[0]
  403a48:	3d8093e1 	str	q1, [sp, #576]
  403a4c:	4e0805a1 	dup	v1.2d, v13.d[0]
  403a50:	3d808fe1 	str	q1, [sp, #560]
  403a54:	4e080581 	dup	v1.2d, v12.d[0]
  403a58:	3d808be1 	str	q1, [sp, #544]
  403a5c:	4e080561 	dup	v1.2d, v11.d[0]
  403a60:	3d8087e1 	str	q1, [sp, #528]
  403a64:	4e080541 	dup	v1.2d, v10.d[0]
  403a68:	3d8083e1 	str	q1, [sp, #512]
  403a6c:	4e080521 	dup	v1.2d, v9.d[0]
  403a70:	3d807fe1 	str	q1, [sp, #496]
  403a74:	4e0804e1 	dup	v1.2d, v7.d[0]
  403a78:	3d8077e1 	str	q1, [sp, #464]
  403a7c:	4e0804c1 	dup	v1.2d, v6.d[0]
  403a80:	3d8073e1 	str	q1, [sp, #448]
  403a84:	4e0804a1 	dup	v1.2d, v5.d[0]
  403a88:	3d806fe1 	str	q1, [sp, #432]
  403a8c:	4e080481 	dup	v1.2d, v4.d[0]
  403a90:	fd0177e0 	str	d0, [sp, #744]
  403a94:	3d806be1 	str	q1, [sp, #416]
  403a98:	4e080461 	dup	v1.2d, v3.d[0]
  403a9c:	3d8067e1 	str	q1, [sp, #400]
  403aa0:	4e080441 	dup	v1.2d, v2.d[0]
  403aa4:	3d8063e1 	str	q1, [sp, #384]
  403aa8:	fd4053e1 	ldr	d1, [sp, #160]
  403aac:	4e080421 	dup	v1.2d, v1.d[0]
  403ab0:	3d8057e1 	str	q1, [sp, #336]
  403ab4:	4e080601 	dup	v1.2d, v16.d[0]
  403ab8:	3d8053e1 	str	q1, [sp, #320]
  403abc:	4e080641 	dup	v1.2d, v18.d[0]
  403ac0:	3d804fe1 	str	q1, [sp, #304]
  403ac4:	fd400a81 	ldr	d1, [x20, #16]
  403ac8:	4e080421 	dup	v1.2d, v1.d[0]
  403acc:	3d804be1 	str	q1, [sp, #288]
  403ad0:	fd400ec1 	ldr	d1, [x22, #24]
  403ad4:	4e080421 	dup	v1.2d, v1.d[0]
  403ad8:	3d8047e1 	str	q1, [sp, #272]
  403adc:	fd400e81 	ldr	d1, [x20, #24]
  403ae0:	4e080421 	dup	v1.2d, v1.d[0]
  403ae4:	3d8043e1 	str	q1, [sp, #256]
  403ae8:	fd4012c1 	ldr	d1, [x22, #32]
  403aec:	4e080421 	dup	v1.2d, v1.d[0]
  403af0:	3d803fe1 	str	q1, [sp, #240]
  403af4:	fd4016c1 	ldr	d1, [x22, #40]
  403af8:	4e080421 	dup	v1.2d, v1.d[0]
  403afc:	3d803be1 	str	q1, [sp, #224]
  403b00:	fd401ac1 	ldr	d1, [x22, #48]
  403b04:	4e080421 	dup	v1.2d, v1.d[0]
  403b08:	3d8037e1 	str	q1, [sp, #208]
  403b0c:	fd401a81 	ldr	d1, [x20, #48]
  403b10:	4e080421 	dup	v1.2d, v1.d[0]
  403b14:	3d8033e1 	str	q1, [sp, #192]
  403b18:	fd401ec1 	ldr	d1, [x22, #56]
  403b1c:	4e080421 	dup	v1.2d, v1.d[0]
  403b20:	3d802fe1 	str	q1, [sp, #176]
  403b24:	fd401e81 	ldr	d1, [x20, #56]
  403b28:	4e080421 	dup	v1.2d, v1.d[0]
  403b2c:	3d802be1 	str	q1, [sp, #160]
  403b30:	91004108 	add	x8, x8, #0x10
  403b34:	ad402ce2 	ldp	q2, q11, [x7]
  403b38:	ad4110e6 	ldp	q6, q4, [x7, #32]
  403b3c:	ad4228ee 	ldp	q14, q10, [x7, #64]
  403b40:	ad431ce9 	ldp	q9, q7, [x7, #96]
  403b44:	910200e7 	add	x7, x7, #0x80
  403b48:	4ecb7845 	zip2	v5.2d, v2.2d, v11.2d
  403b4c:	4ec478c1 	zip2	v1.2d, v6.2d, v4.2d
  403b50:	4ec77923 	zip2	v3.2d, v9.2d, v7.2d
  403b54:	4eca79cd 	zip2	v13.2d, v14.2d, v10.2d
  403b58:	4ecb3842 	zip1	v2.2d, v2.2d, v11.2d
  403b5c:	4ec73929 	zip1	v9.2d, v9.2d, v7.2d
  403b60:	4ec438c4 	zip1	v4.2d, v6.2d, v4.2d
  403b64:	4eca39ce 	zip1	v14.2d, v14.2d, v10.2d
  403b68:	4ec339af 	zip1	v15.2d, v13.2d, v3.2d
  403b6c:	4ec138a6 	zip1	v6.2d, v5.2d, v1.2d
  403b70:	4ec43847 	zip1	v7.2d, v2.2d, v4.2d
  403b74:	4ec47844 	zip2	v4.2d, v2.2d, v4.2d
  403b78:	4ec939c2 	zip1	v2.2d, v14.2d, v9.2d
  403b7c:	4ecf38cb 	zip1	v11.2d, v6.2d, v15.2d
  403b80:	4ec379ad 	zip2	v13.2d, v13.2d, v3.2d
  403b84:	4ec979ce 	zip2	v14.2d, v14.2d, v9.2d
  403b88:	4ec238ec 	zip1	v12.2d, v7.2d, v2.2d
  403b8c:	4ec278e7 	zip2	v7.2d, v7.2d, v2.2d
  403b90:	ad560be3 	ldp	q3, q2, [sp, #704]
  403b94:	4ece388a 	zip1	v10.2d, v4.2d, v14.2d
  403b98:	4ecf78c6 	zip2	v6.2d, v6.2d, v15.2d
  403b9c:	6e6bdc63 	fmul	v3.2d, v3.2d, v11.2d
  403ba0:	4ece7884 	zip2	v4.2d, v4.2d, v14.2d
  403ba4:	4ec178a5 	zip2	v5.2d, v5.2d, v1.2d
  403ba8:	6e6bdec1 	fmul	v1.2d, v22.2d, v11.2d
  403bac:	4e6ccc43 	fmla	v3.2d, v2.2d, v12.2d
  403bb0:	3dc097e9 	ldr	q9, [sp, #592]
  403bb4:	ad553fee 	ldp	q14, q15, [sp, #672]
  403bb8:	4e6ccd21 	fmla	v1.2d, v9.2d, v12.2d
  403bbc:	4ecd38a9 	zip1	v9.2d, v5.2d, v13.2d
  403bc0:	4e6acde3 	fmla	v3.2d, v15.2d, v10.2d
  403bc4:	3dc093e2 	ldr	q2, [sp, #576]
  403bc8:	4ecd78a5 	zip2	v5.2d, v5.2d, v13.2d
  403bcc:	4e69cdc3 	fmla	v3.2d, v14.2d, v9.2d
  403bd0:	4e6acc41 	fmla	v1.2d, v2.2d, v10.2d
  403bd4:	ad513fee 	ldp	q14, q15, [sp, #544]
  403bd8:	6e6bdea2 	fmul	v2.2d, v21.2d, v11.2d
  403bdc:	3dc0a7ed 	ldr	q13, [sp, #656]
  403be0:	4e69cde1 	fmla	v1.2d, v15.2d, v9.2d
  403be4:	4e67cda3 	fmla	v3.2d, v13.2d, v7.2d
  403be8:	3dc087ed 	ldr	q13, [sp, #528]
  403bec:	4e67cdc1 	fmla	v1.2d, v14.2d, v7.2d
  403bf0:	ad4ebfee 	ldp	q14, q15, [sp, #464]
  403bf4:	4e66cda1 	fmla	v1.2d, v13.2d, v6.2d
  403bf8:	4e6ccde2 	fmla	v2.2d, v15.2d, v12.2d
  403bfc:	3dc073ed 	ldr	q13, [sp, #448]
  403c00:	4e6acdc2 	fmla	v2.2d, v14.2d, v10.2d
  403c04:	4e69cda2 	fmla	v2.2d, v13.2d, v9.2d
  403c08:	3dc0a3ed 	ldr	q13, [sp, #640]
  403c0c:	4e66cda3 	fmla	v3.2d, v13.2d, v6.2d
  403c10:	3dc083ed 	ldr	q13, [sp, #512]
  403c14:	4e64cda1 	fmla	v1.2d, v13.2d, v4.2d
  403c18:	3dc06fed 	ldr	q13, [sp, #432]
  403c1c:	4e67cda2 	fmla	v2.2d, v13.2d, v7.2d
  403c20:	3dc09fed 	ldr	q13, [sp, #624]
  403c24:	4e64cda3 	fmla	v3.2d, v13.2d, v4.2d
  403c28:	3dc07fed 	ldr	q13, [sp, #496]
  403c2c:	4e65cda1 	fmla	v1.2d, v13.2d, v5.2d
  403c30:	3dc06bed 	ldr	q13, [sp, #416]
  403c34:	6e61dff3 	fmul	v19.2d, v31.2d, v1.2d
  403c38:	4e66cda2 	fmla	v2.2d, v13.2d, v6.2d
  403c3c:	3dc09bed 	ldr	q13, [sp, #608]
  403c40:	6e61de92 	fmul	v18.2d, v20.2d, v1.2d
  403c44:	6e61dfd1 	fmul	v17.2d, v30.2d, v1.2d
  403c48:	4e65cda3 	fmla	v3.2d, v13.2d, v5.2d
  403c4c:	3dc067ed 	ldr	q13, [sp, #400]
  403c50:	6e61dfb0 	fmul	v16.2d, v29.2d, v1.2d
  403c54:	6e61df8f 	fmul	v15.2d, v28.2d, v1.2d
  403c58:	4e64cda2 	fmla	v2.2d, v13.2d, v4.2d
  403c5c:	3dc05fed 	ldr	q13, [sp, #368]
  403c60:	6e61df4e 	fmul	v14.2d, v26.2d, v1.2d
  403c64:	4e63cdb3 	fmla	v19.2d, v13.2d, v3.2d
  403c68:	3dc063ed 	ldr	q13, [sp, #384]
  403c6c:	4e65cda2 	fmla	v2.2d, v13.2d, v5.2d
  403c70:	3dc057ed 	ldr	q13, [sp, #336]
  403c74:	4e63cdb2 	fmla	v18.2d, v13.2d, v3.2d
  403c78:	3dc04fed 	ldr	q13, [sp, #304]
  403c7c:	3dc05be0 	ldr	q0, [sp, #352]
  403c80:	4e63cdb1 	fmla	v17.2d, v13.2d, v3.2d
  403c84:	3dc047ed 	ldr	q13, [sp, #272]
  403c88:	4e62cc13 	fmla	v19.2d, v0.2d, v2.2d
  403c8c:	3dc03be0 	ldr	q0, [sp, #224]
  403c90:	4e63cdb0 	fmla	v16.2d, v13.2d, v3.2d
  403c94:	3dc03fed 	ldr	q13, [sp, #240]
  403c98:	4e63cc0e 	fmla	v14.2d, v0.2d, v3.2d
  403c9c:	3dc037e0 	ldr	q0, [sp, #208]
  403ca0:	4e63cdaf 	fmla	v15.2d, v13.2d, v3.2d
  403ca4:	6e61df0d 	fmul	v13.2d, v24.2d, v1.2d
  403ca8:	6e61dee1 	fmul	v1.2d, v23.2d, v1.2d
  403cac:	4e62cf2e 	fmla	v14.2d, v25.2d, v2.2d
  403cb0:	4e62cf6f 	fmla	v15.2d, v27.2d, v2.2d
  403cb4:	4e63cc0d 	fmla	v13.2d, v0.2d, v3.2d
  403cb8:	3dc02fe0 	ldr	q0, [sp, #176]
  403cbc:	4ef3cd0c 	fmls	v12.2d, v8.2d, v19.2d
  403cc0:	4ee8cdc6 	fmls	v6.2d, v14.2d, v8.2d
  403cc4:	4e63cc01 	fmla	v1.2d, v0.2d, v3.2d
  403cc8:	3dc053e0 	ldr	q0, [sp, #320]
  403ccc:	3c9f010c 	stur	q12, [x8, #-16]
  403cd0:	4ee8cde7 	fmls	v7.2d, v15.2d, v8.2d
  403cd4:	3d802506 	str	q6, [x8, #144]
  403cd8:	4e62cc12 	fmla	v18.2d, v0.2d, v2.2d
  403cdc:	3dc04be0 	ldr	q0, [sp, #288]
  403ce0:	3d801d07 	str	q7, [x8, #112]
  403ce4:	4ee8ce4b 	fmls	v11.2d, v18.2d, v8.2d
  403ce8:	4e62cc11 	fmla	v17.2d, v0.2d, v2.2d
  403cec:	3dc043e0 	ldr	q0, [sp, #256]
  403cf0:	3d80050b 	str	q11, [x8, #16]
  403cf4:	4e62cc10 	fmla	v16.2d, v0.2d, v2.2d
  403cf8:	3dc033e0 	ldr	q0, [sp, #192]
  403cfc:	4ee8ce2a 	fmls	v10.2d, v17.2d, v8.2d
  403d00:	4ee8ce09 	fmls	v9.2d, v16.2d, v8.2d
  403d04:	4e62cc0d 	fmla	v13.2d, v0.2d, v2.2d
  403d08:	3dc02be0 	ldr	q0, [sp, #160]
  403d0c:	3d800d0a 	str	q10, [x8, #48]
  403d10:	4ee8cda4 	fmls	v4.2d, v13.2d, v8.2d
  403d14:	3d801509 	str	q9, [x8, #80]
  403d18:	4e62cc01 	fmla	v1.2d, v0.2d, v2.2d
  403d1c:	3d802d04 	str	q4, [x8, #176]
  403d20:	4ee8cc25 	fmls	v5.2d, v1.2d, v8.2d
  403d24:	3d803505 	str	q5, [x8, #208]
  403d28:	eb0000ff 	cmp	x7, x0
  403d2c:	54fff021 	b.ne	403b30 <_ZL28CalcFBHourglassForceForElemsR6DomainPdS1_S1_S1_S1_S1_S1_dii._omp_fn.0+0x390>  // b.any
  403d30:	fd4177e0 	ldr	d0, [sp, #744]
  403d34:	f90053f2 	str	x18, [sp, #160]
  403d38:	f9005bef 	str	x15, [sp, #176]
  403d3c:	f90063e4 	str	x4, [sp, #192]
  403d40:	f9009be0 	str	x0, [sp, #304]
  403d44:	f900a3ee 	str	x14, [sp, #320]
  403d48:	f900abe6 	str	x6, [sp, #336]
  403d4c:	97fff569 	bl	4012f0 <cbrt@plt>
  403d50:	69404371 	ldpsw	x17, x16, [x27]
  403d54:	f94063e4 	ldr	x4, [sp, #192]
  403d58:	fd41a7e1 	ldr	d1, [sp, #840]
  403d5c:	fd4197e5 	ldr	d5, [sp, #808]
  403d60:	fc707884 	ldr	d4, [x4, x16, lsl #3]
  403d64:	fc717898 	ldr	d24, [x4, x17, lsl #3]
  403d68:	6941336d 	ldpsw	x13, x12, [x27, #8]
  403d6c:	1e610883 	fmul	d3, d4, d1
  403d70:	69422b6b 	ldpsw	x11, x10, [x27, #16]
  403d74:	1f450f03 	fmadd	d3, d24, d5, d3
  403d78:	fd41a3e5 	ldr	d5, [sp, #832]
  403d7c:	fc707b4f 	ldr	d15, [x26, x16, lsl #3]
  403d80:	fc707b8e 	ldr	d14, [x28, x16, lsl #3]
  403d84:	69432369 	ldpsw	x9, x8, [x27, #24]
  403d88:	1e65088a 	fmul	d10, d4, d5
  403d8c:	fc717b57 	ldr	d23, [x26, x17, lsl #3]
  403d90:	1e6109e2 	fmul	d2, d15, d1
  403d94:	fc717b92 	ldr	d18, [x28, x17, lsl #3]
  403d98:	1e6109c1 	fmul	d1, d14, d1
  403d9c:	fc6d7b55 	ldr	d21, [x26, x13, lsl #3]
  403da0:	fc6d7b90 	ldr	d16, [x28, x13, lsl #3]
  403da4:	fc6c7b53 	ldr	d19, [x26, x12, lsl #3]
  403da8:	fc6c7b8b 	ldr	d11, [x28, x12, lsl #3]
  403dac:	fc6b7b59 	ldr	d25, [x26, x11, lsl #3]
  403db0:	fc6b7b9a 	ldr	d26, [x28, x11, lsl #3]
  403db4:	fc6a7b5c 	ldr	d28, [x26, x10, lsl #3]
  403db8:	fc6a7b9d 	ldr	d29, [x28, x10, lsl #3]
  403dbc:	fc6d7896 	ldr	d22, [x4, x13, lsl #3]
  403dc0:	fc6c7894 	ldr	d20, [x4, x12, lsl #3]
  403dc4:	fc6b7891 	ldr	d17, [x4, x11, lsl #3]
  403dc8:	fc6a789b 	ldr	d27, [x4, x10, lsl #3]
  403dcc:	fd4197e5 	ldr	d5, [sp, #808]
  403dd0:	fd419bfe 	ldr	d30, [sp, #816]
  403dd4:	f94053f2 	ldr	x18, [sp, #160]
  403dd8:	1f450ae2 	fmadd	d2, d23, d5, d2
  403ddc:	1f450641 	fmadd	d1, d18, d5, d1
  403de0:	fd4193e5 	ldr	d5, [sp, #800]
  403de4:	fd41b7ed 	ldr	d13, [sp, #872]
  403de8:	fd41c7ec 	ldr	d12, [sp, #904]
  403dec:	1f452b0a 	fmadd	d10, d24, d5, d10
  403df0:	fd41a3e5 	ldr	d5, [sp, #832]
  403df4:	1f4d0ec3 	fmadd	d3, d22, d13, d3
  403df8:	1f4d0aa2 	fmadd	d2, d21, d13, d2
  403dfc:	1f4d0601 	fmadd	d1, d16, d13, d1
  403e00:	1e6509e9 	fmul	d9, d15, d5
  403e04:	fd4193e5 	ldr	d5, [sp, #800]
  403e08:	1f4c0a62 	fmadd	d2, d19, d12, d2
  403e0c:	1f4c0e83 	fmadd	d3, d20, d12, d3
  403e10:	1f4526e9 	fmadd	d9, d23, d5, d9
  403e14:	fd41a3e5 	ldr	d5, [sp, #832]
  403e18:	1f4c0561 	fmadd	d1, d11, d12, d1
  403e1c:	1e6509c8 	fmul	d8, d14, d5
  403e20:	fd4193e5 	ldr	d5, [sp, #800]
  403e24:	1f452248 	fmadd	d8, d18, d5, d8
  403e28:	fd41abe5 	ldr	d5, [sp, #848]
  403e2c:	1e650887 	fmul	d7, d4, d5
  403e30:	fd41b3e5 	ldr	d5, [sp, #864]
  403e34:	1f452aca 	fmadd	d10, d22, d5, d10
  403e38:	fd419be5 	ldr	d5, [sp, #816]
  403e3c:	1f451f07 	fmadd	d7, d24, d5, d7
  403e40:	fd41b3e5 	ldr	d5, [sp, #864]
  403e44:	1f4526a9 	fmadd	d9, d21, d5, d9
  403e48:	1f452208 	fmadd	d8, d16, d5, d8
  403e4c:	fd41abe5 	ldr	d5, [sp, #848]
  403e50:	1e6509e6 	fmul	d6, d15, d5
  403e54:	fd419be5 	ldr	d5, [sp, #816]
  403e58:	1f451ae6 	fmadd	d6, d23, d5, d6
  403e5c:	fd41afe5 	ldr	d5, [sp, #856]
  403e60:	1e650884 	fmul	d4, d4, d5
  403e64:	1e6509ef 	fmul	d15, d15, d5
  403e68:	fd41abe5 	ldr	d5, [sp, #848]
  403e6c:	1e6509c5 	fmul	d5, d14, d5
  403e70:	1f5e1645 	fmadd	d5, d18, d30, d5
  403e74:	fd41affe 	ldr	d30, [sp, #856]
  403e78:	1e7e09ce 	fmul	d14, d14, d30
  403e7c:	fd41c3fe 	ldr	d30, [sp, #896]
  403e80:	1f5e2a8a 	fmadd	d10, d20, d30, d10
  403e84:	fd41bbfe 	ldr	d30, [sp, #880]
  403e88:	1f5e1ec7 	fmadd	d7, d22, d30, d7
  403e8c:	fd419ffe 	ldr	d30, [sp, #824]
  403e90:	1f5e1304 	fmadd	d4, d24, d30, d4
  403e94:	fd41c3f8 	ldr	d24, [sp, #896]
  403e98:	1f5e3eef 	fmadd	d15, d23, d30, d15
  403e9c:	fd41c3f7 	ldr	d23, [sp, #896]
  403ea0:	1f582669 	fmadd	d9, d19, d24, d9
  403ea4:	fd41bbf8 	ldr	d24, [sp, #880]
  403ea8:	1f572168 	fmadd	d8, d11, d23, d8
  403eac:	fd41bbf7 	ldr	d23, [sp, #880]
  403eb0:	1f581aa6 	fmadd	d6, d21, d24, d6
  403eb4:	1e6043d8 	fmov	d24, d30
  403eb8:	fd4183fe 	ldr	d30, [sp, #768]
  403ebc:	1f571605 	fmadd	d5, d16, d23, d5
  403ec0:	fd41d3f7 	ldr	d23, [sp, #928]
  403ec4:	1f583a4e 	fmadd	d14, d18, d24, d14
  403ec8:	fc737a52 	ldr	d18, [x18, x19, lsl #3]
  403ecc:	fd41d7f8 	ldr	d24, [sp, #936]
  403ed0:	1f572729 	fmadd	d9, d25, d23, d9
  403ed4:	1f572a2a 	fmadd	d10, d17, d23, d10
  403ed8:	1f572348 	fmadd	d8, d26, d23, d8
  403edc:	1e720bd2 	fmul	d18, d30, d18
  403ee0:	fd41cbfe 	ldr	d30, [sp, #912]
  403ee4:	1f580b22 	fmadd	d2, d25, d24, d2
  403ee8:	1f580741 	fmadd	d1, d26, d24, d1
  403eec:	1f580e23 	fmadd	d3, d17, d24, d3
  403ef0:	1f5e1e87 	fmadd	d7, d20, d30, d7
  403ef4:	fd41bffe 	ldr	d30, [sp, #888]
  403ef8:	1f5e12c4 	fmadd	d4, d22, d30, d4
  403efc:	fd41cbf6 	ldr	d22, [sp, #912]
  403f00:	f9405bef 	ldr	x15, [sp, #176]
  403f04:	1f5e3eaf 	fmadd	d15, d21, d30, d15
  403f08:	1f561a66 	fmadd	d6, d19, d22, d6
  403f0c:	1e6043d6 	fmov	d22, d30
  403f10:	fd41cbf5 	ldr	d21, [sp, #912]
  403f14:	fd4207ff 	ldr	d31, [sp, #1032]
  403f18:	fd4203fe 	ldr	d30, [sp, #1024]
  403f1c:	1f563a0e 	fmadd	d14, d16, d22, d14
  403f20:	fc7379f6 	ldr	d22, [x15, x19, lsl #3]
  403f24:	fd41e7f0 	ldr	d16, [sp, #968]
  403f28:	1f551565 	fmadd	d5, d11, d21, d5
  403f2c:	fd41e3f5 	ldr	d21, [sp, #960]
  403f30:	1e760a52 	fmul	d18, d18, d22
  403f34:	fd41dbf6 	ldr	d22, [sp, #944]
  403f38:	1f500b82 	fmadd	d2, d28, d16, d2
  403f3c:	1f5007a1 	fmadd	d1, d29, d16, d1
  403f40:	1f552789 	fmadd	d9, d28, d21, d9
  403f44:	1f5523a8 	fmadd	d8, d29, d21, d8
  403f48:	1f561e27 	fmadd	d7, d17, d22, d7
  403f4c:	fd41cff6 	ldr	d22, [sp, #920]
  403f50:	1e601a40 	fdiv	d0, d18, d0
  403f54:	fc697b52 	ldr	d18, [x26, x9, lsl #3]
  403f58:	1f500f63 	fmadd	d3, d27, d16, d3
  403f5c:	1f552b6a 	fmadd	d10, d27, d21, d10
  403f60:	1f56396e 	fmadd	d14, d11, d22, d14
  403f64:	fd41f7eb 	ldr	d11, [sp, #1000]
  403f68:	1f561284 	fmadd	d4, d20, d22, d4
  403f6c:	1f563e6f 	fmadd	d15, d19, d22, d15
  403f70:	fd41dbf3 	ldr	d19, [sp, #944]
  403f74:	1f4b0a42 	fmadd	d2, d18, d11, d2
  403f78:	fc697b92 	ldr	d18, [x28, x9, lsl #3]
  403f7c:	fd41dbf4 	ldr	d20, [sp, #944]
  403f80:	1f531745 	fmadd	d5, d26, d19, d5
  403f84:	fd41f3f3 	ldr	d19, [sp, #992]
  403f88:	1f4b0641 	fmadd	d1, d18, d11, d1
  403f8c:	fd41ebf2 	ldr	d18, [sp, #976]
  403f90:	1f541b26 	fmadd	d6, d25, d20, d6
  403f94:	fc697894 	ldr	d20, [x4, x9, lsl #3]
  403f98:	1f521f67 	fmadd	d7, d27, d18, d7
  403f9c:	fd41dff2 	ldr	d18, [sp, #952]
  403fa0:	1f4b0e83 	fmadd	d3, d20, d11, d3
  403fa4:	1f532a8a 	fmadd	d10, d20, d19, d10
  403fa8:	1f521224 	fmadd	d4, d17, d18, d4
  403fac:	fc697b51 	ldr	d17, [x26, x9, lsl #3]
  403fb0:	1f523f2f 	fmadd	d15, d25, d18, d15
  403fb4:	1f523b4e 	fmadd	d14, d26, d18, d14
  403fb8:	fd41fbf2 	ldr	d18, [sp, #1008]
  403fbc:	1f532629 	fmadd	d9, d17, d19, d9
  403fc0:	fd41ebf1 	ldr	d17, [sp, #976]
  403fc4:	1f521e87 	fmadd	d7, d20, d18, d7
  403fc8:	1f511b86 	fmadd	d6, d28, d17, d6
  403fcc:	fc697b91 	ldr	d17, [x28, x9, lsl #3]
  403fd0:	1f532228 	fmadd	d8, d17, d19, d8
  403fd4:	fd41ebf1 	ldr	d17, [sp, #976]
  403fd8:	1f5117a5 	fmadd	d5, d29, d17, d5
  403fdc:	fc687891 	ldr	d17, [x4, x8, lsl #3]
  403fe0:	1f5f0e23 	fmadd	d3, d17, d31, d3
  403fe4:	fc687b51 	ldr	d17, [x26, x8, lsl #3]
  403fe8:	1f5f0a22 	fmadd	d2, d17, d31, d2
  403fec:	fc687b91 	ldr	d17, [x28, x8, lsl #3]
  403ff0:	1f5f0621 	fmadd	d1, d17, d31, d1
  403ff4:	fc687891 	ldr	d17, [x4, x8, lsl #3]
  403ff8:	1e630b19 	fmul	d25, d24, d3
  403ffc:	1e63099a 	fmul	d26, d12, d3
  404000:	1f5e2a2a 	fmadd	d10, d17, d30, d10
  404004:	fc687b51 	ldr	d17, [x26, x8, lsl #3]
  404008:	1f5e2629 	fmadd	d9, d17, d30, d9
  40400c:	fd41eff1 	ldr	d17, [sp, #984]
  404010:	1f511364 	fmadd	d4, d27, d17, d4
  404014:	fc697b51 	ldr	d17, [x26, x9, lsl #3]
  404018:	1e6309bb 	fmul	d27, d13, d3
  40401c:	1f4a66f9 	fmadd	d25, d23, d10, d25
  404020:	1f521a26 	fmadd	d6, d17, d18, d6
  404024:	fd41eff1 	ldr	d17, [sp, #984]
  404028:	1f513f8f 	fmadd	d15, d28, d17, d15
  40402c:	fc687b91 	ldr	d17, [x28, x8, lsl #3]
  404030:	1f5e2228 	fmadd	d8, d17, d30, d8
  404034:	fc697b91 	ldr	d17, [x28, x9, lsl #3]
  404038:	1f521625 	fmadd	d5, d17, d18, d5
  40403c:	fd41eff1 	ldr	d17, [sp, #984]
  404040:	fd420bf2 	ldr	d18, [sp, #1040]
  404044:	1f513bae 	fmadd	d14, d29, d17, d14
  404048:	fc687891 	ldr	d17, [x4, x8, lsl #3]
  40404c:	1f521e27 	fmadd	d7, d17, d18, d7
  404050:	fc687b51 	ldr	d17, [x26, x8, lsl #3]
  404054:	1f521a26 	fmadd	d6, d17, d18, d6
  404058:	fd4197f1 	ldr	d17, [sp, #808]
  40405c:	fd41fff2 	ldr	d18, [sp, #1016]
  404060:	1e630a3d 	fmul	d29, d17, d3
  404064:	fd41a7f1 	ldr	d17, [sp, #840]
  404068:	1f521284 	fmadd	d4, d20, d18, d4
  40406c:	fd4197f4 	ldr	d20, [sp, #808]
  404070:	1e630a3c 	fmul	d28, d17, d3
  404074:	fc697b51 	ldr	d17, [x26, x9, lsl #3]
  404078:	1e740856 	fmul	d22, d2, d20
  40407c:	fd41a7f4 	ldr	d20, [sp, #840]
  404080:	1f523e2f 	fmadd	d15, d17, d18, d15
  404084:	fc687b91 	ldr	d17, [x28, x8, lsl #3]
  404088:	fd420bf2 	ldr	d18, [sp, #1040]
  40408c:	1e740854 	fmul	d20, d2, d20
  404090:	1f521625 	fmadd	d5, d17, d18, d5
  404094:	fc697b91 	ldr	d17, [x28, x9, lsl #3]
  404098:	fd41fff2 	ldr	d18, [sp, #1016]
  40409c:	fd0073f4 	str	d20, [sp, #224]
  4040a0:	1e6d0854 	fmul	d20, d2, d13
  4040a4:	1e6d082d 	fmul	d13, d1, d13
  4040a8:	1f523a2e 	fmadd	d14, d17, d18, d14
  4040ac:	1e630a11 	fmul	d17, d16, d3
  4040b0:	1e630972 	fmul	d18, d11, d3
  4040b4:	fd005bef 	str	d15, [sp, #176]
  4040b8:	fd4197ef 	ldr	d15, [sp, #808]
  4040bc:	1e630be3 	fmul	d3, d31, d3
  4040c0:	1f4a0fc3 	fmadd	d3, d30, d10, d3
  4040c4:	fd0063f1 	str	d17, [sp, #192]
  4040c8:	1e604251 	fmov	d17, d18
  4040cc:	1e780852 	fmul	d18, d2, d24
  4040d0:	1e780838 	fmul	d24, d1, d24
  4040d4:	1e6f082f 	fmul	d15, d1, d15
  4040d8:	1f574932 	fmadd	d18, d9, d23, d18
  4040dc:	fd0053ee 	str	d14, [sp, #160]
  4040e0:	1e6c084e 	fmul	d14, d2, d12
  4040e4:	1e6c082c 	fmul	d12, d1, d12
  4040e8:	fd008bf8 	str	d24, [sp, #272]
  4040ec:	fd4193f8 	ldr	d24, [sp, #800]
  4040f0:	fd007bee 	str	d14, [sp, #240]
  4040f4:	1e70084e 	fmul	d14, d2, d16
  4040f8:	1e700830 	fmul	d16, d1, d16
  4040fc:	1f4a771d 	fmadd	d29, d24, d10, d29
  404100:	fc687898 	ldr	d24, [x4, x8, lsl #3]
  404104:	fd0083ee 	str	d14, [sp, #256]
  404108:	fd41a7ee 	ldr	d14, [sp, #840]
  40410c:	fd0093f0 	str	d16, [sp, #288]
  404110:	1e6b0850 	fmul	d16, d2, d11
  404114:	1e7f0842 	fmul	d2, d2, d31
  404118:	1e6b082b 	fmul	d11, d1, d11
  40411c:	1e6e082e 	fmul	d14, d1, d14
  404120:	1e7f0821 	fmul	d1, d1, d31
  404124:	fd420fff 	ldr	d31, [sp, #1048]
  404128:	1f534130 	fmadd	d16, d9, d19, d16
  40412c:	1f5e0922 	fmadd	d2, d9, d30, d2
  404130:	1f532d0b 	fmadd	d11, d8, d19, d11
  404134:	1f5e0501 	fmadd	d1, d8, d30, d1
  404138:	1f5f1304 	fmadd	d4, d24, d31, d4
  40413c:	fd41a3f8 	ldr	d24, [sp, #832]
  404140:	1f4a467f 	fmadd	d31, d19, d10, d17
  404144:	1f4a731c 	fmadd	d28, d24, d10, d28
  404148:	fd41b3f8 	ldr	d24, [sp, #864]
  40414c:	1f4a6f1b 	fmadd	d27, d24, d10, d27
  404150:	fd41c3f8 	ldr	d24, [sp, #896]
  404154:	1f4a6b1a 	fmadd	d26, d24, d10, d26
  404158:	fd4063f8 	ldr	d24, [sp, #192]
  40415c:	1f4a62b8 	fmadd	d24, d21, d10, d24
  404160:	fd4193ea 	ldr	d10, [sp, #800]
  404164:	fd006bff 	str	d31, [sp, #208]
  404168:	fc687b5f 	ldr	d31, [x26, x8, lsl #3]
  40416c:	fd420ff1 	ldr	d17, [sp, #1048]
  404170:	1f4a5936 	fmadd	d22, d9, d10, d22
  404174:	fd405bea 	ldr	d10, [sp, #176]
  404178:	fd406bf3 	ldr	d19, [sp, #208]
  40417c:	1f512bea 	fmadd	d10, d31, d17, d10
  404180:	fd41a3f1 	ldr	d17, [sp, #832]
  404184:	fd4073ff 	ldr	d31, [sp, #224]
  404188:	1f517d31 	fmadd	d17, d9, d17, d31
  40418c:	fd407bff 	ldr	d31, [sp, #240]
  404190:	fd005bf1 	str	d17, [sp, #176]
  404194:	fd41b3f1 	ldr	d17, [sp, #864]
  404198:	1f515134 	fmadd	d20, d9, d17, d20
  40419c:	fd41c3f1 	ldr	d17, [sp, #896]
  4041a0:	1f517d31 	fmadd	d17, d9, d17, d31
  4041a4:	fd0063f1 	str	d17, [sp, #192]
  4041a8:	fd4083f1 	ldr	d17, [sp, #256]
  4041ac:	1f554531 	fmadd	d17, d9, d21, d17
  4041b0:	fd4193e9 	ldr	d9, [sp, #800]
  4041b4:	1f493d0f 	fmadd	d15, d8, d9, d15
  4041b8:	fd41a3e9 	ldr	d9, [sp, #832]
  4041bc:	1f49390e 	fmadd	d14, d8, d9, d14
  4041c0:	fd41b3e9 	ldr	d9, [sp, #864]
  4041c4:	1f49350d 	fmadd	d13, d8, d9, d13
  4041c8:	fd41c3e9 	ldr	d9, [sp, #896]
  4041cc:	1f49310c 	fmadd	d12, d8, d9, d12
  4041d0:	fd408be9 	ldr	d9, [sp, #272]
  4041d4:	1f572509 	fmadd	d9, d8, d23, d9
  4041d8:	fd4093f7 	ldr	d23, [sp, #288]
  4041dc:	1f555d1f 	fmadd	d31, d8, d21, d23
  4041e0:	fc687b95 	ldr	d21, [x28, x8, lsl #3]
  4041e4:	fd420ff7 	ldr	d23, [sp, #1048]
  4041e8:	fd4053e8 	ldr	d8, [sp, #160]
  4041ec:	1f5722a8 	fmadd	d8, d21, d23, d8
  4041f0:	fd419bf5 	ldr	d21, [sp, #816]
  4041f4:	1f4776bd 	fmadd	d29, d21, d7, d29
  4041f8:	fd41abf5 	ldr	d21, [sp, #848]
  4041fc:	1f4772bc 	fmadd	d28, d21, d7, d28
  404200:	fd41bbf5 	ldr	d21, [sp, #880]
  404204:	1f476ebb 	fmadd	d27, d21, d7, d27
  404208:	fd41cbf5 	ldr	d21, [sp, #912]
  40420c:	1f476aba 	fmadd	d26, d21, d7, d26
  404210:	fd41dbf5 	ldr	d21, [sp, #944]
  404214:	1f4766b9 	fmadd	d25, d21, d7, d25
  404218:	fd41ebf5 	ldr	d21, [sp, #976]
  40421c:	1f4762b8 	fmadd	d24, d21, d7, d24
  404220:	fd41fbf5 	ldr	d21, [sp, #1008]
  404224:	1f474eb7 	fmadd	d23, d21, d7, d19
  404228:	fd420bf3 	ldr	d19, [sp, #1040]
  40422c:	1f470e63 	fmadd	d3, d19, d7, d3
  404230:	fd419bf3 	ldr	d19, [sp, #816]
  404234:	fd405be7 	ldr	d7, [sp, #176]
  404238:	1f5358d6 	fmadd	d22, d6, d19, d22
  40423c:	fd41abf3 	ldr	d19, [sp, #848]
  404240:	1f531cd5 	fmadd	d21, d6, d19, d7
  404244:	fd41bbf3 	ldr	d19, [sp, #880]
  404248:	fd4063e7 	ldr	d7, [sp, #192]
  40424c:	1f5350d4 	fmadd	d20, d6, d19, d20
  404250:	fd41cbf3 	ldr	d19, [sp, #912]
  404254:	1f531cd3 	fmadd	d19, d6, d19, d7
  404258:	fd41dbe7 	ldr	d7, [sp, #944]
  40425c:	1f4748d2 	fmadd	d18, d6, d7, d18
  404260:	fd41ebe7 	ldr	d7, [sp, #976]
  404264:	1f4744d1 	fmadd	d17, d6, d7, d17
  404268:	fd41fbe7 	ldr	d7, [sp, #1008]
  40426c:	1f4740d0 	fmadd	d16, d6, d7, d16
  404270:	fd420be7 	ldr	d7, [sp, #1040]
  404274:	1f4708c2 	fmadd	d2, d6, d7, d2
  404278:	fd419be6 	ldr	d6, [sp, #816]
  40427c:	1f4704a1 	fmadd	d1, d5, d7, d1
  404280:	1f463caf 	fmadd	d15, d5, d6, d15
  404284:	fd41abe6 	ldr	d6, [sp, #848]
  404288:	1f4638ae 	fmadd	d14, d5, d6, d14
  40428c:	fd41bbe6 	ldr	d6, [sp, #880]
  404290:	1f4634ad 	fmadd	d13, d5, d6, d13
  404294:	fd41cbe6 	ldr	d6, [sp, #912]
  404298:	1f4630ac 	fmadd	d12, d5, d6, d12
  40429c:	fd41dbe6 	ldr	d6, [sp, #944]
  4042a0:	1f4624a9 	fmadd	d9, d5, d6, d9
  4042a4:	fd41ebe6 	ldr	d6, [sp, #976]
  4042a8:	1f467cbf 	fmadd	d31, d5, d6, d31
  4042ac:	fd41fbe6 	ldr	d6, [sp, #1008]
  4042b0:	1f462cab 	fmadd	d11, d5, d6, d11
  4042b4:	fd419fe5 	ldr	d5, [sp, #824]
  4042b8:	1f4474bd 	fmadd	d29, d5, d4, d29
  4042bc:	fd41afe5 	ldr	d5, [sp, #856]
  4042c0:	1f4470bc 	fmadd	d28, d5, d4, d28
  4042c4:	fd41bfe5 	ldr	d5, [sp, #888]
  4042c8:	1f446cbb 	fmadd	d27, d5, d4, d27
  4042cc:	fd41cfe5 	ldr	d5, [sp, #920]
  4042d0:	1e7d081d 	fmul	d29, d0, d29
  4042d4:	1f4468ba 	fmadd	d26, d5, d4, d26
  4042d8:	fd41dfe5 	ldr	d5, [sp, #952]
  4042dc:	1e7c081c 	fmul	d28, d0, d28
  4042e0:	1f4464b9 	fmadd	d25, d5, d4, d25
  4042e4:	fd41efe5 	ldr	d5, [sp, #984]
  4042e8:	1e7b081b 	fmul	d27, d0, d27
  4042ec:	1f4460b8 	fmadd	d24, d5, d4, d24
  4042f0:	fd41ffe5 	ldr	d5, [sp, #1016]
  4042f4:	1e7a081a 	fmul	d26, d0, d26
  4042f8:	1f445cb7 	fmadd	d23, d5, d4, d23
  4042fc:	fd420fe5 	ldr	d5, [sp, #1048]
  404300:	1e790819 	fmul	d25, d0, d25
  404304:	1f440ca3 	fmadd	d3, d5, d4, d3
  404308:	fd419fe4 	ldr	d4, [sp, #824]
  40430c:	1f450942 	fmadd	d2, d10, d5, d2
  404310:	1f450501 	fmadd	d1, d8, d5, d1
  404314:	1e780818 	fmul	d24, d0, d24
  404318:	1f445956 	fmadd	d22, d10, d4, d22
  40431c:	fd41afe4 	ldr	d4, [sp, #856]
  404320:	1e770817 	fmul	d23, d0, d23
  404324:	1f445555 	fmadd	d21, d10, d4, d21
  404328:	fd41bfe4 	ldr	d4, [sp, #888]
  40432c:	1e630803 	fmul	d3, d0, d3
  404330:	1f445154 	fmadd	d20, d10, d4, d20
  404334:	fd41cfe4 	ldr	d4, [sp, #920]
  404338:	1e620802 	fmul	d2, d0, d2
  40433c:	1e610801 	fmul	d1, d0, d1
  404340:	1e760816 	fmul	d22, d0, d22
  404344:	1f444d53 	fmadd	d19, d10, d4, d19
  404348:	fd41dfe4 	ldr	d4, [sp, #952]
  40434c:	1e750815 	fmul	d21, d0, d21
  404350:	1f444952 	fmadd	d18, d10, d4, d18
  404354:	fd41efe4 	ldr	d4, [sp, #984]
  404358:	1e740814 	fmul	d20, d0, d20
  40435c:	1f444551 	fmadd	d17, d10, d4, d17
  404360:	fd41ffe4 	ldr	d4, [sp, #1016]
  404364:	1e730813 	fmul	d19, d0, d19
  404368:	1f444150 	fmadd	d16, d10, d4, d16
  40436c:	fd419fe4 	ldr	d4, [sp, #824]
  404370:	b942f7e0 	ldr	w0, [sp, #756]
  404374:	1e720812 	fmul	d18, d0, d18
  404378:	1f443d0f 	fmadd	d15, d8, d4, d15
  40437c:	fd41afe4 	ldr	d4, [sp, #856]
  404380:	7100041f 	cmp	w0, #0x1
  404384:	1e710811 	fmul	d17, d0, d17
  404388:	1f44390e 	fmadd	d14, d8, d4, d14
  40438c:	fd41bfe4 	ldr	d4, [sp, #888]
  404390:	f9409be0 	ldr	x0, [sp, #304]
  404394:	1e700810 	fmul	d16, d0, d16
  404398:	1f44350d 	fmadd	d13, d8, d4, d13
  40439c:	fd41cfe4 	ldr	d4, [sp, #920]
  4043a0:	f940a3ee 	ldr	x14, [sp, #320]
  4043a4:	1e6f080f 	fmul	d15, d0, d15
  4043a8:	1f44310c 	fmadd	d12, d8, d4, d12
  4043ac:	fd41dfe4 	ldr	d4, [sp, #952]
  4043b0:	f940abe6 	ldr	x6, [sp, #336]
  4043b4:	1e6e080e 	fmul	d14, d0, d14
  4043b8:	1f442509 	fmadd	d9, d8, d4, d9
  4043bc:	fd41efe4 	ldr	d4, [sp, #984]
  4043c0:	1e6d080d 	fmul	d13, d0, d13
  4043c4:	1f447d1f 	fmadd	d31, d8, d4, d31
  4043c8:	fd41ffe4 	ldr	d4, [sp, #1016]
  4043cc:	1e6c080c 	fmul	d12, d0, d12
  4043d0:	1f442d0b 	fmadd	d11, d8, d4, d11
  4043d4:	1e690809 	fmul	d9, d0, d9
  4043d8:	1e7f081f 	fmul	d31, d0, d31
  4043dc:	1e6b080b 	fmul	d11, d0, d11
  4043e0:	54ffa68c 	b.gt	4038b0 <_ZL28CalcFBHourglassForceForElemsR6DomainPdS1_S1_S1_S1_S1_S1_dii._omp_fn.0+0x110>
  4043e4:	f9418fe1 	ldr	x1, [sp, #792]
  4043e8:	f940dc3e 	ldr	x30, [x1, #440]
  4043ec:	f940e827 	ldr	x7, [x1, #464]
  4043f0:	fc717bc0 	ldr	d0, [x30, x17, lsl #3]
  4043f4:	f940f426 	ldr	x6, [x1, #488]
  4043f8:	1e7d281d 	fadd	d29, d0, d29
  4043fc:	fc317bdd 	str	d29, [x30, x17, lsl #3]
  404400:	fc7178e0 	ldr	d0, [x7, x17, lsl #3]
  404404:	1e762816 	fadd	d22, d0, d22
  404408:	fc3178f6 	str	d22, [x7, x17, lsl #3]
  40440c:	fc7178c0 	ldr	d0, [x6, x17, lsl #3]
  404410:	1e6f280f 	fadd	d15, d0, d15
  404414:	fc3178cf 	str	d15, [x6, x17, lsl #3]
  404418:	fc707bc0 	ldr	d0, [x30, x16, lsl #3]
  40441c:	1e7c281c 	fadd	d28, d0, d28
  404420:	fc307bdc 	str	d28, [x30, x16, lsl #3]
  404424:	fc7078e0 	ldr	d0, [x7, x16, lsl #3]
  404428:	1e752815 	fadd	d21, d0, d21
  40442c:	fc3078f5 	str	d21, [x7, x16, lsl #3]
  404430:	fc7078c0 	ldr	d0, [x6, x16, lsl #3]
  404434:	1e6e280e 	fadd	d14, d0, d14
  404438:	fc3078ce 	str	d14, [x6, x16, lsl #3]
  40443c:	fc6d7bc0 	ldr	d0, [x30, x13, lsl #3]
  404440:	1e7b281b 	fadd	d27, d0, d27
  404444:	fc2d7bdb 	str	d27, [x30, x13, lsl #3]
  404448:	fc6d78e0 	ldr	d0, [x7, x13, lsl #3]
  40444c:	1e742814 	fadd	d20, d0, d20
  404450:	fc2d78f4 	str	d20, [x7, x13, lsl #3]
  404454:	fc6d78c0 	ldr	d0, [x6, x13, lsl #3]
  404458:	1e6d280d 	fadd	d13, d0, d13
  40445c:	fc2d78cd 	str	d13, [x6, x13, lsl #3]
  404460:	fc6c7bc0 	ldr	d0, [x30, x12, lsl #3]
  404464:	1e7a281a 	fadd	d26, d0, d26
  404468:	fc2c7bda 	str	d26, [x30, x12, lsl #3]
  40446c:	fc6c78e0 	ldr	d0, [x7, x12, lsl #3]
  404470:	1e732813 	fadd	d19, d0, d19
  404474:	fc2c78f3 	str	d19, [x7, x12, lsl #3]
  404478:	fc6c78c0 	ldr	d0, [x6, x12, lsl #3]
  40447c:	1e6c280c 	fadd	d12, d0, d12
  404480:	fc2c78cc 	str	d12, [x6, x12, lsl #3]
  404484:	fc6b7bc0 	ldr	d0, [x30, x11, lsl #3]
  404488:	1e792819 	fadd	d25, d0, d25
  40448c:	fc2b7bd9 	str	d25, [x30, x11, lsl #3]
  404490:	fc6b78e0 	ldr	d0, [x7, x11, lsl #3]
  404494:	1e722812 	fadd	d18, d0, d18
  404498:	fc2b78f2 	str	d18, [x7, x11, lsl #3]
  40449c:	fc6b78c0 	ldr	d0, [x6, x11, lsl #3]
  4044a0:	1e692809 	fadd	d9, d0, d9
  4044a4:	fc2b78c9 	str	d9, [x6, x11, lsl #3]
  4044a8:	fc6a7bc0 	ldr	d0, [x30, x10, lsl #3]
  4044ac:	1e782818 	fadd	d24, d0, d24
  4044b0:	fc2a7bd8 	str	d24, [x30, x10, lsl #3]
  4044b4:	fc6a78e0 	ldr	d0, [x7, x10, lsl #3]
  4044b8:	1e712811 	fadd	d17, d0, d17
  4044bc:	fc2a78f1 	str	d17, [x7, x10, lsl #3]
  4044c0:	fc6a78c0 	ldr	d0, [x6, x10, lsl #3]
  4044c4:	1e7f281f 	fadd	d31, d0, d31
  4044c8:	fc2a78df 	str	d31, [x6, x10, lsl #3]
  4044cc:	fc697bc0 	ldr	d0, [x30, x9, lsl #3]
  4044d0:	1e772817 	fadd	d23, d0, d23
  4044d4:	fc297bd7 	str	d23, [x30, x9, lsl #3]
  4044d8:	fc6978e0 	ldr	d0, [x7, x9, lsl #3]
  4044dc:	1e702810 	fadd	d16, d0, d16
  4044e0:	fc2978f0 	str	d16, [x7, x9, lsl #3]
  4044e4:	fc6978c0 	ldr	d0, [x6, x9, lsl #3]
  4044e8:	1e6b280b 	fadd	d11, d0, d11
  4044ec:	fc2978cb 	str	d11, [x6, x9, lsl #3]
  4044f0:	fc687bc0 	ldr	d0, [x30, x8, lsl #3]
  4044f4:	1e632803 	fadd	d3, d0, d3
  4044f8:	fc287bc3 	str	d3, [x30, x8, lsl #3]
  4044fc:	fc6878e0 	ldr	d0, [x7, x8, lsl #3]
  404500:	1e622802 	fadd	d2, d0, d2
  404504:	fc2878e2 	str	d2, [x7, x8, lsl #3]
  404508:	fc6878c0 	ldr	d0, [x6, x8, lsl #3]
  40450c:	1e612801 	fadd	d1, d0, d1
  404510:	fc2878c1 	str	d1, [x6, x8, lsl #3]
  404514:	17fffcfe 	b	40390c <_ZL28CalcFBHourglassForceForElemsR6DomainPdS1_S1_S1_S1_S1_S1_dii._omp_fn.0+0x16c>
  404518:	a9425bf5 	ldp	x21, x22, [sp, #32]
  40451c:	a94363f7 	ldp	x23, x24, [sp, #48]
  404520:	6d4627e8 	ldp	d8, d9, [sp, #96]
  404524:	6d472fea 	ldp	d10, d11, [sp, #112]
  404528:	6d4837ec 	ldp	d12, d13, [sp, #128]
  40452c:	6d493fee 	ldp	d14, d15, [sp, #144]
  404530:	a9407bfd 	ldp	x29, x30, [sp]
  404534:	a94153f3 	ldp	x19, x20, [sp, #16]
  404538:	a9446bf9 	ldp	x25, x26, [sp, #64]
  40453c:	a94573fb 	ldp	x27, x28, [sp, #80]
  404540:	911083ff 	add	sp, sp, #0x420
  404544:	d65f03c0 	ret
  404548:	1100075a 	add	w26, w26, #0x1
  40454c:	52800000 	mov	w0, #0x0                   	// #0
  404550:	17fffca4 	b	4037e0 <_ZL28CalcFBHourglassForceForElemsR6DomainPdS1_S1_S1_S1_S1_S1_dii._omp_fn.0+0x40>

0000000000404554 <_ZL24CalcAccelerationForNodesR6Domaini._omp_fn.0>:
  404554:	a9be7bfd 	stp	x29, x30, [sp, #-32]!
  404558:	910003fd 	mov	x29, sp
  40455c:	a90153f3 	stp	x19, x20, [sp, #16]
  404560:	aa0003f4 	mov	x20, x0
  404564:	97fff39f 	bl	4013e0 <omp_get_num_threads@plt>
  404568:	2a0003f3 	mov	w19, w0
  40456c:	97fff37d 	bl	401360 <omp_get_thread_num@plt>
  404570:	b9400a81 	ldr	w1, [x20, #8]
  404574:	1ad30c22 	sdiv	w2, w1, w19
  404578:	1b138441 	msub	w1, w2, w19, w1
  40457c:	6b01001f 	cmp	w0, w1
  404580:	5400040b 	b.lt	404600 <_ZL24CalcAccelerationForNodesR6Domaini._omp_fn.0+0xac>  // b.tstop
  404584:	1b000441 	madd	w1, w2, w0, w1
  404588:	0b010042 	add	w2, w2, w1
  40458c:	6b02003f 	cmp	w1, w2
  404590:	5400032a 	b.ge	4045f4 <_ZL24CalcAccelerationForNodesR6Domaini._omp_fn.0+0xa0>  // b.tcont
  404594:	f9400289 	ldr	x9, [x20]
  404598:	93407c20 	sxtw	x0, w1
  40459c:	f940b928 	ldr	x8, [x9, #368]
  4045a0:	f940c527 	ldr	x7, [x9, #392]
  4045a4:	f940d126 	ldr	x6, [x9, #416]
  4045a8:	f940dd25 	ldr	x5, [x9, #440]
  4045ac:	f940e924 	ldr	x4, [x9, #464]
  4045b0:	f940f523 	ldr	x3, [x9, #488]
  4045b4:	f9410121 	ldr	x1, [x9, #512]
  4045b8:	fc607821 	ldr	d1, [x1, x0, lsl #3]
  4045bc:	fc6078a0 	ldr	d0, [x5, x0, lsl #3]
  4045c0:	1e611800 	fdiv	d0, d0, d1
  4045c4:	fc207900 	str	d0, [x8, x0, lsl #3]
  4045c8:	fc607821 	ldr	d1, [x1, x0, lsl #3]
  4045cc:	fc607880 	ldr	d0, [x4, x0, lsl #3]
  4045d0:	1e611800 	fdiv	d0, d0, d1
  4045d4:	fc2078e0 	str	d0, [x7, x0, lsl #3]
  4045d8:	fc607821 	ldr	d1, [x1, x0, lsl #3]
  4045dc:	fc607860 	ldr	d0, [x3, x0, lsl #3]
  4045e0:	1e611800 	fdiv	d0, d0, d1
  4045e4:	fc2078c0 	str	d0, [x6, x0, lsl #3]
  4045e8:	91000400 	add	x0, x0, #0x1
  4045ec:	6b00005f 	cmp	w2, w0
  4045f0:	54fffe4c 	b.gt	4045b8 <_ZL24CalcAccelerationForNodesR6Domaini._omp_fn.0+0x64>
  4045f4:	a94153f3 	ldp	x19, x20, [sp, #16]
  4045f8:	a8c27bfd 	ldp	x29, x30, [sp], #32
  4045fc:	d65f03c0 	ret
  404600:	11000442 	add	w2, w2, #0x1
  404604:	52800001 	mov	w1, #0x0                   	// #0
  404608:	17ffffdf 	b	404584 <_ZL24CalcAccelerationForNodesR6Domaini._omp_fn.0+0x30>
  40460c:	d503201f 	nop

0000000000404610 <_ZL43ApplyAccelerationBoundaryConditionsForNodesR6Domain._omp_fn.0>:
  404610:	a9bd7bfd 	stp	x29, x30, [sp, #-48]!
  404614:	910003fd 	mov	x29, sp
  404618:	a90153f3 	stp	x19, x20, [sp, #16]
  40461c:	f9400013 	ldr	x19, [x0]
  404620:	a9025bf5 	stp	x21, x22, [sp, #32]
  404624:	b9400815 	ldr	w21, [x0, #8]
  404628:	f9410e76 	ldr	x22, [x19, #536]
  40462c:	f9411260 	ldr	x0, [x19, #544]
  404630:	eb16001f 	cmp	x0, x22
  404634:	54000180 	b.eq	404664 <_ZL43ApplyAccelerationBoundaryConditionsForNodesR6Domain._omp_fn.0+0x54>  // b.none
  404638:	97fff36a 	bl	4013e0 <omp_get_num_threads@plt>
  40463c:	2a0003f4 	mov	w20, w0
  404640:	97fff348 	bl	401360 <omp_get_thread_num@plt>
  404644:	1ad40ea1 	sdiv	w1, w21, w20
  404648:	1b14d422 	msub	w2, w1, w20, w21
  40464c:	6b02001f 	cmp	w0, w2
  404650:	5400080b 	b.lt	404750 <_ZL43ApplyAccelerationBoundaryConditionsForNodesR6Domain._omp_fn.0+0x140>  // b.tstop
  404654:	1b000820 	madd	w0, w1, w0, w2
  404658:	0b000021 	add	w1, w1, w0
  40465c:	6b01001f 	cmp	w0, w1
  404660:	5400068b 	b.lt	404730 <_ZL43ApplyAccelerationBoundaryConditionsForNodesR6Domain._omp_fn.0+0x120>  // b.tstop
  404664:	f9411a76 	ldr	x22, [x19, #560]
  404668:	f9411e60 	ldr	x0, [x19, #568]
  40466c:	eb0002df 	cmp	x22, x0
  404670:	54000180 	b.eq	4046a0 <_ZL43ApplyAccelerationBoundaryConditionsForNodesR6Domain._omp_fn.0+0x90>  // b.none
  404674:	97fff35b 	bl	4013e0 <omp_get_num_threads@plt>
  404678:	2a0003f4 	mov	w20, w0
  40467c:	97fff339 	bl	401360 <omp_get_thread_num@plt>
  404680:	1ad40ea1 	sdiv	w1, w21, w20
  404684:	1b14d422 	msub	w2, w1, w20, w21
  404688:	6b02001f 	cmp	w0, w2
  40468c:	5400068b 	b.lt	40475c <_ZL43ApplyAccelerationBoundaryConditionsForNodesR6Domain._omp_fn.0+0x14c>  // b.tstop
  404690:	1b000820 	madd	w0, w1, w0, w2
  404694:	0b000021 	add	w1, w1, w0
  404698:	6b01001f 	cmp	w0, w1
  40469c:	5400038b 	b.lt	40470c <_ZL43ApplyAccelerationBoundaryConditionsForNodesR6Domain._omp_fn.0+0xfc>  // b.tstop
  4046a0:	f9412676 	ldr	x22, [x19, #584]
  4046a4:	f9412a60 	ldr	x0, [x19, #592]
  4046a8:	eb16001f 	cmp	x0, x22
  4046ac:	54000280 	b.eq	4046fc <_ZL43ApplyAccelerationBoundaryConditionsForNodesR6Domain._omp_fn.0+0xec>  // b.none
  4046b0:	97fff34c 	bl	4013e0 <omp_get_num_threads@plt>
  4046b4:	2a0003f4 	mov	w20, w0
  4046b8:	97fff32a 	bl	401360 <omp_get_thread_num@plt>
  4046bc:	1ad40ea1 	sdiv	w1, w21, w20
  4046c0:	1b14d422 	msub	w2, w1, w20, w21
  4046c4:	6b02001f 	cmp	w0, w2
  4046c8:	5400050b 	b.lt	404768 <_ZL43ApplyAccelerationBoundaryConditionsForNodesR6Domain._omp_fn.0+0x158>  // b.tstop
  4046cc:	1b000820 	madd	w0, w1, w0, w2
  4046d0:	0b000021 	add	w1, w1, w0
  4046d4:	6b01001f 	cmp	w0, w1
  4046d8:	5400012a 	b.ge	4046fc <_ZL43ApplyAccelerationBoundaryConditionsForNodesR6Domain._omp_fn.0+0xec>  // b.tcont
  4046dc:	f940d263 	ldr	x3, [x19, #416]
  4046e0:	93407c00 	sxtw	x0, w0
  4046e4:	d503201f 	nop
  4046e8:	b8a07ac2 	ldrsw	x2, [x22, x0, lsl #2]
  4046ec:	91000400 	add	x0, x0, #0x1
  4046f0:	f822787f 	str	xzr, [x3, x2, lsl #3]
  4046f4:	6b00003f 	cmp	w1, w0
  4046f8:	54ffff8c 	b.gt	4046e8 <_ZL43ApplyAccelerationBoundaryConditionsForNodesR6Domain._omp_fn.0+0xd8>
  4046fc:	a94153f3 	ldp	x19, x20, [sp, #16]
  404700:	a9425bf5 	ldp	x21, x22, [sp, #32]
  404704:	a8c37bfd 	ldp	x29, x30, [sp], #48
  404708:	d65f03c0 	ret
  40470c:	f940c663 	ldr	x3, [x19, #392]
  404710:	93407c00 	sxtw	x0, w0
  404714:	d503201f 	nop
  404718:	b8a07ac2 	ldrsw	x2, [x22, x0, lsl #2]
  40471c:	91000400 	add	x0, x0, #0x1
  404720:	f822787f 	str	xzr, [x3, x2, lsl #3]
  404724:	6b00003f 	cmp	w1, w0
  404728:	54ffff8c 	b.gt	404718 <_ZL43ApplyAccelerationBoundaryConditionsForNodesR6Domain._omp_fn.0+0x108>
  40472c:	17ffffdd 	b	4046a0 <_ZL43ApplyAccelerationBoundaryConditionsForNodesR6Domain._omp_fn.0+0x90>
  404730:	f940ba63 	ldr	x3, [x19, #368]
  404734:	93407c00 	sxtw	x0, w0
  404738:	b8a07ac2 	ldrsw	x2, [x22, x0, lsl #2]
  40473c:	91000400 	add	x0, x0, #0x1
  404740:	f822787f 	str	xzr, [x3, x2, lsl #3]
  404744:	6b00003f 	cmp	w1, w0
  404748:	54ffff8c 	b.gt	404738 <_ZL43ApplyAccelerationBoundaryConditionsForNodesR6Domain._omp_fn.0+0x128>
  40474c:	17ffffc6 	b	404664 <_ZL43ApplyAccelerationBoundaryConditionsForNodesR6Domain._omp_fn.0+0x54>
  404750:	11000421 	add	w1, w1, #0x1
  404754:	52800002 	mov	w2, #0x0                   	// #0
  404758:	17ffffbf 	b	404654 <_ZL43ApplyAccelerationBoundaryConditionsForNodesR6Domain._omp_fn.0+0x44>
  40475c:	11000421 	add	w1, w1, #0x1
  404760:	52800002 	mov	w2, #0x0                   	// #0
  404764:	17ffffcb 	b	404690 <_ZL43ApplyAccelerationBoundaryConditionsForNodesR6Domain._omp_fn.0+0x80>
  404768:	11000421 	add	w1, w1, #0x1
  40476c:	52800002 	mov	w2, #0x0                   	// #0
  404770:	17ffffd7 	b	4046cc <_ZL43ApplyAccelerationBoundaryConditionsForNodesR6Domain._omp_fn.0+0xbc>

0000000000404774 <_ZL20CalcVelocityForNodesR6Domainddi._omp_fn.0>:
  404774:	a9be7bfd 	stp	x29, x30, [sp, #-32]!
  404778:	910003fd 	mov	x29, sp
  40477c:	a90153f3 	stp	x19, x20, [sp, #16]
  404780:	aa0003f4 	mov	x20, x0
  404784:	97fff317 	bl	4013e0 <omp_get_num_threads@plt>
  404788:	2a0003f3 	mov	w19, w0
  40478c:	97fff2f5 	bl	401360 <omp_get_thread_num@plt>
  404790:	b9401a83 	ldr	w3, [x20, #24]
  404794:	2a0003e1 	mov	w1, w0
  404798:	1ad30c62 	sdiv	w2, w3, w19
  40479c:	1b138c43 	msub	w3, w2, w19, w3
  4047a0:	6b03001f 	cmp	w0, w3
  4047a4:	540006ab 	b.lt	404878 <_ZL20CalcVelocityForNodesR6Domainddi._omp_fn.0+0x104>  // b.tstop
  4047a8:	1b010c41 	madd	w1, w2, w1, w3
  4047ac:	0b010042 	add	w2, w2, w1
  4047b0:	6b02003f 	cmp	w1, w2
  4047b4:	5400046a 	b.ge	404840 <_ZL20CalcVelocityForNodesR6Domainddi._omp_fn.0+0xcc>  // b.tcont
  4047b8:	f9400285 	ldr	x5, [x20]
  4047bc:	93407c21 	sxtw	x1, w1
  4047c0:	6d408682 	ldp	d2, d1, [x20, #8]
  4047c4:	f94094a4 	ldr	x4, [x5, #296]
  4047c8:	f940a0a3 	ldr	x3, [x5, #320]
  4047cc:	f940aca0 	ldr	x0, [x5, #344]
  4047d0:	f940b8a7 	ldr	x7, [x5, #368]
  4047d4:	f940c4a6 	ldr	x6, [x5, #392]
  4047d8:	f940d0a5 	ldr	x5, [x5, #416]
  4047dc:	d503201f 	nop
  4047e0:	fc6178e3 	ldr	d3, [x7, x1, lsl #3]
  4047e4:	fc617880 	ldr	d0, [x4, x1, lsl #3]
  4047e8:	1f430040 	fmadd	d0, d2, d3, d0
  4047ec:	1e60c003 	fabs	d3, d0
  4047f0:	1e632030 	fcmpe	d1, d3
  4047f4:	540003ec 	b.gt	404870 <_ZL20CalcVelocityForNodesR6Domainddi._omp_fn.0+0xfc>
  4047f8:	fc217880 	str	d0, [x4, x1, lsl #3]
  4047fc:	fc6178c3 	ldr	d3, [x6, x1, lsl #3]
  404800:	fc617860 	ldr	d0, [x3, x1, lsl #3]
  404804:	1f430040 	fmadd	d0, d2, d3, d0
  404808:	1e60c003 	fabs	d3, d0
  40480c:	1e632030 	fcmpe	d1, d3
  404810:	540002cc 	b.gt	404868 <_ZL20CalcVelocityForNodesR6Domainddi._omp_fn.0+0xf4>
  404814:	fc217860 	str	d0, [x3, x1, lsl #3]
  404818:	fc6178a3 	ldr	d3, [x5, x1, lsl #3]
  40481c:	fc617800 	ldr	d0, [x0, x1, lsl #3]
  404820:	1f430040 	fmadd	d0, d2, d3, d0
  404824:	1e60c003 	fabs	d3, d0
  404828:	1e632030 	fcmpe	d1, d3
  40482c:	5400010c 	b.gt	40484c <_ZL20CalcVelocityForNodesR6Domainddi._omp_fn.0+0xd8>
  404830:	fc217800 	str	d0, [x0, x1, lsl #3]
  404834:	91000421 	add	x1, x1, #0x1
  404838:	6b01005f 	cmp	w2, w1
  40483c:	54fffd2c 	b.gt	4047e0 <_ZL20CalcVelocityForNodesR6Domainddi._omp_fn.0+0x6c>
  404840:	a94153f3 	ldp	x19, x20, [sp, #16]
  404844:	a8c27bfd 	ldp	x29, x30, [sp], #32
  404848:	d65f03c0 	ret
  40484c:	f821781f 	str	xzr, [x0, x1, lsl #3]
  404850:	91000421 	add	x1, x1, #0x1
  404854:	6b01005f 	cmp	w2, w1
  404858:	54fffc4c 	b.gt	4047e0 <_ZL20CalcVelocityForNodesR6Domainddi._omp_fn.0+0x6c>
  40485c:	a94153f3 	ldp	x19, x20, [sp, #16]
  404860:	a8c27bfd 	ldp	x29, x30, [sp], #32
  404864:	d65f03c0 	ret
  404868:	2f00e400 	movi	d0, #0x0
  40486c:	17ffffea 	b	404814 <_ZL20CalcVelocityForNodesR6Domainddi._omp_fn.0+0xa0>
  404870:	2f00e400 	movi	d0, #0x0
  404874:	17ffffe1 	b	4047f8 <_ZL20CalcVelocityForNodesR6Domainddi._omp_fn.0+0x84>
  404878:	11000442 	add	w2, w2, #0x1
  40487c:	52800003 	mov	w3, #0x0                   	// #0
  404880:	17ffffca 	b	4047a8 <_ZL20CalcVelocityForNodesR6Domainddi._omp_fn.0+0x34>

0000000000404884 <_ZL20CalcPositionForNodesR6Domaindi._omp_fn.0>:
  404884:	a9be7bfd 	stp	x29, x30, [sp, #-32]!
  404888:	910003fd 	mov	x29, sp
  40488c:	a90153f3 	stp	x19, x20, [sp, #16]
  404890:	aa0003f4 	mov	x20, x0
  404894:	97fff2d3 	bl	4013e0 <omp_get_num_threads@plt>
  404898:	2a0003f3 	mov	w19, w0
  40489c:	97fff2b1 	bl	401360 <omp_get_thread_num@plt>
  4048a0:	b9401283 	ldr	w3, [x20, #16]
  4048a4:	2a0003e1 	mov	w1, w0
  4048a8:	1ad30c62 	sdiv	w2, w3, w19
  4048ac:	1b138c43 	msub	w3, w2, w19, w3
  4048b0:	6b03001f 	cmp	w0, w3
  4048b4:	5400042b 	b.lt	404938 <_ZL20CalcPositionForNodesR6Domaindi._omp_fn.0+0xb4>  // b.tstop
  4048b8:	1b010c41 	madd	w1, w2, w1, w3
  4048bc:	0b010042 	add	w2, w2, w1
  4048c0:	6b02003f 	cmp	w1, w2
  4048c4:	5400034a 	b.ge	40492c <_ZL20CalcPositionForNodesR6Domaindi._omp_fn.0+0xa8>  // b.tcont
  4048c8:	f9400285 	ldr	x5, [x20]
  4048cc:	93407c21 	sxtw	x1, w1
  4048d0:	fd400681 	ldr	d1, [x20, #8]
  4048d4:	f94070a4 	ldr	x4, [x5, #224]
  4048d8:	f9407ca3 	ldr	x3, [x5, #248]
  4048dc:	f94088a0 	ldr	x0, [x5, #272]
  4048e0:	f94094a7 	ldr	x7, [x5, #296]
  4048e4:	f940a0a6 	ldr	x6, [x5, #320]
  4048e8:	f940aca5 	ldr	x5, [x5, #344]
  4048ec:	d503201f 	nop
  4048f0:	fc6178e2 	ldr	d2, [x7, x1, lsl #3]
  4048f4:	fc617880 	ldr	d0, [x4, x1, lsl #3]
  4048f8:	1f420020 	fmadd	d0, d1, d2, d0
  4048fc:	fc217880 	str	d0, [x4, x1, lsl #3]
  404900:	fc6178c2 	ldr	d2, [x6, x1, lsl #3]
  404904:	fc617860 	ldr	d0, [x3, x1, lsl #3]
  404908:	1f420020 	fmadd	d0, d1, d2, d0
  40490c:	fc217860 	str	d0, [x3, x1, lsl #3]
  404910:	fc6178a2 	ldr	d2, [x5, x1, lsl #3]
  404914:	fc617800 	ldr	d0, [x0, x1, lsl #3]
  404918:	1f420020 	fmadd	d0, d1, d2, d0
  40491c:	fc217800 	str	d0, [x0, x1, lsl #3]
  404920:	91000421 	add	x1, x1, #0x1
  404924:	6b01005f 	cmp	w2, w1
  404928:	54fffe4c 	b.gt	4048f0 <_ZL20CalcPositionForNodesR6Domaindi._omp_fn.0+0x6c>
  40492c:	a94153f3 	ldp	x19, x20, [sp, #16]
  404930:	a8c27bfd 	ldp	x29, x30, [sp], #32
  404934:	d65f03c0 	ret
  404938:	11000442 	add	w2, w2, #0x1
  40493c:	52800003 	mov	w3, #0x0                   	// #0
  404940:	17ffffde 	b	4048b8 <_ZL20CalcPositionForNodesR6Domaindi._omp_fn.0+0x34>

0000000000404944 <_ZL20CalcLagrangeElementsR6DomainPd._omp_fn.0>:
  404944:	a9bc7bfd 	stp	x29, x30, [sp, #-64]!
  404948:	910003fd 	mov	x29, sp
  40494c:	a90153f3 	stp	x19, x20, [sp, #16]
  404950:	aa0003f4 	mov	x20, x0
  404954:	a9025bf5 	stp	x21, x22, [sp, #32]
  404958:	97fff2a2 	bl	4013e0 <omp_get_num_threads@plt>
  40495c:	2a0003f5 	mov	w21, w0
  404960:	97fff280 	bl	401360 <omp_get_thread_num@plt>
  404964:	2a0003f3 	mov	w19, w0
  404968:	b9401280 	ldr	w0, [x20, #16]
  40496c:	1ad50c01 	sdiv	w1, w0, w21
  404970:	1b158020 	msub	w0, w1, w21, w0
  404974:	6b00027f 	cmp	w19, w0
  404978:	5400064b 	b.lt	404a40 <_ZL20CalcLagrangeElementsR6DomainPd._omp_fn.0+0xfc>  // b.tstop
  40497c:	1b130033 	madd	w19, w1, w19, w0
  404980:	0b130020 	add	w0, w1, w19
  404984:	6b00027f 	cmp	w19, w0
  404988:	540004ca 	b.ge	404a20 <_ZL20CalcLagrangeElementsR6DomainPd._omp_fn.0+0xdc>  // b.tcont
  40498c:	93407e75 	sxtw	x21, w19
  404990:	51000421 	sub	w1, w1, #0x1
  404994:	910006b5 	add	x21, x21, #0x1
  404998:	937d7e73 	sbfiz	x19, x19, #3, #32
  40499c:	8b0102b5 	add	x21, x21, x1
  4049a0:	f9400696 	ldr	x22, [x20, #8]
  4049a4:	d37df2b5 	lsl	x21, x21, #3
  4049a8:	fd001be8 	str	d8, [sp, #48]
  4049ac:	1e611008 	fmov	d8, #3.000000000000000000e+00
  4049b0:	f9400281 	ldr	x1, [x20]
  4049b4:	f941a024 	ldr	x4, [x1, #832]
  4049b8:	f941ac23 	ldr	x3, [x1, #856]
  4049bc:	fc736880 	ldr	d0, [x4, x19]
  4049c0:	f941b822 	ldr	x2, [x1, #880]
  4049c4:	fc736861 	ldr	d1, [x3, x19]
  4049c8:	f9427821 	ldr	x1, [x1, #1264]
  4049cc:	1e612800 	fadd	d0, d0, d1
  4049d0:	fc736841 	ldr	d1, [x2, x19]
  4049d4:	1e612800 	fadd	d0, d0, d1
  4049d8:	1e681801 	fdiv	d1, d0, d8
  4049dc:	fc336820 	str	d0, [x1, x19]
  4049e0:	fc736880 	ldr	d0, [x4, x19]
  4049e4:	1e613800 	fsub	d0, d0, d1
  4049e8:	fc336880 	str	d0, [x4, x19]
  4049ec:	fc736860 	ldr	d0, [x3, x19]
  4049f0:	1e613800 	fsub	d0, d0, d1
  4049f4:	fc336860 	str	d0, [x3, x19]
  4049f8:	fc736840 	ldr	d0, [x2, x19]
  4049fc:	1e613800 	fsub	d0, d0, d1
  404a00:	fc336840 	str	d0, [x2, x19]
  404a04:	fc736ac0 	ldr	d0, [x22, x19]
  404a08:	1e602018 	fcmpe	d0, #0.0
  404a0c:	54000129 	b.ls	404a30 <_ZL20CalcLagrangeElementsR6DomainPd._omp_fn.0+0xec>  // b.plast
  404a10:	91002273 	add	x19, x19, #0x8
  404a14:	eb1302bf 	cmp	x21, x19
  404a18:	54fffcc1 	b.ne	4049b0 <_ZL20CalcLagrangeElementsR6DomainPd._omp_fn.0+0x6c>  // b.any
  404a1c:	fd401be8 	ldr	d8, [sp, #48]
  404a20:	a94153f3 	ldp	x19, x20, [sp, #16]
  404a24:	a9425bf5 	ldp	x21, x22, [sp, #32]
  404a28:	a8c47bfd 	ldp	x29, x30, [sp], #64
  404a2c:	d65f03c0 	ret
  404a30:	12800001 	mov	w1, #0xffffffff            	// #-1
  404a34:	52a88000 	mov	w0, #0x44000000            	// #1140850688
  404a38:	97fff202 	bl	401240 <MPI_Abort@plt>
  404a3c:	17fffff5 	b	404a10 <_ZL20CalcLagrangeElementsR6DomainPd._omp_fn.0+0xcc>
  404a40:	11000421 	add	w1, w1, #0x1
  404a44:	52800000 	mov	w0, #0x0                   	// #0
  404a48:	17ffffcd 	b	40497c <_ZL20CalcLagrangeElementsR6DomainPd._omp_fn.0+0x38>
  404a4c:	d503201f 	nop

0000000000404a50 <_ZL31CalcMonotonicQGradientsForElemsR6DomainPd._omp_fn.0>:
  404a50:	a9aa7bfd 	stp	x29, x30, [sp, #-352]!
  404a54:	910003fd 	mov	x29, sp
  404a58:	a9025bf5 	stp	x21, x22, [sp, #32]
  404a5c:	aa0003f5 	mov	x21, x0
  404a60:	a90153f3 	stp	x19, x20, [sp, #16]
  404a64:	97fff25f 	bl	4013e0 <omp_get_num_threads@plt>
  404a68:	2a0003f3 	mov	w19, w0
  404a6c:	97fff23d 	bl	401360 <omp_get_thread_num@plt>
  404a70:	b94012a2 	ldr	w2, [x21, #16]
  404a74:	1ad30c41 	sdiv	w1, w2, w19
  404a78:	1b138833 	msub	w19, w1, w19, w2
  404a7c:	6b13001f 	cmp	w0, w19
  404a80:	5400368b 	b.lt	405150 <_ZL31CalcMonotonicQGradientsForElemsR6DomainPd._omp_fn.0+0x700>  // b.tstop
  404a84:	1b004c33 	madd	w19, w1, w0, w19
  404a88:	0b130020 	add	w0, w1, w19
  404a8c:	6b00027f 	cmp	w19, w0
  404a90:	5400358a 	b.ge	405140 <_ZL31CalcMonotonicQGradientsForElemsR6DomainPd._omp_fn.0+0x6f0>  // b.tcont
  404a94:	93407e74 	sxtw	x20, w19
  404a98:	51000421 	sub	w1, w1, #0x1
  404a9c:	91000694 	add	x20, x20, #0x1
  404aa0:	937d7e73 	sbfiz	x19, x19, #3, #32
  404aa4:	8b010294 	add	x20, x20, x1
  404aa8:	1e6a101c 	fmov	d28, #2.500000000000000000e-01
  404aac:	a9405aa1 	ldp	x1, x22, [x21]
  404ab0:	d37df294 	lsl	x20, x20, #3
  404ab4:	6d0327e8 	stp	d8, d9, [sp, #48]
  404ab8:	6d042fea 	stp	d10, d11, [sp, #64]
  404abc:	6d0537ec 	stp	d12, d13, [sp, #80]
  404ac0:	6d063fee 	stp	d14, d15, [sp, #96]
  404ac4:	d503201f 	nop
  404ac8:	f000006d 	adrp	x13, 413000 <_ZN6DomainC1Eiiiiiiiii+0x1200>
  404acc:	f9414022 	ldr	x2, [x1, #640]
  404ad0:	f9407024 	ldr	x4, [x1, #224]
  404ad4:	8b130845 	add	x5, x2, x19, lsl #2
  404ad8:	b8b37846 	ldrsw	x6, [x2, x19, lsl #2]
  404adc:	f9407c23 	ldr	x3, [x1, #248]
  404ae0:	6940acac 	ldpsw	x12, x11, [x5, #4]
  404ae4:	6941a4aa 	ldpsw	x10, x9, [x5, #12]
  404ae8:	f9408822 	ldr	x2, [x1, #272]
  404aec:	69429ca8 	ldpsw	x8, x7, [x5, #20]
  404af0:	fc667881 	ldr	d1, [x4, x6, lsl #3]
  404af4:	fc6b788c 	ldr	d12, [x4, x11, lsl #3]
  404af8:	fc667866 	ldr	d6, [x3, x6, lsl #3]
  404afc:	fc6c7880 	ldr	d0, [x4, x12, lsl #3]
  404b00:	fc6c786a 	ldr	d10, [x3, x12, lsl #3]
  404b04:	b9801ca5 	ldrsw	x5, [x5, #28]
  404b08:	1e6c2803 	fadd	d3, d0, d12
  404b0c:	1e602820 	fadd	d0, d1, d0
  404b10:	1e6a28cf 	fadd	d15, d6, d10
  404b14:	fc6a7892 	ldr	d18, [x4, x10, lsl #3]
  404b18:	fc6b7858 	ldr	d24, [x2, x11, lsl #3]
  404b1c:	fc6a7854 	ldr	d20, [x2, x10, lsl #3]
  404b20:	fc6c7849 	ldr	d9, [x2, x12, lsl #3]
  404b24:	1e72282e 	fadd	d14, d1, d18
  404b28:	fc667847 	ldr	d7, [x2, x6, lsl #3]
  404b2c:	1e722988 	fadd	d8, d12, d18
  404b30:	fc6b786b 	ldr	d11, [x3, x11, lsl #3]
  404b34:	1e742b02 	fadd	d2, d24, d20
  404b38:	fc6a7870 	ldr	d16, [x3, x10, lsl #3]
  404b3c:	1e78292d 	fadd	d13, d9, d24
  404b40:	fc687884 	ldr	d4, [x4, x8, lsl #3]
  404b44:	1e6928e9 	fadd	d9, d7, d9
  404b48:	fc687865 	ldr	d5, [x3, x8, lsl #3]
  404b4c:	1e7428e7 	fadd	d7, d7, d20
  404b50:	1e702961 	fadd	d1, d11, d16
  404b54:	fc69789a 	ldr	d26, [x4, x9, lsl #3]
  404b58:	1e60289d 	fadd	d29, d4, d0
  404b5c:	fc697879 	ldr	d25, [x3, x9, lsl #3]
  404b60:	fc677896 	ldr	d22, [x4, x7, lsl #3]
  404b64:	1e6b294a 	fadd	d10, d10, d11
  404b68:	fc657891 	ldr	d17, [x4, x5, lsl #3]
  404b6c:	1e7028c6 	fadd	d6, d6, d16
  404b70:	fc677875 	ldr	d21, [x3, x7, lsl #3]
  404b74:	1e6f28bf 	fadd	d31, d5, d15
  404b78:	6d073fe0 	stp	d0, d15, [sp, #112]
  404b7c:	1e762863 	fadd	d3, d3, d22
  404b80:	fc677857 	ldr	d23, [x2, x7, lsl #3]
  404b84:	fc687840 	ldr	d0, [x2, x8, lsl #3]
  404b88:	1e7129ce 	fadd	d14, d14, d17
  404b8c:	fc657853 	ldr	d19, [x2, x5, lsl #3]
  404b90:	1e762908 	fadd	d8, d8, d22
  404b94:	fc65786f 	ldr	d15, [x3, x5, lsl #3]
  404b98:	1e772842 	fadd	d2, d2, d23
  404b9c:	1e69281e 	fadd	d30, d0, d9
  404ba0:	1e7729ad 	fadd	d13, d13, d23
  404ba4:	1e7328e7 	fadd	d7, d7, d19
  404ba8:	1e752821 	fadd	d1, d1, d21
  404bac:	fc69785b 	ldr	d27, [x2, x9, lsl #3]
  404bb0:	1e6f28c6 	fadd	d6, d6, d15
  404bb4:	1e75294a 	fadd	d10, d10, d21
  404bb8:	1e7a29ce 	fadd	d14, d14, d26
  404bbc:	1e642863 	fadd	d3, d3, d4
  404bc0:	1e732842 	fadd	d2, d2, d19
  404bc4:	1e7b2bde 	fadd	d30, d30, d27
  404bc8:	1e7a2bbd 	fadd	d29, d29, d26
  404bcc:	1e792bff 	fadd	d31, d31, d25
  404bd0:	1e6029ad 	fadd	d13, d13, d0
  404bd4:	1e712908 	fadd	d8, d8, d17
  404bd8:	1e7b28e7 	fadd	d7, d7, d27
  404bdc:	1e6f2821 	fadd	d1, d1, d15
  404be0:	1e7928c6 	fadd	d6, d6, d25
  404be4:	1e65294a 	fadd	d10, d10, d5
  404be8:	1e6e3863 	fsub	d3, d3, d14
  404bec:	1e623bc2 	fsub	d2, d30, d2
  404bf0:	1e642b44 	fadd	d4, d26, d4
  404bf4:	1e683ba8 	fsub	d8, d29, d8
  404bf8:	1e6739a7 	fsub	d7, d13, d7
  404bfc:	1e613be1 	fsub	d1, d31, d1
  404c00:	1e602b60 	fadd	d0, d27, d0
  404c04:	1e66394a 	fsub	d10, d10, d6
  404c08:	1e7a1006 	fmov	d6, #-2.500000000000000000e-01
  404c0c:	1e7c0863 	fmul	d3, d3, d28
  404c10:	1e762884 	fadd	d4, d4, d22
  404c14:	1e660842 	fmul	d2, d2, d6
  404c18:	1e660908 	fmul	d8, d8, d6
  404c1c:	1e660821 	fmul	d1, d1, d6
  404c20:	1e7c08e7 	fmul	d7, d7, d28
  404c24:	1e7c094a 	fmul	d10, d10, d28
  404c28:	1e652b2e 	fadd	d14, d25, d5
  404c2c:	1e692b18 	fadd	d24, d24, d9
  404c30:	1e772809 	fadd	d9, d0, d23
  404c34:	1e63085d 	fmul	d29, d2, d3
  404c38:	fd403be0 	ldr	d0, [sp, #112]
  404c3c:	1f67f51d 	fnmsub	d29, d8, d7, d29
  404c40:	1e670836 	fmul	d22, d1, d7
  404c44:	1f6ad845 	fnmsub	d5, d2, d10, d22
  404c48:	1e6a091f 	fmul	d31, d8, d10
  404c4c:	1e60298c 	fadd	d12, d12, d0
  404c50:	fd403fe0 	ldr	d0, [sp, #120]
  404c54:	1f63fc3f 	fnmsub	d31, d1, d3, d31
  404c58:	1e712891 	fadd	d17, d4, d17
  404c5c:	f9409424 	ldr	x4, [x1, #296]
  404c60:	1e60296b 	fadd	d11, d11, d0
  404c64:	f940a023 	ldr	x3, [x1, #320]
  404c68:	1e742b14 	fadd	d20, d24, d20
  404c6c:	1e7d0ba0 	fmul	d0, d29, d29
  404c70:	fc6c789b 	ldr	d27, [x4, x12, lsl #3]
  404c74:	1f4500a0 	fmadd	d0, d5, d5, d0
  404c78:	fd006fe5 	str	d5, [sp, #216]
  404c7c:	fc6b7885 	ldr	d5, [x4, x11, lsl #3]
  404c80:	1e7529ce 	fadd	d14, d14, d21
  404c84:	fc65789e 	ldr	d30, [x4, x5, lsl #3]
  404c88:	1e732929 	fadd	d9, d9, d19
  404c8c:	fc6c7878 	ldr	d24, [x3, x12, lsl #3]
  404c90:	1e722992 	fadd	d18, d12, d18
  404c94:	1f5f03e4 	fmadd	d4, d31, d31, d0
  404c98:	fd003be5 	str	d5, [sp, #112]
  404c9c:	fc6a7880 	ldr	d0, [x4, x10, lsl #3]
  404ca0:	1e6f29ce 	fadd	d14, d14, d15
  404ca4:	f940ac22 	ldr	x2, [x1, #344]
  404ca8:	1e702970 	fadd	d16, d11, d16
  404cac:	fd003fe0 	str	d0, [sp, #120]
  404cb0:	1e743929 	fsub	d9, d9, d20
  404cb4:	fc697880 	ldr	d0, [x4, x9, lsl #3]
  404cb8:	1e723a31 	fsub	d17, d17, d18
  404cbc:	f9425420 	ldr	x0, [x1, #1192]
  404cc0:	1e7039ce 	fsub	d14, d14, d16
  404cc4:	fd0043e0 	str	d0, [sp, #128]
  404cc8:	1e7c0929 	fmul	d9, d9, d28
  404ccc:	fc687880 	ldr	d0, [x4, x8, lsl #3]
  404cd0:	1e7c0a31 	fmul	d17, d17, d28
  404cd4:	1e7c09ce 	fmul	d14, d14, d28
  404cd8:	fd0047e0 	str	d0, [sp, #136]
  404cdc:	fc677880 	ldr	d0, [x4, x7, lsl #3]
  404ce0:	fd004be0 	str	d0, [sp, #144]
  404ce4:	fc6b7860 	ldr	d0, [x3, x11, lsl #3]
  404ce8:	fd004fe0 	str	d0, [sp, #152]
  404cec:	fc6a7860 	ldr	d0, [x3, x10, lsl #3]
  404cf0:	fd0053e0 	str	d0, [sp, #160]
  404cf4:	fc697860 	ldr	d0, [x3, x9, lsl #3]
  404cf8:	fd0057e0 	str	d0, [sp, #168]
  404cfc:	fd47b9a0 	ldr	d0, [x13, #3952]
  404d00:	1e602884 	fadd	d4, d4, d0
  404d04:	fc687860 	ldr	d0, [x3, x8, lsl #3]
  404d08:	fc736819 	ldr	d25, [x0, x19]
  404d0c:	fc6c7846 	ldr	d6, [x2, x12, lsl #3]
  404d10:	fd005be0 	str	d0, [sp, #176]
  404d14:	fc677860 	ldr	d0, [x3, x7, lsl #3]
  404d18:	1e602088 	fcmp	d4, #0.0
  404d1c:	fc6a7853 	ldr	d19, [x2, x10, lsl #3]
  404d20:	fc687845 	ldr	d5, [x2, x8, lsl #3]
  404d24:	fd005fe0 	str	d0, [sp, #184]
  404d28:	fc657860 	ldr	d0, [x3, x5, lsl #3]
  404d2c:	fc677857 	ldr	d23, [x2, x7, lsl #3]
  404d30:	fc65785a 	ldr	d26, [x2, x5, lsl #3]
  404d34:	fd0063e0 	str	d0, [sp, #192]
  404d38:	fc6b7840 	ldr	d0, [x2, x11, lsl #3]
  404d3c:	fc66788d 	ldr	d13, [x4, x6, lsl #3]
  404d40:	fc66786b 	ldr	d11, [x3, x6, lsl #3]
  404d44:	fd0067e0 	str	d0, [sp, #200]
  404d48:	fc697840 	ldr	d0, [x2, x9, lsl #3]
  404d4c:	fc66784f 	ldr	d15, [x2, x6, lsl #3]
  404d50:	fd006be0 	str	d0, [sp, #208]
  404d54:	fc736ac0 	ldr	d0, [x22, x19]
  404d58:	1e600b39 	fmul	d25, d25, d0
  404d5c:	fd47b9a0 	ldr	d0, [x13, #3952]
  404d60:	1e602b2c 	fadd	d12, d25, d0
  404d64:	1e6e1000 	fmov	d0, #1.000000000000000000e+00
  404d68:	1e6c180c 	fdiv	d12, d0, d12
  404d6c:	540002e5 	b.pl	404dc8 <_ZL31CalcMonotonicQGradientsForElemsR6DomainPd._omp_fn.0+0x378>  // b.nfrst
  404d70:	1e604080 	fmov	d0, d4
  404d74:	6d0e7bfb 	stp	d27, d30, [sp, #224]
  404d78:	6d0f1bf8 	stp	d24, d6, [sp, #240]
  404d7c:	6d1017f3 	stp	d19, d5, [sp, #256]
  404d80:	6d116bf7 	stp	d23, d26, [sp, #272]
  404d84:	6d1207f9 	stp	d25, d1, [sp, #288]
  404d88:	6d130fe2 	stp	d2, d3, [sp, #304]
  404d8c:	6d1447e7 	stp	d7, d17, [sp, #320]
  404d90:	6d157ffd 	stp	d29, d31, [sp, #336]
  404d94:	97fff19f 	bl	401410 <sqrt@plt>
  404d98:	1e6a101c 	fmov	d28, #2.500000000000000000e-01
  404d9c:	1e604004 	fmov	d4, d0
  404da0:	f94002a1 	ldr	x1, [x21]
  404da4:	6d4e7bfb 	ldp	d27, d30, [sp, #224]
  404da8:	6d4f1bf8 	ldp	d24, d6, [sp, #240]
  404dac:	6d5017f3 	ldp	d19, d5, [sp, #256]
  404db0:	6d516bf7 	ldp	d23, d26, [sp, #272]
  404db4:	6d5207f9 	ldp	d25, d1, [sp, #288]
  404db8:	6d530fe2 	ldp	d2, d3, [sp, #304]
  404dbc:	6d5447e7 	ldp	d7, d17, [sp, #320]
  404dc0:	6d557ffd 	ldp	d29, d31, [sp, #336]
  404dc4:	14000002 	b	404dcc <_ZL31CalcMonotonicQGradientsForElemsR6DomainPd._omp_fn.0+0x37c>
  404dc8:	1e61c084 	fsqrt	d4, d4
  404dcc:	6d4acbe0 	ldp	d0, d18, [sp, #168]
  404dd0:	1e782970 	fadd	d16, d11, d24
  404dd4:	6d4857f4 	ldp	d20, d21, [sp, #128]
  404dd8:	1e7d099d 	fmul	d29, d12, d29
  404ddc:	1e722800 	fadd	d0, d0, d18
  404de0:	1e7b29b2 	fadd	d18, d13, d27
  404de4:	fd405ff6 	ldr	d22, [sp, #184]
  404de8:	1e7f099f 	fmul	d31, d12, d31
  404dec:	1e641b24 	fdiv	d4, d25, d4
  404df0:	f0000060 	adrp	x0, 413000 <_ZN6DomainC1Eiiiiiiiii+0x1200>
  404df4:	f9420023 	ldr	x3, [x1, #1024]
  404df8:	6d0e43f2 	stp	d18, d16, [sp, #224]
  404dfc:	1e752a92 	fadd	d18, d20, d21
  404e00:	fd404ff4 	ldr	d20, [sp, #152]
  404e04:	1e762800 	fadd	d0, d0, d22
  404e08:	fd404bf6 	ldr	d22, [sp, #144]
  404e0c:	1e690915 	fmul	d21, d8, d9
  404e10:	1f71d455 	fnmsub	d21, d2, d17, d21
  404e14:	1e6e0842 	fmul	d2, d2, d14
  404e18:	1e702a94 	fadd	d20, d20, d16
  404e1c:	1e7b29b0 	fadd	d16, d13, d27
  404e20:	1e762a52 	fadd	d18, d18, d22
  404e24:	fd403bf6 	ldr	d22, [sp, #112]
  404e28:	1f698822 	fnmsub	d2, d1, d9, d2
  404e2c:	1e710821 	fmul	d1, d1, d17
  404e30:	1f6e8508 	fnmsub	d8, d8, d14, d1
  404e34:	fd406be1 	ldr	d1, [sp, #208]
  404e38:	1e702ad0 	fadd	d16, d22, d16
  404e3c:	1e6629f6 	fadd	d22, d15, d6
  404e40:	1e7e2a52 	fadd	d18, d18, d30
  404e44:	1e652821 	fadd	d1, d1, d5
  404e48:	f941dc22 	ldr	x2, [x1, #952]
  404e4c:	fd007bf6 	str	d22, [sp, #240]
  404e50:	fd4053f6 	ldr	d22, [sp, #160]
  404e54:	1e772821 	fadd	d1, d1, d23
  404e58:	1e762a94 	fadd	d20, d20, d22
  404e5c:	fd4063f6 	ldr	d22, [sp, #192]
  404e60:	1e762800 	fadd	d0, d0, d22
  404e64:	fd403ff6 	ldr	d22, [sp, #120]
  404e68:	1e762a10 	fadd	d16, d16, d22
  404e6c:	fd406ff6 	ldr	d22, [sp, #216]
  404e70:	1e743814 	fsub	d20, d0, d20
  404e74:	1e6629e0 	fadd	d0, d15, d6
  404e78:	1e760996 	fmul	d22, d12, d22
  404e7c:	1e703a52 	fsub	d18, d18, d16
  404e80:	fd4067f0 	ldr	d16, [sp, #200]
  404e84:	1e7c0a94 	fmul	d20, d20, d28
  404e88:	fc336864 	str	d4, [x3, x19]
  404e8c:	1e602a00 	fadd	d0, d16, d0
  404e90:	1e7a2830 	fadd	d16, d1, d26
  404e94:	1e750aa1 	fmul	d1, d21, d21
  404e98:	1e7c0a52 	fmul	d18, d18, d28
  404e9c:	1f420441 	fmadd	d1, d2, d2, d1
  404ea0:	1e7d0a9d 	fmul	d29, d20, d29
  404ea4:	1e732800 	fadd	d0, d0, d19
  404ea8:	1f5276dd 	fmadd	d29, d22, d18, d29
  404eac:	1f480501 	fmadd	d1, d8, d8, d1
  404eb0:	1e603a00 	fsub	d0, d16, d0
  404eb4:	1e7c0800 	fmul	d0, d0, d28
  404eb8:	1f4077fd 	fmadd	d29, d31, d0, d29
  404ebc:	fd47b800 	ldr	d0, [x0, #3952]
  404ec0:	1e602821 	fadd	d1, d1, d0
  404ec4:	1e602028 	fcmp	d1, #0.0
  404ec8:	fc33685d 	str	d29, [x2, x19]
  404ecc:	540002e5 	b.pl	404f28 <_ZL31CalcMonotonicQGradientsForElemsR6DomainPd._omp_fn.0+0x4d8>  // b.nfrst
  404ed0:	1e604020 	fmov	d0, d1
  404ed4:	fd006ffb 	str	d27, [sp, #216]
  404ed8:	6d0fe3fe 	stp	d30, d24, [sp, #248]
  404edc:	6d10cfe6 	stp	d6, d19, [sp, #264]
  404ee0:	6d11dfe5 	stp	d5, d23, [sp, #280]
  404ee4:	6d12e7fa 	stp	d26, d25, [sp, #296]
  404ee8:	6d139fe3 	stp	d3, d7, [sp, #312]
  404eec:	6d148bf1 	stp	d17, d2, [sp, #328]
  404ef0:	fd00aff5 	str	d21, [sp, #344]
  404ef4:	97fff147 	bl	401410 <sqrt@plt>
  404ef8:	1e6a101c 	fmov	d28, #2.500000000000000000e-01
  404efc:	1e604001 	fmov	d1, d0
  404f00:	f94002a1 	ldr	x1, [x21]
  404f04:	fd406ffb 	ldr	d27, [sp, #216]
  404f08:	6d4fe3fe 	ldp	d30, d24, [sp, #248]
  404f0c:	6d50cfe6 	ldp	d6, d19, [sp, #264]
  404f10:	6d51dfe5 	ldp	d5, d23, [sp, #280]
  404f14:	6d52e7fa 	ldp	d26, d25, [sp, #296]
  404f18:	6d539fe3 	ldp	d3, d7, [sp, #312]
  404f1c:	6d548bf1 	ldp	d17, d2, [sp, #328]
  404f20:	fd40aff5 	ldr	d21, [sp, #344]
  404f24:	14000002 	b	404f2c <_ZL31CalcMonotonicQGradientsForElemsR6DomainPd._omp_fn.0+0x4dc>
  404f28:	1e61c021 	fsqrt	d1, d1
  404f2c:	fd404fe0 	ldr	d0, [sp, #152]
  404f30:	1e7108e4 	fmul	d4, d7, d17
  404f34:	1f699064 	fnmsub	d4, d3, d9, d4
  404f38:	1e7329ef 	fadd	d15, d15, d19
  404f3c:	1e690949 	fmul	d9, d10, d9
  404f40:	1e6e0863 	fmul	d3, d3, d14
  404f44:	1e602b18 	fadd	d24, d24, d0
  404f48:	fd4053e0 	ldr	d0, [sp, #160]
  404f4c:	1f6ea4e7 	fnmsub	d7, d7, d14, d9
  404f50:	1f718d43 	fnmsub	d3, d10, d17, d3
  404f54:	1e7a29ef 	fadd	d15, d15, d26
  404f58:	1e750995 	fmul	d21, d12, d21
  404f5c:	1e60296b 	fadd	d11, d11, d0
  404f60:	fd403be0 	ldr	d0, [sp, #112]
  404f64:	1e620982 	fmul	d2, d12, d2
  404f68:	1e680988 	fmul	d8, d12, d8
  404f6c:	f0000060 	adrp	x0, 413000 <_ZN6DomainC1Eiiiiiiiii+0x1200>
  404f70:	1e602b7b 	fadd	d27, d27, d0
  404f74:	fd403fe0 	ldr	d0, [sp, #120]
  404f78:	1e640889 	fmul	d9, d4, d4
  404f7c:	f941e823 	ldr	x3, [x1, #976]
  404f80:	1e6029ad 	fadd	d13, d13, d0
  404f84:	1e611b20 	fdiv	d0, d25, d1
  404f88:	fd4067e1 	ldr	d1, [sp, #200]
  404f8c:	1f4724e9 	fmadd	d9, d7, d7, d9
  404f90:	f941c422 	ldr	x2, [x1, #904]
  404f94:	1e6128c6 	fadd	d6, d6, d1
  404f98:	fd405fe1 	ldr	d1, [sp, #184]
  404f9c:	1e7e29ad 	fadd	d13, d13, d30
  404fa0:	1f432469 	fmadd	d9, d3, d3, d9
  404fa4:	1e612b18 	fadd	d24, d24, d1
  404fa8:	fd4063e1 	ldr	d1, [sp, #192]
  404fac:	1e7728c6 	fadd	d6, d6, d23
  404fb0:	1e61296b 	fadd	d11, d11, d1
  404fb4:	fd404be1 	ldr	d1, [sp, #144]
  404fb8:	1e6528c6 	fadd	d6, d6, d5
  404fbc:	1e612b7b 	fadd	d27, d27, d1
  404fc0:	fd405be1 	ldr	d1, [sp, #176]
  404fc4:	1e612b18 	fadd	d24, d24, d1
  404fc8:	fd4057e1 	ldr	d1, [sp, #168]
  404fcc:	1e61296b 	fadd	d11, d11, d1
  404fd0:	fd4047e1 	ldr	d1, [sp, #136]
  404fd4:	1e612b7b 	fadd	d27, d27, d1
  404fd8:	fd4043e1 	ldr	d1, [sp, #128]
  404fdc:	1e6b3b18 	fsub	d24, d24, d11
  404fe0:	1e6129ad 	fadd	d13, d13, d1
  404fe4:	fd406be1 	ldr	d1, [sp, #208]
  404fe8:	1e7c0b18 	fmul	d24, d24, d28
  404fec:	1e6129ef 	fadd	d15, d15, d1
  404ff0:	fd47b801 	ldr	d1, [x0, #3952]
  404ff4:	1e6d3b7b 	fsub	d27, d27, d13
  404ff8:	fc336860 	str	d0, [x3, x19]
  404ffc:	1e750b18 	fmul	d24, d24, d21
  405000:	1e612929 	fadd	d9, d9, d1
  405004:	1e6f38c6 	fsub	d6, d6, d15
  405008:	1e7c0b7b 	fmul	d27, d27, d28
  40500c:	1e602128 	fcmp	d9, #0.0
  405010:	1e7c08c6 	fmul	d6, d6, d28
  405014:	1f5b6058 	fmadd	d24, d2, d27, d24
  405018:	1f466108 	fmadd	d8, d8, d6, d24
  40501c:	fc336848 	str	d8, [x2, x19]
  405020:	54000225 	b.pl	405064 <_ZL31CalcMonotonicQGradientsForElemsR6DomainPd._omp_fn.0+0x614>  // b.nfrst
  405024:	1e604120 	fmov	d0, d9
  405028:	fd006ffe 	str	d30, [sp, #216]
  40502c:	6d0f97f3 	stp	d19, d5, [sp, #248]
  405030:	6d10ebf7 	stp	d23, d26, [sp, #264]
  405034:	6d119ff9 	stp	d25, d7, [sp, #280]
  405038:	6d128fe4 	stp	d4, d3, [sp, #296]
  40503c:	97fff0f5 	bl	401410 <sqrt@plt>
  405040:	1e6a101c 	fmov	d28, #2.500000000000000000e-01
  405044:	1e604009 	fmov	d9, d0
  405048:	fd406ffe 	ldr	d30, [sp, #216]
  40504c:	f94002a1 	ldr	x1, [x21]
  405050:	6d4f97f3 	ldp	d19, d5, [sp, #248]
  405054:	6d50ebf7 	ldp	d23, d26, [sp, #264]
  405058:	6d519ff9 	ldp	d25, d7, [sp, #280]
  40505c:	6d528fe4 	ldp	d4, d3, [sp, #296]
  405060:	14000002 	b	405068 <_ZL31CalcMonotonicQGradientsForElemsR6DomainPd._omp_fn.0+0x618>
  405064:	1e61c129 	fsqrt	d9, d9
  405068:	6d4987e0 	ldp	d0, d1, [sp, #152]
  40506c:	1e640984 	fmul	d4, d12, d4
  405070:	fd4073e8 	ldr	d8, [sp, #224]
  405074:	1e670987 	fmul	d7, d12, d7
  405078:	1e691b39 	fdiv	d25, d25, d9
  40507c:	1e630983 	fmul	d3, d12, d3
  405080:	1e612802 	fadd	d2, d0, d1
  405084:	6d4707e0 	ldp	d0, d1, [sp, #112]
  405088:	f941f423 	ldr	x3, [x1, #1000]
  40508c:	1e612806 	fadd	d6, d0, d1
  405090:	fd405be0 	ldr	d0, [sp, #176]
  405094:	fd4077e1 	ldr	d1, [sp, #232]
  405098:	f941d022 	ldr	x2, [x1, #928]
  40509c:	1e612800 	fadd	d0, d0, d1
  4050a0:	fd4047e1 	ldr	d1, [sp, #136]
  4050a4:	1e682821 	fadd	d1, d1, d8
  4050a8:	fd4067e8 	ldr	d8, [sp, #200]
  4050ac:	1e732913 	fadd	d19, d8, d19
  4050b0:	fd407be8 	ldr	d8, [sp, #240]
  4050b4:	1e6828a5 	fadd	d5, d5, d8
  4050b8:	fd405fe8 	ldr	d8, [sp, #184]
  4050bc:	1e772a77 	fadd	d23, d19, d23
  4050c0:	1e682842 	fadd	d2, d2, d8
  4050c4:	fd404be8 	ldr	d8, [sp, #144]
  4050c8:	1e7a2afa 	fadd	d26, d23, d26
  4050cc:	1e6828c6 	fadd	d6, d6, d8
  4050d0:	fd4057e8 	ldr	d8, [sp, #168]
  4050d4:	1e682800 	fadd	d0, d0, d8
  4050d8:	fd4043e8 	ldr	d8, [sp, #128]
  4050dc:	1e7e28cc 	fadd	d12, d6, d30
  4050e0:	fc336879 	str	d25, [x3, x19]
  4050e4:	1e682821 	fadd	d1, d1, d8
  4050e8:	fd406be8 	ldr	d8, [sp, #208]
  4050ec:	1e6828a5 	fadd	d5, d5, d8
  4050f0:	fd4063e8 	ldr	d8, [sp, #192]
  4050f4:	1e6c382c 	fsub	d12, d1, d12
  4050f8:	1e7a1001 	fmov	d1, #-2.500000000000000000e-01
  4050fc:	1e682842 	fadd	d2, d2, d8
  405100:	1e7a38ba 	fsub	d26, d5, d26
  405104:	1e61098c 	fmul	d12, d12, d1
  405108:	1e623800 	fsub	d0, d0, d2
  40510c:	1e610b5a 	fmul	d26, d26, d1
  405110:	1e610800 	fmul	d0, d0, d1
  405114:	1e640804 	fmul	d4, d0, d4
  405118:	1f4c10e7 	fmadd	d7, d7, d12, d4
  40511c:	1f5a1c63 	fmadd	d3, d3, d26, d7
  405120:	fc336843 	str	d3, [x2, x19]
  405124:	91002273 	add	x19, x19, #0x8
  405128:	eb13029f 	cmp	x20, x19
  40512c:	54ffcce1 	b.ne	404ac8 <_ZL31CalcMonotonicQGradientsForElemsR6DomainPd._omp_fn.0+0x78>  // b.any
  405130:	6d4327e8 	ldp	d8, d9, [sp, #48]
  405134:	6d442fea 	ldp	d10, d11, [sp, #64]
  405138:	6d4537ec 	ldp	d12, d13, [sp, #80]
  40513c:	6d463fee 	ldp	d14, d15, [sp, #96]
  405140:	a94153f3 	ldp	x19, x20, [sp, #16]
  405144:	a9425bf5 	ldp	x21, x22, [sp, #32]
  405148:	a8d67bfd 	ldp	x29, x30, [sp], #352
  40514c:	d65f03c0 	ret
  405150:	11000421 	add	w1, w1, #0x1
  405154:	52800013 	mov	w19, #0x0                   	// #0
  405158:	17fffe4b 	b	404a84 <_ZL31CalcMonotonicQGradientsForElemsR6DomainPd._omp_fn.0+0x34>
  40515c:	d503201f 	nop

0000000000405160 <_ZL28CalcMonotonicQRegionForElemsR6DomainiPdd._omp_fn.0>:
  405160:	a9b47bfd 	stp	x29, x30, [sp, #-192]!
  405164:	910003fd 	mov	x29, sp
  405168:	a90153f3 	stp	x19, x20, [sp, #16]
  40516c:	f9400013 	ldr	x19, [x0]
  405170:	a9025bf5 	stp	x21, x22, [sp, #32]
  405174:	b9803815 	ldrsw	x21, [x0, #56]
  405178:	f9002bfb 	str	x27, [sp, #80]
  40517c:	aa0003fb 	mov	x27, x0
  405180:	f9413660 	ldr	x0, [x19, #616]
  405184:	a9046bf9 	stp	x25, x26, [sp, #64]
  405188:	b8757814 	ldr	w20, [x0, x21, lsl #2]
  40518c:	97fff095 	bl	4013e0 <omp_get_num_threads@plt>
  405190:	2a0003fa 	mov	w26, w0
  405194:	97fff073 	bl	401360 <omp_get_thread_num@plt>
  405198:	1ada0e81 	sdiv	w1, w20, w26
  40519c:	1b1ad03a 	msub	w26, w1, w26, w20
  4051a0:	6b1a001f 	cmp	w0, w26
  4051a4:	5400300b 	b.lt	4057a4 <_ZL28CalcMonotonicQRegionForElemsR6DomainiPdd._omp_fn.0+0x644>  // b.tstop
  4051a8:	1b00683a 	madd	w26, w1, w0, w26
  4051ac:	0b1a0020 	add	w0, w1, w26
  4051b0:	6b00035f 	cmp	w26, w0
  4051b4:	54002eca 	b.ge	40578c <_ZL28CalcMonotonicQRegionForElemsR6DomainiPdd._omp_fn.0+0x62c>  // b.tcont
  4051b8:	6d0837ec 	stp	d12, d13, [sp, #128]
  4051bc:	93407f54 	sxtw	x20, w26
  4051c0:	91000694 	add	x20, x20, #0x1
  4051c4:	6d42036c 	ldp	d12, d0, [x27, #32]
  4051c8:	51000421 	sub	w1, w1, #0x1
  4051cc:	8b010281 	add	x1, x20, x1
  4051d0:	d37df2b5 	lsl	x21, x21, #3
  4051d4:	937e7f5a 	sbfiz	x26, x26, #2, #32
  4051d8:	1e6e100d 	fmov	d13, #1.000000000000000000e+00
  4051dc:	fd005be0 	str	d0, [sp, #176]
  4051e0:	d37ef434 	lsl	x20, x1, #2
  4051e4:	fd401b60 	ldr	d0, [x27, #48]
  4051e8:	a90363f7 	stp	x23, x24, [sp, #48]
  4051ec:	d0000077 	adrp	x23, 413000 <_ZN6DomainC1Eiiiiiiiii+0x1200>
  4051f0:	913462f7 	add	x23, x23, #0xd18
  4051f4:	6d0627e8 	stp	d8, d9, [sp, #96]
  4051f8:	6d072fea 	stp	d10, d11, [sp, #112]
  4051fc:	6d093fee 	stp	d14, d15, [sp, #144]
  405200:	1e6c100f 	fmov	d15, #5.000000000000000000e-01
  405204:	fd0057e0 	str	d0, [sp, #168]
  405208:	f9400776 	ldr	x22, [x27, #8]
  40520c:	6d413b6a 	ldp	d10, d14, [x27, #16]
  405210:	1400009f 	b	40548c <_ZL28CalcMonotonicQRegionForElemsR6DomainiPdd._omp_fn.0+0x32c>
  405214:	34002821 	cbz	w1, 405718 <_ZL28CalcMonotonicQRegionForElemsR6DomainiPdd._omp_fn.0+0x5b8>
  405218:	7100043f 	cmp	w1, #0x1
  40521c:	54001561 	b.ne	4054c8 <_ZL28CalcMonotonicQRegionForElemsR6DomainiPdd._omp_fn.0+0x368>  // b.any
  405220:	121d0b21 	and	w1, w25, #0x38
  405224:	7100403f 	cmp	w1, #0x10
  405228:	54001680 	b.eq	4054f8 <_ZL28CalcMonotonicQRegionForElemsR6DomainiPdd._omp_fn.0+0x398>  // b.none
  40522c:	54001b0c 	b.gt	40558c <_ZL28CalcMonotonicQRegionForElemsR6DomainiPdd._omp_fn.0+0x42c>
  405230:	340027c1 	cbz	w1, 405728 <_ZL28CalcMonotonicQRegionForElemsR6DomainiPdd._omp_fn.0+0x5c8>
  405234:	7100203f 	cmp	w1, #0x8
  405238:	54001ae1 	b.ne	405594 <_ZL28CalcMonotonicQRegionForElemsR6DomainiPdd._omp_fn.0+0x434>  // b.any
  40523c:	f9400360 	ldr	x0, [x27]
  405240:	f941c401 	ldr	x1, [x0, #904]
  405244:	fc787820 	ldr	d0, [x1, x24, lsl #3]
  405248:	1e690908 	fmul	d8, d8, d9
  40524c:	1e690800 	fmul	d0, d0, d9
  405250:	1e680981 	fmul	d1, d12, d8
  405254:	1e602908 	fadd	d8, d8, d0
  405258:	1e600980 	fmul	d0, d12, d0
  40525c:	1e6f090b 	fmul	d11, d8, d15
  405260:	1e612170 	fcmpe	d11, d1
  405264:	5400202c 	b.gt	405668 <_ZL28CalcMonotonicQRegionForElemsR6DomainiPdd._omp_fn.0+0x508>
  405268:	1e602170 	fcmpe	d11, d0
  40526c:	54001fac 	b.gt	405660 <_ZL28CalcMonotonicQRegionForElemsR6DomainiPdd._omp_fn.0+0x500>
  405270:	1e602178 	fcmpe	d11, #0.0
  405274:	540022e4 	b.mi	4056d0 <_ZL28CalcMonotonicQRegionForElemsR6DomainiPdd._omp_fn.0+0x570>  // b.first
  405278:	1e6e2170 	fcmpe	d11, d14
  40527c:	54001dec 	b.gt	405638 <_ZL28CalcMonotonicQRegionForElemsR6DomainiPdd._omp_fn.0+0x4d8>
  405280:	f941d002 	ldr	x2, [x0, #928]
  405284:	121a0b21 	and	w1, w25, #0x1c0
  405288:	fc787848 	ldr	d8, [x2, x24, lsl #3]
  40528c:	1e682940 	fadd	d0, d10, d8
  405290:	1e6019a9 	fdiv	d9, d13, d0
  405294:	7102003f 	cmp	w1, #0x80
  405298:	54001e00 	b.eq	405658 <_ZL28CalcMonotonicQRegionForElemsR6DomainiPdd._omp_fn.0+0x4f8>  // b.none
  40529c:	54001acc 	b.gt	4055f4 <_ZL28CalcMonotonicQRegionForElemsR6DomainiPdd._omp_fn.0+0x494>
  4052a0:	340021c1 	cbz	w1, 4056d8 <_ZL28CalcMonotonicQRegionForElemsR6DomainiPdd._omp_fn.0+0x578>
  4052a4:	7101003f 	cmp	w1, #0x40
  4052a8:	54001aa1 	b.ne	4055fc <_ZL28CalcMonotonicQRegionForElemsR6DomainiPdd._omp_fn.0+0x49c>  // b.any
  4052ac:	12170b21 	and	w1, w25, #0xe00
  4052b0:	7110003f 	cmp	w1, #0x400
  4052b4:	54001bc0 	b.eq	40562c <_ZL28CalcMonotonicQRegionForElemsR6DomainiPdd._omp_fn.0+0x4cc>  // b.none
  4052b8:	5400184c 	b.gt	4055c0 <_ZL28CalcMonotonicQRegionForElemsR6DomainiPdd._omp_fn.0+0x460>
  4052bc:	34002421 	cbz	w1, 405740 <_ZL28CalcMonotonicQRegionForElemsR6DomainiPdd._omp_fn.0+0x5e0>
  4052c0:	7108003f 	cmp	w1, #0x200
  4052c4:	54001821 	b.ne	4055c8 <_ZL28CalcMonotonicQRegionForElemsR6DomainiPdd._omp_fn.0+0x468>  // b.any
  4052c8:	f9400360 	ldr	x0, [x27]
  4052cc:	f941d001 	ldr	x1, [x0, #928]
  4052d0:	fc787820 	ldr	d0, [x1, x24, lsl #3]
  4052d4:	1e690908 	fmul	d8, d8, d9
  4052d8:	1e690800 	fmul	d0, d0, d9
  4052dc:	1e680981 	fmul	d1, d12, d8
  4052e0:	1e602908 	fadd	d8, d8, d0
  4052e4:	1e600980 	fmul	d0, d12, d0
  4052e8:	1e6f0908 	fmul	d8, d8, d15
  4052ec:	1e612110 	fcmpe	d8, d1
  4052f0:	54001e4c 	b.gt	4056b8 <_ZL28CalcMonotonicQRegionForElemsR6DomainiPdd._omp_fn.0+0x558>
  4052f4:	1e602110 	fcmpe	d8, d0
  4052f8:	54001dcc 	b.gt	4056b0 <_ZL28CalcMonotonicQRegionForElemsR6DomainiPdd._omp_fn.0+0x550>
  4052fc:	1e602118 	fcmpe	d8, #0.0
  405300:	54001e44 	b.mi	4056c8 <_ZL28CalcMonotonicQRegionForElemsR6DomainiPdd._omp_fn.0+0x568>  // b.first
  405304:	1e6e2110 	fcmpe	d8, d14
  405308:	54001c0c 	b.gt	405688 <_ZL28CalcMonotonicQRegionForElemsR6DomainiPdd._omp_fn.0+0x528>
  40530c:	f941dc02 	ldr	x2, [x0, #952]
  405310:	12140b21 	and	w1, w25, #0x7000
  405314:	fc787849 	ldr	d9, [x2, x24, lsl #3]
  405318:	1e692940 	fadd	d0, d10, d9
  40531c:	1e6019a1 	fdiv	d1, d13, d0
  405320:	7140083f 	cmp	w1, #0x2, lsl #12
  405324:	54001c20 	b.eq	4056a8 <_ZL28CalcMonotonicQRegionForElemsR6DomainiPdd._omp_fn.0+0x548>  // b.none
  405328:	540010cc 	b.gt	405540 <_ZL28CalcMonotonicQRegionForElemsR6DomainiPdd._omp_fn.0+0x3e0>
  40532c:	34001ea1 	cbz	w1, 405700 <_ZL28CalcMonotonicQRegionForElemsR6DomainiPdd._omp_fn.0+0x5a0>
  405330:	7140043f 	cmp	w1, #0x1, lsl #12
  405334:	540010a1 	b.ne	405548 <_ZL28CalcMonotonicQRegionForElemsR6DomainiPdd._omp_fn.0+0x3e8>  // b.any
  405338:	12110b21 	and	w1, w25, #0x38000
  40533c:	7140403f 	cmp	w1, #0x10, lsl #12
  405340:	54001200 	b.eq	405580 <_ZL28CalcMonotonicQRegionForElemsR6DomainiPdd._omp_fn.0+0x420>  // b.none
  405344:	54000e0c 	b.gt	405504 <_ZL28CalcMonotonicQRegionForElemsR6DomainiPdd._omp_fn.0+0x3a4>
  405348:	34001d01 	cbz	w1, 4056e8 <_ZL28CalcMonotonicQRegionForElemsR6DomainiPdd._omp_fn.0+0x588>
  40534c:	7140203f 	cmp	w1, #0x8, lsl #12
  405350:	54000de1 	b.ne	40550c <_ZL28CalcMonotonicQRegionForElemsR6DomainiPdd._omp_fn.0+0x3ac>  // b.any
  405354:	f9400373 	ldr	x19, [x27]
  405358:	f941de60 	ldr	x0, [x19, #952]
  40535c:	fc787800 	ldr	d0, [x0, x24, lsl #3]
  405360:	1e610929 	fmul	d9, d9, d1
  405364:	1e610800 	fmul	d0, d0, d1
  405368:	1e690982 	fmul	d2, d12, d9
  40536c:	1e602929 	fadd	d9, d9, d0
  405370:	1e600981 	fmul	d1, d12, d0
  405374:	1e6f0920 	fmul	d0, d9, d15
  405378:	1e622010 	fcmpe	d0, d2
  40537c:	5400182c 	b.gt	405680 <_ZL28CalcMonotonicQRegionForElemsR6DomainiPdd._omp_fn.0+0x520>
  405380:	1e612010 	fcmpe	d0, d1
  405384:	540017ac 	b.gt	405678 <_ZL28CalcMonotonicQRegionForElemsR6DomainiPdd._omp_fn.0+0x518>
  405388:	1e602018 	fcmpe	d0, #0.0
  40538c:	540019a4 	b.mi	4056c0 <_ZL28CalcMonotonicQRegionForElemsR6DomainiPdd._omp_fn.0+0x560>  // b.first
  405390:	1e6e2010 	fcmpe	d0, d14
  405394:	540016ec 	b.gt	405670 <_ZL28CalcMonotonicQRegionForElemsR6DomainiPdd._omp_fn.0+0x510>
  405398:	f9427a60 	ldr	x0, [x19, #1264]
  40539c:	2f00e401 	movi	d1, #0x0
  4053a0:	fc787804 	ldr	d4, [x0, x24, lsl #3]
  4053a4:	1e604022 	fmov	d2, d1
  4053a8:	1e612090 	fcmpe	d4, d1
  4053ac:	5400062c 	b.gt	405470 <_ZL28CalcMonotonicQRegionForElemsR6DomainiPdd._omp_fn.0+0x310>
  4053b0:	f941c660 	ldr	x0, [x19, #904]
  4053b4:	f941ea61 	ldr	x1, [x19, #976]
  4053b8:	fc787811 	ldr	d17, [x0, x24, lsl #3]
  4053bc:	f941d260 	ldr	x0, [x19, #928]
  4053c0:	fc787822 	ldr	d2, [x1, x24, lsl #3]
  4053c4:	f941de61 	ldr	x1, [x19, #952]
  4053c8:	1e620a31 	fmul	d17, d17, d2
  4053cc:	fc787810 	ldr	d16, [x0, x24, lsl #3]
  4053d0:	f941f662 	ldr	x2, [x19, #1000]
  4053d4:	f9420260 	ldr	x0, [x19, #1024]
  4053d8:	1e602238 	fcmpe	d17, #0.0
  4053dc:	fc787844 	ldr	d4, [x2, x24, lsl #3]
  4053e0:	fc787829 	ldr	d9, [x1, x24, lsl #3]
  4053e4:	fc787802 	ldr	d2, [x0, x24, lsl #3]
  4053e8:	1e640a10 	fmul	d16, d16, d4
  4053ec:	1e620929 	fmul	d9, d9, d2
  4053f0:	54001c0c 	b.gt	405770 <_ZL28CalcMonotonicQRegionForElemsR6DomainiPdd._omp_fn.0+0x610>
  4053f4:	1e710a21 	fmul	d1, d17, d17
  4053f8:	1e602218 	fcmpe	d16, #0.0
  4053fc:	54001b4c 	b.gt	405764 <_ZL28CalcMonotonicQRegionForElemsR6DomainiPdd._omp_fn.0+0x604>
  405400:	1e700a16 	fmul	d22, d16, d16
  405404:	1e602138 	fcmpe	d9, #0.0
  405408:	54001a8c 	b.gt	405758 <_ZL28CalcMonotonicQRegionForElemsR6DomainiPdd._omp_fn.0+0x5f8>
  40540c:	1e690935 	fmul	d21, d9, d9
  405410:	f9425661 	ldr	x1, [x19, #1192]
  405414:	1f48b505 	fmsub	d5, d8, d8, d13
  405418:	fc787ad4 	ldr	d20, [x22, x24, lsl #3]
  40541c:	1f4bb573 	fmsub	d19, d11, d11, d13
  405420:	f9429e60 	ldr	x0, [x19, #1336]
  405424:	1e6839a6 	fsub	d6, d13, d8
  405428:	fc787832 	ldr	d18, [x1, x24, lsl #3]
  40542c:	1f40b402 	fmsub	d2, d0, d0, d13
  405430:	1e6b39a7 	fsub	d7, d13, d11
  405434:	fc787804 	ldr	d4, [x0, x24, lsl #3]
  405438:	1e6039a0 	fsub	d0, d13, d0
  40543c:	1e740a52 	fmul	d18, d18, d20
  405440:	1e7008c8 	fmul	d8, d6, d16
  405444:	1e7608a5 	fmul	d5, d5, d22
  405448:	1f411661 	fmadd	d1, d19, d1, d5
  40544c:	1f472228 	fmadd	d8, d17, d7, d8
  405450:	1e721884 	fdiv	d4, d4, d18
  405454:	1f550445 	fmadd	d5, d2, d21, d1
  405458:	1f402120 	fmadd	d0, d9, d0, d8
  40545c:	6d4a8be1 	ldp	d1, d2, [sp, #168]
  405460:	1e648821 	fnmul	d1, d1, d4
  405464:	1e640842 	fmul	d2, d2, d4
  405468:	1e600821 	fmul	d1, d1, d0
  40546c:	1e650842 	fmul	d2, d2, d5
  405470:	f9423e61 	ldr	x1, [x19, #1144]
  405474:	9100135a 	add	x26, x26, #0x4
  405478:	f9423260 	ldr	x0, [x19, #1120]
  40547c:	fc387822 	str	d2, [x1, x24, lsl #3]
  405480:	fc387801 	str	d1, [x0, x24, lsl #3]
  405484:	eb1a029f 	cmp	x20, x26
  405488:	54001780 	b.eq	405778 <_ZL28CalcMonotonicQRegionForElemsR6DomainiPdd._omp_fn.0+0x618>  // b.none
  40548c:	f9413e61 	ldr	x1, [x19, #632]
  405490:	f941c660 	ldr	x0, [x19, #904]
  405494:	f8756822 	ldr	x2, [x1, x21]
  405498:	f9419661 	ldr	x1, [x19, #808]
  40549c:	b8ba6858 	ldrsw	x24, [x2, x26]
  4054a0:	fc787808 	ldr	d8, [x0, x24, lsl #3]
  4054a4:	b8787839 	ldr	w25, [x1, x24, lsl #2]
  4054a8:	1e682940 	fadd	d0, d10, d8
  4054ac:	12000b21 	and	w1, w25, #0x7
  4054b0:	1e6019a9 	fdiv	d9, d13, d0
  4054b4:	7100083f 	cmp	w1, #0x2
  4054b8:	540012c0 	b.eq	405710 <_ZL28CalcMonotonicQRegionForElemsR6DomainiPdd._omp_fn.0+0x5b0>  // b.none
  4054bc:	54ffeacd 	b.le	405214 <_ZL28CalcMonotonicQRegionForElemsR6DomainiPdd._omp_fn.0+0xb4>
  4054c0:	7100103f 	cmp	w1, #0x4
  4054c4:	540012a0 	b.eq	405718 <_ZL28CalcMonotonicQRegionForElemsR6DomainiPdd._omp_fn.0+0x5b8>  // b.none
  4054c8:	d0000140 	adrp	x0, 42f000 <__FRAME_END__+0x191c4>
  4054cc:	2f00e408 	movi	d8, #0x0
  4054d0:	aa1703e2 	mov	x2, x23
  4054d4:	d0000061 	adrp	x1, 413000 <_ZN6DomainC1Eiiiiiiiii+0x1200>
  4054d8:	f947e400 	ldr	x0, [x0, #4040]
  4054dc:	9134a021 	add	x1, x1, #0xd28
  4054e0:	5280e2e3 	mov	w3, #0x717                 	// #1815
  4054e4:	f9400000 	ldr	x0, [x0]
  4054e8:	97ffef1e 	bl	401160 <fprintf@plt>
  4054ec:	121d0b21 	and	w1, w25, #0x38
  4054f0:	7100403f 	cmp	w1, #0x10
  4054f4:	54ffe9c1 	b.ne	40522c <_ZL28CalcMonotonicQRegionForElemsR6DomainiPdd._omp_fn.0+0xcc>  // b.any
  4054f8:	2f00e400 	movi	d0, #0x0
  4054fc:	f9400360 	ldr	x0, [x27]
  405500:	17ffff52 	b	405248 <_ZL28CalcMonotonicQRegionForElemsR6DomainiPdd._omp_fn.0+0xe8>
  405504:	7140803f 	cmp	w1, #0x20, lsl #12
  405508:	54000f00 	b.eq	4056e8 <_ZL28CalcMonotonicQRegionForElemsR6DomainiPdd._omp_fn.0+0x588>  // b.none
  40550c:	d0000140 	adrp	x0, 42f000 <__FRAME_END__+0x191c4>
  405510:	aa1703e2 	mov	x2, x23
  405514:	d0000061 	adrp	x1, 413000 <_ZN6DomainC1Eiiiiiiiii+0x1200>
  405518:	5280ed83 	mov	w3, #0x76c                 	// #1900
  40551c:	f947e400 	ldr	x0, [x0, #4040]
  405520:	9134a021 	add	x1, x1, #0xd28
  405524:	fd005fe1 	str	d1, [sp, #184]
  405528:	f9400000 	ldr	x0, [x0]
  40552c:	97ffef0d 	bl	401160 <fprintf@plt>
  405530:	2f00e400 	movi	d0, #0x0
  405534:	fd405fe1 	ldr	d1, [sp, #184]
  405538:	f9400373 	ldr	x19, [x27]
  40553c:	17ffff89 	b	405360 <_ZL28CalcMonotonicQRegionForElemsR6DomainiPdd._omp_fn.0+0x200>
  405540:	7140103f 	cmp	w1, #0x4, lsl #12
  405544:	54000de0 	b.eq	405700 <_ZL28CalcMonotonicQRegionForElemsR6DomainiPdd._omp_fn.0+0x5a0>  // b.none
  405548:	d0000140 	adrp	x0, 42f000 <__FRAME_END__+0x191c4>
  40554c:	2f00e409 	movi	d9, #0x0
  405550:	aa1703e2 	mov	x2, x23
  405554:	d0000061 	adrp	x1, 413000 <_ZN6DomainC1Eiiiiiiiii+0x1200>
  405558:	f947e400 	ldr	x0, [x0, #4040]
  40555c:	9134a021 	add	x1, x1, #0xd28
  405560:	5280ec43 	mov	w3, #0x762                 	// #1890
  405564:	fd005fe1 	str	d1, [sp, #184]
  405568:	f9400000 	ldr	x0, [x0]
  40556c:	97ffeefd 	bl	401160 <fprintf@plt>
  405570:	12110b21 	and	w1, w25, #0x38000
  405574:	fd405fe1 	ldr	d1, [sp, #184]
  405578:	7140403f 	cmp	w1, #0x10, lsl #12
  40557c:	54ffee41 	b.ne	405344 <_ZL28CalcMonotonicQRegionForElemsR6DomainiPdd._omp_fn.0+0x1e4>  // b.any
  405580:	2f00e400 	movi	d0, #0x0
  405584:	f9400373 	ldr	x19, [x27]
  405588:	17ffff76 	b	405360 <_ZL28CalcMonotonicQRegionForElemsR6DomainiPdd._omp_fn.0+0x200>
  40558c:	7100803f 	cmp	w1, #0x20
  405590:	54000cc0 	b.eq	405728 <_ZL28CalcMonotonicQRegionForElemsR6DomainiPdd._omp_fn.0+0x5c8>  // b.none
  405594:	d0000140 	adrp	x0, 42f000 <__FRAME_END__+0x191c4>
  405598:	aa1703e2 	mov	x2, x23
  40559c:	d0000061 	adrp	x1, 413000 <_ZN6DomainC1Eiiiiiiiii+0x1200>
  4055a0:	5280e423 	mov	w3, #0x721                 	// #1825
  4055a4:	f947e400 	ldr	x0, [x0, #4040]
  4055a8:	9134a021 	add	x1, x1, #0xd28
  4055ac:	f9400000 	ldr	x0, [x0]
  4055b0:	97ffeeec 	bl	401160 <fprintf@plt>
  4055b4:	2f00e400 	movi	d0, #0x0
  4055b8:	f9400360 	ldr	x0, [x27]
  4055bc:	17ffff23 	b	405248 <_ZL28CalcMonotonicQRegionForElemsR6DomainiPdd._omp_fn.0+0xe8>
  4055c0:	7120003f 	cmp	w1, #0x800
  4055c4:	54000be0 	b.eq	405740 <_ZL28CalcMonotonicQRegionForElemsR6DomainiPdd._omp_fn.0+0x5e0>  // b.none
  4055c8:	d0000140 	adrp	x0, 42f000 <__FRAME_END__+0x191c4>
  4055cc:	aa1703e2 	mov	x2, x23
  4055d0:	d0000061 	adrp	x1, 413000 <_ZN6DomainC1Eiiiiiiiii+0x1200>
  4055d4:	5280e8e3 	mov	w3, #0x747                 	// #1863
  4055d8:	f947e400 	ldr	x0, [x0, #4040]
  4055dc:	9134a021 	add	x1, x1, #0xd28
  4055e0:	f9400000 	ldr	x0, [x0]
  4055e4:	97ffeedf 	bl	401160 <fprintf@plt>
  4055e8:	2f00e400 	movi	d0, #0x0
  4055ec:	f9400360 	ldr	x0, [x27]
  4055f0:	17ffff39 	b	4052d4 <_ZL28CalcMonotonicQRegionForElemsR6DomainiPdd._omp_fn.0+0x174>
  4055f4:	7104003f 	cmp	w1, #0x100
  4055f8:	54000700 	b.eq	4056d8 <_ZL28CalcMonotonicQRegionForElemsR6DomainiPdd._omp_fn.0+0x578>  // b.none
  4055fc:	d0000140 	adrp	x0, 42f000 <__FRAME_END__+0x191c4>
  405600:	2f00e408 	movi	d8, #0x0
  405604:	aa1703e2 	mov	x2, x23
  405608:	d0000061 	adrp	x1, 413000 <_ZN6DomainC1Eiiiiiiiii+0x1200>
  40560c:	f947e400 	ldr	x0, [x0, #4040]
  405610:	9134a021 	add	x1, x1, #0xd28
  405614:	5280e7a3 	mov	w3, #0x73d                 	// #1853
  405618:	f9400000 	ldr	x0, [x0]
  40561c:	97ffeed1 	bl	401160 <fprintf@plt>
  405620:	12170b21 	and	w1, w25, #0xe00
  405624:	7110003f 	cmp	w1, #0x400
  405628:	54ffe481 	b.ne	4052b8 <_ZL28CalcMonotonicQRegionForElemsR6DomainiPdd._omp_fn.0+0x158>  // b.any
  40562c:	2f00e400 	movi	d0, #0x0
  405630:	f9400360 	ldr	x0, [x27]
  405634:	17ffff28 	b	4052d4 <_ZL28CalcMonotonicQRegionForElemsR6DomainiPdd._omp_fn.0+0x174>
  405638:	f941d002 	ldr	x2, [x0, #928]
  40563c:	121a0b21 	and	w1, w25, #0x1c0
  405640:	1e6041cb 	fmov	d11, d14
  405644:	fc787848 	ldr	d8, [x2, x24, lsl #3]
  405648:	1e682940 	fadd	d0, d10, d8
  40564c:	1e6019a9 	fdiv	d9, d13, d0
  405650:	7102003f 	cmp	w1, #0x80
  405654:	54ffe241 	b.ne	40529c <_ZL28CalcMonotonicQRegionForElemsR6DomainiPdd._omp_fn.0+0x13c>  // b.any
  405658:	2f00e408 	movi	d8, #0x0
  40565c:	17ffff14 	b	4052ac <_ZL28CalcMonotonicQRegionForElemsR6DomainiPdd._omp_fn.0+0x14c>
  405660:	1e60400b 	fmov	d11, d0
  405664:	17ffff03 	b	405270 <_ZL28CalcMonotonicQRegionForElemsR6DomainiPdd._omp_fn.0+0x110>
  405668:	1e60402b 	fmov	d11, d1
  40566c:	17fffeff 	b	405268 <_ZL28CalcMonotonicQRegionForElemsR6DomainiPdd._omp_fn.0+0x108>
  405670:	1e6041c0 	fmov	d0, d14
  405674:	17ffff49 	b	405398 <_ZL28CalcMonotonicQRegionForElemsR6DomainiPdd._omp_fn.0+0x238>
  405678:	1e604020 	fmov	d0, d1
  40567c:	17ffff43 	b	405388 <_ZL28CalcMonotonicQRegionForElemsR6DomainiPdd._omp_fn.0+0x228>
  405680:	1e604040 	fmov	d0, d2
  405684:	17ffff3f 	b	405380 <_ZL28CalcMonotonicQRegionForElemsR6DomainiPdd._omp_fn.0+0x220>
  405688:	f941dc02 	ldr	x2, [x0, #952]
  40568c:	12140b21 	and	w1, w25, #0x7000
  405690:	1e6041c8 	fmov	d8, d14
  405694:	fc787849 	ldr	d9, [x2, x24, lsl #3]
  405698:	1e692940 	fadd	d0, d10, d9
  40569c:	1e6019a1 	fdiv	d1, d13, d0
  4056a0:	7140083f 	cmp	w1, #0x2, lsl #12
  4056a4:	54ffe421 	b.ne	405328 <_ZL28CalcMonotonicQRegionForElemsR6DomainiPdd._omp_fn.0+0x1c8>  // b.any
  4056a8:	2f00e409 	movi	d9, #0x0
  4056ac:	17ffff23 	b	405338 <_ZL28CalcMonotonicQRegionForElemsR6DomainiPdd._omp_fn.0+0x1d8>
  4056b0:	1e604008 	fmov	d8, d0
  4056b4:	17ffff12 	b	4052fc <_ZL28CalcMonotonicQRegionForElemsR6DomainiPdd._omp_fn.0+0x19c>
  4056b8:	1e604028 	fmov	d8, d1
  4056bc:	17ffff0e 	b	4052f4 <_ZL28CalcMonotonicQRegionForElemsR6DomainiPdd._omp_fn.0+0x194>
  4056c0:	2f00e400 	movi	d0, #0x0
  4056c4:	17ffff33 	b	405390 <_ZL28CalcMonotonicQRegionForElemsR6DomainiPdd._omp_fn.0+0x230>
  4056c8:	2f00e408 	movi	d8, #0x0
  4056cc:	17ffff0e 	b	405304 <_ZL28CalcMonotonicQRegionForElemsR6DomainiPdd._omp_fn.0+0x1a4>
  4056d0:	2f00e40b 	movi	d11, #0x0
  4056d4:	17fffee9 	b	405278 <_ZL28CalcMonotonicQRegionForElemsR6DomainiPdd._omp_fn.0+0x118>
  4056d8:	f9416400 	ldr	x0, [x0, #712]
  4056dc:	b8b87800 	ldrsw	x0, [x0, x24, lsl #2]
  4056e0:	fc607848 	ldr	d8, [x2, x0, lsl #3]
  4056e4:	17fffef2 	b	4052ac <_ZL28CalcMonotonicQRegionForElemsR6DomainiPdd._omp_fn.0+0x14c>
  4056e8:	f9400373 	ldr	x19, [x27]
  4056ec:	f9418a61 	ldr	x1, [x19, #784]
  4056f0:	f941de60 	ldr	x0, [x19, #952]
  4056f4:	b8b87821 	ldrsw	x1, [x1, x24, lsl #2]
  4056f8:	fc617800 	ldr	d0, [x0, x1, lsl #3]
  4056fc:	17ffff19 	b	405360 <_ZL28CalcMonotonicQRegionForElemsR6DomainiPdd._omp_fn.0+0x200>
  405700:	f9417c00 	ldr	x0, [x0, #760]
  405704:	b8b87800 	ldrsw	x0, [x0, x24, lsl #2]
  405708:	fc607849 	ldr	d9, [x2, x0, lsl #3]
  40570c:	17ffff0b 	b	405338 <_ZL28CalcMonotonicQRegionForElemsR6DomainiPdd._omp_fn.0+0x1d8>
  405710:	2f00e408 	movi	d8, #0x0
  405714:	17fffec3 	b	405220 <_ZL28CalcMonotonicQRegionForElemsR6DomainiPdd._omp_fn.0+0xc0>
  405718:	f9414e61 	ldr	x1, [x19, #664]
  40571c:	b8b87821 	ldrsw	x1, [x1, x24, lsl #2]
  405720:	fc617808 	ldr	d8, [x0, x1, lsl #3]
  405724:	17fffebf 	b	405220 <_ZL28CalcMonotonicQRegionForElemsR6DomainiPdd._omp_fn.0+0xc0>
  405728:	f9400360 	ldr	x0, [x27]
  40572c:	f9415802 	ldr	x2, [x0, #688]
  405730:	f941c401 	ldr	x1, [x0, #904]
  405734:	b8b87842 	ldrsw	x2, [x2, x24, lsl #2]
  405738:	fc627820 	ldr	d0, [x1, x2, lsl #3]
  40573c:	17fffec3 	b	405248 <_ZL28CalcMonotonicQRegionForElemsR6DomainiPdd._omp_fn.0+0xe8>
  405740:	f9400360 	ldr	x0, [x27]
  405744:	f9417002 	ldr	x2, [x0, #736]
  405748:	f941d001 	ldr	x1, [x0, #928]
  40574c:	b8b87842 	ldrsw	x2, [x2, x24, lsl #2]
  405750:	fc627820 	ldr	d0, [x1, x2, lsl #3]
  405754:	17fffee0 	b	4052d4 <_ZL28CalcMonotonicQRegionForElemsR6DomainiPdd._omp_fn.0+0x174>
  405758:	2f00e409 	movi	d9, #0x0
  40575c:	1e604135 	fmov	d21, d9
  405760:	17ffff2c 	b	405410 <_ZL28CalcMonotonicQRegionForElemsR6DomainiPdd._omp_fn.0+0x2b0>
  405764:	2f00e410 	movi	d16, #0x0
  405768:	1e604216 	fmov	d22, d16
  40576c:	17ffff26 	b	405404 <_ZL28CalcMonotonicQRegionForElemsR6DomainiPdd._omp_fn.0+0x2a4>
  405770:	1e604031 	fmov	d17, d1
  405774:	17ffff21 	b	4053f8 <_ZL28CalcMonotonicQRegionForElemsR6DomainiPdd._omp_fn.0+0x298>
  405778:	a94363f7 	ldp	x23, x24, [sp, #48]
  40577c:	6d4627e8 	ldp	d8, d9, [sp, #96]
  405780:	6d472fea 	ldp	d10, d11, [sp, #112]
  405784:	6d4837ec 	ldp	d12, d13, [sp, #128]
  405788:	6d493fee 	ldp	d14, d15, [sp, #144]
  40578c:	a94153f3 	ldp	x19, x20, [sp, #16]
  405790:	a9425bf5 	ldp	x21, x22, [sp, #32]
  405794:	a9446bf9 	ldp	x25, x26, [sp, #64]
  405798:	f9402bfb 	ldr	x27, [sp, #80]
  40579c:	a8cc7bfd 	ldp	x29, x30, [sp], #192
  4057a0:	d65f03c0 	ret
  4057a4:	11000421 	add	w1, w1, #0x1
  4057a8:	5280001a 	mov	w26, #0x0                   	// #0
  4057ac:	17fffe7f 	b	4051a8 <_ZL28CalcMonotonicQRegionForElemsR6DomainiPdd._omp_fn.0+0x48>

00000000004057b0 <_ZL31ApplyMaterialPropertiesForElemsR6DomainPd._omp_fn.0>:
  4057b0:	a9bb7bfd 	stp	x29, x30, [sp, #-80]!
  4057b4:	910003fd 	mov	x29, sp
  4057b8:	a90153f3 	stp	x19, x20, [sp, #16]
  4057bc:	aa0003f4 	mov	x20, x0
  4057c0:	a9025bf5 	stp	x21, x22, [sp, #32]
  4057c4:	a90363f7 	stp	x23, x24, [sp, #48]
  4057c8:	6d0427e8 	stp	d8, d9, [sp, #64]
  4057cc:	97ffef05 	bl	4013e0 <omp_get_num_threads@plt>
  4057d0:	2a0003f3 	mov	w19, w0
  4057d4:	97ffeee3 	bl	401360 <omp_get_thread_num@plt>
  4057d8:	b9402295 	ldr	w21, [x20, #32]
  4057dc:	6d412289 	ldp	d9, d8, [x20, #16]
  4057e0:	2a0003f8 	mov	w24, w0
  4057e4:	f9400696 	ldr	x22, [x20, #8]
  4057e8:	1ad30eb7 	sdiv	w23, w21, w19
  4057ec:	1e602128 	fcmp	d9, #0.0
  4057f0:	1b13d6f5 	msub	w21, w23, w19, w21
  4057f4:	54000240 	b.eq	40583c <_ZL31ApplyMaterialPropertiesForElemsR6DomainPd._omp_fn.0+0x8c>  // b.none
  4057f8:	6b15001f 	cmp	w0, w21
  4057fc:	5400136b 	b.lt	405a68 <_ZL31ApplyMaterialPropertiesForElemsR6DomainPd._omp_fn.0+0x2b8>  // b.tstop
  405800:	2a1503e1 	mov	w1, w21
  405804:	2a1703e0 	mov	w0, w23
  405808:	1b180401 	madd	w1, w0, w24, w1
  40580c:	0b010000 	add	w0, w0, w1
  405810:	6b00003f 	cmp	w1, w0
  405814:	5400012a 	b.ge	405838 <_ZL31ApplyMaterialPropertiesForElemsR6DomainPd._omp_fn.0+0x88>  // b.tcont
  405818:	93407c21 	sxtw	x1, w1
  40581c:	d503201f 	nop
  405820:	fc617ac0 	ldr	d0, [x22, x1, lsl #3]
  405824:	1e602130 	fcmpe	d9, d0
  405828:	54000d4c 	b.gt	4059d0 <_ZL31ApplyMaterialPropertiesForElemsR6DomainPd._omp_fn.0+0x220>
  40582c:	91000421 	add	x1, x1, #0x1
  405830:	6b01001f 	cmp	w0, w1
  405834:	54ffff6c 	b.gt	405820 <_ZL31ApplyMaterialPropertiesForElemsR6DomainPd._omp_fn.0+0x70>
  405838:	97ffeee6 	bl	4013d0 <GOMP_barrier@plt>
  40583c:	1e602108 	fcmp	d8, #0.0
  405840:	54000200 	b.eq	405880 <_ZL31ApplyMaterialPropertiesForElemsR6DomainPd._omp_fn.0+0xd0>  // b.none
  405844:	6b15031f 	cmp	w24, w21
  405848:	5400104b 	b.lt	405a50 <_ZL31ApplyMaterialPropertiesForElemsR6DomainPd._omp_fn.0+0x2a0>  // b.tstop
  40584c:	1b177f13 	mul	w19, w24, w23
  405850:	0b150261 	add	w1, w19, w21
  405854:	0b0102e0 	add	w0, w23, w1
  405858:	6b00003f 	cmp	w1, w0
  40585c:	5400018a 	b.ge	40588c <_ZL31ApplyMaterialPropertiesForElemsR6DomainPd._omp_fn.0+0xdc>  // b.tcont
  405860:	93407c21 	sxtw	x1, w1
  405864:	d503201f 	nop
  405868:	fc617ac0 	ldr	d0, [x22, x1, lsl #3]
  40586c:	1e602110 	fcmpe	d8, d0
  405870:	54000b44 	b.mi	4059d8 <_ZL31ApplyMaterialPropertiesForElemsR6DomainPd._omp_fn.0+0x228>  // b.first
  405874:	91000421 	add	x1, x1, #0x1
  405878:	6b01001f 	cmp	w0, w1
  40587c:	54ffff6c 	b.gt	405868 <_ZL31ApplyMaterialPropertiesForElemsR6DomainPd._omp_fn.0+0xb8>
  405880:	6b15031f 	cmp	w24, w21
  405884:	54000deb 	b.lt	405a40 <_ZL31ApplyMaterialPropertiesForElemsR6DomainPd._omp_fn.0+0x290>  // b.tstop
  405888:	1b187ef3 	mul	w19, w23, w24
  40588c:	0b150273 	add	w19, w19, w21
  405890:	0b1302e0 	add	w0, w23, w19
  405894:	6b00027f 	cmp	w19, w0
  405898:	540002ca 	b.ge	4058f0 <_ZL31ApplyMaterialPropertiesForElemsR6DomainPd._omp_fn.0+0x140>  // b.tcont
  40589c:	93407e75 	sxtw	x21, w19
  4058a0:	1e602128 	fcmp	d9, #0.0
  4058a4:	510006f7 	sub	w23, w23, #0x1
  4058a8:	910006b5 	add	x21, x21, #0x1
  4058ac:	8b1702b7 	add	x23, x21, x23
  4058b0:	937d7e73 	sbfiz	x19, x19, #3, #32
  4058b4:	d37df2f7 	lsl	x23, x23, #3
  4058b8:	54000281 	b.ne	405908 <_ZL31ApplyMaterialPropertiesForElemsR6DomainPd._omp_fn.0+0x158>  // b.any
  4058bc:	1e602108 	fcmp	d8, #0.0
  4058c0:	540006c0 	b.eq	405998 <_ZL31ApplyMaterialPropertiesForElemsR6DomainPd._omp_fn.0+0x1e8>  // b.none
  4058c4:	d503201f 	nop
  4058c8:	f9400280 	ldr	x0, [x20]
  4058cc:	f9424800 	ldr	x0, [x0, #1168]
  4058d0:	fc736800 	ldr	d0, [x0, x19]
  4058d4:	1e602110 	fcmpe	d8, d0
  4058d8:	54000904 	b.mi	4059f8 <_ZL31ApplyMaterialPropertiesForElemsR6DomainPd._omp_fn.0+0x248>  // b.first
  4058dc:	1e602018 	fcmpe	d0, #0.0
  4058e0:	54000989 	b.ls	405a10 <_ZL31ApplyMaterialPropertiesForElemsR6DomainPd._omp_fn.0+0x260>  // b.plast
  4058e4:	91002273 	add	x19, x19, #0x8
  4058e8:	eb17027f 	cmp	x19, x23
  4058ec:	54fffee1 	b.ne	4058c8 <_ZL31ApplyMaterialPropertiesForElemsR6DomainPd._omp_fn.0+0x118>  // b.any
  4058f0:	a94153f3 	ldp	x19, x20, [sp, #16]
  4058f4:	a9425bf5 	ldp	x21, x22, [sp, #32]
  4058f8:	a94363f7 	ldp	x23, x24, [sp, #48]
  4058fc:	6d4427e8 	ldp	d8, d9, [sp, #64]
  405900:	a8c57bfd 	ldp	x29, x30, [sp], #80
  405904:	d65f03c0 	ret
  405908:	1e602108 	fcmp	d8, #0.0
  40590c:	54000260 	b.eq	405958 <_ZL31ApplyMaterialPropertiesForElemsR6DomainPd._omp_fn.0+0x1a8>  // b.none
  405910:	f9400280 	ldr	x0, [x20]
  405914:	f9424800 	ldr	x0, [x0, #1168]
  405918:	fc736800 	ldr	d0, [x0, x19]
  40591c:	1e602130 	fcmpe	d9, d0
  405920:	5400064c 	b.gt	4059e8 <_ZL31ApplyMaterialPropertiesForElemsR6DomainPd._omp_fn.0+0x238>
  405924:	1e682010 	fcmpe	d0, d8
  405928:	540005cc 	b.gt	4059e0 <_ZL31ApplyMaterialPropertiesForElemsR6DomainPd._omp_fn.0+0x230>
  40592c:	1e602018 	fcmpe	d0, #0.0
  405930:	54000809 	b.ls	405a30 <_ZL31ApplyMaterialPropertiesForElemsR6DomainPd._omp_fn.0+0x280>  // b.plast
  405934:	91002273 	add	x19, x19, #0x8
  405938:	eb17027f 	cmp	x19, x23
  40593c:	54fffea1 	b.ne	405910 <_ZL31ApplyMaterialPropertiesForElemsR6DomainPd._omp_fn.0+0x160>  // b.any
  405940:	a94153f3 	ldp	x19, x20, [sp, #16]
  405944:	a9425bf5 	ldp	x21, x22, [sp, #32]
  405948:	a94363f7 	ldp	x23, x24, [sp, #48]
  40594c:	6d4427e8 	ldp	d8, d9, [sp, #64]
  405950:	a8c57bfd 	ldp	x29, x30, [sp], #80
  405954:	d65f03c0 	ret
  405958:	f9400280 	ldr	x0, [x20]
  40595c:	f9424800 	ldr	x0, [x0, #1168]
  405960:	fc736800 	ldr	d0, [x0, x19]
  405964:	1e602130 	fcmpe	d9, d0
  405968:	5400044c 	b.gt	4059f0 <_ZL31ApplyMaterialPropertiesForElemsR6DomainPd._omp_fn.0+0x240>
  40596c:	1e602018 	fcmpe	d0, #0.0
  405970:	54000489 	b.ls	405a00 <_ZL31ApplyMaterialPropertiesForElemsR6DomainPd._omp_fn.0+0x250>  // b.plast
  405974:	91002273 	add	x19, x19, #0x8
  405978:	eb17027f 	cmp	x19, x23
  40597c:	54fffee1 	b.ne	405958 <_ZL31ApplyMaterialPropertiesForElemsR6DomainPd._omp_fn.0+0x1a8>  // b.any
  405980:	a94153f3 	ldp	x19, x20, [sp, #16]
  405984:	a9425bf5 	ldp	x21, x22, [sp, #32]
  405988:	a94363f7 	ldp	x23, x24, [sp, #48]
  40598c:	6d4427e8 	ldp	d8, d9, [sp, #64]
  405990:	a8c57bfd 	ldp	x29, x30, [sp], #80
  405994:	d65f03c0 	ret
  405998:	f9400280 	ldr	x0, [x20]
  40599c:	f9424800 	ldr	x0, [x0, #1168]
  4059a0:	fc736800 	ldr	d0, [x0, x19]
  4059a4:	1e602018 	fcmpe	d0, #0.0
  4059a8:	540003c9 	b.ls	405a20 <_ZL31ApplyMaterialPropertiesForElemsR6DomainPd._omp_fn.0+0x270>  // b.plast
  4059ac:	91002273 	add	x19, x19, #0x8
  4059b0:	eb17027f 	cmp	x19, x23
  4059b4:	54ffff21 	b.ne	405998 <_ZL31ApplyMaterialPropertiesForElemsR6DomainPd._omp_fn.0+0x1e8>  // b.any
  4059b8:	a94153f3 	ldp	x19, x20, [sp, #16]
  4059bc:	a9425bf5 	ldp	x21, x22, [sp, #32]
  4059c0:	a94363f7 	ldp	x23, x24, [sp, #48]
  4059c4:	6d4427e8 	ldp	d8, d9, [sp, #64]
  4059c8:	a8c57bfd 	ldp	x29, x30, [sp], #80
  4059cc:	d65f03c0 	ret
  4059d0:	fc217ac9 	str	d9, [x22, x1, lsl #3]
  4059d4:	17ffff96 	b	40582c <_ZL31ApplyMaterialPropertiesForElemsR6DomainPd._omp_fn.0+0x7c>
  4059d8:	fc217ac8 	str	d8, [x22, x1, lsl #3]
  4059dc:	17ffffa6 	b	405874 <_ZL31ApplyMaterialPropertiesForElemsR6DomainPd._omp_fn.0+0xc4>
  4059e0:	1e604100 	fmov	d0, d8
  4059e4:	17ffffd2 	b	40592c <_ZL31ApplyMaterialPropertiesForElemsR6DomainPd._omp_fn.0+0x17c>
  4059e8:	1e604120 	fmov	d0, d9
  4059ec:	17ffffce 	b	405924 <_ZL31ApplyMaterialPropertiesForElemsR6DomainPd._omp_fn.0+0x174>
  4059f0:	1e604120 	fmov	d0, d9
  4059f4:	17ffffde 	b	40596c <_ZL31ApplyMaterialPropertiesForElemsR6DomainPd._omp_fn.0+0x1bc>
  4059f8:	1e604100 	fmov	d0, d8
  4059fc:	17ffffb8 	b	4058dc <_ZL31ApplyMaterialPropertiesForElemsR6DomainPd._omp_fn.0+0x12c>
  405a00:	12800001 	mov	w1, #0xffffffff            	// #-1
  405a04:	52a88000 	mov	w0, #0x44000000            	// #1140850688
  405a08:	97ffee0e 	bl	401240 <MPI_Abort@plt>
  405a0c:	17ffffda 	b	405974 <_ZL31ApplyMaterialPropertiesForElemsR6DomainPd._omp_fn.0+0x1c4>
  405a10:	12800001 	mov	w1, #0xffffffff            	// #-1
  405a14:	52a88000 	mov	w0, #0x44000000            	// #1140850688
  405a18:	97ffee0a 	bl	401240 <MPI_Abort@plt>
  405a1c:	17ffffb2 	b	4058e4 <_ZL31ApplyMaterialPropertiesForElemsR6DomainPd._omp_fn.0+0x134>
  405a20:	12800001 	mov	w1, #0xffffffff            	// #-1
  405a24:	52a88000 	mov	w0, #0x44000000            	// #1140850688
  405a28:	97ffee06 	bl	401240 <MPI_Abort@plt>
  405a2c:	17ffffe0 	b	4059ac <_ZL31ApplyMaterialPropertiesForElemsR6DomainPd._omp_fn.0+0x1fc>
  405a30:	12800001 	mov	w1, #0xffffffff            	// #-1
  405a34:	52a88000 	mov	w0, #0x44000000            	// #1140850688
  405a38:	97ffee02 	bl	401240 <MPI_Abort@plt>
  405a3c:	17ffffbe 	b	405934 <_ZL31ApplyMaterialPropertiesForElemsR6DomainPd._omp_fn.0+0x184>
  405a40:	110006e2 	add	w2, w23, #0x1
  405a44:	2a0203f7 	mov	w23, w2
  405a48:	52800015 	mov	w21, #0x0                   	// #0
  405a4c:	17ffff8f 	b	405888 <_ZL31ApplyMaterialPropertiesForElemsR6DomainPd._omp_fn.0+0xd8>
  405a50:	1b1862e1 	madd	w1, w23, w24, w24
  405a54:	110006e2 	add	w2, w23, #0x1
  405a58:	0b010040 	add	w0, w2, w1
  405a5c:	6b00003f 	cmp	w1, w0
  405a60:	54ffff2a 	b.ge	405a44 <_ZL31ApplyMaterialPropertiesForElemsR6DomainPd._omp_fn.0+0x294>  // b.tcont
  405a64:	17ffff7f 	b	405860 <_ZL31ApplyMaterialPropertiesForElemsR6DomainPd._omp_fn.0+0xb0>
  405a68:	110006e0 	add	w0, w23, #0x1
  405a6c:	52800001 	mov	w1, #0x0                   	// #0
  405a70:	17ffff66 	b	405808 <_ZL31ApplyMaterialPropertiesForElemsR6DomainPd._omp_fn.0+0x58>

0000000000405a74 <_ZL15EvalEOSForElemsR6DomainPdiPii._omp_fn.0>:
  405a74:	a9ba7bfd 	stp	x29, x30, [sp, #-96]!
  405a78:	910003fd 	mov	x29, sp
  405a7c:	a90363f7 	stp	x23, x24, [sp, #48]
  405a80:	aa0003f7 	mov	x23, x0
  405a84:	a90153f3 	stp	x19, x20, [sp, #16]
  405a88:	f90023f9 	str	x25, [sp, #64]
  405a8c:	97ffee55 	bl	4013e0 <omp_get_num_threads@plt>
  405a90:	2a0003f3 	mov	w19, w0
  405a94:	97ffee33 	bl	401360 <omp_get_thread_num@plt>
  405a98:	b94072e1 	ldr	w1, [x23, #112]
  405a9c:	1ad30c39 	sdiv	w25, w1, w19
  405aa0:	1b138721 	msub	w1, w25, w19, w1
  405aa4:	6b01001f 	cmp	w0, w1
  405aa8:	54000f6b 	b.lt	405c94 <_ZL15EvalEOSForElemsR6DomainPdiPii._omp_fn.0+0x220>  // b.tstop
  405aac:	1b000720 	madd	w0, w25, w0, w1
  405ab0:	0b000333 	add	w19, w25, w0
  405ab4:	6b13001f 	cmp	w0, w19
  405ab8:	54000caa 	b.ge	405c4c <_ZL15EvalEOSForElemsR6DomainPdiPii._omp_fn.0+0x1d8>  // b.tcont
  405abc:	93407c18 	sxtw	x24, w0
  405ac0:	a9025bf5 	stp	x21, x22, [sp, #32]
  405ac4:	aa1803e1 	mov	x1, x24
  405ac8:	a94056e2 	ldp	x2, x21, [x23]
  405acc:	6d0527e8 	stp	d8, d9, [sp, #80]
  405ad0:	aa1803f6 	mov	x22, x24
  405ad4:	a9428ee7 	ldp	x7, x3, [x23, #40]
  405ad8:	a94396e6 	ldp	x6, x5, [x23, #56]
  405adc:	a94582e4 	ldp	x4, x0, [x23, #88]
  405ae0:	f94000ed 	ldr	x13, [x7]
  405ae4:	f94000ab 	ldr	x11, [x5]
  405ae8:	f9400009 	ldr	x9, [x0]
  405aec:	f940008a 	ldr	x10, [x4]
  405af0:	f94000cc 	ldr	x12, [x6]
  405af4:	f9400063 	ldr	x3, [x3]
  405af8:	f9400af4 	ldr	x20, [x23, #16]
  405afc:	6d41a6e8 	ldp	d8, d9, [x23, #24]
  405b00:	f9420c48 	ldr	x8, [x2, #1048]
  405b04:	f9421847 	ldr	x7, [x2, #1072]
  405b08:	f9422446 	ldr	x6, [x2, #1096]
  405b0c:	f9423045 	ldr	x5, [x2, #1120]
  405b10:	f9423c44 	ldr	x4, [x2, #1144]
  405b14:	f9426c40 	ldr	x0, [x2, #1240]
  405b18:	b8a17a82 	ldrsw	x2, [x20, x1, lsl #2]
  405b1c:	fc627900 	ldr	d0, [x8, x2, lsl #3]
  405b20:	fc2179a0 	str	d0, [x13, x1, lsl #3]
  405b24:	fc627800 	ldr	d0, [x0, x2, lsl #3]
  405b28:	fc217860 	str	d0, [x3, x1, lsl #3]
  405b2c:	fc6278e0 	ldr	d0, [x7, x2, lsl #3]
  405b30:	fc217980 	str	d0, [x12, x1, lsl #3]
  405b34:	fc6278c0 	ldr	d0, [x6, x2, lsl #3]
  405b38:	fc217960 	str	d0, [x11, x1, lsl #3]
  405b3c:	fc627880 	ldr	d0, [x4, x2, lsl #3]
  405b40:	fc217940 	str	d0, [x10, x1, lsl #3]
  405b44:	fc6278a0 	ldr	d0, [x5, x2, lsl #3]
  405b48:	fc217920 	str	d0, [x9, x1, lsl #3]
  405b4c:	91000421 	add	x1, x1, #0x1
  405b50:	6b01027f 	cmp	w19, w1
  405b54:	54fffe2c 	b.gt	405b18 <_ZL15EvalEOSForElemsR6DomainPdiPii._omp_fn.0+0xa4>
  405b58:	a94482e2 	ldp	x2, x0, [x23, #72]
  405b5c:	aa1803e1 	mov	x1, x24
  405b60:	1e6e1001 	fmov	d1, #1.000000000000000000e+00
  405b64:	1e6c1003 	fmov	d3, #5.000000000000000000e-01
  405b68:	f9400000 	ldr	x0, [x0]
  405b6c:	f9400044 	ldr	x4, [x2]
  405b70:	b8a17a82 	ldrsw	x2, [x20, x1, lsl #2]
  405b74:	fc627aa0 	ldr	d0, [x21, x2, lsl #3]
  405b78:	1e601820 	fdiv	d0, d1, d0
  405b7c:	1e613800 	fsub	d0, d0, d1
  405b80:	fc217880 	str	d0, [x4, x1, lsl #3]
  405b84:	fc617862 	ldr	d2, [x3, x1, lsl #3]
  405b88:	fc627aa0 	ldr	d0, [x21, x2, lsl #3]
  405b8c:	1f438040 	fmsub	d0, d2, d3, d0
  405b90:	1e601820 	fdiv	d0, d1, d0
  405b94:	1e613800 	fsub	d0, d0, d1
  405b98:	fc217800 	str	d0, [x0, x1, lsl #3]
  405b9c:	91000421 	add	x1, x1, #0x1
  405ba0:	6b01027f 	cmp	w19, w1
  405ba4:	54fffe6c 	b.gt	405b70 <_ZL15EvalEOSForElemsR6DomainPdiPii._omp_fn.0+0xfc>
  405ba8:	97ffee0a 	bl	4013d0 <GOMP_barrier@plt>
  405bac:	1e602128 	fcmp	d9, #0.0
  405bb0:	54000580 	b.eq	405c60 <_ZL15EvalEOSForElemsR6DomainPdiPii._omp_fn.0+0x1ec>  // b.none
  405bb4:	a94482e2 	ldp	x2, x0, [x23, #72]
  405bb8:	aa1803e1 	mov	x1, x24
  405bbc:	f9400003 	ldr	x3, [x0]
  405bc0:	f9400042 	ldr	x2, [x2]
  405bc4:	d503201f 	nop
  405bc8:	b8a17a80 	ldrsw	x0, [x20, x1, lsl #2]
  405bcc:	fc607aa0 	ldr	d0, [x21, x0, lsl #3]
  405bd0:	1e602130 	fcmpe	d9, d0
  405bd4:	5400052a 	b.ge	405c78 <_ZL15EvalEOSForElemsR6DomainPdiPii._omp_fn.0+0x204>  // b.tcont
  405bd8:	91000421 	add	x1, x1, #0x1
  405bdc:	6b01027f 	cmp	w19, w1
  405be0:	54ffff4c 	b.gt	405bc8 <_ZL15EvalEOSForElemsR6DomainPdiPii._omp_fn.0+0x154>
  405be4:	1e602108 	fcmp	d8, #0.0
  405be8:	54000160 	b.eq	405c14 <_ZL15EvalEOSForElemsR6DomainPdiPii._omp_fn.0+0x1a0>  // b.none
  405bec:	f9401ee0 	ldr	x0, [x23, #56]
  405bf0:	f9400001 	ldr	x1, [x0]
  405bf4:	d503201f 	nop
  405bf8:	b8b67a80 	ldrsw	x0, [x20, x22, lsl #2]
  405bfc:	fc607aa0 	ldr	d0, [x21, x0, lsl #3]
  405c00:	1e602110 	fcmpe	d8, d0
  405c04:	54000409 	b.ls	405c84 <_ZL15EvalEOSForElemsR6DomainPdiPii._omp_fn.0+0x210>  // b.plast
  405c08:	910006d6 	add	x22, x22, #0x1
  405c0c:	6b16027f 	cmp	w19, w22
  405c10:	54ffff4c 	b.gt	405bf8 <_ZL15EvalEOSForElemsR6DomainPdiPii._omp_fn.0+0x184>
  405c14:	f94036e0 	ldr	x0, [x23, #104]
  405c18:	51000722 	sub	w2, w25, #0x1
  405c1c:	a94153f3 	ldp	x19, x20, [sp, #16]
  405c20:	91000442 	add	x2, x2, #0x1
  405c24:	f9400000 	ldr	x0, [x0]
  405c28:	d37df042 	lsl	x2, x2, #3
  405c2c:	a9425bf5 	ldp	x21, x22, [sp, #32]
  405c30:	52800001 	mov	w1, #0x0                   	// #0
  405c34:	8b180c00 	add	x0, x0, x24, lsl #3
  405c38:	a94363f7 	ldp	x23, x24, [sp, #48]
  405c3c:	f94023f9 	ldr	x25, [sp, #64]
  405c40:	6d4527e8 	ldp	d8, d9, [sp, #80]
  405c44:	a8c67bfd 	ldp	x29, x30, [sp], #96
  405c48:	17ffed5e 	b	4011c0 <memset@plt>
  405c4c:	a94153f3 	ldp	x19, x20, [sp, #16]
  405c50:	a94363f7 	ldp	x23, x24, [sp, #48]
  405c54:	f94023f9 	ldr	x25, [sp, #64]
  405c58:	a8c67bfd 	ldp	x29, x30, [sp], #96
  405c5c:	17ffeddd 	b	4013d0 <GOMP_barrier@plt>
  405c60:	1e602108 	fcmp	d8, #0.0
  405c64:	54fffd80 	b.eq	405c14 <_ZL15EvalEOSForElemsR6DomainPdiPii._omp_fn.0+0x1a0>  // b.none
  405c68:	a94482e1 	ldp	x1, x0, [x23, #72]
  405c6c:	f9400003 	ldr	x3, [x0]
  405c70:	f9400022 	ldr	x2, [x1]
  405c74:	17ffffde 	b	405bec <_ZL15EvalEOSForElemsR6DomainPdiPii._omp_fn.0+0x178>
  405c78:	fc617840 	ldr	d0, [x2, x1, lsl #3]
  405c7c:	fc217860 	str	d0, [x3, x1, lsl #3]
  405c80:	17ffffd6 	b	405bd8 <_ZL15EvalEOSForElemsR6DomainPdiPii._omp_fn.0+0x164>
  405c84:	f836783f 	str	xzr, [x1, x22, lsl #3]
  405c88:	f836785f 	str	xzr, [x2, x22, lsl #3]
  405c8c:	f836787f 	str	xzr, [x3, x22, lsl #3]
  405c90:	17ffffde 	b	405c08 <_ZL15EvalEOSForElemsR6DomainPdiPii._omp_fn.0+0x194>
  405c94:	11000739 	add	w25, w25, #0x1
  405c98:	52800001 	mov	w1, #0x0                   	// #0
  405c9c:	17ffff84 	b	405aac <_ZL15EvalEOSForElemsR6DomainPdiPii._omp_fn.0+0x38>

0000000000405ca0 <_ZL15EvalEOSForElemsR6DomainPdiPii._omp_fn.1>:
  405ca0:	a9be7bfd 	stp	x29, x30, [sp, #-32]!
  405ca4:	910003fd 	mov	x29, sp
  405ca8:	a90153f3 	stp	x19, x20, [sp, #16]
  405cac:	aa0003f4 	mov	x20, x0
  405cb0:	97ffedcc 	bl	4013e0 <omp_get_num_threads@plt>
  405cb4:	2a0003f3 	mov	w19, w0
  405cb8:	97ffedaa 	bl	401360 <omp_get_thread_num@plt>
  405cbc:	b9402a83 	ldr	w3, [x20, #40]
  405cc0:	2a0003e1 	mov	w1, w0
  405cc4:	1ad30c62 	sdiv	w2, w3, w19
  405cc8:	1b138c43 	msub	w3, w2, w19, w3
  405ccc:	6b03001f 	cmp	w0, w3
  405cd0:	540003ab 	b.lt	405d44 <_ZL15EvalEOSForElemsR6DomainPdiPii._omp_fn.1+0xa4>  // b.tstop
  405cd4:	1b010c41 	madd	w1, w2, w1, w3
  405cd8:	0b010042 	add	w2, w2, w1
  405cdc:	6b02003f 	cmp	w1, w2
  405ce0:	540002ca 	b.ge	405d38 <_ZL15EvalEOSForElemsR6DomainPdiPii._omp_fn.1+0x98>  // b.tcont
  405ce4:	a9401a80 	ldp	x0, x6, [x20]
  405ce8:	93407c21 	sxtw	x1, w1
  405cec:	a9411285 	ldp	x5, x4, [x20, #16]
  405cf0:	f9401283 	ldr	x3, [x20, #32]
  405cf4:	f9400088 	ldr	x8, [x4]
  405cf8:	f9400067 	ldr	x7, [x3]
  405cfc:	f94000a9 	ldr	x9, [x5]
  405d00:	f9420c05 	ldr	x5, [x0, #1048]
  405d04:	f9421804 	ldr	x4, [x0, #1072]
  405d08:	f9422403 	ldr	x3, [x0, #1096]
  405d0c:	d503201f 	nop
  405d10:	b8a178c0 	ldrsw	x0, [x6, x1, lsl #2]
  405d14:	fc617920 	ldr	d0, [x9, x1, lsl #3]
  405d18:	fc207880 	str	d0, [x4, x0, lsl #3]
  405d1c:	fc617900 	ldr	d0, [x8, x1, lsl #3]
  405d20:	fc2078a0 	str	d0, [x5, x0, lsl #3]
  405d24:	fc6178e0 	ldr	d0, [x7, x1, lsl #3]
  405d28:	91000421 	add	x1, x1, #0x1
  405d2c:	fc207860 	str	d0, [x3, x0, lsl #3]
  405d30:	6b01005f 	cmp	w2, w1
  405d34:	54fffeec 	b.gt	405d10 <_ZL15EvalEOSForElemsR6DomainPdiPii._omp_fn.1+0x70>
  405d38:	a94153f3 	ldp	x19, x20, [sp, #16]
  405d3c:	a8c27bfd 	ldp	x29, x30, [sp], #32
  405d40:	d65f03c0 	ret
  405d44:	11000442 	add	w2, w2, #0x1
  405d48:	52800003 	mov	w3, #0x0                   	// #0
  405d4c:	17ffffe2 	b	405cd4 <_ZL15EvalEOSForElemsR6DomainPdiPii._omp_fn.1+0x34>

0000000000405d50 <_ZL18CalcEnergyForElemsPdS_S_S_S_S_S_S_S_S_S_S_S_dddddS_S_ddiPi._omp_fn.0>:
  405d50:	a9be7bfd 	stp	x29, x30, [sp, #-32]!
  405d54:	910003fd 	mov	x29, sp
  405d58:	a90153f3 	stp	x19, x20, [sp, #16]
  405d5c:	aa0003f4 	mov	x20, x0
  405d60:	97ffeda0 	bl	4013e0 <omp_get_num_threads@plt>
  405d64:	2a0003f3 	mov	w19, w0
  405d68:	97ffed7e 	bl	401360 <omp_get_thread_num@plt>
  405d6c:	b9403a82 	ldr	w2, [x20, #56]
  405d70:	2a0003e1 	mov	w1, w0
  405d74:	1ad30c43 	sdiv	w3, w2, w19
  405d78:	1b138862 	msub	w2, w3, w19, w2
  405d7c:	6b02001f 	cmp	w0, w2
  405d80:	54000c4b 	b.lt	405f08 <_ZL18CalcEnergyForElemsPdS_S_S_S_S_S_S_S_S_S_S_S_dddddS_S_ddiPi._omp_fn.0+0x1b8>  // b.tstop
  405d84:	1b010861 	madd	w1, w3, w1, w2
  405d88:	0b01006d 	add	w13, w3, w1
  405d8c:	6b0d003f 	cmp	w1, w13
  405d90:	5400092a 	b.ge	405eb4 <_ZL18CalcEnergyForElemsPdS_S_S_S_S_S_S_S_S_S_S_S_dddddS_S_ddiPi._omp_fn.0+0x164>  // b.tcont
  405d94:	a9419a88 	ldp	x8, x6, [x20, #24]
  405d98:	93407c20 	sxtw	x0, w1
  405d9c:	91000405 	add	x5, x0, #0x1
  405da0:	937d7c22 	sbfiz	x2, x1, #3, #32
  405da4:	f940028b 	ldr	x11, [x20]
  405da8:	d37df0ac 	lsl	x12, x5, #3
  405dac:	f940168a 	ldr	x10, [x20, #40]
  405db0:	8b020164 	add	x4, x11, x2
  405db4:	8b0c00c7 	add	x7, x6, x12
  405db8:	8b0c0109 	add	x9, x8, x12
  405dbc:	eb0400ff 	cmp	x7, x4
  405dc0:	8b0c0150 	add	x16, x10, x12
  405dc4:	fa441124 	ccmp	x9, x4, #0x4, ne  // ne = any
  405dc8:	5100046f 	sub	w15, w3, #0x1
  405dcc:	a9409e89 	ldp	x9, x7, [x20, #8]
  405dd0:	1a9f07ee 	cset	w14, ne  // ne = any
  405dd4:	eb04021f 	cmp	x16, x4
  405dd8:	1e6c1004 	fmov	d4, #5.000000000000000000e-01
  405ddc:	7a4219e0 	ccmp	w15, #0x2, #0x0, ne  // ne = any
  405de0:	fd401a82 	ldr	d2, [x20, #48]
  405de4:	1a9f97ef 	cset	w15, hi  // hi = pmore
  405de8:	0a0f01ce 	and	w14, w14, w15
  405dec:	8b0c00f0 	add	x16, x7, x12
  405df0:	8b0c012c 	add	x12, x9, x12
  405df4:	eb04021f 	cmp	x16, x4
  405df8:	fa441184 	ccmp	x12, x4, #0x4, ne  // ne = any
  405dfc:	1a9f07ec 	cset	w12, ne  // ne = any
  405e00:	6a0e019f 	tst	w12, w14
  405e04:	540006a0 	b.eq	405ed8 <_ZL18CalcEnergyForElemsPdS_S_S_S_S_S_S_S_S_S_S_S_dddddS_S_ddiPi._omp_fn.0+0x188>  // b.none
  405e08:	53017c65 	lsr	w5, w3, #1
  405e0c:	8b0200ef 	add	x15, x7, x2
  405e10:	4e080445 	dup	v5.2d, v2.d[0]
  405e14:	8b02014e 	add	x14, x10, x2
  405e18:	6f03f404 	fmov	v4.2d, #5.000000000000000000e-01
  405e1c:	8b02012d 	add	x13, x9, x2
  405e20:	8b02010c 	add	x12, x8, x2
  405e24:	d37ceca5 	lsl	x5, x5, #4
  405e28:	8b0200c2 	add	x2, x6, x2
  405e2c:	d2800000 	mov	x0, #0x0                   	// #0
  405e30:	3ce06986 	ldr	q6, [x12, x0]
  405e34:	3ce069c3 	ldr	q3, [x14, x0]
  405e38:	3ce069a1 	ldr	q1, [x13, x0]
  405e3c:	6e64dc63 	fmul	v3.2d, v3.2d, v4.2d
  405e40:	3ce069e0 	ldr	q0, [x15, x0]
  405e44:	4e66d421 	fadd	v1.2d, v1.2d, v6.2d
  405e48:	3ce06846 	ldr	q6, [x2, x0]
  405e4c:	4ee1cc60 	fmls	v0.2d, v3.2d, v1.2d
  405e50:	4e64ccc0 	fmla	v0.2d, v6.2d, v4.2d
  405e54:	6ee0e4a1 	fcmgt	v1.2d, v5.2d, v0.2d
  405e58:	6ea11ca0 	bit	v0.16b, v5.16b, v1.16b
  405e5c:	3ca06880 	str	q0, [x4, x0]
  405e60:	91004000 	add	x0, x0, #0x10
  405e64:	eb05001f 	cmp	x0, x5
  405e68:	54fffe41 	b.ne	405e30 <_ZL18CalcEnergyForElemsPdS_S_S_S_S_S_S_S_S_S_S_S_dddddS_S_ddiPi._omp_fn.0+0xe0>  // b.any
  405e6c:	121f7862 	and	w2, w3, #0xfffffffe
  405e70:	0b010040 	add	w0, w2, w1
  405e74:	6b02007f 	cmp	w3, w2
  405e78:	540001e0 	b.eq	405eb4 <_ZL18CalcEnergyForElemsPdS_S_S_S_S_S_S_S_S_S_S_S_dddddS_S_ddiPi._omp_fn.0+0x164>  // b.none
  405e7c:	93407c00 	sxtw	x0, w0
  405e80:	1e6c1004 	fmov	d4, #5.000000000000000000e-01
  405e84:	fc607943 	ldr	d3, [x10, x0, lsl #3]
  405e88:	fc607920 	ldr	d0, [x9, x0, lsl #3]
  405e8c:	fc607906 	ldr	d6, [x8, x0, lsl #3]
  405e90:	1e640863 	fmul	d3, d3, d4
  405e94:	fc6078e1 	ldr	d1, [x7, x0, lsl #3]
  405e98:	fc6078c5 	ldr	d5, [x6, x0, lsl #3]
  405e9c:	1e662800 	fadd	d0, d0, d6
  405ea0:	1f408460 	fmsub	d0, d3, d0, d1
  405ea4:	1f4400a0 	fmadd	d0, d5, d4, d0
  405ea8:	1e602050 	fcmpe	d2, d0
  405eac:	1e60cc42 	fcsel	d2, d2, d0, gt
  405eb0:	fc207962 	str	d2, [x11, x0, lsl #3]
  405eb4:	a94153f3 	ldp	x19, x20, [sp, #16]
  405eb8:	a8c27bfd 	ldp	x29, x30, [sp], #32
  405ebc:	d65f03c0 	ret
  405ec0:	1e604040 	fmov	d0, d2
  405ec4:	fc207960 	str	d0, [x11, x0, lsl #3]
  405ec8:	aa0503e0 	mov	x0, x5
  405ecc:	6b0501bf 	cmp	w13, w5
  405ed0:	54ffff2d 	b.le	405eb4 <_ZL18CalcEnergyForElemsPdS_S_S_S_S_S_S_S_S_S_S_S_dddddS_S_ddiPi._omp_fn.0+0x164>
  405ed4:	910004a5 	add	x5, x5, #0x1
  405ed8:	fc607925 	ldr	d5, [x9, x0, lsl #3]
  405edc:	fc607903 	ldr	d3, [x8, x0, lsl #3]
  405ee0:	fc607940 	ldr	d0, [x10, x0, lsl #3]
  405ee4:	fc6078e1 	ldr	d1, [x7, x0, lsl #3]
  405ee8:	1e652863 	fadd	d3, d3, d5
  405eec:	fc6078c5 	ldr	d5, [x6, x0, lsl #3]
  405ef0:	1e640800 	fmul	d0, d0, d4
  405ef4:	1f408460 	fmsub	d0, d3, d0, d1
  405ef8:	1f4400a0 	fmadd	d0, d5, d4, d0
  405efc:	1e602050 	fcmpe	d2, d0
  405f00:	54fffe0c 	b.gt	405ec0 <_ZL18CalcEnergyForElemsPdS_S_S_S_S_S_S_S_S_S_S_S_dddddS_S_ddiPi._omp_fn.0+0x170>
  405f04:	17fffff0 	b	405ec4 <_ZL18CalcEnergyForElemsPdS_S_S_S_S_S_S_S_S_S_S_S_dddddS_S_ddiPi._omp_fn.0+0x174>
  405f08:	11000463 	add	w3, w3, #0x1
  405f0c:	52800002 	mov	w2, #0x0                   	// #0
  405f10:	17ffff9d 	b	405d84 <_ZL18CalcEnergyForElemsPdS_S_S_S_S_S_S_S_S_S_S_S_dddddS_S_ddiPi._omp_fn.0+0x34>

0000000000405f14 <_ZL18CalcEnergyForElemsPdS_S_S_S_S_S_S_S_S_S_S_S_dddddS_S_ddiPi._omp_fn.1>:
  405f14:	a9b57bfd 	stp	x29, x30, [sp, #-176]!
  405f18:	910003fd 	mov	x29, sp
  405f1c:	a9025bf5 	stp	x21, x22, [sp, #32]
  405f20:	aa0003f5 	mov	x21, x0
  405f24:	a90153f3 	stp	x19, x20, [sp, #16]
  405f28:	97ffed2e 	bl	4013e0 <omp_get_num_threads@plt>
  405f2c:	2a0003f4 	mov	w20, w0
  405f30:	97ffed0c 	bl	401360 <omp_get_thread_num@plt>
  405f34:	2a0003f3 	mov	w19, w0
  405f38:	b94062a0 	ldr	w0, [x21, #96]
  405f3c:	1ad40c01 	sdiv	w1, w0, w20
  405f40:	1b148020 	msub	w0, w1, w20, w0
  405f44:	6b00027f 	cmp	w19, w0
  405f48:	54000c8b 	b.lt	4060d8 <_ZL18CalcEnergyForElemsPdS_S_S_S_S_S_S_S_S_S_S_S_dddddS_S_ddiPi._omp_fn.1+0x1c4>  // b.tstop
  405f4c:	1b130033 	madd	w19, w1, w19, w0
  405f50:	0b130020 	add	w0, w1, w19
  405f54:	6b00027f 	cmp	w19, w0
  405f58:	54000aea 	b.ge	4060b4 <_ZL18CalcEnergyForElemsPdS_S_S_S_S_S_S_S_S_S_S_S_dddddS_S_ddiPi._omp_fn.1+0x1a0>  // b.tcont
  405f5c:	f9402aa0 	ldr	x0, [x21, #80]
  405f60:	a90363f7 	stp	x23, x24, [sp, #48]
  405f64:	93407e77 	sxtw	x23, w19
  405f68:	51000421 	sub	w1, w1, #0x1
  405f6c:	910006f7 	add	x23, x23, #0x1
  405f70:	8b0102f7 	add	x23, x23, x1
  405f74:	a9046bf9 	stp	x25, x26, [sp, #64]
  405f78:	937d7e73 	sbfiz	x19, x19, #3, #32
  405f7c:	f9400001 	ldr	x1, [x0]
  405f80:	d0000060 	adrp	x0, 413000 <_ZN6DomainC1Eiiiiiiiii+0x1200>
  405f84:	a90573fb 	stp	x27, x28, [sp, #80]
  405f88:	d37df2f7 	lsl	x23, x23, #3
  405f8c:	6d072fea 	stp	d10, d11, [sp, #112]
  405f90:	fd402eaa 	ldr	d10, [x21, #88]
  405f94:	a9406ab4 	ldp	x20, x26, [x21]
  405f98:	6d0627e8 	stp	d8, d9, [sp, #96]
  405f9c:	1e6e1009 	fmov	d9, #1.000000000000000000e+00
  405fa0:	a9410ea4 	ldp	x4, x3, [x21, #16]
  405fa4:	1e621008 	fmov	d8, #4.000000000000000000e+00
  405fa8:	a94262b9 	ldp	x25, x24, [x21, #32]
  405fac:	a9435aa2 	ldp	x2, x22, [x21, #48]
  405fb0:	a9446ebc 	ldp	x28, x27, [x21, #64]
  405fb4:	fd0043ec 	str	d12, [sp, #128]
  405fb8:	fd47bc0c 	ldr	d12, [x0, #3960]
  405fbc:	d0000060 	adrp	x0, 413000 <_ZN6DomainC1Eiiiiiiiii+0x1200>
  405fc0:	fd47c00b 	ldr	d11, [x0, #3968]
  405fc4:	d503201f 	nop
  405fc8:	fc736ac0 	ldr	d0, [x22, x19]
  405fcc:	8b130020 	add	x0, x1, x19
  405fd0:	1e602018 	fcmpe	d0, #0.0
  405fd4:	540007cc 	b.gt	4060cc <_ZL18CalcEnergyForElemsPdS_S_S_S_S_S_S_S_S_S_S_S_dddddS_S_ddiPi._omp_fn.1+0x1b8>
  405fd8:	fc736842 	ldr	d2, [x2, x19]
  405fdc:	1e604163 	fmov	d3, d11
  405fe0:	fc736886 	ldr	d6, [x4, x19]
  405fe4:	fc736825 	ldr	d5, [x1, x19]
  405fe8:	1e692842 	fadd	d2, d2, d9
  405fec:	fc736864 	ldr	d4, [x3, x19]
  405ff0:	fc736a80 	ldr	d0, [x20, x19]
  405ff4:	1e621921 	fdiv	d1, d9, d2
  405ff8:	1e610821 	fmul	d1, d1, d1
  405ffc:	1e660821 	fmul	d1, d1, d6
  406000:	1e650821 	fmul	d1, d1, d5
  406004:	1f400481 	fmadd	d1, d4, d0, d1
  406008:	1e6a1821 	fdiv	d1, d1, d10
  40600c:	1e6c2030 	fcmpe	d1, d12
  406010:	540001c9 	b.ls	406048 <_ZL18CalcEnergyForElemsPdS_S_S_S_S_S_S_S_S_S_S_S_dddddS_S_ddiPi._omp_fn.1+0x134>  // b.plast
  406014:	1e602028 	fcmp	d1, #0.0
  406018:	54000565 	b.pl	4060c4 <_ZL18CalcEnergyForElemsPdS_S_S_S_S_S_S_S_S_S_S_S_dddddS_S_ddiPi._omp_fn.1+0x1b0>  // b.nfrst
  40601c:	1e604020 	fmov	d0, d1
  406020:	a9098fe2 	stp	x2, x3, [sp, #152]
  406024:	f90057e4 	str	x4, [sp, #168]
  406028:	97ffecfa 	bl	401410 <sqrt@plt>
  40602c:	1e604003 	fmov	d3, d0
  406030:	f9402aa0 	ldr	x0, [x21, #80]
  406034:	a9498fe2 	ldp	x2, x3, [sp, #152]
  406038:	f9400001 	ldr	x1, [x0]
  40603c:	f94057e4 	ldr	x4, [sp, #168]
  406040:	8b130020 	add	x0, x1, x19
  406044:	d503201f 	nop
  406048:	fc736b61 	ldr	d1, [x27, x19]
  40604c:	fc736b80 	ldr	d0, [x28, x19]
  406050:	1f410060 	fmadd	d0, d3, d1, d0
  406054:	fc336b40 	str	d0, [x26, x19]
  406058:	fd400001 	ldr	d1, [x0]
  40605c:	1e611004 	fmov	d4, #3.000000000000000000e+00
  406060:	fc736b23 	ldr	d3, [x25, x19]
  406064:	1e6c1005 	fmov	d5, #5.000000000000000000e-01
  406068:	fc736b06 	ldr	d6, [x24, x19]
  40606c:	1e612800 	fadd	d0, d0, d1
  406070:	fc736ac2 	ldr	d2, [x22, x19]
  406074:	fc736a81 	ldr	d1, [x20, x19]
  406078:	1e662863 	fadd	d3, d3, d6
  40607c:	1e650842 	fmul	d2, d2, d5
  406080:	1e680800 	fmul	d0, d0, d8
  406084:	1f648060 	fnmsub	d0, d3, d4, d0
  406088:	1f400440 	fmadd	d0, d2, d0, d1
  40608c:	fc336a80 	str	d0, [x20, x19]
  406090:	91002273 	add	x19, x19, #0x8
  406094:	eb1302ff 	cmp	x23, x19
  406098:	54fff981 	b.ne	405fc8 <_ZL18CalcEnergyForElemsPdS_S_S_S_S_S_S_S_S_S_S_S_dddddS_S_ddiPi._omp_fn.1+0xb4>  // b.any
  40609c:	a94363f7 	ldp	x23, x24, [sp, #48]
  4060a0:	a9446bf9 	ldp	x25, x26, [sp, #64]
  4060a4:	a94573fb 	ldp	x27, x28, [sp, #80]
  4060a8:	6d4627e8 	ldp	d8, d9, [sp, #96]
  4060ac:	6d472fea 	ldp	d10, d11, [sp, #112]
  4060b0:	fd4043ec 	ldr	d12, [sp, #128]
  4060b4:	a94153f3 	ldp	x19, x20, [sp, #16]
  4060b8:	a9425bf5 	ldp	x21, x22, [sp, #32]
  4060bc:	a8cb7bfd 	ldp	x29, x30, [sp], #176
  4060c0:	d65f03c0 	ret
  4060c4:	1e61c023 	fsqrt	d3, d1
  4060c8:	17ffffe0 	b	406048 <_ZL18CalcEnergyForElemsPdS_S_S_S_S_S_S_S_S_S_S_S_dddddS_S_ddiPi._omp_fn.1+0x134>
  4060cc:	2f00e400 	movi	d0, #0x0
  4060d0:	fc336b40 	str	d0, [x26, x19]
  4060d4:	17ffffe1 	b	406058 <_ZL18CalcEnergyForElemsPdS_S_S_S_S_S_S_S_S_S_S_S_dddddS_S_ddiPi._omp_fn.1+0x144>
  4060d8:	11000421 	add	w1, w1, #0x1
  4060dc:	52800000 	mov	w0, #0x0                   	// #0
  4060e0:	17ffff9b 	b	405f4c <_ZL18CalcEnergyForElemsPdS_S_S_S_S_S_S_S_S_S_S_S_dddddS_S_ddiPi._omp_fn.1+0x38>

00000000004060e4 <_ZL18CalcEnergyForElemsPdS_S_S_S_S_S_S_S_S_S_S_S_dddddS_S_ddiPi._omp_fn.2>:
  4060e4:	a9be7bfd 	stp	x29, x30, [sp, #-32]!
  4060e8:	910003fd 	mov	x29, sp
  4060ec:	a90153f3 	stp	x19, x20, [sp, #16]
  4060f0:	aa0003f4 	mov	x20, x0
  4060f4:	97ffecbb 	bl	4013e0 <omp_get_num_threads@plt>
  4060f8:	2a0003f3 	mov	w19, w0
  4060fc:	97ffec99 	bl	401360 <omp_get_thread_num@plt>
  406100:	b9402282 	ldr	w2, [x20, #32]
  406104:	2a0003e1 	mov	w1, w0
  406108:	1ad30c44 	sdiv	w4, w2, w19
  40610c:	1b138882 	msub	w2, w4, w19, w2
  406110:	6b02001f 	cmp	w0, w2
  406114:	540009ab 	b.lt	406248 <_ZL18CalcEnergyForElemsPdS_S_S_S_S_S_S_S_S_S_S_S_dddddS_S_ddiPi._omp_fn.2+0x164>  // b.tstop
  406118:	1b010881 	madd	w1, w4, w1, w2
  40611c:	0b010088 	add	w8, w4, w1
  406120:	6b08003f 	cmp	w1, w8
  406124:	5400062a 	b.ge	4061e8 <_ZL18CalcEnergyForElemsPdS_S_S_S_S_S_S_S_S_S_S_S_dddddS_S_ddiPi._omp_fn.2+0x104>  // b.tcont
  406128:	a9401a82 	ldp	x2, x6, [x20]
  40612c:	93407c20 	sxtw	x0, w1
  406130:	91000405 	add	x5, x0, #0x1
  406134:	937d7c27 	sbfiz	x7, x1, #3, #32
  406138:	51000489 	sub	w9, w4, #0x1
  40613c:	1e6c1003 	fmov	d3, #5.000000000000000000e-01
  406140:	6d410a85 	ldp	d5, d2, [x20, #16]
  406144:	8b050cca 	add	x10, x6, x5, lsl #3
  406148:	8b070043 	add	x3, x2, x7
  40614c:	eb03015f 	cmp	x10, x3
  406150:	7a431920 	ccmp	w9, #0x3, #0x0, ne  // ne = any
  406154:	540005c9 	b.ls	40620c <_ZL18CalcEnergyForElemsPdS_S_S_S_S_S_S_S_S_S_S_S_dddddS_S_ddiPi._omp_fn.2+0x128>  // b.plast
  406158:	53017c85 	lsr	w5, w4, #1
  40615c:	8b0700c7 	add	x7, x6, x7
  406160:	4e0804a7 	dup	v7.2d, v5.d[0]
  406164:	d2800000 	mov	x0, #0x0                   	// #0
  406168:	4e080443 	dup	v3.2d, v2.d[0]
  40616c:	d37ceca5 	lsl	x5, x5, #4
  406170:	6f03f406 	fmov	v6.2d, #5.000000000000000000e-01
  406174:	d503201f 	nop
  406178:	3ce068e4 	ldr	q4, [x7, x0]
  40617c:	3ce06860 	ldr	q0, [x3, x0]
  406180:	4e66cc80 	fmla	v0.2d, v4.2d, v6.2d
  406184:	4ea01c01 	mov	v1.16b, v0.16b
  406188:	4ee0f800 	fabs	v0.2d, v0.2d
  40618c:	6ee0e4e0 	fcmgt	v0.2d, v7.2d, v0.2d
  406190:	4e601c20 	bic	v0.16b, v1.16b, v0.16b
  406194:	6ee0e461 	fcmgt	v1.2d, v3.2d, v0.2d
  406198:	6ea11c60 	bit	v0.16b, v3.16b, v1.16b
  40619c:	3ca06860 	str	q0, [x3, x0]
  4061a0:	91004000 	add	x0, x0, #0x10
  4061a4:	eb05001f 	cmp	x0, x5
  4061a8:	54fffe81 	b.ne	406178 <_ZL18CalcEnergyForElemsPdS_S_S_S_S_S_S_S_S_S_S_S_dddddS_S_ddiPi._omp_fn.2+0x94>  // b.any
  4061ac:	121f7883 	and	w3, w4, #0xfffffffe
  4061b0:	0b010060 	add	w0, w3, w1
  4061b4:	6b03009f 	cmp	w4, w3
  4061b8:	54000180 	b.eq	4061e8 <_ZL18CalcEnergyForElemsPdS_S_S_S_S_S_S_S_S_S_S_S_dddddS_S_ddiPi._omp_fn.2+0x104>  // b.none
  4061bc:	93407c00 	sxtw	x0, w0
  4061c0:	1e6c1001 	fmov	d1, #5.000000000000000000e-01
  4061c4:	fc6078c3 	ldr	d3, [x6, x0, lsl #3]
  4061c8:	fc607840 	ldr	d0, [x2, x0, lsl #3]
  4061cc:	1f410060 	fmadd	d0, d3, d1, d0
  4061d0:	1e60c001 	fabs	d1, d0
  4061d4:	1e6120b0 	fcmpe	d5, d1
  4061d8:	540002cc 	b.gt	406230 <_ZL18CalcEnergyForElemsPdS_S_S_S_S_S_S_S_S_S_S_S_dddddS_S_ddiPi._omp_fn.2+0x14c>
  4061dc:	1e602050 	fcmpe	d2, d0
  4061e0:	1e60cc42 	fcsel	d2, d2, d0, gt
  4061e4:	fc207842 	str	d2, [x2, x0, lsl #3]
  4061e8:	a94153f3 	ldp	x19, x20, [sp, #16]
  4061ec:	a8c27bfd 	ldp	x29, x30, [sp], #32
  4061f0:	d65f03c0 	ret
  4061f4:	1e604040 	fmov	d0, d2
  4061f8:	fc207840 	str	d0, [x2, x0, lsl #3]
  4061fc:	aa0503e0 	mov	x0, x5
  406200:	6b05011f 	cmp	w8, w5
  406204:	54ffff2d 	b.le	4061e8 <_ZL18CalcEnergyForElemsPdS_S_S_S_S_S_S_S_S_S_S_S_dddddS_S_ddiPi._omp_fn.2+0x104>
  406208:	910004a5 	add	x5, x5, #0x1
  40620c:	fc6078c1 	ldr	d1, [x6, x0, lsl #3]
  406210:	fc607840 	ldr	d0, [x2, x0, lsl #3]
  406214:	1f430020 	fmadd	d0, d1, d3, d0
  406218:	1e60c001 	fabs	d1, d0
  40621c:	1e6120b0 	fcmpe	d5, d1
  406220:	540000cc 	b.gt	406238 <_ZL18CalcEnergyForElemsPdS_S_S_S_S_S_S_S_S_S_S_S_dddddS_S_ddiPi._omp_fn.2+0x154>
  406224:	1e602050 	fcmpe	d2, d0
  406228:	54fffe6c 	b.gt	4061f4 <_ZL18CalcEnergyForElemsPdS_S_S_S_S_S_S_S_S_S_S_S_dddddS_S_ddiPi._omp_fn.2+0x110>
  40622c:	17fffff3 	b	4061f8 <_ZL18CalcEnergyForElemsPdS_S_S_S_S_S_S_S_S_S_S_S_dddddS_S_ddiPi._omp_fn.2+0x114>
  406230:	2f00e400 	movi	d0, #0x0
  406234:	17ffffea 	b	4061dc <_ZL18CalcEnergyForElemsPdS_S_S_S_S_S_S_S_S_S_S_S_dddddS_S_ddiPi._omp_fn.2+0xf8>
  406238:	2f00e400 	movi	d0, #0x0
  40623c:	1e602050 	fcmpe	d2, d0
  406240:	54fffdac 	b.gt	4061f4 <_ZL18CalcEnergyForElemsPdS_S_S_S_S_S_S_S_S_S_S_S_dddddS_S_ddiPi._omp_fn.2+0x110>
  406244:	17ffffed 	b	4061f8 <_ZL18CalcEnergyForElemsPdS_S_S_S_S_S_S_S_S_S_S_S_dddddS_S_ddiPi._omp_fn.2+0x114>
  406248:	11000484 	add	w4, w4, #0x1
  40624c:	52800002 	mov	w2, #0x0                   	// #0
  406250:	17ffffb2 	b	406118 <_ZL18CalcEnergyForElemsPdS_S_S_S_S_S_S_S_S_S_S_S_dddddS_S_ddiPi._omp_fn.2+0x34>

0000000000406254 <_ZL18CalcEnergyForElemsPdS_S_S_S_S_S_S_S_S_S_S_S_dddddS_S_ddiPi._omp_fn.3>:
  406254:	a9b37bfd 	stp	x29, x30, [sp, #-208]!
  406258:	910003fd 	mov	x29, sp
  40625c:	a90153f3 	stp	x19, x20, [sp, #16]
  406260:	aa0003f4 	mov	x20, x0
  406264:	a9025bf5 	stp	x21, x22, [sp, #32]
  406268:	97ffec5e 	bl	4013e0 <omp_get_num_threads@plt>
  40626c:	2a0003f6 	mov	w22, w0
  406270:	97ffec3c 	bl	401360 <omp_get_thread_num@plt>
  406274:	2a0003f3 	mov	w19, w0
  406278:	b9408280 	ldr	w0, [x20, #128]
  40627c:	1ad60c15 	sdiv	w21, w0, w22
  406280:	1b1682a0 	msub	w0, w21, w22, w0
  406284:	6b00027f 	cmp	w19, w0
  406288:	54000d8b 	b.lt	406438 <_ZL18CalcEnergyForElemsPdS_S_S_S_S_S_S_S_S_S_S_S_dddddS_S_ddiPi._omp_fn.3+0x1e4>  // b.tstop
  40628c:	1b1302b3 	madd	w19, w21, w19, w0
  406290:	0b1302b5 	add	w21, w21, w19
  406294:	6b15027f 	cmp	w19, w21
  406298:	54000bca 	b.ge	406410 <_ZL18CalcEnergyForElemsPdS_S_S_S_S_S_S_S_S_S_S_S_dddddS_S_ddiPi._omp_fn.3+0x1bc>  // b.tcont
  40629c:	b200f3e0 	mov	x0, #0x5555555555555555    	// #6148914691236517205
  4062a0:	6d0627e8 	stp	d8, d9, [sp, #96]
  4062a4:	f2e7f8a0 	movk	x0, #0x3fc5, lsl #48
  4062a8:	9e670009 	fmov	d9, x0
  4062ac:	b0000060 	adrp	x0, 413000 <_ZN6DomainC1Eiiiiiiiii+0x1200>
  4062b0:	a90363f7 	stp	x23, x24, [sp, #48]
  4062b4:	93407e73 	sxtw	x19, w19
  4062b8:	a9046bf9 	stp	x25, x26, [sp, #64]
  4062bc:	a90573fb 	stp	x27, x28, [sp, #80]
  4062c0:	6d072fea 	stp	d10, d11, [sp, #112]
  4062c4:	1e64100b 	fmov	d11, #8.000000000000000000e+00
  4062c8:	6d0837ec 	stp	d12, d13, [sp, #128]
  4062cc:	fd403e8c 	ldr	d12, [x20, #120]
  4062d0:	a9405a99 	ldp	x25, x22, [x20]
  4062d4:	a9411a9c 	ldp	x28, x6, [x20, #16]
  4062d8:	a9426e85 	ldp	x5, x27, [x20, #32]
  4062dc:	a943129a 	ldp	x26, x4, [x20, #48]
  4062e0:	a9440e98 	ldp	x24, x3, [x20, #64]
  4062e4:	a9450682 	ldp	x2, x1, [x20, #80]
  4062e8:	6d46a28a 	ldp	d10, d8, [x20, #104]
  4062ec:	fd004bee 	str	d14, [sp, #144]
  4062f0:	fd47bc0e 	ldr	d14, [x0, #3960]
  4062f4:	b0000060 	adrp	x0, 413000 <_ZN6DomainC1Eiiiiiiiii+0x1200>
  4062f8:	fd47c00d 	ldr	d13, [x0, #3968]
  4062fc:	d503201f 	nop
  406300:	2f00e401 	movi	d1, #0x0
  406304:	fc737b04 	ldr	d4, [x24, x19, lsl #3]
  406308:	d37df277 	lsl	x23, x19, #3
  40630c:	fc737ac5 	ldr	d5, [x22, x19, lsl #3]
  406310:	fc737b20 	ldr	d0, [x25, x19, lsl #3]
  406314:	1e612090 	fcmpe	d4, d1
  406318:	540003ec 	b.gt	406394 <_ZL18CalcEnergyForElemsPdS_S_S_S_S_S_S_S_S_S_S_S_dddddS_S_ddiPi._omp_fn.3+0x140>
  40631c:	b8b37820 	ldrsw	x0, [x1, x19, lsl #2]
  406320:	1e6041a1 	fmov	d1, d13
  406324:	fc7378c6 	ldr	d6, [x6, x19, lsl #3]
  406328:	fc7378a3 	ldr	d3, [x5, x19, lsl #3]
  40632c:	fc607882 	ldr	d2, [x4, x0, lsl #3]
  406330:	1e620842 	fmul	d2, d2, d2
  406334:	1e660842 	fmul	d2, d2, d6
  406338:	1e600842 	fmul	d2, d2, d0
  40633c:	1f450862 	fmadd	d2, d3, d5, d2
  406340:	1e6c1842 	fdiv	d2, d2, d12
  406344:	1e6e2050 	fcmpe	d2, d14
  406348:	54000209 	b.ls	406388 <_ZL18CalcEnergyForElemsPdS_S_S_S_S_S_S_S_S_S_S_S_dddddS_S_ddiPi._omp_fn.3+0x134>  // b.plast
  40634c:	1e602048 	fcmp	d2, #0.0
  406350:	54000685 	b.pl	406420 <_ZL18CalcEnergyForElemsPdS_S_S_S_S_S_S_S_S_S_S_S_dddddS_S_ddiPi._omp_fn.3+0x1cc>  // b.nfrst
  406354:	1e604040 	fmov	d0, d2
  406358:	a90a0be1 	stp	x1, x2, [sp, #160]
  40635c:	a90b13e3 	stp	x3, x4, [sp, #176]
  406360:	a90c1be5 	stp	x5, x6, [sp, #192]
  406364:	97ffec2b 	bl	401410 <sqrt@plt>
  406368:	1e604001 	fmov	d1, d0
  40636c:	a94a0be1 	ldp	x1, x2, [sp, #160]
  406370:	a94b13e3 	ldp	x3, x4, [sp, #176]
  406374:	a94c1be5 	ldp	x5, x6, [sp, #192]
  406378:	fc737ac5 	ldr	d5, [x22, x19, lsl #3]
  40637c:	fc737b20 	ldr	d0, [x25, x19, lsl #3]
  406380:	fc737b04 	ldr	d4, [x24, x19, lsl #3]
  406384:	d503201f 	nop
  406388:	fc737843 	ldr	d3, [x2, x19, lsl #3]
  40638c:	fc737862 	ldr	d2, [x3, x19, lsl #3]
  406390:	1f430821 	fmadd	d1, d1, d3, d2
  406394:	f9403280 	ldr	x0, [x20, #96]
  406398:	1e602821 	fadd	d1, d1, d0
  40639c:	fc737b87 	ldr	d7, [x28, x19, lsl #3]
  4063a0:	1e639006 	fmov	d6, #7.000000000000000000e+00
  4063a4:	fc737b40 	ldr	d0, [x26, x19, lsl #3]
  4063a8:	f9400000 	ldr	x0, [x0]
  4063ac:	fc737b63 	ldr	d3, [x27, x19, lsl #3]
  4063b0:	fc776802 	ldr	d2, [x0, x23]
  4063b4:	1e602863 	fadd	d3, d3, d0
  4063b8:	1e672840 	fadd	d0, d2, d7
  4063bc:	1e6b0800 	fmul	d0, d0, d11
  4063c0:	1f668060 	fnmsub	d0, d3, d6, d0
  4063c4:	1e602820 	fadd	d0, d1, d0
  4063c8:	1e640800 	fmul	d0, d0, d4
  4063cc:	1f499400 	fmsub	d0, d0, d9, d5
  4063d0:	1e60c001 	fabs	d1, d0
  4063d4:	1e612150 	fcmpe	d10, d1
  4063d8:	540002cc 	b.gt	406430 <_ZL18CalcEnergyForElemsPdS_S_S_S_S_S_S_S_S_S_S_S_dddddS_S_ddiPi._omp_fn.3+0x1dc>
  4063dc:	1e602110 	fcmpe	d8, d0
  4063e0:	5400024c 	b.gt	406428 <_ZL18CalcEnergyForElemsPdS_S_S_S_S_S_S_S_S_S_S_S_dddddS_S_ddiPi._omp_fn.3+0x1d4>
  4063e4:	fc337ac0 	str	d0, [x22, x19, lsl #3]
  4063e8:	91000673 	add	x19, x19, #0x1
  4063ec:	6b1302bf 	cmp	w21, w19
  4063f0:	54fff88c 	b.gt	406300 <_ZL18CalcEnergyForElemsPdS_S_S_S_S_S_S_S_S_S_S_S_dddddS_S_ddiPi._omp_fn.3+0xac>
  4063f4:	a94363f7 	ldp	x23, x24, [sp, #48]
  4063f8:	a9446bf9 	ldp	x25, x26, [sp, #64]
  4063fc:	a94573fb 	ldp	x27, x28, [sp, #80]
  406400:	6d4627e8 	ldp	d8, d9, [sp, #96]
  406404:	6d472fea 	ldp	d10, d11, [sp, #112]
  406408:	6d4837ec 	ldp	d12, d13, [sp, #128]
  40640c:	fd404bee 	ldr	d14, [sp, #144]
  406410:	a94153f3 	ldp	x19, x20, [sp, #16]
  406414:	a9425bf5 	ldp	x21, x22, [sp, #32]
  406418:	a8cd7bfd 	ldp	x29, x30, [sp], #208
  40641c:	d65f03c0 	ret
  406420:	1e61c041 	fsqrt	d1, d2
  406424:	17ffffd9 	b	406388 <_ZL18CalcEnergyForElemsPdS_S_S_S_S_S_S_S_S_S_S_S_dddddS_S_ddiPi._omp_fn.3+0x134>
  406428:	1e604100 	fmov	d0, d8
  40642c:	17ffffee 	b	4063e4 <_ZL18CalcEnergyForElemsPdS_S_S_S_S_S_S_S_S_S_S_S_dddddS_S_ddiPi._omp_fn.3+0x190>
  406430:	2f00e400 	movi	d0, #0x0
  406434:	17ffffea 	b	4063dc <_ZL18CalcEnergyForElemsPdS_S_S_S_S_S_S_S_S_S_S_S_dddddS_S_ddiPi._omp_fn.3+0x188>
  406438:	110006b5 	add	w21, w21, #0x1
  40643c:	52800000 	mov	w0, #0x0                   	// #0
  406440:	17ffff93 	b	40628c <_ZL18CalcEnergyForElemsPdS_S_S_S_S_S_S_S_S_S_S_S_dddddS_S_ddiPi._omp_fn.3+0x38>

0000000000406444 <_ZL18CalcEnergyForElemsPdS_S_S_S_S_S_S_S_S_S_S_S_dddddS_S_ddiPi._omp_fn.4>:
  406444:	a9b57bfd 	stp	x29, x30, [sp, #-176]!
  406448:	910003fd 	mov	x29, sp
  40644c:	a9025bf5 	stp	x21, x22, [sp, #32]
  406450:	aa0003f5 	mov	x21, x0
  406454:	a90153f3 	stp	x19, x20, [sp, #16]
  406458:	97ffebe2 	bl	4013e0 <omp_get_num_threads@plt>
  40645c:	2a0003f6 	mov	w22, w0
  406460:	97ffebc0 	bl	401360 <omp_get_thread_num@plt>
  406464:	2a0003f3 	mov	w19, w0
  406468:	b94062a0 	ldr	w0, [x21, #96]
  40646c:	1ad60c14 	sdiv	w20, w0, w22
  406470:	1b168280 	msub	w0, w20, w22, w0
  406474:	6b00027f 	cmp	w19, w0
  406478:	540009eb 	b.lt	4065b4 <_ZL18CalcEnergyForElemsPdS_S_S_S_S_S_S_S_S_S_S_S_dddddS_S_ddiPi._omp_fn.4+0x170>  // b.tstop
  40647c:	1b130293 	madd	w19, w20, w19, w0
  406480:	0b130294 	add	w20, w20, w19
  406484:	6b14027f 	cmp	w19, w20
  406488:	5400042a 	b.ge	40650c <_ZL18CalcEnergyForElemsPdS_S_S_S_S_S_S_S_S_S_S_S_dddddS_S_ddiPi._omp_fn.4+0xc8>  // b.tcont
  40648c:	b0000060 	adrp	x0, 413000 <_ZN6DomainC1Eiiiiiiiii+0x1200>
  406490:	6d072fea 	stp	d10, d11, [sp, #112]
  406494:	93407e73 	sxtw	x19, w19
  406498:	fd47bc0b 	ldr	d11, [x0, #3960]
  40649c:	b0000060 	adrp	x0, 413000 <_ZN6DomainC1Eiiiiiiiii+0x1200>
  4064a0:	a90363f7 	stp	x23, x24, [sp, #48]
  4064a4:	a9046bf9 	stp	x25, x26, [sp, #64]
  4064a8:	a90573fb 	stp	x27, x28, [sp, #80]
  4064ac:	6d0627e8 	stp	d8, d9, [sp, #96]
  4064b0:	fd47c008 	ldr	d8, [x0, #3968]
  4064b4:	a9400aa3 	ldp	x3, x2, [x21]
  4064b8:	a94172a1 	ldp	x1, x28, [x21, #16]
  4064bc:	a9426abb 	ldp	x27, x26, [x21, #32]
  4064c0:	a94366b6 	ldp	x22, x25, [x21, #48]
  4064c4:	a9445eb8 	ldp	x24, x23, [x21, #64]
  4064c8:	6d4526aa 	ldp	d10, d9, [x21, #80]
  4064cc:	fd0043ec 	str	d12, [sp, #128]
  4064d0:	2f00e40c 	movi	d12, #0x0
  4064d4:	d503201f 	nop
  4064d8:	fc737ac1 	ldr	d1, [x22, x19, lsl #3]
  4064dc:	1e604102 	fmov	d2, d8
  4064e0:	1e602038 	fcmpe	d1, #0.0
  4064e4:	540001c9 	b.ls	40651c <_ZL18CalcEnergyForElemsPdS_S_S_S_S_S_S_S_S_S_S_S_dddddS_S_ddiPi._omp_fn.4+0xd8>  // b.plast
  4064e8:	91000673 	add	x19, x19, #0x1
  4064ec:	6b13029f 	cmp	w20, w19
  4064f0:	54ffff4c 	b.gt	4064d8 <_ZL18CalcEnergyForElemsPdS_S_S_S_S_S_S_S_S_S_S_S_dddddS_S_ddiPi._omp_fn.4+0x94>
  4064f4:	a94363f7 	ldp	x23, x24, [sp, #48]
  4064f8:	a9446bf9 	ldp	x25, x26, [sp, #64]
  4064fc:	a94573fb 	ldp	x27, x28, [sp, #80]
  406500:	6d4627e8 	ldp	d8, d9, [sp, #96]
  406504:	6d472fea 	ldp	d10, d11, [sp, #112]
  406508:	fd4043ec 	ldr	d12, [sp, #128]
  40650c:	a94153f3 	ldp	x19, x20, [sp, #16]
  406510:	a9425bf5 	ldp	x21, x22, [sp, #32]
  406514:	a8cb7bfd 	ldp	x29, x30, [sp], #176
  406518:	d65f03c0 	ret
  40651c:	b8b37ae0 	ldrsw	x0, [x23, x19, lsl #2]
  406520:	fc737b85 	ldr	d5, [x28, x19, lsl #3]
  406524:	fc737864 	ldr	d4, [x3, x19, lsl #3]
  406528:	fc737b63 	ldr	d3, [x27, x19, lsl #3]
  40652c:	fc607b40 	ldr	d0, [x26, x0, lsl #3]
  406530:	fc737841 	ldr	d1, [x2, x19, lsl #3]
  406534:	1e600800 	fmul	d0, d0, d0
  406538:	1e650800 	fmul	d0, d0, d5
  40653c:	1e640800 	fmul	d0, d0, d4
  406540:	1f410060 	fmadd	d0, d3, d1, d0
  406544:	1e691800 	fdiv	d0, d0, d9
  406548:	1e6b2010 	fcmpe	d0, d11
  40654c:	54000129 	b.ls	406570 <_ZL18CalcEnergyForElemsPdS_S_S_S_S_S_S_S_S_S_S_S_dddddS_S_ddiPi._omp_fn.4+0x12c>  // b.plast
  406550:	1e602008 	fcmp	d0, #0.0
  406554:	540001e5 	b.pl	406590 <_ZL18CalcEnergyForElemsPdS_S_S_S_S_S_S_S_S_S_S_S_dddddS_S_ddiPi._omp_fn.4+0x14c>  // b.nfrst
  406558:	a9098be1 	stp	x1, x2, [sp, #152]
  40655c:	f90057e3 	str	x3, [sp, #168]
  406560:	97ffebac 	bl	401410 <sqrt@plt>
  406564:	a9498be1 	ldp	x1, x2, [sp, #152]
  406568:	1e604002 	fmov	d2, d0
  40656c:	f94057e3 	ldr	x3, [sp, #168]
  406570:	fc737b01 	ldr	d1, [x24, x19, lsl #3]
  406574:	fc737b20 	ldr	d0, [x25, x19, lsl #3]
  406578:	1f410040 	fmadd	d0, d2, d1, d0
  40657c:	1e60c001 	fabs	d1, d0
  406580:	1e612150 	fcmpe	d10, d1
  406584:	1e60cd80 	fcsel	d0, d12, d0, gt
  406588:	fc337820 	str	d0, [x1, x19, lsl #3]
  40658c:	17ffffd7 	b	4064e8 <_ZL18CalcEnergyForElemsPdS_S_S_S_S_S_S_S_S_S_S_S_dddddS_S_ddiPi._omp_fn.4+0xa4>
  406590:	1e61c002 	fsqrt	d2, d0
  406594:	fc737b01 	ldr	d1, [x24, x19, lsl #3]
  406598:	fc737b20 	ldr	d0, [x25, x19, lsl #3]
  40659c:	1f410040 	fmadd	d0, d2, d1, d0
  4065a0:	1e60c001 	fabs	d1, d0
  4065a4:	1e612150 	fcmpe	d10, d1
  4065a8:	1e60cd80 	fcsel	d0, d12, d0, gt
  4065ac:	fc337820 	str	d0, [x1, x19, lsl #3]
  4065b0:	17ffffce 	b	4064e8 <_ZL18CalcEnergyForElemsPdS_S_S_S_S_S_S_S_S_S_S_S_dddddS_S_ddiPi._omp_fn.4+0xa4>
  4065b4:	11000694 	add	w20, w20, #0x1
  4065b8:	52800000 	mov	w0, #0x0                   	// #0
  4065bc:	17ffffb0 	b	40647c <_ZL18CalcEnergyForElemsPdS_S_S_S_S_S_S_S_S_S_S_S_dddddS_S_ddiPi._omp_fn.4+0x38>

00000000004065c0 <_ZL20CalcPressureForElemsPdS_S_S_S_S_dddiPi._omp_fn.0>:
  4065c0:	a9be7bfd 	stp	x29, x30, [sp, #-32]!
  4065c4:	910003fd 	mov	x29, sp
  4065c8:	a90153f3 	stp	x19, x20, [sp, #16]
  4065cc:	aa0003f4 	mov	x20, x0
  4065d0:	97ffeb84 	bl	4013e0 <omp_get_num_threads@plt>
  4065d4:	2a0003f3 	mov	w19, w0
  4065d8:	97ffeb62 	bl	401360 <omp_get_thread_num@plt>
  4065dc:	b9401a82 	ldr	w2, [x20, #24]
  4065e0:	2a0003e1 	mov	w1, w0
  4065e4:	1ad30c43 	sdiv	w3, w2, w19
  4065e8:	1b138862 	msub	w2, w3, w19, w2
  4065ec:	6b02001f 	cmp	w0, w2
  4065f0:	5400072b 	b.lt	4066d4 <_ZL20CalcPressureForElemsPdS_S_S_S_S_dddiPi._omp_fn.0+0x114>  // b.tstop
  4065f4:	1b010861 	madd	w1, w3, w1, w2
  4065f8:	0b01006a 	add	w10, w3, w1
  4065fc:	6b0a003f 	cmp	w1, w10
  406600:	5400064a 	b.ge	4066c8 <_ZL20CalcPressureForElemsPdS_S_S_S_S_dddiPi._omp_fn.0+0x108>  // b.tcont
  406604:	a9401e82 	ldp	x2, x7, [x20]
  406608:	93407c20 	sxtw	x0, w1
  40660c:	91000406 	add	x6, x0, #0x1
  406610:	937d7c25 	sbfiz	x5, x1, #3, #32
  406614:	f9400a84 	ldr	x4, [x20, #16]
  406618:	d37df0c9 	lsl	x9, x6, #3
  40661c:	5100046b 	sub	w11, w3, #0x1
  406620:	8b09008c 	add	x12, x4, x9
  406624:	7100157f 	cmp	w11, #0x5
  406628:	8b0500e8 	add	x8, x7, x5
  40662c:	8b09004b 	add	x11, x2, x9
  406630:	fa488184 	ccmp	x12, x8, #0x4, hi  // hi = pmore
  406634:	8b050049 	add	x9, x2, x5
  406638:	1a9f07ed 	cset	w13, ne  // ne = any
  40663c:	eb08017f 	cmp	x11, x8
  406640:	fa4c1124 	ccmp	x9, x12, #0x4, ne  // ne = any
  406644:	1a9f07eb 	cset	w11, ne  // ne = any
  406648:	6a0b01bf 	tst	w13, w11
  40664c:	540004a0 	b.eq	4066e0 <_ZL20CalcPressureForElemsPdS_S_S_S_S_dddiPi._omp_fn.0+0x120>  // b.none
  406650:	b000006a 	adrp	x10, 413000 <_ZN6DomainC1Eiiiiiiiii+0x1200>
  406654:	53017c66 	lsr	w6, w3, #1
  406658:	6f03f602 	fmov	v2.2d, #1.000000000000000000e+00
  40665c:	8b050085 	add	x5, x4, x5
  406660:	3dc3ed41 	ldr	q1, [x10, #4016]
  406664:	d37cecc6 	lsl	x6, x6, #4
  406668:	d2800000 	mov	x0, #0x0                   	// #0
  40666c:	d503201f 	nop
  406670:	3ce068a0 	ldr	q0, [x5, x0]
  406674:	4e62d400 	fadd	v0.2d, v0.2d, v2.2d
  406678:	6e61dc00 	fmul	v0.2d, v0.2d, v1.2d
  40667c:	3ca06920 	str	q0, [x9, x0]
  406680:	3ca06901 	str	q1, [x8, x0]
  406684:	91004000 	add	x0, x0, #0x10
  406688:	eb06001f 	cmp	x0, x6
  40668c:	54ffff21 	b.ne	406670 <_ZL20CalcPressureForElemsPdS_S_S_S_S_dddiPi._omp_fn.0+0xb0>  // b.any
  406690:	121f7865 	and	w5, w3, #0xfffffffe
  406694:	0b0100a0 	add	w0, w5, w1
  406698:	6b05007f 	cmp	w3, w5
  40669c:	54000160 	b.eq	4066c8 <_ZL20CalcPressureForElemsPdS_S_S_S_S_dddiPi._omp_fn.0+0x108>  // b.none
  4066a0:	93407c00 	sxtw	x0, w0
  4066a4:	1e6e1002 	fmov	d2, #1.000000000000000000e+00
  4066a8:	b200f3e1 	mov	x1, #0x5555555555555555    	// #6148914691236517205
  4066ac:	f2e7fca1 	movk	x1, #0x3fe5, lsl #48
  4066b0:	9e670021 	fmov	d1, x1
  4066b4:	fc607880 	ldr	d0, [x4, x0, lsl #3]
  4066b8:	1e622800 	fadd	d0, d0, d2
  4066bc:	1e610800 	fmul	d0, d0, d1
  4066c0:	fc207840 	str	d0, [x2, x0, lsl #3]
  4066c4:	f82078e1 	str	x1, [x7, x0, lsl #3]
  4066c8:	a94153f3 	ldp	x19, x20, [sp, #16]
  4066cc:	a8c27bfd 	ldp	x29, x30, [sp], #32
  4066d0:	d65f03c0 	ret
  4066d4:	11000463 	add	w3, w3, #0x1
  4066d8:	52800002 	mov	w2, #0x0                   	// #0
  4066dc:	17ffffc6 	b	4065f4 <_ZL20CalcPressureForElemsPdS_S_S_S_S_dddiPi._omp_fn.0+0x34>
  4066e0:	b200f3e1 	mov	x1, #0x5555555555555555    	// #6148914691236517205
  4066e4:	1e6e1002 	fmov	d2, #1.000000000000000000e+00
  4066e8:	f2e7fca1 	movk	x1, #0x3fe5, lsl #48
  4066ec:	9e670021 	fmov	d1, x1
  4066f0:	14000002 	b	4066f8 <_ZL20CalcPressureForElemsPdS_S_S_S_S_dddiPi._omp_fn.0+0x138>
  4066f4:	910004c6 	add	x6, x6, #0x1
  4066f8:	fc607880 	ldr	d0, [x4, x0, lsl #3]
  4066fc:	1e622800 	fadd	d0, d0, d2
  406700:	1e610800 	fmul	d0, d0, d1
  406704:	fc207840 	str	d0, [x2, x0, lsl #3]
  406708:	fc2078e1 	str	d1, [x7, x0, lsl #3]
