
statemate.elf:     file format elf64-littleriscv


Disassembly of section .plt:

0000000000002560 <.plt>:
    2560:	00005397          	auipc	t2,0x5
    2564:	41c30333          	sub	t1,t1,t3
    2568:	aa83be03          	ld	t3,-1368(t2) # 7008 <__TMC_END__>
    256c:	fd430313          	addi	t1,t1,-44
    2570:	aa838293          	addi	t0,t2,-1368
    2574:	00135313          	srli	t1,t1,0x1
    2578:	0082b283          	ld	t0,8(t0)
    257c:	000e0067          	jr	t3

0000000000002580 <__libc_start_main@plt>:
    2580:	00005e17          	auipc	t3,0x5
    2584:	a98e3e03          	ld	t3,-1384(t3) # 7018 <__libc_start_main@GLIBC_2.27>
    2588:	000e0367          	jalr	t1,t3
    258c:	00000013          	nop

Disassembly of section .text:

0000000000002590 <_start>:
    2590:	02e000ef          	jal	ra,25be <load_gp>
    2594:	87aa                	mv	a5,a0
    2596:	00005517          	auipc	a0,0x5
    259a:	cca53503          	ld	a0,-822(a0) # 7260 <_GLOBAL_OFFSET_TABLE_+0x240>
    259e:	6582                	ld	a1,0(sp)
    25a0:	0030                	addi	a2,sp,8
    25a2:	ff017113          	andi	sp,sp,-16
    25a6:	00003697          	auipc	a3,0x3
    25aa:	dfe68693          	addi	a3,a3,-514 # 53a4 <__libc_csu_init>
    25ae:	00003717          	auipc	a4,0x3
    25b2:	e4e70713          	addi	a4,a4,-434 # 53fc <__libc_csu_fini>
    25b6:	880a                	mv	a6,sp
    25b8:	fc9ff0ef          	jal	ra,2580 <__libc_start_main@plt>
    25bc:	9002                	ebreak

00000000000025be <load_gp>:
    25be:	00005197          	auipc	gp,0x5
    25c2:	24218193          	addi	gp,gp,578 # 7800 <__global_pointer$>
    25c6:	8082                	ret
	...

00000000000025ca <deregister_tm_clones>:
    25ca:	00005517          	auipc	a0,0x5
    25ce:	a3e50513          	addi	a0,a0,-1474 # 7008 <__TMC_END__>
    25d2:	00005797          	auipc	a5,0x5
    25d6:	a3678793          	addi	a5,a5,-1482 # 7008 <__TMC_END__>
    25da:	00a78963          	beq	a5,a0,25ec <deregister_tm_clones+0x22>
    25de:	00005317          	auipc	t1,0x5
    25e2:	a7a33303          	ld	t1,-1414(t1) # 7058 <_ITM_deregisterTMCloneTable>
    25e6:	00030363          	beqz	t1,25ec <deregister_tm_clones+0x22>
    25ea:	8302                	jr	t1
    25ec:	8082                	ret

00000000000025ee <register_tm_clones>:
    25ee:	00005517          	auipc	a0,0x5
    25f2:	a1a50513          	addi	a0,a0,-1510 # 7008 <__TMC_END__>
    25f6:	00005797          	auipc	a5,0x5
    25fa:	a1278793          	addi	a5,a5,-1518 # 7008 <__TMC_END__>
    25fe:	8f89                	sub	a5,a5,a0
    2600:	4037d713          	srai	a4,a5,0x3
    2604:	03f7d593          	srli	a1,a5,0x3f
    2608:	95ba                	add	a1,a1,a4
    260a:	8585                	srai	a1,a1,0x1
    260c:	c981                	beqz	a1,261c <register_tm_clones+0x2e>
    260e:	00005317          	auipc	t1,0x5
    2612:	cea33303          	ld	t1,-790(t1) # 72f8 <_ITM_registerTMCloneTable>
    2616:	00030363          	beqz	t1,261c <register_tm_clones+0x2e>
    261a:	8302                	jr	t1
    261c:	8082                	ret

000000000000261e <__do_global_dtors_aux>:
    261e:	1141                	addi	sp,sp,-16
    2620:	e022                	sd	s0,0(sp)
    2622:	00005417          	auipc	s0,0x5
    2626:	d3640413          	addi	s0,s0,-714 # 7358 <completed.6761>
    262a:	00044783          	lbu	a5,0(s0)
    262e:	e406                	sd	ra,8(sp)
    2630:	e385                	bnez	a5,2650 <__do_global_dtors_aux+0x32>
    2632:	00005797          	auipc	a5,0x5
    2636:	c967b783          	ld	a5,-874(a5) # 72c8 <__cxa_finalize@GLIBC_2.27>
    263a:	c791                	beqz	a5,2646 <__do_global_dtors_aux+0x28>
    263c:	00005517          	auipc	a0,0x5
    2640:	9c453503          	ld	a0,-1596(a0) # 7000 <__dso_handle>
    2644:	9782                	jalr	a5
    2646:	f85ff0ef          	jal	ra,25ca <deregister_tm_clones>
    264a:	4785                	li	a5,1
    264c:	00f40023          	sb	a5,0(s0)
    2650:	60a2                	ld	ra,8(sp)
    2652:	6402                	ld	s0,0(sp)
    2654:	0141                	addi	sp,sp,16
    2656:	8082                	ret

0000000000002658 <frame_dummy>:
    2658:	bf59                	j	25ee <register_tm_clones>
	...

000000000000265c <interface>:
    265c:	ff010113          	addi	sp,sp,-16
    2660:	00813423          	sd	s0,8(sp)
    2664:	01010413          	addi	s0,sp,16
    2668:	00005797          	auipc	a5,0x5
    266c:	cf878793          	addi	a5,a5,-776 # 7360 <Bitlist>
    2670:	0047c783          	lbu	a5,4(a5)
    2674:	00078e63          	beqz	a5,2690 <interface+0x34>
    2678:	00005797          	auipc	a5,0x5
    267c:	c187b783          	ld	a5,-1000(a5) # 7290 <_GLOBAL_OFFSET_TABLE_+0x270>
    2680:	0007b703          	ld	a4,0(a5)
    2684:	00005797          	auipc	a5,0x5
    2688:	ad47b783          	ld	a5,-1324(a5) # 7158 <_GLOBAL_OFFSET_TABLE_+0x138>
    268c:	00e7b023          	sd	a4,0(a5)
    2690:	00005797          	auipc	a5,0x5
    2694:	cd078793          	addi	a5,a5,-816 # 7360 <Bitlist>
    2698:	0047c783          	lbu	a5,4(a5)
    269c:	00079a63          	bnez	a5,26b0 <interface+0x54>
    26a0:	00005797          	auipc	a5,0x5
    26a4:	cc078793          	addi	a5,a5,-832 # 7360 <Bitlist>
    26a8:	0067c783          	lbu	a5,6(a5)
    26ac:	00078e63          	beqz	a5,26c8 <interface+0x6c>
    26b0:	00005797          	auipc	a5,0x5
    26b4:	be07b783          	ld	a5,-1056(a5) # 7290 <_GLOBAL_OFFSET_TABLE_+0x270>
    26b8:	0007b703          	ld	a4,0(a5)
    26bc:	00005797          	auipc	a5,0x5
    26c0:	a447b783          	ld	a5,-1468(a5) # 7100 <_GLOBAL_OFFSET_TABLE_+0xe0>
    26c4:	00e7b023          	sd	a4,0(a5)
    26c8:	00005797          	auipc	a5,0x5
    26cc:	9c87b783          	ld	a5,-1592(a5) # 7090 <_GLOBAL_OFFSET_TABLE_+0x70>
    26d0:	0007b783          	ld	a5,0(a5)
    26d4:	04078863          	beqz	a5,2724 <interface+0xc8>
    26d8:	00005797          	auipc	a5,0x5
    26dc:	bb87b783          	ld	a5,-1096(a5) # 7290 <_GLOBAL_OFFSET_TABLE_+0x270>
    26e0:	0007b703          	ld	a4,0(a5)
    26e4:	00005797          	auipc	a5,0x5
    26e8:	9ac7b783          	ld	a5,-1620(a5) # 7090 <_GLOBAL_OFFSET_TABLE_+0x70>
    26ec:	0007b783          	ld	a5,0(a5)
    26f0:	40f707b3          	sub	a5,a4,a5
    26f4:	d237f753          	fcvt.d.lu	fa4,a5
    26f8:	00003797          	auipc	a5,0x3
    26fc:	d0878793          	addi	a5,a5,-760 # 5400 <__libc_csu_fini+0x4>
    2700:	0007b787          	fld	fa5,0(a5)
    2704:	a2e787d3          	fle.d	a5,fa5,fa4
    2708:	00078e63          	beqz	a5,2724 <interface+0xc8>
    270c:	00005797          	auipc	a5,0x5
    2710:	a1c7b783          	ld	a5,-1508(a5) # 7128 <_GLOBAL_OFFSET_TABLE_+0x108>
    2714:	00078023          	sb	zero,0(a5)
    2718:	00005797          	auipc	a5,0x5
    271c:	9787b783          	ld	a5,-1672(a5) # 7090 <_GLOBAL_OFFSET_TABLE_+0x70>
    2720:	0007b023          	sd	zero,0(a5)
    2724:	00005797          	auipc	a5,0x5
    2728:	9547b783          	ld	a5,-1708(a5) # 7078 <_GLOBAL_OFFSET_TABLE_+0x58>
    272c:	0007b783          	ld	a5,0(a5)
    2730:	04078863          	beqz	a5,2780 <interface+0x124>
    2734:	00005797          	auipc	a5,0x5
    2738:	b5c7b783          	ld	a5,-1188(a5) # 7290 <_GLOBAL_OFFSET_TABLE_+0x270>
    273c:	0007b703          	ld	a4,0(a5)
    2740:	00005797          	auipc	a5,0x5
    2744:	9387b783          	ld	a5,-1736(a5) # 7078 <_GLOBAL_OFFSET_TABLE_+0x58>
    2748:	0007b783          	ld	a5,0(a5)
    274c:	40f707b3          	sub	a5,a4,a5
    2750:	d237f753          	fcvt.d.lu	fa4,a5
    2754:	00003797          	auipc	a5,0x3
    2758:	cac78793          	addi	a5,a5,-852 # 5400 <__libc_csu_fini+0x4>
    275c:	0007b787          	fld	fa5,0(a5)
    2760:	a2e787d3          	fle.d	a5,fa5,fa4
    2764:	00078e63          	beqz	a5,2780 <interface+0x124>
    2768:	00005797          	auipc	a5,0x5
    276c:	b887b783          	ld	a5,-1144(a5) # 72f0 <_GLOBAL_OFFSET_TABLE_+0x2d0>
    2770:	00078023          	sb	zero,0(a5)
    2774:	00005797          	auipc	a5,0x5
    2778:	9047b783          	ld	a5,-1788(a5) # 7078 <_GLOBAL_OFFSET_TABLE_+0x58>
    277c:	0007b023          	sd	zero,0(a5)
    2780:	00005797          	auipc	a5,0x5
    2784:	ab87b783          	ld	a5,-1352(a5) # 7238 <_GLOBAL_OFFSET_TABLE_+0x218>
    2788:	0007b783          	ld	a5,0(a5)
    278c:	04078863          	beqz	a5,27dc <interface+0x180>
    2790:	00005797          	auipc	a5,0x5
    2794:	b007b783          	ld	a5,-1280(a5) # 7290 <_GLOBAL_OFFSET_TABLE_+0x270>
    2798:	0007b703          	ld	a4,0(a5)
    279c:	00005797          	auipc	a5,0x5
    27a0:	a9c7b783          	ld	a5,-1380(a5) # 7238 <_GLOBAL_OFFSET_TABLE_+0x218>
    27a4:	0007b783          	ld	a5,0(a5)
    27a8:	40f707b3          	sub	a5,a4,a5
    27ac:	d237f753          	fcvt.d.lu	fa4,a5
    27b0:	00003797          	auipc	a5,0x3
    27b4:	c5078793          	addi	a5,a5,-944 # 5400 <__libc_csu_fini+0x4>
    27b8:	0007b787          	fld	fa5,0(a5)
    27bc:	a2e787d3          	fle.d	a5,fa5,fa4
    27c0:	00078e63          	beqz	a5,27dc <interface+0x180>
    27c4:	00005797          	auipc	a5,0x5
    27c8:	b2c7b783          	ld	a5,-1236(a5) # 72f0 <_GLOBAL_OFFSET_TABLE_+0x2d0>
    27cc:	00078023          	sb	zero,0(a5)
    27d0:	00005797          	auipc	a5,0x5
    27d4:	a687b783          	ld	a5,-1432(a5) # 7238 <_GLOBAL_OFFSET_TABLE_+0x218>
    27d8:	0007b023          	sd	zero,0(a5)
    27dc:	00005797          	auipc	a5,0x5
    27e0:	9a47b783          	ld	a5,-1628(a5) # 7180 <_GLOBAL_OFFSET_TABLE_+0x160>
    27e4:	0007b783          	ld	a5,0(a5)
    27e8:	04078263          	beqz	a5,282c <interface+0x1d0>
    27ec:	00005797          	auipc	a5,0x5
    27f0:	aa47b783          	ld	a5,-1372(a5) # 7290 <_GLOBAL_OFFSET_TABLE_+0x270>
    27f4:	0007b703          	ld	a4,0(a5)
    27f8:	00005797          	auipc	a5,0x5
    27fc:	9887b783          	ld	a5,-1656(a5) # 7180 <_GLOBAL_OFFSET_TABLE_+0x160>
    2800:	0007b783          	ld	a5,0(a5)
    2804:	40f707b3          	sub	a5,a4,a5
    2808:	d237f753          	fcvt.d.lu	fa4,a5
    280c:	00003797          	auipc	a5,0x3
    2810:	bf478793          	addi	a5,a5,-1036 # 5400 <__libc_csu_fini+0x4>
    2814:	0007b787          	fld	fa5,0(a5)
    2818:	a2e787d3          	fle.d	a5,fa5,fa4
    281c:	00078863          	beqz	a5,282c <interface+0x1d0>
    2820:	00005797          	auipc	a5,0x5
    2824:	9607b783          	ld	a5,-1696(a5) # 7180 <_GLOBAL_OFFSET_TABLE_+0x160>
    2828:	0007b023          	sd	zero,0(a5)
    282c:	00005797          	auipc	a5,0x5
    2830:	aa47b783          	ld	a5,-1372(a5) # 72d0 <_GLOBAL_OFFSET_TABLE_+0x2b0>
    2834:	0007b783          	ld	a5,0(a5)
    2838:	04078263          	beqz	a5,287c <interface+0x220>
    283c:	00005797          	auipc	a5,0x5
    2840:	a547b783          	ld	a5,-1452(a5) # 7290 <_GLOBAL_OFFSET_TABLE_+0x270>
    2844:	0007b703          	ld	a4,0(a5)
    2848:	00005797          	auipc	a5,0x5
    284c:	a887b783          	ld	a5,-1400(a5) # 72d0 <_GLOBAL_OFFSET_TABLE_+0x2b0>
    2850:	0007b783          	ld	a5,0(a5)
    2854:	40f707b3          	sub	a5,a4,a5
    2858:	d237f753          	fcvt.d.lu	fa4,a5
    285c:	00003797          	auipc	a5,0x3
    2860:	ba478793          	addi	a5,a5,-1116 # 5400 <__libc_csu_fini+0x4>
    2864:	0007b787          	fld	fa5,0(a5)
    2868:	a2e787d3          	fle.d	a5,fa5,fa4
    286c:	00078863          	beqz	a5,287c <interface+0x220>
    2870:	00005797          	auipc	a5,0x5
    2874:	a607b783          	ld	a5,-1440(a5) # 72d0 <_GLOBAL_OFFSET_TABLE_+0x2b0>
    2878:	0007b023          	sd	zero,0(a5)
    287c:	00005797          	auipc	a5,0x5
    2880:	ae478793          	addi	a5,a5,-1308 # 7360 <Bitlist>
    2884:	0007c783          	lbu	a5,0(a5)
    2888:	02079063          	bnez	a5,28a8 <interface+0x24c>
    288c:	00005797          	auipc	a5,0x5
    2890:	85c7b783          	ld	a5,-1956(a5) # 70e8 <_GLOBAL_OFFSET_TABLE_+0xc8>
    2894:	0007a703          	lw	a4,0(a5)
    2898:	00005797          	auipc	a5,0x5
    289c:	8707b783          	ld	a5,-1936(a5) # 7108 <_GLOBAL_OFFSET_TABLE_+0xe8>
    28a0:	0007a783          	lw	a5,0(a5)
    28a4:	00f70e63          	beq	a4,a5,28c0 <interface+0x264>
    28a8:	00005797          	auipc	a5,0x5
    28ac:	9e87b783          	ld	a5,-1560(a5) # 7290 <_GLOBAL_OFFSET_TABLE_+0x270>
    28b0:	0007b703          	ld	a4,0(a5)
    28b4:	00004797          	auipc	a5,0x4
    28b8:	7bc7b783          	ld	a5,1980(a5) # 7070 <_GLOBAL_OFFSET_TABLE_+0x50>
    28bc:	00e7b023          	sd	a4,0(a5)
    28c0:	00000013          	nop
    28c4:	00813403          	ld	s0,8(sp)
    28c8:	01010113          	addi	sp,sp,16
    28cc:	00008067          	ret

00000000000028d0 <init>:
    28d0:	ff010113          	addi	sp,sp,-16
    28d4:	00813423          	sd	s0,8(sp)
    28d8:	01010413          	addi	s0,sp,16
    28dc:	00004797          	auipc	a5,0x4
    28e0:	7947b783          	ld	a5,1940(a5) # 7070 <_GLOBAL_OFFSET_TABLE_+0x50>
    28e4:	0007b023          	sd	zero,0(a5)
    28e8:	00005797          	auipc	a5,0x5
    28ec:	8187b783          	ld	a5,-2024(a5) # 7100 <_GLOBAL_OFFSET_TABLE_+0xe0>
    28f0:	0007b023          	sd	zero,0(a5)
    28f4:	00005797          	auipc	a5,0x5
    28f8:	8647b783          	ld	a5,-1948(a5) # 7158 <_GLOBAL_OFFSET_TABLE_+0x138>
    28fc:	0007b023          	sd	zero,0(a5)
    2900:	00005797          	auipc	a5,0x5
    2904:	9307b783          	ld	a5,-1744(a5) # 7230 <_GLOBAL_OFFSET_TABLE_+0x210>
    2908:	00078023          	sb	zero,0(a5)
    290c:	00004797          	auipc	a5,0x4
    2910:	79c7b783          	ld	a5,1948(a5) # 70a8 <_GLOBAL_OFFSET_TABLE_+0x88>
    2914:	00078023          	sb	zero,0(a5)
    2918:	00004797          	auipc	a5,0x4
    291c:	7387b783          	ld	a5,1848(a5) # 7050 <_GLOBAL_OFFSET_TABLE_+0x30>
    2920:	00078023          	sb	zero,0(a5)
    2924:	00004797          	auipc	a5,0x4
    2928:	7f47b783          	ld	a5,2036(a5) # 7118 <_GLOBAL_OFFSET_TABLE_+0xf8>
    292c:	00078023          	sb	zero,0(a5)
    2930:	00005797          	auipc	a5,0x5
    2934:	9e87b783          	ld	a5,-1560(a5) # 7318 <_GLOBAL_OFFSET_TABLE_+0x2f8>
    2938:	00078023          	sb	zero,0(a5)
    293c:	00005797          	auipc	a5,0x5
    2940:	89c7b783          	ld	a5,-1892(a5) # 71d8 <_GLOBAL_OFFSET_TABLE_+0x1b8>
    2944:	00078023          	sb	zero,0(a5)
    2948:	00004797          	auipc	a5,0x4
    294c:	7687b783          	ld	a5,1896(a5) # 70b0 <_GLOBAL_OFFSET_TABLE_+0x90>
    2950:	00078023          	sb	zero,0(a5)
    2954:	00005797          	auipc	a5,0x5
    2958:	9dc7b783          	ld	a5,-1572(a5) # 7330 <_GLOBAL_OFFSET_TABLE_+0x310>
    295c:	00078023          	sb	zero,0(a5)
    2960:	00005797          	auipc	a5,0x5
    2964:	9387b783          	ld	a5,-1736(a5) # 7298 <_GLOBAL_OFFSET_TABLE_+0x278>
    2968:	00078023          	sb	zero,0(a5)
    296c:	00005797          	auipc	a5,0x5
    2970:	81c7b783          	ld	a5,-2020(a5) # 7188 <_GLOBAL_OFFSET_TABLE_+0x168>
    2974:	00078023          	sb	zero,0(a5)
    2978:	00004797          	auipc	a5,0x4
    297c:	7087b783          	ld	a5,1800(a5) # 7080 <_GLOBAL_OFFSET_TABLE_+0x60>
    2980:	00078023          	sb	zero,0(a5)
    2984:	00005797          	auipc	a5,0x5
    2988:	9647b783          	ld	a5,-1692(a5) # 72e8 <_GLOBAL_OFFSET_TABLE_+0x2c8>
    298c:	00078023          	sb	zero,0(a5)
    2990:	00005797          	auipc	a5,0x5
    2994:	8707b783          	ld	a5,-1936(a5) # 7200 <_GLOBAL_OFFSET_TABLE_+0x1e0>
    2998:	00078023          	sb	zero,0(a5)
    299c:	00005797          	auipc	a5,0x5
    29a0:	8747b783          	ld	a5,-1932(a5) # 7210 <_GLOBAL_OFFSET_TABLE_+0x1f0>
    29a4:	00078023          	sb	zero,0(a5)
    29a8:	00004797          	auipc	a5,0x4
    29ac:	6807b783          	ld	a5,1664(a5) # 7028 <_GLOBAL_OFFSET_TABLE_+0x8>
    29b0:	00078023          	sb	zero,0(a5)
    29b4:	00004797          	auipc	a5,0x4
    29b8:	7c47b783          	ld	a5,1988(a5) # 7178 <_GLOBAL_OFFSET_TABLE_+0x158>
    29bc:	00078023          	sb	zero,0(a5)
    29c0:	00000013          	nop
    29c4:	00813403          	ld	s0,8(sp)
    29c8:	01010113          	addi	sp,sp,16
    29cc:	00008067          	ret

00000000000029d0 <generic_KINDERSICHERUNG_CTRL>:
    29d0:	ff010113          	addi	sp,sp,-16
    29d4:	00813423          	sd	s0,8(sp)
    29d8:	01010413          	addi	s0,sp,16
    29dc:	00005797          	auipc	a5,0x5
    29e0:	98478793          	addi	a5,a5,-1660 # 7360 <Bitlist>
    29e4:	00a7c783          	lbu	a5,10(a5)
    29e8:	64078c63          	beqz	a5,3040 <generic_KINDERSICHERUNG_CTRL+0x670>
    29ec:	00004797          	auipc	a5,0x4
    29f0:	72c7b783          	ld	a5,1836(a5) # 7118 <_GLOBAL_OFFSET_TABLE_+0xf8>
    29f4:	0007c783          	lbu	a5,0(a5)
    29f8:	0007879b          	sext.w	a5,a5
    29fc:	00078693          	mv	a3,a5
    2a00:	00300713          	li	a4,3
    2a04:	3ce68663          	beq	a3,a4,2dd0 <generic_KINDERSICHERUNG_CTRL+0x400>
    2a08:	00078693          	mv	a3,a5
    2a0c:	00300713          	li	a4,3
    2a10:	60d74863          	blt	a4,a3,3020 <generic_KINDERSICHERUNG_CTRL+0x650>
    2a14:	00078693          	mv	a3,a5
    2a18:	00100713          	li	a4,1
    2a1c:	00e68a63          	beq	a3,a4,2a30 <generic_KINDERSICHERUNG_CTRL+0x60>
    2a20:	00078713          	mv	a4,a5
    2a24:	00200793          	li	a5,2
    2a28:	1cf70c63          	beq	a4,a5,2c00 <generic_KINDERSICHERUNG_CTRL+0x230>
    2a2c:	5f40006f          	j	3020 <generic_KINDERSICHERUNG_CTRL+0x650>
    2a30:	00004797          	auipc	a5,0x4
    2a34:	7e87b783          	ld	a5,2024(a5) # 7218 <_GLOBAL_OFFSET_TABLE_+0x1f8>
    2a38:	0007c783          	lbu	a5,0(a5)
    2a3c:	04079c63          	bnez	a5,2a94 <generic_KINDERSICHERUNG_CTRL+0xc4>
    2a40:	00004797          	auipc	a5,0x4
    2a44:	7207b783          	ld	a5,1824(a5) # 7160 <_GLOBAL_OFFSET_TABLE_+0x140>
    2a48:	0007c783          	lbu	a5,0(a5)
    2a4c:	04079463          	bnez	a5,2a94 <generic_KINDERSICHERUNG_CTRL+0xc4>
    2a50:	00004797          	auipc	a5,0x4
    2a54:	7807b783          	ld	a5,1920(a5) # 71d0 <_GLOBAL_OFFSET_TABLE_+0x1b0>
    2a58:	00078023          	sb	zero,0(a5)
    2a5c:	00004797          	auipc	a5,0x4
    2a60:	7647b783          	ld	a5,1892(a5) # 71c0 <_GLOBAL_OFFSET_TABLE_+0x1a0>
    2a64:	00078023          	sb	zero,0(a5)
    2a68:	00004797          	auipc	a5,0x4
    2a6c:	7607b783          	ld	a5,1888(a5) # 71c8 <_GLOBAL_OFFSET_TABLE_+0x1a8>
    2a70:	00078023          	sb	zero,0(a5)
    2a74:	00004797          	auipc	a5,0x4
    2a78:	6a47b783          	ld	a5,1700(a5) # 7118 <_GLOBAL_OFFSET_TABLE_+0xf8>
    2a7c:	00300713          	li	a4,3
    2a80:	00e78023          	sb	a4,0(a5)
    2a84:	00004797          	auipc	a5,0x4
    2a88:	6247b783          	ld	a5,1572(a5) # 70a8 <_GLOBAL_OFFSET_TABLE_+0x88>
    2a8c:	00078023          	sb	zero,0(a5)
    2a90:	5bc0006f          	j	304c <generic_KINDERSICHERUNG_CTRL+0x67c>
    2a94:	00004797          	auipc	a5,0x4
    2a98:	6147b783          	ld	a5,1556(a5) # 70a8 <_GLOBAL_OFFSET_TABLE_+0x88>
    2a9c:	0007c783          	lbu	a5,0(a5)
    2aa0:	0007879b          	sext.w	a5,a5
    2aa4:	00078713          	mv	a4,a5
    2aa8:	00100793          	li	a5,1
    2aac:	12f71e63          	bne	a4,a5,2be8 <generic_KINDERSICHERUNG_CTRL+0x218>
    2ab0:	00004797          	auipc	a5,0x4
    2ab4:	7687b783          	ld	a5,1896(a5) # 7218 <_GLOBAL_OFFSET_TABLE_+0x1f8>
    2ab8:	0007c783          	lbu	a5,0(a5)
    2abc:	04078263          	beqz	a5,2b00 <generic_KINDERSICHERUNG_CTRL+0x130>
    2ac0:	00004797          	auipc	a5,0x4
    2ac4:	6a87b783          	ld	a5,1704(a5) # 7168 <_GLOBAL_OFFSET_TABLE_+0x148>
    2ac8:	0007c783          	lbu	a5,0(a5)
    2acc:	02079a63          	bnez	a5,2b00 <generic_KINDERSICHERUNG_CTRL+0x130>
    2ad0:	00004797          	auipc	a5,0x4
    2ad4:	7007b783          	ld	a5,1792(a5) # 71d0 <_GLOBAL_OFFSET_TABLE_+0x1b0>
    2ad8:	00078023          	sb	zero,0(a5)
    2adc:	00004797          	auipc	a5,0x4
    2ae0:	6ec7b783          	ld	a5,1772(a5) # 71c8 <_GLOBAL_OFFSET_TABLE_+0x1a8>
    2ae4:	00100713          	li	a4,1
    2ae8:	00e78023          	sb	a4,0(a5)
    2aec:	00004797          	auipc	a5,0x4
    2af0:	5bc7b783          	ld	a5,1468(a5) # 70a8 <_GLOBAL_OFFSET_TABLE_+0x88>
    2af4:	00100713          	li	a4,1
    2af8:	00e78023          	sb	a4,0(a5)
    2afc:	1000006f          	j	2bfc <generic_KINDERSICHERUNG_CTRL+0x22c>
    2b00:	00004797          	auipc	a5,0x4
    2b04:	6607b783          	ld	a5,1632(a5) # 7160 <_GLOBAL_OFFSET_TABLE_+0x140>
    2b08:	0007c783          	lbu	a5,0(a5)
    2b0c:	04078263          	beqz	a5,2b50 <generic_KINDERSICHERUNG_CTRL+0x180>
    2b10:	00004797          	auipc	a5,0x4
    2b14:	5787b783          	ld	a5,1400(a5) # 7088 <_GLOBAL_OFFSET_TABLE_+0x68>
    2b18:	0007c783          	lbu	a5,0(a5)
    2b1c:	02079a63          	bnez	a5,2b50 <generic_KINDERSICHERUNG_CTRL+0x180>
    2b20:	00004797          	auipc	a5,0x4
    2b24:	6b07b783          	ld	a5,1712(a5) # 71d0 <_GLOBAL_OFFSET_TABLE_+0x1b0>
    2b28:	00078023          	sb	zero,0(a5)
    2b2c:	00004797          	auipc	a5,0x4
    2b30:	6947b783          	ld	a5,1684(a5) # 71c0 <_GLOBAL_OFFSET_TABLE_+0x1a0>
    2b34:	00100713          	li	a4,1
    2b38:	00e78023          	sb	a4,0(a5)
    2b3c:	00004797          	auipc	a5,0x4
    2b40:	56c7b783          	ld	a5,1388(a5) # 70a8 <_GLOBAL_OFFSET_TABLE_+0x88>
    2b44:	00100713          	li	a4,1
    2b48:	00e78023          	sb	a4,0(a5)
    2b4c:	0b00006f          	j	2bfc <generic_KINDERSICHERUNG_CTRL+0x22c>
    2b50:	00004797          	auipc	a5,0x4
    2b54:	6c87b783          	ld	a5,1736(a5) # 7218 <_GLOBAL_OFFSET_TABLE_+0x1f8>
    2b58:	0007c783          	lbu	a5,0(a5)
    2b5c:	04079063          	bnez	a5,2b9c <generic_KINDERSICHERUNG_CTRL+0x1cc>
    2b60:	00004797          	auipc	a5,0x4
    2b64:	6087b783          	ld	a5,1544(a5) # 7168 <_GLOBAL_OFFSET_TABLE_+0x148>
    2b68:	0007c783          	lbu	a5,0(a5)
    2b6c:	02078863          	beqz	a5,2b9c <generic_KINDERSICHERUNG_CTRL+0x1cc>
    2b70:	00004797          	auipc	a5,0x4
    2b74:	6607b783          	ld	a5,1632(a5) # 71d0 <_GLOBAL_OFFSET_TABLE_+0x1b0>
    2b78:	00078023          	sb	zero,0(a5)
    2b7c:	00004797          	auipc	a5,0x4
    2b80:	64c7b783          	ld	a5,1612(a5) # 71c8 <_GLOBAL_OFFSET_TABLE_+0x1a8>
    2b84:	00078023          	sb	zero,0(a5)
    2b88:	00004797          	auipc	a5,0x4
    2b8c:	5207b783          	ld	a5,1312(a5) # 70a8 <_GLOBAL_OFFSET_TABLE_+0x88>
    2b90:	00100713          	li	a4,1
    2b94:	00e78023          	sb	a4,0(a5)
    2b98:	0640006f          	j	2bfc <generic_KINDERSICHERUNG_CTRL+0x22c>
    2b9c:	00004797          	auipc	a5,0x4
    2ba0:	5c47b783          	ld	a5,1476(a5) # 7160 <_GLOBAL_OFFSET_TABLE_+0x140>
    2ba4:	0007c783          	lbu	a5,0(a5)
    2ba8:	04079863          	bnez	a5,2bf8 <generic_KINDERSICHERUNG_CTRL+0x228>
    2bac:	00004797          	auipc	a5,0x4
    2bb0:	4dc7b783          	ld	a5,1244(a5) # 7088 <_GLOBAL_OFFSET_TABLE_+0x68>
    2bb4:	0007c783          	lbu	a5,0(a5)
    2bb8:	04078063          	beqz	a5,2bf8 <generic_KINDERSICHERUNG_CTRL+0x228>
    2bbc:	00004797          	auipc	a5,0x4
    2bc0:	6147b783          	ld	a5,1556(a5) # 71d0 <_GLOBAL_OFFSET_TABLE_+0x1b0>
    2bc4:	00078023          	sb	zero,0(a5)
    2bc8:	00004797          	auipc	a5,0x4
    2bcc:	5f87b783          	ld	a5,1528(a5) # 71c0 <_GLOBAL_OFFSET_TABLE_+0x1a0>
    2bd0:	00078023          	sb	zero,0(a5)
    2bd4:	00004797          	auipc	a5,0x4
    2bd8:	4d47b783          	ld	a5,1236(a5) # 70a8 <_GLOBAL_OFFSET_TABLE_+0x88>
    2bdc:	00100713          	li	a4,1
    2be0:	00e78023          	sb	a4,0(a5)
    2be4:	0180006f          	j	2bfc <generic_KINDERSICHERUNG_CTRL+0x22c>
    2be8:	00004797          	auipc	a5,0x4
    2bec:	5e87b783          	ld	a5,1512(a5) # 71d0 <_GLOBAL_OFFSET_TABLE_+0x1b0>
    2bf0:	00078023          	sb	zero,0(a5)
    2bf4:	0080006f          	j	2bfc <generic_KINDERSICHERUNG_CTRL+0x22c>
    2bf8:	00000013          	nop
    2bfc:	4500006f          	j	304c <generic_KINDERSICHERUNG_CTRL+0x67c>
    2c00:	00004797          	auipc	a5,0x4
    2c04:	6287b783          	ld	a5,1576(a5) # 7228 <_GLOBAL_OFFSET_TABLE_+0x208>
    2c08:	0007c783          	lbu	a5,0(a5)
    2c0c:	04079c63          	bnez	a5,2c64 <generic_KINDERSICHERUNG_CTRL+0x294>
    2c10:	00004797          	auipc	a5,0x4
    2c14:	5907b783          	ld	a5,1424(a5) # 71a0 <_GLOBAL_OFFSET_TABLE_+0x180>
    2c18:	0007c783          	lbu	a5,0(a5)
    2c1c:	04079463          	bnez	a5,2c64 <generic_KINDERSICHERUNG_CTRL+0x294>
    2c20:	00004797          	auipc	a5,0x4
    2c24:	5b07b783          	ld	a5,1456(a5) # 71d0 <_GLOBAL_OFFSET_TABLE_+0x1b0>
    2c28:	00078023          	sb	zero,0(a5)
    2c2c:	00004797          	auipc	a5,0x4
    2c30:	5947b783          	ld	a5,1428(a5) # 71c0 <_GLOBAL_OFFSET_TABLE_+0x1a0>
    2c34:	00078023          	sb	zero,0(a5)
    2c38:	00004797          	auipc	a5,0x4
    2c3c:	5907b783          	ld	a5,1424(a5) # 71c8 <_GLOBAL_OFFSET_TABLE_+0x1a8>
    2c40:	00078023          	sb	zero,0(a5)
    2c44:	00004797          	auipc	a5,0x4
    2c48:	4d47b783          	ld	a5,1236(a5) # 7118 <_GLOBAL_OFFSET_TABLE_+0xf8>
    2c4c:	00300713          	li	a4,3
    2c50:	00e78023          	sb	a4,0(a5)
    2c54:	00004797          	auipc	a5,0x4
    2c58:	3fc7b783          	ld	a5,1020(a5) # 7050 <_GLOBAL_OFFSET_TABLE_+0x30>
    2c5c:	00078023          	sb	zero,0(a5)
    2c60:	3ec0006f          	j	304c <generic_KINDERSICHERUNG_CTRL+0x67c>
    2c64:	00004797          	auipc	a5,0x4
    2c68:	3ec7b783          	ld	a5,1004(a5) # 7050 <_GLOBAL_OFFSET_TABLE_+0x30>
    2c6c:	0007c783          	lbu	a5,0(a5)
    2c70:	0007879b          	sext.w	a5,a5
    2c74:	00078713          	mv	a4,a5
    2c78:	00100793          	li	a5,1
    2c7c:	12f71e63          	bne	a4,a5,2db8 <generic_KINDERSICHERUNG_CTRL+0x3e8>
    2c80:	00004797          	auipc	a5,0x4
    2c84:	5a87b783          	ld	a5,1448(a5) # 7228 <_GLOBAL_OFFSET_TABLE_+0x208>
    2c88:	0007c783          	lbu	a5,0(a5)
    2c8c:	04078263          	beqz	a5,2cd0 <generic_KINDERSICHERUNG_CTRL+0x300>
    2c90:	00004797          	auipc	a5,0x4
    2c94:	4307b783          	ld	a5,1072(a5) # 70c0 <_GLOBAL_OFFSET_TABLE_+0xa0>
    2c98:	0007c783          	lbu	a5,0(a5)
    2c9c:	02079a63          	bnez	a5,2cd0 <generic_KINDERSICHERUNG_CTRL+0x300>
    2ca0:	00004797          	auipc	a5,0x4
    2ca4:	5307b783          	ld	a5,1328(a5) # 71d0 <_GLOBAL_OFFSET_TABLE_+0x1b0>
    2ca8:	00078023          	sb	zero,0(a5)
    2cac:	00004797          	auipc	a5,0x4
    2cb0:	51c7b783          	ld	a5,1308(a5) # 71c8 <_GLOBAL_OFFSET_TABLE_+0x1a8>
    2cb4:	00100713          	li	a4,1
    2cb8:	00e78023          	sb	a4,0(a5)
    2cbc:	00004797          	auipc	a5,0x4
    2cc0:	3947b783          	ld	a5,916(a5) # 7050 <_GLOBAL_OFFSET_TABLE_+0x30>
    2cc4:	00100713          	li	a4,1
    2cc8:	00e78023          	sb	a4,0(a5)
    2ccc:	1000006f          	j	2dcc <generic_KINDERSICHERUNG_CTRL+0x3fc>
    2cd0:	00004797          	auipc	a5,0x4
    2cd4:	4d07b783          	ld	a5,1232(a5) # 71a0 <_GLOBAL_OFFSET_TABLE_+0x180>
    2cd8:	0007c783          	lbu	a5,0(a5)
    2cdc:	04078263          	beqz	a5,2d20 <generic_KINDERSICHERUNG_CTRL+0x350>
    2ce0:	00004797          	auipc	a5,0x4
    2ce4:	4c87b783          	ld	a5,1224(a5) # 71a8 <_GLOBAL_OFFSET_TABLE_+0x188>
    2ce8:	0007c783          	lbu	a5,0(a5)
    2cec:	02079a63          	bnez	a5,2d20 <generic_KINDERSICHERUNG_CTRL+0x350>
    2cf0:	00004797          	auipc	a5,0x4
    2cf4:	4e07b783          	ld	a5,1248(a5) # 71d0 <_GLOBAL_OFFSET_TABLE_+0x1b0>
    2cf8:	00078023          	sb	zero,0(a5)
    2cfc:	00004797          	auipc	a5,0x4
    2d00:	4c47b783          	ld	a5,1220(a5) # 71c0 <_GLOBAL_OFFSET_TABLE_+0x1a0>
    2d04:	00100713          	li	a4,1
    2d08:	00e78023          	sb	a4,0(a5)
    2d0c:	00004797          	auipc	a5,0x4
    2d10:	3447b783          	ld	a5,836(a5) # 7050 <_GLOBAL_OFFSET_TABLE_+0x30>
    2d14:	00100713          	li	a4,1
    2d18:	00e78023          	sb	a4,0(a5)
    2d1c:	0b00006f          	j	2dcc <generic_KINDERSICHERUNG_CTRL+0x3fc>
    2d20:	00004797          	auipc	a5,0x4
    2d24:	5087b783          	ld	a5,1288(a5) # 7228 <_GLOBAL_OFFSET_TABLE_+0x208>
    2d28:	0007c783          	lbu	a5,0(a5)
    2d2c:	04079063          	bnez	a5,2d6c <generic_KINDERSICHERUNG_CTRL+0x39c>
    2d30:	00004797          	auipc	a5,0x4
    2d34:	3907b783          	ld	a5,912(a5) # 70c0 <_GLOBAL_OFFSET_TABLE_+0xa0>
    2d38:	0007c783          	lbu	a5,0(a5)
    2d3c:	02078863          	beqz	a5,2d6c <generic_KINDERSICHERUNG_CTRL+0x39c>
    2d40:	00004797          	auipc	a5,0x4
    2d44:	4907b783          	ld	a5,1168(a5) # 71d0 <_GLOBAL_OFFSET_TABLE_+0x1b0>
    2d48:	00078023          	sb	zero,0(a5)
    2d4c:	00004797          	auipc	a5,0x4
    2d50:	47c7b783          	ld	a5,1148(a5) # 71c8 <_GLOBAL_OFFSET_TABLE_+0x1a8>
    2d54:	00078023          	sb	zero,0(a5)
    2d58:	00004797          	auipc	a5,0x4
    2d5c:	2f87b783          	ld	a5,760(a5) # 7050 <_GLOBAL_OFFSET_TABLE_+0x30>
    2d60:	00100713          	li	a4,1
    2d64:	00e78023          	sb	a4,0(a5)
    2d68:	0640006f          	j	2dcc <generic_KINDERSICHERUNG_CTRL+0x3fc>
    2d6c:	00004797          	auipc	a5,0x4
    2d70:	4347b783          	ld	a5,1076(a5) # 71a0 <_GLOBAL_OFFSET_TABLE_+0x180>
    2d74:	0007c783          	lbu	a5,0(a5)
    2d78:	04079863          	bnez	a5,2dc8 <generic_KINDERSICHERUNG_CTRL+0x3f8>
    2d7c:	00004797          	auipc	a5,0x4
    2d80:	42c7b783          	ld	a5,1068(a5) # 71a8 <_GLOBAL_OFFSET_TABLE_+0x188>
    2d84:	0007c783          	lbu	a5,0(a5)
    2d88:	04078063          	beqz	a5,2dc8 <generic_KINDERSICHERUNG_CTRL+0x3f8>
    2d8c:	00004797          	auipc	a5,0x4
    2d90:	4447b783          	ld	a5,1092(a5) # 71d0 <_GLOBAL_OFFSET_TABLE_+0x1b0>
    2d94:	00078023          	sb	zero,0(a5)
    2d98:	00004797          	auipc	a5,0x4
    2d9c:	4287b783          	ld	a5,1064(a5) # 71c0 <_GLOBAL_OFFSET_TABLE_+0x1a0>
    2da0:	00078023          	sb	zero,0(a5)
    2da4:	00004797          	auipc	a5,0x4
    2da8:	2ac7b783          	ld	a5,684(a5) # 7050 <_GLOBAL_OFFSET_TABLE_+0x30>
    2dac:	00100713          	li	a4,1
    2db0:	00e78023          	sb	a4,0(a5)
    2db4:	0180006f          	j	2dcc <generic_KINDERSICHERUNG_CTRL+0x3fc>
    2db8:	00004797          	auipc	a5,0x4
    2dbc:	4187b783          	ld	a5,1048(a5) # 71d0 <_GLOBAL_OFFSET_TABLE_+0x1b0>
    2dc0:	00078023          	sb	zero,0(a5)
    2dc4:	0080006f          	j	2dcc <generic_KINDERSICHERUNG_CTRL+0x3fc>
    2dc8:	00000013          	nop
    2dcc:	2800006f          	j	304c <generic_KINDERSICHERUNG_CTRL+0x67c>
    2dd0:	00004797          	auipc	a5,0x4
    2dd4:	5307b783          	ld	a5,1328(a5) # 7300 <_GLOBAL_OFFSET_TABLE_+0x2e0>
    2dd8:	0007c783          	lbu	a5,0(a5)
    2ddc:	06079263          	bnez	a5,2e40 <generic_KINDERSICHERUNG_CTRL+0x470>
    2de0:	00004797          	auipc	a5,0x4
    2de4:	3c07b783          	ld	a5,960(a5) # 71a0 <_GLOBAL_OFFSET_TABLE_+0x180>
    2de8:	0007c783          	lbu	a5,0(a5)
    2dec:	04078a63          	beqz	a5,2e40 <generic_KINDERSICHERUNG_CTRL+0x470>
    2df0:	00004797          	auipc	a5,0x4
    2df4:	4387b783          	ld	a5,1080(a5) # 7228 <_GLOBAL_OFFSET_TABLE_+0x208>
    2df8:	0007c783          	lbu	a5,0(a5)
    2dfc:	04078263          	beqz	a5,2e40 <generic_KINDERSICHERUNG_CTRL+0x470>
    2e00:	00004797          	auipc	a5,0x4
    2e04:	3d07b783          	ld	a5,976(a5) # 71d0 <_GLOBAL_OFFSET_TABLE_+0x1b0>
    2e08:	00078023          	sb	zero,0(a5)
    2e0c:	00004797          	auipc	a5,0x4
    2e10:	3b47b783          	ld	a5,948(a5) # 71c0 <_GLOBAL_OFFSET_TABLE_+0x1a0>
    2e14:	00100713          	li	a4,1
    2e18:	00e78023          	sb	a4,0(a5)
    2e1c:	00004797          	auipc	a5,0x4
    2e20:	3ac7b783          	ld	a5,940(a5) # 71c8 <_GLOBAL_OFFSET_TABLE_+0x1a8>
    2e24:	00100713          	li	a4,1
    2e28:	00e78023          	sb	a4,0(a5)
    2e2c:	00004797          	auipc	a5,0x4
    2e30:	2ec7b783          	ld	a5,748(a5) # 7118 <_GLOBAL_OFFSET_TABLE_+0xf8>
    2e34:	00200713          	li	a4,2
    2e38:	00e78023          	sb	a4,0(a5)
    2e3c:	2100006f          	j	304c <generic_KINDERSICHERUNG_CTRL+0x67c>
    2e40:	00004797          	auipc	a5,0x4
    2e44:	4c07b783          	ld	a5,1216(a5) # 7300 <_GLOBAL_OFFSET_TABLE_+0x2e0>
    2e48:	0007c783          	lbu	a5,0(a5)
    2e4c:	04079a63          	bnez	a5,2ea0 <generic_KINDERSICHERUNG_CTRL+0x4d0>
    2e50:	00004797          	auipc	a5,0x4
    2e54:	3507b783          	ld	a5,848(a5) # 71a0 <_GLOBAL_OFFSET_TABLE_+0x180>
    2e58:	0007c783          	lbu	a5,0(a5)
    2e5c:	04078263          	beqz	a5,2ea0 <generic_KINDERSICHERUNG_CTRL+0x4d0>
    2e60:	00004797          	auipc	a5,0x4
    2e64:	3c87b783          	ld	a5,968(a5) # 7228 <_GLOBAL_OFFSET_TABLE_+0x208>
    2e68:	0007c783          	lbu	a5,0(a5)
    2e6c:	02079a63          	bnez	a5,2ea0 <generic_KINDERSICHERUNG_CTRL+0x4d0>
    2e70:	00004797          	auipc	a5,0x4
    2e74:	3607b783          	ld	a5,864(a5) # 71d0 <_GLOBAL_OFFSET_TABLE_+0x1b0>
    2e78:	00078023          	sb	zero,0(a5)
    2e7c:	00004797          	auipc	a5,0x4
    2e80:	3447b783          	ld	a5,836(a5) # 71c0 <_GLOBAL_OFFSET_TABLE_+0x1a0>
    2e84:	00100713          	li	a4,1
    2e88:	00e78023          	sb	a4,0(a5)
    2e8c:	00004797          	auipc	a5,0x4
    2e90:	28c7b783          	ld	a5,652(a5) # 7118 <_GLOBAL_OFFSET_TABLE_+0xf8>
    2e94:	00200713          	li	a4,2
    2e98:	00e78023          	sb	a4,0(a5)
    2e9c:	1b00006f          	j	304c <generic_KINDERSICHERUNG_CTRL+0x67c>
    2ea0:	00004797          	auipc	a5,0x4
    2ea4:	4607b783          	ld	a5,1120(a5) # 7300 <_GLOBAL_OFFSET_TABLE_+0x2e0>
    2ea8:	0007c783          	lbu	a5,0(a5)
    2eac:	04079a63          	bnez	a5,2f00 <generic_KINDERSICHERUNG_CTRL+0x530>
    2eb0:	00004797          	auipc	a5,0x4
    2eb4:	2f07b783          	ld	a5,752(a5) # 71a0 <_GLOBAL_OFFSET_TABLE_+0x180>
    2eb8:	0007c783          	lbu	a5,0(a5)
    2ebc:	04079263          	bnez	a5,2f00 <generic_KINDERSICHERUNG_CTRL+0x530>
    2ec0:	00004797          	auipc	a5,0x4
    2ec4:	3687b783          	ld	a5,872(a5) # 7228 <_GLOBAL_OFFSET_TABLE_+0x208>
    2ec8:	0007c783          	lbu	a5,0(a5)
    2ecc:	02078a63          	beqz	a5,2f00 <generic_KINDERSICHERUNG_CTRL+0x530>
    2ed0:	00004797          	auipc	a5,0x4
    2ed4:	3007b783          	ld	a5,768(a5) # 71d0 <_GLOBAL_OFFSET_TABLE_+0x1b0>
    2ed8:	00078023          	sb	zero,0(a5)
    2edc:	00004797          	auipc	a5,0x4
    2ee0:	2ec7b783          	ld	a5,748(a5) # 71c8 <_GLOBAL_OFFSET_TABLE_+0x1a8>
    2ee4:	00100713          	li	a4,1
    2ee8:	00e78023          	sb	a4,0(a5)
    2eec:	00004797          	auipc	a5,0x4
    2ef0:	22c7b783          	ld	a5,556(a5) # 7118 <_GLOBAL_OFFSET_TABLE_+0xf8>
    2ef4:	00200713          	li	a4,2
    2ef8:	00e78023          	sb	a4,0(a5)
    2efc:	1500006f          	j	304c <generic_KINDERSICHERUNG_CTRL+0x67c>
    2f00:	00004797          	auipc	a5,0x4
    2f04:	2607b783          	ld	a5,608(a5) # 7160 <_GLOBAL_OFFSET_TABLE_+0x140>
    2f08:	0007c783          	lbu	a5,0(a5)
    2f0c:	04079a63          	bnez	a5,2f60 <generic_KINDERSICHERUNG_CTRL+0x590>
    2f10:	00004797          	auipc	a5,0x4
    2f14:	3087b783          	ld	a5,776(a5) # 7218 <_GLOBAL_OFFSET_TABLE_+0x1f8>
    2f18:	0007c783          	lbu	a5,0(a5)
    2f1c:	04078263          	beqz	a5,2f60 <generic_KINDERSICHERUNG_CTRL+0x590>
    2f20:	00004797          	auipc	a5,0x4
    2f24:	3e07b783          	ld	a5,992(a5) # 7300 <_GLOBAL_OFFSET_TABLE_+0x2e0>
    2f28:	0007c783          	lbu	a5,0(a5)
    2f2c:	02079a63          	bnez	a5,2f60 <generic_KINDERSICHERUNG_CTRL+0x590>
    2f30:	00004797          	auipc	a5,0x4
    2f34:	2a07b783          	ld	a5,672(a5) # 71d0 <_GLOBAL_OFFSET_TABLE_+0x1b0>
    2f38:	00078023          	sb	zero,0(a5)
    2f3c:	00004797          	auipc	a5,0x4
    2f40:	28c7b783          	ld	a5,652(a5) # 71c8 <_GLOBAL_OFFSET_TABLE_+0x1a8>
    2f44:	00100713          	li	a4,1
    2f48:	00e78023          	sb	a4,0(a5)
    2f4c:	00004797          	auipc	a5,0x4
    2f50:	1cc7b783          	ld	a5,460(a5) # 7118 <_GLOBAL_OFFSET_TABLE_+0xf8>
    2f54:	00100713          	li	a4,1
    2f58:	00e78023          	sb	a4,0(a5)
    2f5c:	0f00006f          	j	304c <generic_KINDERSICHERUNG_CTRL+0x67c>
    2f60:	00004797          	auipc	a5,0x4
    2f64:	2007b783          	ld	a5,512(a5) # 7160 <_GLOBAL_OFFSET_TABLE_+0x140>
    2f68:	0007c783          	lbu	a5,0(a5)
    2f6c:	04078a63          	beqz	a5,2fc0 <generic_KINDERSICHERUNG_CTRL+0x5f0>
    2f70:	00004797          	auipc	a5,0x4
    2f74:	2a87b783          	ld	a5,680(a5) # 7218 <_GLOBAL_OFFSET_TABLE_+0x1f8>
    2f78:	0007c783          	lbu	a5,0(a5)
    2f7c:	04078263          	beqz	a5,2fc0 <generic_KINDERSICHERUNG_CTRL+0x5f0>
    2f80:	00004797          	auipc	a5,0x4
    2f84:	2507b783          	ld	a5,592(a5) # 71d0 <_GLOBAL_OFFSET_TABLE_+0x1b0>
    2f88:	00078023          	sb	zero,0(a5)
    2f8c:	00004797          	auipc	a5,0x4
    2f90:	23c7b783          	ld	a5,572(a5) # 71c8 <_GLOBAL_OFFSET_TABLE_+0x1a8>
    2f94:	00100713          	li	a4,1
    2f98:	00e78023          	sb	a4,0(a5)
    2f9c:	00004797          	auipc	a5,0x4
    2fa0:	2247b783          	ld	a5,548(a5) # 71c0 <_GLOBAL_OFFSET_TABLE_+0x1a0>
    2fa4:	00100713          	li	a4,1
    2fa8:	00e78023          	sb	a4,0(a5)
    2fac:	00004797          	auipc	a5,0x4
    2fb0:	16c7b783          	ld	a5,364(a5) # 7118 <_GLOBAL_OFFSET_TABLE_+0xf8>
    2fb4:	00100713          	li	a4,1
    2fb8:	00e78023          	sb	a4,0(a5)
    2fbc:	0900006f          	j	304c <generic_KINDERSICHERUNG_CTRL+0x67c>
    2fc0:	00004797          	auipc	a5,0x4
    2fc4:	1a07b783          	ld	a5,416(a5) # 7160 <_GLOBAL_OFFSET_TABLE_+0x140>
    2fc8:	0007c783          	lbu	a5,0(a5)
    2fcc:	06078e63          	beqz	a5,3048 <generic_KINDERSICHERUNG_CTRL+0x678>
    2fd0:	00004797          	auipc	a5,0x4
    2fd4:	2487b783          	ld	a5,584(a5) # 7218 <_GLOBAL_OFFSET_TABLE_+0x1f8>
    2fd8:	0007c783          	lbu	a5,0(a5)
    2fdc:	06079663          	bnez	a5,3048 <generic_KINDERSICHERUNG_CTRL+0x678>
    2fe0:	00004797          	auipc	a5,0x4
    2fe4:	3207b783          	ld	a5,800(a5) # 7300 <_GLOBAL_OFFSET_TABLE_+0x2e0>
    2fe8:	0007c783          	lbu	a5,0(a5)
    2fec:	04079e63          	bnez	a5,3048 <generic_KINDERSICHERUNG_CTRL+0x678>
    2ff0:	00004797          	auipc	a5,0x4
    2ff4:	1e07b783          	ld	a5,480(a5) # 71d0 <_GLOBAL_OFFSET_TABLE_+0x1b0>
    2ff8:	00078023          	sb	zero,0(a5)
    2ffc:	00004797          	auipc	a5,0x4
    3000:	1c47b783          	ld	a5,452(a5) # 71c0 <_GLOBAL_OFFSET_TABLE_+0x1a0>
    3004:	00100713          	li	a4,1
    3008:	00e78023          	sb	a4,0(a5)
    300c:	00004797          	auipc	a5,0x4
    3010:	10c7b783          	ld	a5,268(a5) # 7118 <_GLOBAL_OFFSET_TABLE_+0xf8>
    3014:	00100713          	li	a4,1
    3018:	00e78023          	sb	a4,0(a5)
    301c:	0300006f          	j	304c <generic_KINDERSICHERUNG_CTRL+0x67c>
    3020:	00004797          	auipc	a5,0x4
    3024:	1b07b783          	ld	a5,432(a5) # 71d0 <_GLOBAL_OFFSET_TABLE_+0x1b0>
    3028:	00078023          	sb	zero,0(a5)
    302c:	00004797          	auipc	a5,0x4
    3030:	0ec7b783          	ld	a5,236(a5) # 7118 <_GLOBAL_OFFSET_TABLE_+0xf8>
    3034:	00300713          	li	a4,3
    3038:	00e78023          	sb	a4,0(a5)
    303c:	0100006f          	j	304c <generic_KINDERSICHERUNG_CTRL+0x67c>
    3040:	00000013          	nop
    3044:	0080006f          	j	304c <generic_KINDERSICHERUNG_CTRL+0x67c>
    3048:	00000013          	nop
    304c:	00000013          	nop
    3050:	00813403          	ld	s0,8(sp)
    3054:	01010113          	addi	sp,sp,16
    3058:	00008067          	ret

000000000000305c <generic_FH_TUERMODUL_CTRL>:
    305c:	ff010113          	addi	sp,sp,-16
    3060:	00813423          	sd	s0,8(sp)
    3064:	01010413          	addi	s0,sp,16
    3068:	00004797          	auipc	a5,0x4
    306c:	2f878793          	addi	a5,a5,760 # 7360 <Bitlist>
    3070:	00d7c783          	lbu	a5,13(a5)
    3074:	02079e63          	bnez	a5,30b0 <generic_FH_TUERMODUL_CTRL+0x54>
    3078:	00004797          	auipc	a5,0x4
    307c:	2e878793          	addi	a5,a5,744 # 7360 <Bitlist>
    3080:	00f7c783          	lbu	a5,15(a5)
    3084:	02078663          	beqz	a5,30b0 <generic_FH_TUERMODUL_CTRL+0x54>
    3088:	00004797          	auipc	a5,0x4
    308c:	2d878793          	addi	a5,a5,728 # 7360 <Bitlist>
    3090:	00e7c783          	lbu	a5,14(a5)
    3094:	00079e63          	bnez	a5,30b0 <generic_FH_TUERMODUL_CTRL+0x54>
    3098:	00004797          	auipc	a5,0x4
    309c:	2c878793          	addi	a5,a5,712 # 7360 <Bitlist>
    30a0:	00078223          	sb	zero,4(a5)
    30a4:	00004797          	auipc	a5,0x4
    30a8:	2bc78793          	addi	a5,a5,700 # 7360 <Bitlist>
    30ac:	00078323          	sb	zero,6(a5)
    30b0:	00004797          	auipc	a5,0x4
    30b4:	2b078793          	addi	a5,a5,688 # 7360 <Bitlist>
    30b8:	00d7c783          	lbu	a5,13(a5)
    30bc:	70078ee3          	beqz	a5,3fd8 <generic_FH_TUERMODUL_CTRL+0xf7c>
    30c0:	00004797          	auipc	a5,0x4
    30c4:	2a078793          	addi	a5,a5,672 # 7360 <Bitlist>
    30c8:	00a7c783          	lbu	a5,10(a5)
    30cc:	00079a63          	bnez	a5,30e0 <generic_FH_TUERMODUL_CTRL+0x84>
    30d0:	00004797          	auipc	a5,0x4
    30d4:	0487b783          	ld	a5,72(a5) # 7118 <_GLOBAL_OFFSET_TABLE_+0xf8>
    30d8:	00300713          	li	a4,3
    30dc:	00e78023          	sb	a4,0(a5)
    30e0:	00004797          	auipc	a5,0x4
    30e4:	28078793          	addi	a5,a5,640 # 7360 <Bitlist>
    30e8:	000785a3          	sb	zero,11(a5)
    30ec:	00004797          	auipc	a5,0x4
    30f0:	27478793          	addi	a5,a5,628 # 7360 <Bitlist>
    30f4:	0137c783          	lbu	a5,19(a5)
    30f8:	02079063          	bnez	a5,3118 <generic_FH_TUERMODUL_CTRL+0xbc>
    30fc:	00004797          	auipc	a5,0x4
    3100:	26478793          	addi	a5,a5,612 # 7360 <Bitlist>
    3104:	00078023          	sb	zero,0(a5)
    3108:	00004797          	auipc	a5,0x4
    310c:	0707b783          	ld	a5,112(a5) # 7178 <_GLOBAL_OFFSET_TABLE_+0x158>
    3110:	00100713          	li	a4,1
    3114:	00e78023          	sb	a4,0(a5)
    3118:	00004797          	auipc	a5,0x4
    311c:	24878793          	addi	a5,a5,584 # 7360 <Bitlist>
    3120:	00078a23          	sb	zero,20(a5)
    3124:	00004797          	auipc	a5,0x4
    3128:	23c78793          	addi	a5,a5,572 # 7360 <Bitlist>
    312c:	00100713          	li	a4,1
    3130:	00e785a3          	sb	a4,11(a5)
    3134:	00004797          	auipc	a5,0x4
    3138:	22c78793          	addi	a5,a5,556 # 7360 <Bitlist>
    313c:	00100713          	li	a4,1
    3140:	00e78a23          	sb	a4,20(a5)
    3144:	00004797          	auipc	a5,0x4
    3148:	1d47b783          	ld	a5,468(a5) # 7318 <_GLOBAL_OFFSET_TABLE_+0x2f8>
    314c:	0007c783          	lbu	a5,0(a5)
    3150:	0007879b          	sext.w	a5,a5
    3154:	00078693          	mv	a3,a5
    3158:	00300713          	li	a4,3
    315c:	28e68263          	beq	a3,a4,33e0 <generic_FH_TUERMODUL_CTRL+0x384>
    3160:	00078693          	mv	a3,a5
    3164:	00300713          	li	a4,3
    3168:	3cd746e3          	blt	a4,a3,3d34 <generic_FH_TUERMODUL_CTRL+0xcd8>
    316c:	00078693          	mv	a3,a5
    3170:	00100713          	li	a4,1
    3174:	00e68a63          	beq	a3,a4,3188 <generic_FH_TUERMODUL_CTRL+0x12c>
    3178:	00078713          	mv	a4,a5
    317c:	00200793          	li	a5,2
    3180:	06f70463          	beq	a4,a5,31e8 <generic_FH_TUERMODUL_CTRL+0x18c>
    3184:	3b10006f          	j	3d34 <generic_FH_TUERMODUL_CTRL+0xcd8>
    3188:	00004797          	auipc	a5,0x4
    318c:	f187b783          	ld	a5,-232(a5) # 70a0 <_GLOBAL_OFFSET_TABLE_+0x80>
    3190:	0007a783          	lw	a5,0(a5)
    3194:	00078713          	mv	a4,a5
    3198:	03b00793          	li	a5,59
    319c:	3af71ce3          	bne	a4,a5,3d54 <generic_FH_TUERMODUL_CTRL+0xcf8>
    31a0:	00004797          	auipc	a5,0x4
    31a4:	e987b783          	ld	a5,-360(a5) # 7038 <_GLOBAL_OFFSET_TABLE_+0x18>
    31a8:	0007a783          	lw	a5,0(a5)
    31ac:	00078713          	mv	a4,a5
    31b0:	03b00793          	li	a5,59
    31b4:	3af700e3          	beq	a4,a5,3d54 <generic_FH_TUERMODUL_CTRL+0xcf8>
    31b8:	00004797          	auipc	a5,0x4
    31bc:	0187b783          	ld	a5,24(a5) # 71d0 <_GLOBAL_OFFSET_TABLE_+0x1b0>
    31c0:	00078023          	sb	zero,0(a5)
    31c4:	00004797          	auipc	a5,0x4
    31c8:	1547b783          	ld	a5,340(a5) # 7318 <_GLOBAL_OFFSET_TABLE_+0x2f8>
    31cc:	00300713          	li	a4,3
    31d0:	00e78023          	sb	a4,0(a5)
    31d4:	00004797          	auipc	a5,0x4
    31d8:	15c7b783          	ld	a5,348(a5) # 7330 <_GLOBAL_OFFSET_TABLE_+0x310>
    31dc:	00300713          	li	a4,3
    31e0:	00e78023          	sb	a4,0(a5)
    31e4:	3750006f          	j	3d58 <generic_FH_TUERMODUL_CTRL+0xcfc>
    31e8:	00004797          	auipc	a5,0x4
    31ec:	f287b783          	ld	a5,-216(a5) # 7110 <_GLOBAL_OFFSET_TABLE_+0xf0>
    31f0:	0007c783          	lbu	a5,0(a5)
    31f4:	06078c63          	beqz	a5,326c <generic_FH_TUERMODUL_CTRL+0x210>
    31f8:	00004797          	auipc	a5,0x4
    31fc:	fc07b783          	ld	a5,-64(a5) # 71b8 <_GLOBAL_OFFSET_TABLE_+0x198>
    3200:	0007c783          	lbu	a5,0(a5)
    3204:	06079463          	bnez	a5,326c <generic_FH_TUERMODUL_CTRL+0x210>
    3208:	00004797          	auipc	a5,0x4
    320c:	0a87b783          	ld	a5,168(a5) # 72b0 <_GLOBAL_OFFSET_TABLE_+0x290>
    3210:	0007c783          	lbu	a5,0(a5)
    3214:	04078c63          	beqz	a5,326c <generic_FH_TUERMODUL_CTRL+0x210>
    3218:	00004797          	auipc	a5,0x4
    321c:	fb87b783          	ld	a5,-72(a5) # 71d0 <_GLOBAL_OFFSET_TABLE_+0x1b0>
    3220:	00078023          	sb	zero,0(a5)
    3224:	00004797          	auipc	a5,0x4
    3228:	0cc7b783          	ld	a5,204(a5) # 72f0 <_GLOBAL_OFFSET_TABLE_+0x2d0>
    322c:	00078023          	sb	zero,0(a5)
    3230:	00004797          	auipc	a5,0x4
    3234:	0607b783          	ld	a5,96(a5) # 7290 <_GLOBAL_OFFSET_TABLE_+0x270>
    3238:	0007b703          	ld	a4,0(a5)
    323c:	00004797          	auipc	a5,0x4
    3240:	ffc7b783          	ld	a5,-4(a5) # 7238 <_GLOBAL_OFFSET_TABLE_+0x218>
    3244:	00e7b023          	sd	a4,0(a5)
    3248:	00004797          	auipc	a5,0x4
    324c:	0d07b783          	ld	a5,208(a5) # 7318 <_GLOBAL_OFFSET_TABLE_+0x2f8>
    3250:	00300713          	li	a4,3
    3254:	00e78023          	sb	a4,0(a5)
    3258:	00004797          	auipc	a5,0x4
    325c:	0d87b783          	ld	a5,216(a5) # 7330 <_GLOBAL_OFFSET_TABLE_+0x310>
    3260:	00300713          	li	a4,3
    3264:	00e78023          	sb	a4,0(a5)
    3268:	2f10006f          	j	3d58 <generic_FH_TUERMODUL_CTRL+0xcfc>
    326c:	00004797          	auipc	a5,0x4
    3270:	fc47b783          	ld	a5,-60(a5) # 7230 <_GLOBAL_OFFSET_TABLE_+0x210>
    3274:	0007c783          	lbu	a5,0(a5)
    3278:	0007879b          	sext.w	a5,a5
    327c:	00078693          	mv	a3,a5
    3280:	00300713          	li	a4,3
    3284:	0ae68263          	beq	a3,a4,3328 <generic_FH_TUERMODUL_CTRL+0x2cc>
    3288:	00078693          	mv	a3,a5
    328c:	00300713          	li	a4,3
    3290:	10d74c63          	blt	a4,a3,33a8 <generic_FH_TUERMODUL_CTRL+0x34c>
    3294:	00078693          	mv	a3,a5
    3298:	00100713          	li	a4,1
    329c:	00e68a63          	beq	a3,a4,32b0 <generic_FH_TUERMODUL_CTRL+0x254>
    32a0:	00078713          	mv	a4,a5
    32a4:	00200793          	li	a5,2
    32a8:	04f70263          	beq	a4,a5,32ec <generic_FH_TUERMODUL_CTRL+0x290>
    32ac:	0fc0006f          	j	33a8 <generic_FH_TUERMODUL_CTRL+0x34c>
    32b0:	00004797          	auipc	a5,0x4
    32b4:	fd07b783          	ld	a5,-48(a5) # 7280 <_GLOBAL_OFFSET_TABLE_+0x260>
    32b8:	0007c783          	lbu	a5,0(a5)
    32bc:	10079663          	bnez	a5,33c8 <generic_FH_TUERMODUL_CTRL+0x36c>
    32c0:	00004797          	auipc	a5,0x4
    32c4:	f107b783          	ld	a5,-240(a5) # 71d0 <_GLOBAL_OFFSET_TABLE_+0x1b0>
    32c8:	00078023          	sb	zero,0(a5)
    32cc:	00004797          	auipc	a5,0x4
    32d0:	0247b783          	ld	a5,36(a5) # 72f0 <_GLOBAL_OFFSET_TABLE_+0x2d0>
    32d4:	00078023          	sb	zero,0(a5)
    32d8:	00004797          	auipc	a5,0x4
    32dc:	f587b783          	ld	a5,-168(a5) # 7230 <_GLOBAL_OFFSET_TABLE_+0x210>
    32e0:	00300713          	li	a4,3
    32e4:	00e78023          	sb	a4,0(a5)
    32e8:	0f40006f          	j	33dc <generic_FH_TUERMODUL_CTRL+0x380>
    32ec:	00004797          	auipc	a5,0x4
    32f0:	e4c7b783          	ld	a5,-436(a5) # 7138 <_GLOBAL_OFFSET_TABLE_+0x118>
    32f4:	0007c783          	lbu	a5,0(a5)
    32f8:	0c079c63          	bnez	a5,33d0 <generic_FH_TUERMODUL_CTRL+0x374>
    32fc:	00004797          	auipc	a5,0x4
    3300:	ed47b783          	ld	a5,-300(a5) # 71d0 <_GLOBAL_OFFSET_TABLE_+0x1b0>
    3304:	00078023          	sb	zero,0(a5)
    3308:	00004797          	auipc	a5,0x4
    330c:	e207b783          	ld	a5,-480(a5) # 7128 <_GLOBAL_OFFSET_TABLE_+0x108>
    3310:	00078023          	sb	zero,0(a5)
    3314:	00004797          	auipc	a5,0x4
    3318:	f1c7b783          	ld	a5,-228(a5) # 7230 <_GLOBAL_OFFSET_TABLE_+0x210>
    331c:	00300713          	li	a4,3
    3320:	00e78023          	sb	a4,0(a5)
    3324:	0b80006f          	j	33dc <generic_FH_TUERMODUL_CTRL+0x380>
    3328:	00004797          	auipc	a5,0x4
    332c:	e107b783          	ld	a5,-496(a5) # 7138 <_GLOBAL_OFFSET_TABLE_+0x118>
    3330:	0007c783          	lbu	a5,0(a5)
    3334:	02078a63          	beqz	a5,3368 <generic_FH_TUERMODUL_CTRL+0x30c>
    3338:	00004797          	auipc	a5,0x4
    333c:	e987b783          	ld	a5,-360(a5) # 71d0 <_GLOBAL_OFFSET_TABLE_+0x1b0>
    3340:	00078023          	sb	zero,0(a5)
    3344:	00004797          	auipc	a5,0x4
    3348:	de47b783          	ld	a5,-540(a5) # 7128 <_GLOBAL_OFFSET_TABLE_+0x108>
    334c:	00100713          	li	a4,1
    3350:	00e78023          	sb	a4,0(a5)
    3354:	00004797          	auipc	a5,0x4
    3358:	edc7b783          	ld	a5,-292(a5) # 7230 <_GLOBAL_OFFSET_TABLE_+0x210>
    335c:	00200713          	li	a4,2
    3360:	00e78023          	sb	a4,0(a5)
    3364:	0780006f          	j	33dc <generic_FH_TUERMODUL_CTRL+0x380>
    3368:	00004797          	auipc	a5,0x4
    336c:	f187b783          	ld	a5,-232(a5) # 7280 <_GLOBAL_OFFSET_TABLE_+0x260>
    3370:	0007c783          	lbu	a5,0(a5)
    3374:	06078263          	beqz	a5,33d8 <generic_FH_TUERMODUL_CTRL+0x37c>
    3378:	00004797          	auipc	a5,0x4
    337c:	e587b783          	ld	a5,-424(a5) # 71d0 <_GLOBAL_OFFSET_TABLE_+0x1b0>
    3380:	00078023          	sb	zero,0(a5)
    3384:	00004797          	auipc	a5,0x4
    3388:	f6c7b783          	ld	a5,-148(a5) # 72f0 <_GLOBAL_OFFSET_TABLE_+0x2d0>
    338c:	00100713          	li	a4,1
    3390:	00e78023          	sb	a4,0(a5)
    3394:	00004797          	auipc	a5,0x4
    3398:	e9c7b783          	ld	a5,-356(a5) # 7230 <_GLOBAL_OFFSET_TABLE_+0x210>
    339c:	00100713          	li	a4,1
    33a0:	00e78023          	sb	a4,0(a5)
    33a4:	0380006f          	j	33dc <generic_FH_TUERMODUL_CTRL+0x380>
    33a8:	00004797          	auipc	a5,0x4
    33ac:	e287b783          	ld	a5,-472(a5) # 71d0 <_GLOBAL_OFFSET_TABLE_+0x1b0>
    33b0:	00078023          	sb	zero,0(a5)
    33b4:	00004797          	auipc	a5,0x4
    33b8:	e7c7b783          	ld	a5,-388(a5) # 7230 <_GLOBAL_OFFSET_TABLE_+0x210>
    33bc:	00300713          	li	a4,3
    33c0:	00e78023          	sb	a4,0(a5)
    33c4:	0180006f          	j	33dc <generic_FH_TUERMODUL_CTRL+0x380>
    33c8:	00000013          	nop
    33cc:	18d0006f          	j	3d58 <generic_FH_TUERMODUL_CTRL+0xcfc>
    33d0:	00000013          	nop
    33d4:	1850006f          	j	3d58 <generic_FH_TUERMODUL_CTRL+0xcfc>
    33d8:	00000013          	nop
    33dc:	17d0006f          	j	3d58 <generic_FH_TUERMODUL_CTRL+0xcfc>
    33e0:	00004797          	auipc	a5,0x4
    33e4:	cc07b783          	ld	a5,-832(a5) # 70a0 <_GLOBAL_OFFSET_TABLE_+0x80>
    33e8:	0007a783          	lw	a5,0(a5)
    33ec:	00078713          	mv	a4,a5
    33f0:	03c00793          	li	a5,60
    33f4:	06e7da63          	bge	a5,a4,3468 <generic_FH_TUERMODUL_CTRL+0x40c>
    33f8:	00004797          	auipc	a5,0x4
    33fc:	c407b783          	ld	a5,-960(a5) # 7038 <_GLOBAL_OFFSET_TABLE_+0x18>
    3400:	0007a783          	lw	a5,0(a5)
    3404:	00078713          	mv	a4,a5
    3408:	03c00793          	li	a5,60
    340c:	04e7ce63          	blt	a5,a4,3468 <generic_FH_TUERMODUL_CTRL+0x40c>
    3410:	00004797          	auipc	a5,0x4
    3414:	e307b783          	ld	a5,-464(a5) # 7240 <_GLOBAL_OFFSET_TABLE_+0x220>
    3418:	0007c783          	lbu	a5,0(a5)
    341c:	04079663          	bnez	a5,3468 <generic_FH_TUERMODUL_CTRL+0x40c>
    3420:	00004797          	auipc	a5,0x4
    3424:	c787b783          	ld	a5,-904(a5) # 7098 <_GLOBAL_OFFSET_TABLE_+0x78>
    3428:	0007c783          	lbu	a5,0(a5)
    342c:	02079e63          	bnez	a5,3468 <generic_FH_TUERMODUL_CTRL+0x40c>
    3430:	00004797          	auipc	a5,0x4
    3434:	da07b783          	ld	a5,-608(a5) # 71d0 <_GLOBAL_OFFSET_TABLE_+0x1b0>
    3438:	00078023          	sb	zero,0(a5)
    343c:	00004797          	auipc	a5,0x4
    3440:	eb47b783          	ld	a5,-332(a5) # 72f0 <_GLOBAL_OFFSET_TABLE_+0x2d0>
    3444:	00078023          	sb	zero,0(a5)
    3448:	00004797          	auipc	a5,0x4
    344c:	ce07b783          	ld	a5,-800(a5) # 7128 <_GLOBAL_OFFSET_TABLE_+0x108>
    3450:	00078023          	sb	zero,0(a5)
    3454:	00004797          	auipc	a5,0x4
    3458:	ec47b783          	ld	a5,-316(a5) # 7318 <_GLOBAL_OFFSET_TABLE_+0x2f8>
    345c:	00100713          	li	a4,1
    3460:	00e78023          	sb	a4,0(a5)
    3464:	0f50006f          	j	3d58 <generic_FH_TUERMODUL_CTRL+0xcfc>
    3468:	00004797          	auipc	a5,0x4
    346c:	ca87b783          	ld	a5,-856(a5) # 7110 <_GLOBAL_OFFSET_TABLE_+0xf0>
    3470:	0007c783          	lbu	a5,0(a5)
    3474:	06078c63          	beqz	a5,34ec <generic_FH_TUERMODUL_CTRL+0x490>
    3478:	00004797          	auipc	a5,0x4
    347c:	d407b783          	ld	a5,-704(a5) # 71b8 <_GLOBAL_OFFSET_TABLE_+0x198>
    3480:	0007c783          	lbu	a5,0(a5)
    3484:	06079463          	bnez	a5,34ec <generic_FH_TUERMODUL_CTRL+0x490>
    3488:	00004797          	auipc	a5,0x4
    348c:	c987b783          	ld	a5,-872(a5) # 7120 <_GLOBAL_OFFSET_TABLE_+0x100>
    3490:	0007c783          	lbu	a5,0(a5)
    3494:	04078c63          	beqz	a5,34ec <generic_FH_TUERMODUL_CTRL+0x490>
    3498:	00004797          	auipc	a5,0x4
    349c:	d387b783          	ld	a5,-712(a5) # 71d0 <_GLOBAL_OFFSET_TABLE_+0x1b0>
    34a0:	00078023          	sb	zero,0(a5)
    34a4:	00004797          	auipc	a5,0x4
    34a8:	c847b783          	ld	a5,-892(a5) # 7128 <_GLOBAL_OFFSET_TABLE_+0x108>
    34ac:	00078023          	sb	zero,0(a5)
    34b0:	00004797          	auipc	a5,0x4
    34b4:	de07b783          	ld	a5,-544(a5) # 7290 <_GLOBAL_OFFSET_TABLE_+0x270>
    34b8:	0007b703          	ld	a4,0(a5)
    34bc:	00004797          	auipc	a5,0x4
    34c0:	bd47b783          	ld	a5,-1068(a5) # 7090 <_GLOBAL_OFFSET_TABLE_+0x70>
    34c4:	00e7b023          	sd	a4,0(a5)
    34c8:	00004797          	auipc	a5,0x4
    34cc:	e507b783          	ld	a5,-432(a5) # 7318 <_GLOBAL_OFFSET_TABLE_+0x2f8>
    34d0:	00200713          	li	a4,2
    34d4:	00e78023          	sb	a4,0(a5)
    34d8:	00004797          	auipc	a5,0x4
    34dc:	d587b783          	ld	a5,-680(a5) # 7230 <_GLOBAL_OFFSET_TABLE_+0x210>
    34e0:	00300713          	li	a4,3
    34e4:	00e78023          	sb	a4,0(a5)
    34e8:	0710006f          	j	3d58 <generic_FH_TUERMODUL_CTRL+0xcfc>
    34ec:	00004797          	auipc	a5,0x4
    34f0:	c247b783          	ld	a5,-988(a5) # 7110 <_GLOBAL_OFFSET_TABLE_+0xf0>
    34f4:	0007c783          	lbu	a5,0(a5)
    34f8:	06078c63          	beqz	a5,3570 <generic_FH_TUERMODUL_CTRL+0x514>
    34fc:	00004797          	auipc	a5,0x4
    3500:	cbc7b783          	ld	a5,-836(a5) # 71b8 <_GLOBAL_OFFSET_TABLE_+0x198>
    3504:	0007c783          	lbu	a5,0(a5)
    3508:	06079463          	bnez	a5,3570 <generic_FH_TUERMODUL_CTRL+0x514>
    350c:	00004797          	auipc	a5,0x4
    3510:	da47b783          	ld	a5,-604(a5) # 72b0 <_GLOBAL_OFFSET_TABLE_+0x290>
    3514:	0007c783          	lbu	a5,0(a5)
    3518:	04078c63          	beqz	a5,3570 <generic_FH_TUERMODUL_CTRL+0x514>
    351c:	00004797          	auipc	a5,0x4
    3520:	cb47b783          	ld	a5,-844(a5) # 71d0 <_GLOBAL_OFFSET_TABLE_+0x1b0>
    3524:	00078023          	sb	zero,0(a5)
    3528:	00004797          	auipc	a5,0x4
    352c:	dc87b783          	ld	a5,-568(a5) # 72f0 <_GLOBAL_OFFSET_TABLE_+0x2d0>
    3530:	00078023          	sb	zero,0(a5)
    3534:	00004797          	auipc	a5,0x4
    3538:	d5c7b783          	ld	a5,-676(a5) # 7290 <_GLOBAL_OFFSET_TABLE_+0x270>
    353c:	0007b703          	ld	a4,0(a5)
    3540:	00004797          	auipc	a5,0x4
    3544:	b387b783          	ld	a5,-1224(a5) # 7078 <_GLOBAL_OFFSET_TABLE_+0x58>
    3548:	00e7b023          	sd	a4,0(a5)
    354c:	00004797          	auipc	a5,0x4
    3550:	dcc7b783          	ld	a5,-564(a5) # 7318 <_GLOBAL_OFFSET_TABLE_+0x2f8>
    3554:	00200713          	li	a4,2
    3558:	00e78023          	sb	a4,0(a5)
    355c:	00004797          	auipc	a5,0x4
    3560:	cd47b783          	ld	a5,-812(a5) # 7230 <_GLOBAL_OFFSET_TABLE_+0x210>
    3564:	00300713          	li	a4,3
    3568:	00e78023          	sb	a4,0(a5)
    356c:	7ec0006f          	j	3d58 <generic_FH_TUERMODUL_CTRL+0xcfc>
    3570:	00004797          	auipc	a5,0x4
    3574:	dc07b783          	ld	a5,-576(a5) # 7330 <_GLOBAL_OFFSET_TABLE_+0x310>
    3578:	0007c783          	lbu	a5,0(a5)
    357c:	0007879b          	sext.w	a5,a5
    3580:	00078693          	mv	a3,a5
    3584:	00300713          	li	a4,3
    3588:	66e68e63          	beq	a3,a4,3c04 <generic_FH_TUERMODUL_CTRL+0xba8>
    358c:	00078693          	mv	a3,a5
    3590:	00300713          	li	a4,3
    3594:	76d74c63          	blt	a4,a3,3d0c <generic_FH_TUERMODUL_CTRL+0xcb0>
    3598:	00078693          	mv	a3,a5
    359c:	00100713          	li	a4,1
    35a0:	00e68a63          	beq	a3,a4,35b4 <generic_FH_TUERMODUL_CTRL+0x558>
    35a4:	00078713          	mv	a4,a5
    35a8:	00200793          	li	a5,2
    35ac:	1af70a63          	beq	a4,a5,3760 <generic_FH_TUERMODUL_CTRL+0x704>
    35b0:	75c0006f          	j	3d0c <generic_FH_TUERMODUL_CTRL+0xcb0>
    35b4:	00004797          	auipc	a5,0x4
    35b8:	bbc7b783          	ld	a5,-1092(a5) # 7170 <_GLOBAL_OFFSET_TABLE_+0x150>
    35bc:	0007a783          	lw	a5,0(a5)
    35c0:	00078713          	mv	a4,a5
    35c4:	19400793          	li	a5,404
    35c8:	02e7d863          	bge	a5,a4,35f8 <generic_FH_TUERMODUL_CTRL+0x59c>
    35cc:	00004797          	auipc	a5,0x4
    35d0:	c047b783          	ld	a5,-1020(a5) # 71d0 <_GLOBAL_OFFSET_TABLE_+0x1b0>
    35d4:	00078023          	sb	zero,0(a5)
    35d8:	00004797          	auipc	a5,0x4
    35dc:	b507b783          	ld	a5,-1200(a5) # 7128 <_GLOBAL_OFFSET_TABLE_+0x108>
    35e0:	00078023          	sb	zero,0(a5)
    35e4:	00004797          	auipc	a5,0x4
    35e8:	d4c7b783          	ld	a5,-692(a5) # 7330 <_GLOBAL_OFFSET_TABLE_+0x310>
    35ec:	00300713          	li	a4,3
    35f0:	00e78023          	sb	a4,0(a5)
    35f4:	73c0006f          	j	3d30 <generic_FH_TUERMODUL_CTRL+0xcd4>
    35f8:	00004797          	auipc	a5,0x4
    35fc:	a887b783          	ld	a5,-1400(a5) # 7080 <_GLOBAL_OFFSET_TABLE_+0x60>
    3600:	0007c783          	lbu	a5,0(a5)
    3604:	0007871b          	sext.w	a4,a5
    3608:	00070693          	mv	a3,a4
    360c:	00100793          	li	a5,1
    3610:	00f68863          	beq	a3,a5,3620 <generic_FH_TUERMODUL_CTRL+0x5c4>
    3614:	00200793          	li	a5,2
    3618:	08f70063          	beq	a4,a5,3698 <generic_FH_TUERMODUL_CTRL+0x63c>
    361c:	1140006f          	j	3730 <generic_FH_TUERMODUL_CTRL+0x6d4>
    3620:	00004797          	auipc	a5,0x4
    3624:	c607b783          	ld	a5,-928(a5) # 7280 <_GLOBAL_OFFSET_TABLE_+0x260>
    3628:	0007c783          	lbu	a5,0(a5)
    362c:	00078a63          	beqz	a5,3640 <generic_FH_TUERMODUL_CTRL+0x5e4>
    3630:	00004797          	auipc	a5,0x4
    3634:	a307b783          	ld	a5,-1488(a5) # 7060 <_GLOBAL_OFFSET_TABLE_+0x40>
    3638:	0007c783          	lbu	a5,0(a5)
    363c:	02078263          	beqz	a5,3660 <generic_FH_TUERMODUL_CTRL+0x604>
    3640:	00004797          	auipc	a5,0x4
    3644:	af87b783          	ld	a5,-1288(a5) # 7138 <_GLOBAL_OFFSET_TABLE_+0x118>
    3648:	0007c783          	lbu	a5,0(a5)
    364c:	10078263          	beqz	a5,3750 <generic_FH_TUERMODUL_CTRL+0x6f4>
    3650:	00004797          	auipc	a5,0x4
    3654:	c587b783          	ld	a5,-936(a5) # 72a8 <_GLOBAL_OFFSET_TABLE_+0x288>
    3658:	0007c783          	lbu	a5,0(a5)
    365c:	0e079a63          	bnez	a5,3750 <generic_FH_TUERMODUL_CTRL+0x6f4>
    3660:	00004797          	auipc	a5,0x4
    3664:	b707b783          	ld	a5,-1168(a5) # 71d0 <_GLOBAL_OFFSET_TABLE_+0x1b0>
    3668:	00078023          	sb	zero,0(a5)
    366c:	00004797          	auipc	a5,0x4
    3670:	abc7b783          	ld	a5,-1348(a5) # 7128 <_GLOBAL_OFFSET_TABLE_+0x108>
    3674:	00078023          	sb	zero,0(a5)
    3678:	00004797          	auipc	a5,0x4
    367c:	cb87b783          	ld	a5,-840(a5) # 7330 <_GLOBAL_OFFSET_TABLE_+0x310>
    3680:	00300713          	li	a4,3
    3684:	00e78023          	sb	a4,0(a5)
    3688:	00004797          	auipc	a5,0x4
    368c:	9f87b783          	ld	a5,-1544(a5) # 7080 <_GLOBAL_OFFSET_TABLE_+0x60>
    3690:	00078023          	sb	zero,0(a5)
    3694:	0c80006f          	j	375c <generic_FH_TUERMODUL_CTRL+0x700>
    3698:	00004797          	auipc	a5,0x4
    369c:	be87b783          	ld	a5,-1048(a5) # 7280 <_GLOBAL_OFFSET_TABLE_+0x260>
    36a0:	0007c783          	lbu	a5,0(a5)
    36a4:	02078a63          	beqz	a5,36d8 <generic_FH_TUERMODUL_CTRL+0x67c>
    36a8:	00004797          	auipc	a5,0x4
    36ac:	9b87b783          	ld	a5,-1608(a5) # 7060 <_GLOBAL_OFFSET_TABLE_+0x40>
    36b0:	0007c783          	lbu	a5,0(a5)
    36b4:	02079263          	bnez	a5,36d8 <generic_FH_TUERMODUL_CTRL+0x67c>
    36b8:	00004797          	auipc	a5,0x4
    36bc:	b187b783          	ld	a5,-1256(a5) # 71d0 <_GLOBAL_OFFSET_TABLE_+0x1b0>
    36c0:	00078023          	sb	zero,0(a5)
    36c4:	00004797          	auipc	a5,0x4
    36c8:	9bc7b783          	ld	a5,-1604(a5) # 7080 <_GLOBAL_OFFSET_TABLE_+0x60>
    36cc:	00100713          	li	a4,1
    36d0:	00e78023          	sb	a4,0(a5)
    36d4:	0880006f          	j	375c <generic_FH_TUERMODUL_CTRL+0x700>
    36d8:	00004797          	auipc	a5,0x4
    36dc:	a607b783          	ld	a5,-1440(a5) # 7138 <_GLOBAL_OFFSET_TABLE_+0x118>
    36e0:	0007c783          	lbu	a5,0(a5)
    36e4:	06079a63          	bnez	a5,3758 <generic_FH_TUERMODUL_CTRL+0x6fc>
    36e8:	00004797          	auipc	a5,0x4
    36ec:	bc07b783          	ld	a5,-1088(a5) # 72a8 <_GLOBAL_OFFSET_TABLE_+0x288>
    36f0:	0007c783          	lbu	a5,0(a5)
    36f4:	06078263          	beqz	a5,3758 <generic_FH_TUERMODUL_CTRL+0x6fc>
    36f8:	00004797          	auipc	a5,0x4
    36fc:	ad87b783          	ld	a5,-1320(a5) # 71d0 <_GLOBAL_OFFSET_TABLE_+0x1b0>
    3700:	00078023          	sb	zero,0(a5)
    3704:	00004797          	auipc	a5,0x4
    3708:	a247b783          	ld	a5,-1500(a5) # 7128 <_GLOBAL_OFFSET_TABLE_+0x108>
    370c:	00078023          	sb	zero,0(a5)
    3710:	00004797          	auipc	a5,0x4
    3714:	c207b783          	ld	a5,-992(a5) # 7330 <_GLOBAL_OFFSET_TABLE_+0x310>
    3718:	00300713          	li	a4,3
    371c:	00e78023          	sb	a4,0(a5)
    3720:	00004797          	auipc	a5,0x4
    3724:	9607b783          	ld	a5,-1696(a5) # 7080 <_GLOBAL_OFFSET_TABLE_+0x60>
    3728:	00078023          	sb	zero,0(a5)
    372c:	0300006f          	j	375c <generic_FH_TUERMODUL_CTRL+0x700>
    3730:	00004797          	auipc	a5,0x4
    3734:	aa07b783          	ld	a5,-1376(a5) # 71d0 <_GLOBAL_OFFSET_TABLE_+0x1b0>
    3738:	00078023          	sb	zero,0(a5)
    373c:	00004797          	auipc	a5,0x4
    3740:	9447b783          	ld	a5,-1724(a5) # 7080 <_GLOBAL_OFFSET_TABLE_+0x60>
    3744:	00200713          	li	a4,2
    3748:	00e78023          	sb	a4,0(a5)
    374c:	0100006f          	j	375c <generic_FH_TUERMODUL_CTRL+0x700>
    3750:	00000013          	nop
    3754:	5dc0006f          	j	3d30 <generic_FH_TUERMODUL_CTRL+0xcd4>
    3758:	00000013          	nop
    375c:	5d40006f          	j	3d30 <generic_FH_TUERMODUL_CTRL+0xcd4>
    3760:	00004797          	auipc	a5,0x4
    3764:	a107b783          	ld	a5,-1520(a5) # 7170 <_GLOBAL_OFFSET_TABLE_+0x150>
    3768:	0007a783          	lw	a5,0(a5)
    376c:	02f04863          	bgtz	a5,379c <generic_FH_TUERMODUL_CTRL+0x740>
    3770:	00004797          	auipc	a5,0x4
    3774:	a607b783          	ld	a5,-1440(a5) # 71d0 <_GLOBAL_OFFSET_TABLE_+0x1b0>
    3778:	00078023          	sb	zero,0(a5)
    377c:	00004797          	auipc	a5,0x4
    3780:	b747b783          	ld	a5,-1164(a5) # 72f0 <_GLOBAL_OFFSET_TABLE_+0x2d0>
    3784:	00078023          	sb	zero,0(a5)
    3788:	00004797          	auipc	a5,0x4
    378c:	ba87b783          	ld	a5,-1112(a5) # 7330 <_GLOBAL_OFFSET_TABLE_+0x310>
    3790:	00300713          	li	a4,3
    3794:	00e78023          	sb	a4,0(a5)
    3798:	5980006f          	j	3d30 <generic_FH_TUERMODUL_CTRL+0xcd4>
    379c:	00004797          	auipc	a5,0x4
    37a0:	b4c7b783          	ld	a5,-1204(a5) # 72e8 <_GLOBAL_OFFSET_TABLE_+0x2c8>
    37a4:	0007c783          	lbu	a5,0(a5)
    37a8:	0007871b          	sext.w	a4,a5
    37ac:	00070693          	mv	a3,a4
    37b0:	00100793          	li	a5,1
    37b4:	00f68863          	beq	a3,a5,37c4 <generic_FH_TUERMODUL_CTRL+0x768>
    37b8:	00200793          	li	a5,2
    37bc:	1ef70063          	beq	a4,a5,399c <generic_FH_TUERMODUL_CTRL+0x940>
    37c0:	3f00006f          	j	3bb0 <generic_FH_TUERMODUL_CTRL+0xb54>
    37c4:	00004797          	auipc	a5,0x4
    37c8:	9747b783          	ld	a5,-1676(a5) # 7138 <_GLOBAL_OFFSET_TABLE_+0x118>
    37cc:	0007c783          	lbu	a5,0(a5)
    37d0:	00078a63          	beqz	a5,37e4 <generic_FH_TUERMODUL_CTRL+0x788>
    37d4:	00004797          	auipc	a5,0x4
    37d8:	ad47b783          	ld	a5,-1324(a5) # 72a8 <_GLOBAL_OFFSET_TABLE_+0x288>
    37dc:	0007c783          	lbu	a5,0(a5)
    37e0:	02078263          	beqz	a5,3804 <generic_FH_TUERMODUL_CTRL+0x7a8>
    37e4:	00004797          	auipc	a5,0x4
    37e8:	a9c7b783          	ld	a5,-1380(a5) # 7280 <_GLOBAL_OFFSET_TABLE_+0x260>
    37ec:	0007c783          	lbu	a5,0(a5)
    37f0:	04078063          	beqz	a5,3830 <generic_FH_TUERMODUL_CTRL+0x7d4>
    37f4:	00004797          	auipc	a5,0x4
    37f8:	86c7b783          	ld	a5,-1940(a5) # 7060 <_GLOBAL_OFFSET_TABLE_+0x40>
    37fc:	0007c783          	lbu	a5,0(a5)
    3800:	02079863          	bnez	a5,3830 <generic_FH_TUERMODUL_CTRL+0x7d4>
    3804:	00004797          	auipc	a5,0x4
    3808:	9cc7b783          	ld	a5,-1588(a5) # 71d0 <_GLOBAL_OFFSET_TABLE_+0x1b0>
    380c:	00078023          	sb	zero,0(a5)
    3810:	00004797          	auipc	a5,0x4
    3814:	ae07b783          	ld	a5,-1312(a5) # 72f0 <_GLOBAL_OFFSET_TABLE_+0x2d0>
    3818:	00078023          	sb	zero,0(a5)
    381c:	00004797          	auipc	a5,0x4
    3820:	b147b783          	ld	a5,-1260(a5) # 7330 <_GLOBAL_OFFSET_TABLE_+0x310>
    3824:	00300713          	li	a4,3
    3828:	00e78023          	sb	a4,0(a5)
    382c:	3d40006f          	j	3c00 <generic_FH_TUERMODUL_CTRL+0xba4>
    3830:	00004797          	auipc	a5,0x4
    3834:	a687b783          	ld	a5,-1432(a5) # 7298 <_GLOBAL_OFFSET_TABLE_+0x278>
    3838:	0007c783          	lbu	a5,0(a5)
    383c:	0007871b          	sext.w	a4,a5
    3840:	00070693          	mv	a3,a4
    3844:	00100793          	li	a5,1
    3848:	00f68863          	beq	a3,a5,3858 <generic_FH_TUERMODUL_CTRL+0x7fc>
    384c:	00200793          	li	a5,2
    3850:	06f70e63          	beq	a4,a5,38cc <generic_FH_TUERMODUL_CTRL+0x870>
    3854:	1080006f          	j	395c <generic_FH_TUERMODUL_CTRL+0x900>
    3858:	00004797          	auipc	a5,0x4
    385c:	b0878793          	addi	a5,a5,-1272 # 7360 <Bitlist>
    3860:	00078ba3          	sb	zero,23(a5)
    3864:	00004797          	auipc	a5,0x4
    3868:	afc78793          	addi	a5,a5,-1284 # 7360 <Bitlist>
    386c:	0167c783          	lbu	a5,22(a5)
    3870:	10078e63          	beqz	a5,398c <generic_FH_TUERMODUL_CTRL+0x930>
    3874:	00004797          	auipc	a5,0x4
    3878:	95c7b783          	ld	a5,-1700(a5) # 71d0 <_GLOBAL_OFFSET_TABLE_+0x1b0>
    387c:	00078023          	sb	zero,0(a5)
    3880:	00004797          	auipc	a5,0x4
    3884:	a707b783          	ld	a5,-1424(a5) # 72f0 <_GLOBAL_OFFSET_TABLE_+0x2d0>
    3888:	00100713          	li	a4,1
    388c:	00e78023          	sb	a4,0(a5)
    3890:	00004797          	auipc	a5,0x4
    3894:	a807b783          	ld	a5,-1408(a5) # 7310 <_GLOBAL_OFFSET_TABLE_+0x2f0>
    3898:	00078023          	sb	zero,0(a5)
    389c:	00004797          	auipc	a5,0x4
    38a0:	9fc7b783          	ld	a5,-1540(a5) # 7298 <_GLOBAL_OFFSET_TABLE_+0x278>
    38a4:	00200713          	li	a4,2
    38a8:	00e78023          	sb	a4,0(a5)
    38ac:	00004797          	auipc	a5,0x4
    38b0:	87c7b783          	ld	a5,-1924(a5) # 7128 <_GLOBAL_OFFSET_TABLE_+0x108>
    38b4:	00078023          	sb	zero,0(a5)
    38b8:	00004797          	auipc	a5,0x4
    38bc:	aa878793          	addi	a5,a5,-1368 # 7360 <Bitlist>
    38c0:	00100713          	li	a4,1
    38c4:	00e788a3          	sb	a4,17(a5)
    38c8:	0d00006f          	j	3998 <generic_FH_TUERMODUL_CTRL+0x93c>
    38cc:	00004797          	auipc	a5,0x4
    38d0:	a9478793          	addi	a5,a5,-1388 # 7360 <Bitlist>
    38d4:	0187c783          	lbu	a5,24(a5)
    38d8:	0a078e63          	beqz	a5,3994 <generic_FH_TUERMODUL_CTRL+0x938>
    38dc:	00004797          	auipc	a5,0x4
    38e0:	8f47b783          	ld	a5,-1804(a5) # 71d0 <_GLOBAL_OFFSET_TABLE_+0x1b0>
    38e4:	00078023          	sb	zero,0(a5)
    38e8:	00004797          	auipc	a5,0x4
    38ec:	a287b783          	ld	a5,-1496(a5) # 7310 <_GLOBAL_OFFSET_TABLE_+0x2f0>
    38f0:	00100713          	li	a4,1
    38f4:	00e78023          	sb	a4,0(a5)
    38f8:	00004797          	auipc	a5,0x4
    38fc:	a6878793          	addi	a5,a5,-1432 # 7360 <Bitlist>
    3900:	00100713          	li	a4,1
    3904:	00e78ba3          	sb	a4,23(a5)
    3908:	00004797          	auipc	a5,0x4
    390c:	9907b783          	ld	a5,-1648(a5) # 7298 <_GLOBAL_OFFSET_TABLE_+0x278>
    3910:	00100713          	li	a4,1
    3914:	00e78023          	sb	a4,0(a5)
    3918:	00004797          	auipc	a5,0x4
    391c:	a4878793          	addi	a5,a5,-1464 # 7360 <Bitlist>
    3920:	000788a3          	sb	zero,17(a5)
    3924:	00004797          	auipc	a5,0x4
    3928:	9cc7b783          	ld	a5,-1588(a5) # 72f0 <_GLOBAL_OFFSET_TABLE_+0x2d0>
    392c:	00078023          	sb	zero,0(a5)
    3930:	00004797          	auipc	a5,0x4
    3934:	9607b783          	ld	a5,-1696(a5) # 7290 <_GLOBAL_OFFSET_TABLE_+0x270>
    3938:	0007b703          	ld	a4,0(a5)
    393c:	00004797          	auipc	a5,0x4
    3940:	8447b783          	ld	a5,-1980(a5) # 7180 <_GLOBAL_OFFSET_TABLE_+0x160>
    3944:	00e7b023          	sd	a4,0(a5)
    3948:	00003797          	auipc	a5,0x3
    394c:	7e07b783          	ld	a5,2016(a5) # 7128 <_GLOBAL_OFFSET_TABLE_+0x108>
    3950:	00100713          	li	a4,1
    3954:	00e78023          	sb	a4,0(a5)
    3958:	0400006f          	j	3998 <generic_FH_TUERMODUL_CTRL+0x93c>
    395c:	00004797          	auipc	a5,0x4
    3960:	8747b783          	ld	a5,-1932(a5) # 71d0 <_GLOBAL_OFFSET_TABLE_+0x1b0>
    3964:	00078023          	sb	zero,0(a5)
    3968:	00004797          	auipc	a5,0x4
    396c:	9307b783          	ld	a5,-1744(a5) # 7298 <_GLOBAL_OFFSET_TABLE_+0x278>
    3970:	00200713          	li	a4,2
    3974:	00e78023          	sb	a4,0(a5)
    3978:	00004797          	auipc	a5,0x4
    397c:	9e878793          	addi	a5,a5,-1560 # 7360 <Bitlist>
    3980:	00100713          	li	a4,1
    3984:	00e788a3          	sb	a4,17(a5)
    3988:	0100006f          	j	3998 <generic_FH_TUERMODUL_CTRL+0x93c>
    398c:	00000013          	nop
    3990:	2700006f          	j	3c00 <generic_FH_TUERMODUL_CTRL+0xba4>
    3994:	00000013          	nop
    3998:	2680006f          	j	3c00 <generic_FH_TUERMODUL_CTRL+0xba4>
    399c:	00004797          	auipc	a5,0x4
    39a0:	8e47b783          	ld	a5,-1820(a5) # 7280 <_GLOBAL_OFFSET_TABLE_+0x260>
    39a4:	0007c783          	lbu	a5,0(a5)
    39a8:	04079063          	bnez	a5,39e8 <generic_FH_TUERMODUL_CTRL+0x98c>
    39ac:	00003797          	auipc	a5,0x3
    39b0:	6b47b783          	ld	a5,1716(a5) # 7060 <_GLOBAL_OFFSET_TABLE_+0x40>
    39b4:	0007c783          	lbu	a5,0(a5)
    39b8:	02078863          	beqz	a5,39e8 <generic_FH_TUERMODUL_CTRL+0x98c>
    39bc:	00004797          	auipc	a5,0x4
    39c0:	8147b783          	ld	a5,-2028(a5) # 71d0 <_GLOBAL_OFFSET_TABLE_+0x1b0>
    39c4:	00078023          	sb	zero,0(a5)
    39c8:	00004797          	auipc	a5,0x4
    39cc:	9287b783          	ld	a5,-1752(a5) # 72f0 <_GLOBAL_OFFSET_TABLE_+0x2d0>
    39d0:	00078023          	sb	zero,0(a5)
    39d4:	00004797          	auipc	a5,0x4
    39d8:	95c7b783          	ld	a5,-1700(a5) # 7330 <_GLOBAL_OFFSET_TABLE_+0x310>
    39dc:	00300713          	li	a4,3
    39e0:	00e78023          	sb	a4,0(a5)
    39e4:	21c0006f          	j	3c00 <generic_FH_TUERMODUL_CTRL+0xba4>
    39e8:	00003797          	auipc	a5,0x3
    39ec:	7a07b783          	ld	a5,1952(a5) # 7188 <_GLOBAL_OFFSET_TABLE_+0x168>
    39f0:	0007c783          	lbu	a5,0(a5)
    39f4:	0007871b          	sext.w	a4,a5
    39f8:	00070693          	mv	a3,a4
    39fc:	00100793          	li	a5,1
    3a00:	00f68863          	beq	a3,a5,3a10 <generic_FH_TUERMODUL_CTRL+0x9b4>
    3a04:	00200793          	li	a5,2
    3a08:	06f70e63          	beq	a4,a5,3a84 <generic_FH_TUERMODUL_CTRL+0xa28>
    3a0c:	1540006f          	j	3b60 <generic_FH_TUERMODUL_CTRL+0xb04>
    3a10:	00004797          	auipc	a5,0x4
    3a14:	95078793          	addi	a5,a5,-1712 # 7360 <Bitlist>
    3a18:	00078ba3          	sb	zero,23(a5)
    3a1c:	00004797          	auipc	a5,0x4
    3a20:	94478793          	addi	a5,a5,-1724 # 7360 <Bitlist>
    3a24:	0167c783          	lbu	a5,22(a5)
    3a28:	16078c63          	beqz	a5,3ba0 <generic_FH_TUERMODUL_CTRL+0xb44>
    3a2c:	00003797          	auipc	a5,0x3
    3a30:	7a47b783          	ld	a5,1956(a5) # 71d0 <_GLOBAL_OFFSET_TABLE_+0x1b0>
    3a34:	00078023          	sb	zero,0(a5)
    3a38:	00003797          	auipc	a5,0x3
    3a3c:	6087b783          	ld	a5,1544(a5) # 7040 <_GLOBAL_OFFSET_TABLE_+0x20>
    3a40:	00078023          	sb	zero,0(a5)
    3a44:	00003797          	auipc	a5,0x3
    3a48:	7447b783          	ld	a5,1860(a5) # 7188 <_GLOBAL_OFFSET_TABLE_+0x168>
    3a4c:	00200713          	li	a4,2
    3a50:	00e78023          	sb	a4,0(a5)
    3a54:	00003797          	auipc	a5,0x3
    3a58:	6d47b783          	ld	a5,1748(a5) # 7128 <_GLOBAL_OFFSET_TABLE_+0x108>
    3a5c:	00078023          	sb	zero,0(a5)
    3a60:	00004797          	auipc	a5,0x4
    3a64:	90078793          	addi	a5,a5,-1792 # 7360 <Bitlist>
    3a68:	00100713          	li	a4,1
    3a6c:	00e788a3          	sb	a4,17(a5)
    3a70:	00004797          	auipc	a5,0x4
    3a74:	8807b783          	ld	a5,-1920(a5) # 72f0 <_GLOBAL_OFFSET_TABLE_+0x2d0>
    3a78:	00100713          	li	a4,1
    3a7c:	00e78023          	sb	a4,0(a5)
    3a80:	12c0006f          	j	3bac <generic_FH_TUERMODUL_CTRL+0xb50>
    3a84:	00004797          	auipc	a5,0x4
    3a88:	8dc78793          	addi	a5,a5,-1828 # 7360 <Bitlist>
    3a8c:	0187c783          	lbu	a5,24(a5)
    3a90:	08078263          	beqz	a5,3b14 <generic_FH_TUERMODUL_CTRL+0xab8>
    3a94:	00003797          	auipc	a5,0x3
    3a98:	73c7b783          	ld	a5,1852(a5) # 71d0 <_GLOBAL_OFFSET_TABLE_+0x1b0>
    3a9c:	00078023          	sb	zero,0(a5)
    3aa0:	00004797          	auipc	a5,0x4
    3aa4:	8507b783          	ld	a5,-1968(a5) # 72f0 <_GLOBAL_OFFSET_TABLE_+0x2d0>
    3aa8:	00078023          	sb	zero,0(a5)
    3aac:	00003797          	auipc	a5,0x3
    3ab0:	5947b783          	ld	a5,1428(a5) # 7040 <_GLOBAL_OFFSET_TABLE_+0x20>
    3ab4:	00100713          	li	a4,1
    3ab8:	00e78023          	sb	a4,0(a5)
    3abc:	00004797          	auipc	a5,0x4
    3ac0:	8a478793          	addi	a5,a5,-1884 # 7360 <Bitlist>
    3ac4:	00100713          	li	a4,1
    3ac8:	00e78ba3          	sb	a4,23(a5)
    3acc:	00003797          	auipc	a5,0x3
    3ad0:	6bc7b783          	ld	a5,1724(a5) # 7188 <_GLOBAL_OFFSET_TABLE_+0x168>
    3ad4:	00100713          	li	a4,1
    3ad8:	00e78023          	sb	a4,0(a5)
    3adc:	00004797          	auipc	a5,0x4
    3ae0:	88478793          	addi	a5,a5,-1916 # 7360 <Bitlist>
    3ae4:	000788a3          	sb	zero,17(a5)
    3ae8:	00003797          	auipc	a5,0x3
    3aec:	7a87b783          	ld	a5,1960(a5) # 7290 <_GLOBAL_OFFSET_TABLE_+0x270>
    3af0:	0007b703          	ld	a4,0(a5)
    3af4:	00003797          	auipc	a5,0x3
    3af8:	7dc7b783          	ld	a5,2012(a5) # 72d0 <_GLOBAL_OFFSET_TABLE_+0x2b0>
    3afc:	00e7b023          	sd	a4,0(a5)
    3b00:	00003797          	auipc	a5,0x3
    3b04:	6287b783          	ld	a5,1576(a5) # 7128 <_GLOBAL_OFFSET_TABLE_+0x108>
    3b08:	00100713          	li	a4,1
    3b0c:	00e78023          	sb	a4,0(a5)
    3b10:	09c0006f          	j	3bac <generic_FH_TUERMODUL_CTRL+0xb50>
    3b14:	00003797          	auipc	a5,0x3
    3b18:	6247b783          	ld	a5,1572(a5) # 7138 <_GLOBAL_OFFSET_TABLE_+0x118>
    3b1c:	0007c783          	lbu	a5,0(a5)
    3b20:	08078463          	beqz	a5,3ba8 <generic_FH_TUERMODUL_CTRL+0xb4c>
    3b24:	00003797          	auipc	a5,0x3
    3b28:	7847b783          	ld	a5,1924(a5) # 72a8 <_GLOBAL_OFFSET_TABLE_+0x288>
    3b2c:	0007c783          	lbu	a5,0(a5)
    3b30:	06079c63          	bnez	a5,3ba8 <generic_FH_TUERMODUL_CTRL+0xb4c>
    3b34:	00003797          	auipc	a5,0x3
    3b38:	69c7b783          	ld	a5,1692(a5) # 71d0 <_GLOBAL_OFFSET_TABLE_+0x1b0>
    3b3c:	00078023          	sb	zero,0(a5)
    3b40:	00003797          	auipc	a5,0x3
    3b44:	7a87b783          	ld	a5,1960(a5) # 72e8 <_GLOBAL_OFFSET_TABLE_+0x2c8>
    3b48:	00100713          	li	a4,1
    3b4c:	00e78023          	sb	a4,0(a5)
    3b50:	00003797          	auipc	a5,0x3
    3b54:	6387b783          	ld	a5,1592(a5) # 7188 <_GLOBAL_OFFSET_TABLE_+0x168>
    3b58:	00078023          	sb	zero,0(a5)
    3b5c:	0500006f          	j	3bac <generic_FH_TUERMODUL_CTRL+0xb50>
    3b60:	00003797          	auipc	a5,0x3
    3b64:	6707b783          	ld	a5,1648(a5) # 71d0 <_GLOBAL_OFFSET_TABLE_+0x1b0>
    3b68:	00078023          	sb	zero,0(a5)
    3b6c:	00003797          	auipc	a5,0x3
    3b70:	61c7b783          	ld	a5,1564(a5) # 7188 <_GLOBAL_OFFSET_TABLE_+0x168>
    3b74:	00200713          	li	a4,2
    3b78:	00e78023          	sb	a4,0(a5)
    3b7c:	00003797          	auipc	a5,0x3
    3b80:	7e478793          	addi	a5,a5,2020 # 7360 <Bitlist>
    3b84:	00100713          	li	a4,1
    3b88:	00e788a3          	sb	a4,17(a5)
    3b8c:	00003797          	auipc	a5,0x3
    3b90:	7647b783          	ld	a5,1892(a5) # 72f0 <_GLOBAL_OFFSET_TABLE_+0x2d0>
    3b94:	00100713          	li	a4,1
    3b98:	00e78023          	sb	a4,0(a5)
    3b9c:	0100006f          	j	3bac <generic_FH_TUERMODUL_CTRL+0xb50>
    3ba0:	00000013          	nop
    3ba4:	05c0006f          	j	3c00 <generic_FH_TUERMODUL_CTRL+0xba4>
    3ba8:	00000013          	nop
    3bac:	0540006f          	j	3c00 <generic_FH_TUERMODUL_CTRL+0xba4>
    3bb0:	00003797          	auipc	a5,0x3
    3bb4:	6207b783          	ld	a5,1568(a5) # 71d0 <_GLOBAL_OFFSET_TABLE_+0x1b0>
    3bb8:	00078023          	sb	zero,0(a5)
    3bbc:	00003797          	auipc	a5,0x3
    3bc0:	72c7b783          	ld	a5,1836(a5) # 72e8 <_GLOBAL_OFFSET_TABLE_+0x2c8>
    3bc4:	00200713          	li	a4,2
    3bc8:	00e78023          	sb	a4,0(a5)
    3bcc:	00003797          	auipc	a5,0x3
    3bd0:	5bc7b783          	ld	a5,1468(a5) # 7188 <_GLOBAL_OFFSET_TABLE_+0x168>
    3bd4:	00200713          	li	a4,2
    3bd8:	00e78023          	sb	a4,0(a5)
    3bdc:	00003797          	auipc	a5,0x3
    3be0:	78478793          	addi	a5,a5,1924 # 7360 <Bitlist>
    3be4:	00100713          	li	a4,1
    3be8:	00e788a3          	sb	a4,17(a5)
    3bec:	00003797          	auipc	a5,0x3
    3bf0:	7047b783          	ld	a5,1796(a5) # 72f0 <_GLOBAL_OFFSET_TABLE_+0x2d0>
    3bf4:	00100713          	li	a4,1
    3bf8:	00e78023          	sb	a4,0(a5)
    3bfc:	00000013          	nop
    3c00:	1300006f          	j	3d30 <generic_FH_TUERMODUL_CTRL+0xcd4>
    3c04:	00003797          	auipc	a5,0x3
    3c08:	67c7b783          	ld	a5,1660(a5) # 7280 <_GLOBAL_OFFSET_TABLE_+0x260>
    3c0c:	0007c783          	lbu	a5,0(a5)
    3c10:	08078263          	beqz	a5,3c94 <generic_FH_TUERMODUL_CTRL+0xc38>
    3c14:	00003797          	auipc	a5,0x3
    3c18:	44c7b783          	ld	a5,1100(a5) # 7060 <_GLOBAL_OFFSET_TABLE_+0x40>
    3c1c:	0007c783          	lbu	a5,0(a5)
    3c20:	06079a63          	bnez	a5,3c94 <generic_FH_TUERMODUL_CTRL+0xc38>
    3c24:	00003797          	auipc	a5,0x3
    3c28:	54c7b783          	ld	a5,1356(a5) # 7170 <_GLOBAL_OFFSET_TABLE_+0x150>
    3c2c:	0007a783          	lw	a5,0(a5)
    3c30:	06f05263          	blez	a5,3c94 <generic_FH_TUERMODUL_CTRL+0xc38>
    3c34:	00003797          	auipc	a5,0x3
    3c38:	59c7b783          	ld	a5,1436(a5) # 71d0 <_GLOBAL_OFFSET_TABLE_+0x1b0>
    3c3c:	00078023          	sb	zero,0(a5)
    3c40:	00003797          	auipc	a5,0x3
    3c44:	6f07b783          	ld	a5,1776(a5) # 7330 <_GLOBAL_OFFSET_TABLE_+0x310>
    3c48:	00200713          	li	a4,2
    3c4c:	00e78023          	sb	a4,0(a5)
    3c50:	00003797          	auipc	a5,0x3
    3c54:	6987b783          	ld	a5,1688(a5) # 72e8 <_GLOBAL_OFFSET_TABLE_+0x2c8>
    3c58:	00200713          	li	a4,2
    3c5c:	00e78023          	sb	a4,0(a5)
    3c60:	00003797          	auipc	a5,0x3
    3c64:	5287b783          	ld	a5,1320(a5) # 7188 <_GLOBAL_OFFSET_TABLE_+0x168>
    3c68:	00200713          	li	a4,2
    3c6c:	00e78023          	sb	a4,0(a5)
    3c70:	00003797          	auipc	a5,0x3
    3c74:	6f078793          	addi	a5,a5,1776 # 7360 <Bitlist>
    3c78:	00100713          	li	a4,1
    3c7c:	00e788a3          	sb	a4,17(a5)
    3c80:	00003797          	auipc	a5,0x3
    3c84:	6707b783          	ld	a5,1648(a5) # 72f0 <_GLOBAL_OFFSET_TABLE_+0x2d0>
    3c88:	00100713          	li	a4,1
    3c8c:	00e78023          	sb	a4,0(a5)
    3c90:	0a00006f          	j	3d30 <generic_FH_TUERMODUL_CTRL+0xcd4>
    3c94:	00003797          	auipc	a5,0x3
    3c98:	4a47b783          	ld	a5,1188(a5) # 7138 <_GLOBAL_OFFSET_TABLE_+0x118>
    3c9c:	0007c783          	lbu	a5,0(a5)
    3ca0:	08078663          	beqz	a5,3d2c <generic_FH_TUERMODUL_CTRL+0xcd0>
    3ca4:	00003797          	auipc	a5,0x3
    3ca8:	6047b783          	ld	a5,1540(a5) # 72a8 <_GLOBAL_OFFSET_TABLE_+0x288>
    3cac:	0007c783          	lbu	a5,0(a5)
    3cb0:	06079e63          	bnez	a5,3d2c <generic_FH_TUERMODUL_CTRL+0xcd0>
    3cb4:	00003797          	auipc	a5,0x3
    3cb8:	4bc7b783          	ld	a5,1212(a5) # 7170 <_GLOBAL_OFFSET_TABLE_+0x150>
    3cbc:	0007a783          	lw	a5,0(a5)
    3cc0:	00078713          	mv	a4,a5
    3cc4:	19400793          	li	a5,404
    3cc8:	06e7c263          	blt	a5,a4,3d2c <generic_FH_TUERMODUL_CTRL+0xcd0>
    3ccc:	00003797          	auipc	a5,0x3
    3cd0:	5047b783          	ld	a5,1284(a5) # 71d0 <_GLOBAL_OFFSET_TABLE_+0x1b0>
    3cd4:	00078023          	sb	zero,0(a5)
    3cd8:	00003797          	auipc	a5,0x3
    3cdc:	4507b783          	ld	a5,1104(a5) # 7128 <_GLOBAL_OFFSET_TABLE_+0x108>
    3ce0:	00100713          	li	a4,1
    3ce4:	00e78023          	sb	a4,0(a5)
    3ce8:	00003797          	auipc	a5,0x3
    3cec:	6487b783          	ld	a5,1608(a5) # 7330 <_GLOBAL_OFFSET_TABLE_+0x310>
    3cf0:	00100713          	li	a4,1
    3cf4:	00e78023          	sb	a4,0(a5)
    3cf8:	00003797          	auipc	a5,0x3
    3cfc:	3887b783          	ld	a5,904(a5) # 7080 <_GLOBAL_OFFSET_TABLE_+0x60>
    3d00:	00200713          	li	a4,2
    3d04:	00e78023          	sb	a4,0(a5)
    3d08:	0280006f          	j	3d30 <generic_FH_TUERMODUL_CTRL+0xcd4>
    3d0c:	00003797          	auipc	a5,0x3
    3d10:	4c47b783          	ld	a5,1220(a5) # 71d0 <_GLOBAL_OFFSET_TABLE_+0x1b0>
    3d14:	00078023          	sb	zero,0(a5)
    3d18:	00003797          	auipc	a5,0x3
    3d1c:	6187b783          	ld	a5,1560(a5) # 7330 <_GLOBAL_OFFSET_TABLE_+0x310>
    3d20:	00300713          	li	a4,3
    3d24:	00e78023          	sb	a4,0(a5)
    3d28:	0080006f          	j	3d30 <generic_FH_TUERMODUL_CTRL+0xcd4>
    3d2c:	00000013          	nop
    3d30:	0280006f          	j	3d58 <generic_FH_TUERMODUL_CTRL+0xcfc>
    3d34:	00003797          	auipc	a5,0x3
    3d38:	49c7b783          	ld	a5,1180(a5) # 71d0 <_GLOBAL_OFFSET_TABLE_+0x1b0>
    3d3c:	00078023          	sb	zero,0(a5)
    3d40:	00003797          	auipc	a5,0x3
    3d44:	5d87b783          	ld	a5,1496(a5) # 7318 <_GLOBAL_OFFSET_TABLE_+0x2f8>
    3d48:	00200713          	li	a4,2
    3d4c:	00e78023          	sb	a4,0(a5)
    3d50:	0080006f          	j	3d58 <generic_FH_TUERMODUL_CTRL+0xcfc>
    3d54:	00000013          	nop
    3d58:	00003797          	auipc	a5,0x3
    3d5c:	4807b783          	ld	a5,1152(a5) # 71d8 <_GLOBAL_OFFSET_TABLE_+0x1b8>
    3d60:	0007c783          	lbu	a5,0(a5)
    3d64:	0007879b          	sext.w	a5,a5
    3d68:	00078713          	mv	a4,a5
    3d6c:	00100793          	li	a5,1
    3d70:	1ef71663          	bne	a4,a5,3f5c <generic_FH_TUERMODUL_CTRL+0xf00>
    3d74:	00003797          	auipc	a5,0x3
    3d78:	5ec78793          	addi	a5,a5,1516 # 7360 <Bitlist>
    3d7c:	000782a3          	sb	zero,5(a5)
    3d80:	00003797          	auipc	a5,0x3
    3d84:	4607b783          	ld	a5,1120(a5) # 71e0 <_GLOBAL_OFFSET_TABLE_+0x1c0>
    3d88:	0007c783          	lbu	a5,0(a5)
    3d8c:	00078713          	mv	a4,a5
    3d90:	00100793          	li	a5,1
    3d94:	0af71c63          	bne	a4,a5,3e4c <generic_FH_TUERMODUL_CTRL+0xdf0>
    3d98:	00003797          	auipc	a5,0x3
    3d9c:	3687b783          	ld	a5,872(a5) # 7100 <_GLOBAL_OFFSET_TABLE_+0xe0>
    3da0:	0007b783          	ld	a5,0(a5)
    3da4:	0a078463          	beqz	a5,3e4c <generic_FH_TUERMODUL_CTRL+0xdf0>
    3da8:	00003797          	auipc	a5,0x3
    3dac:	4e87b783          	ld	a5,1256(a5) # 7290 <_GLOBAL_OFFSET_TABLE_+0x270>
    3db0:	0007b703          	ld	a4,0(a5)
    3db4:	00003797          	auipc	a5,0x3
    3db8:	34c7b783          	ld	a5,844(a5) # 7100 <_GLOBAL_OFFSET_TABLE_+0xe0>
    3dbc:	0007b783          	ld	a5,0(a5)
    3dc0:	40f70733          	sub	a4,a4,a5
    3dc4:	00100793          	li	a5,1
    3dc8:	08f71263          	bne	a4,a5,3e4c <generic_FH_TUERMODUL_CTRL+0xdf0>
    3dcc:	00003797          	auipc	a5,0x3
    3dd0:	4e47b783          	ld	a5,1252(a5) # 72b0 <_GLOBAL_OFFSET_TABLE_+0x290>
    3dd4:	0007c783          	lbu	a5,0(a5)
    3dd8:	00079a63          	bnez	a5,3dec <generic_FH_TUERMODUL_CTRL+0xd90>
    3ddc:	00003797          	auipc	a5,0x3
    3de0:	3447b783          	ld	a5,836(a5) # 7120 <_GLOBAL_OFFSET_TABLE_+0x100>
    3de4:	0007c783          	lbu	a5,0(a5)
    3de8:	06078263          	beqz	a5,3e4c <generic_FH_TUERMODUL_CTRL+0xdf0>
    3dec:	00003797          	auipc	a5,0x3
    3df0:	3e47b783          	ld	a5,996(a5) # 71d0 <_GLOBAL_OFFSET_TABLE_+0x1b0>
    3df4:	00078023          	sb	zero,0(a5)
    3df8:	00003797          	auipc	a5,0x3
    3dfc:	2a87b783          	ld	a5,680(a5) # 70a0 <_GLOBAL_OFFSET_TABLE_+0x80>
    3e00:	0007a783          	lw	a5,0(a5)
    3e04:	0017879b          	addiw	a5,a5,1
    3e08:	0007871b          	sext.w	a4,a5
    3e0c:	00003797          	auipc	a5,0x3
    3e10:	2947b783          	ld	a5,660(a5) # 70a0 <_GLOBAL_OFFSET_TABLE_+0x80>
    3e14:	00e7a023          	sw	a4,0(a5)
    3e18:	00003797          	auipc	a5,0x3
    3e1c:	3c07b783          	ld	a5,960(a5) # 71d8 <_GLOBAL_OFFSET_TABLE_+0x1b8>
    3e20:	00100713          	li	a4,1
    3e24:	00e78023          	sb	a4,0(a5)
    3e28:	00003797          	auipc	a5,0x3
    3e2c:	53878793          	addi	a5,a5,1336 # 7360 <Bitlist>
    3e30:	00100713          	li	a4,1
    3e34:	00e782a3          	sb	a4,5(a5)
    3e38:	00003797          	auipc	a5,0x3
    3e3c:	2787b783          	ld	a5,632(a5) # 70b0 <_GLOBAL_OFFSET_TABLE_+0x90>
    3e40:	00100713          	li	a4,1
    3e44:	00e78023          	sb	a4,0(a5)
    3e48:	1600006f          	j	3fa8 <generic_FH_TUERMODUL_CTRL+0xf4c>
    3e4c:	00003797          	auipc	a5,0x3
    3e50:	2647b783          	ld	a5,612(a5) # 70b0 <_GLOBAL_OFFSET_TABLE_+0x90>
    3e54:	0007c783          	lbu	a5,0(a5)
    3e58:	0007879b          	sext.w	a5,a5
    3e5c:	00078713          	mv	a4,a5
    3e60:	00100793          	li	a5,1
    3e64:	0cf71063          	bne	a4,a5,3f24 <generic_FH_TUERMODUL_CTRL+0xec8>
    3e68:	00003797          	auipc	a5,0x3
    3e6c:	3787b783          	ld	a5,888(a5) # 71e0 <_GLOBAL_OFFSET_TABLE_+0x1c0>
    3e70:	0007c783          	lbu	a5,0(a5)
    3e74:	00078713          	mv	a4,a5
    3e78:	00100793          	li	a5,1
    3e7c:	0cf71c63          	bne	a4,a5,3f54 <generic_FH_TUERMODUL_CTRL+0xef8>
    3e80:	00003797          	auipc	a5,0x3
    3e84:	2d87b783          	ld	a5,728(a5) # 7158 <_GLOBAL_OFFSET_TABLE_+0x138>
    3e88:	0007b783          	ld	a5,0(a5)
    3e8c:	0c078463          	beqz	a5,3f54 <generic_FH_TUERMODUL_CTRL+0xef8>
    3e90:	00003797          	auipc	a5,0x3
    3e94:	4007b783          	ld	a5,1024(a5) # 7290 <_GLOBAL_OFFSET_TABLE_+0x270>
    3e98:	0007b703          	ld	a4,0(a5)
    3e9c:	00003797          	auipc	a5,0x3
    3ea0:	2bc7b783          	ld	a5,700(a5) # 7158 <_GLOBAL_OFFSET_TABLE_+0x138>
    3ea4:	0007b783          	ld	a5,0(a5)
    3ea8:	40f70733          	sub	a4,a4,a5
    3eac:	00300793          	li	a5,3
    3eb0:	0af71263          	bne	a4,a5,3f54 <generic_FH_TUERMODUL_CTRL+0xef8>
    3eb4:	00003797          	auipc	a5,0x3
    3eb8:	3fc7b783          	ld	a5,1020(a5) # 72b0 <_GLOBAL_OFFSET_TABLE_+0x290>
    3ebc:	0007c783          	lbu	a5,0(a5)
    3ec0:	08079a63          	bnez	a5,3f54 <generic_FH_TUERMODUL_CTRL+0xef8>
    3ec4:	00003797          	auipc	a5,0x3
    3ec8:	25c7b783          	ld	a5,604(a5) # 7120 <_GLOBAL_OFFSET_TABLE_+0x100>
    3ecc:	0007c783          	lbu	a5,0(a5)
    3ed0:	08079263          	bnez	a5,3f54 <generic_FH_TUERMODUL_CTRL+0xef8>
    3ed4:	00003797          	auipc	a5,0x3
    3ed8:	1cc7b783          	ld	a5,460(a5) # 70a0 <_GLOBAL_OFFSET_TABLE_+0x80>
    3edc:	0007a783          	lw	a5,0(a5)
    3ee0:	06f05a63          	blez	a5,3f54 <generic_FH_TUERMODUL_CTRL+0xef8>
    3ee4:	00003797          	auipc	a5,0x3
    3ee8:	2ec7b783          	ld	a5,748(a5) # 71d0 <_GLOBAL_OFFSET_TABLE_+0x1b0>
    3eec:	00078023          	sb	zero,0(a5)
    3ef0:	00003797          	auipc	a5,0x3
    3ef4:	1b07b783          	ld	a5,432(a5) # 70a0 <_GLOBAL_OFFSET_TABLE_+0x80>
    3ef8:	0007a783          	lw	a5,0(a5)
    3efc:	fff7879b          	addiw	a5,a5,-1
    3f00:	0007871b          	sext.w	a4,a5
    3f04:	00003797          	auipc	a5,0x3
    3f08:	19c7b783          	ld	a5,412(a5) # 70a0 <_GLOBAL_OFFSET_TABLE_+0x80>
    3f0c:	00e7a023          	sw	a4,0(a5)
    3f10:	00003797          	auipc	a5,0x3
    3f14:	1a07b783          	ld	a5,416(a5) # 70b0 <_GLOBAL_OFFSET_TABLE_+0x90>
    3f18:	00100713          	li	a4,1
    3f1c:	00e78023          	sb	a4,0(a5)
    3f20:	0380006f          	j	3f58 <generic_FH_TUERMODUL_CTRL+0xefc>
    3f24:	00003797          	auipc	a5,0x3
    3f28:	2ac7b783          	ld	a5,684(a5) # 71d0 <_GLOBAL_OFFSET_TABLE_+0x1b0>
    3f2c:	00078023          	sb	zero,0(a5)
    3f30:	00003797          	auipc	a5,0x3
    3f34:	43078793          	addi	a5,a5,1072 # 7360 <Bitlist>
    3f38:	00100713          	li	a4,1
    3f3c:	00e782a3          	sb	a4,5(a5)
    3f40:	00003797          	auipc	a5,0x3
    3f44:	1707b783          	ld	a5,368(a5) # 70b0 <_GLOBAL_OFFSET_TABLE_+0x90>
    3f48:	00100713          	li	a4,1
    3f4c:	00e78023          	sb	a4,0(a5)
    3f50:	0080006f          	j	3f58 <generic_FH_TUERMODUL_CTRL+0xefc>
    3f54:	00000013          	nop
    3f58:	0500006f          	j	3fa8 <generic_FH_TUERMODUL_CTRL+0xf4c>
    3f5c:	00003797          	auipc	a5,0x3
    3f60:	2747b783          	ld	a5,628(a5) # 71d0 <_GLOBAL_OFFSET_TABLE_+0x1b0>
    3f64:	00078023          	sb	zero,0(a5)
    3f68:	00003797          	auipc	a5,0x3
    3f6c:	1387b783          	ld	a5,312(a5) # 70a0 <_GLOBAL_OFFSET_TABLE_+0x80>
    3f70:	0007a023          	sw	zero,0(a5)
    3f74:	00003797          	auipc	a5,0x3
    3f78:	2647b783          	ld	a5,612(a5) # 71d8 <_GLOBAL_OFFSET_TABLE_+0x1b8>
    3f7c:	00100713          	li	a4,1
    3f80:	00e78023          	sb	a4,0(a5)
    3f84:	00003797          	auipc	a5,0x3
    3f88:	3dc78793          	addi	a5,a5,988 # 7360 <Bitlist>
    3f8c:	00100713          	li	a4,1
    3f90:	00e782a3          	sb	a4,5(a5)
    3f94:	00003797          	auipc	a5,0x3
    3f98:	11c7b783          	ld	a5,284(a5) # 70b0 <_GLOBAL_OFFSET_TABLE_+0x90>
    3f9c:	00100713          	li	a4,1
    3fa0:	00e78023          	sb	a4,0(a5)
    3fa4:	00000013          	nop
    3fa8:	00003797          	auipc	a5,0x3
    3fac:	3b878793          	addi	a5,a5,952 # 7360 <Bitlist>
    3fb0:	0047c703          	lbu	a4,4(a5)
    3fb4:	00003797          	auipc	a5,0x3
    3fb8:	3ac78793          	addi	a5,a5,940 # 7360 <Bitlist>
    3fbc:	00e782a3          	sb	a4,5(a5)
    3fc0:	00003797          	auipc	a5,0x3
    3fc4:	3a078793          	addi	a5,a5,928 # 7360 <Bitlist>
    3fc8:	0067c703          	lbu	a4,6(a5)
    3fcc:	00003797          	auipc	a5,0x3
    3fd0:	39478793          	addi	a5,a5,916 # 7360 <Bitlist>
    3fd4:	00e783a3          	sb	a4,7(a5)
    3fd8:	00000013          	nop
    3fdc:	00813403          	ld	s0,8(sp)
    3fe0:	01010113          	addi	sp,sp,16
    3fe4:	00008067          	ret

0000000000003fe8 <generic_EINKLEMMSCHUTZ_CTRL>:
    3fe8:	ff010113          	addi	sp,sp,-16
    3fec:	00813423          	sd	s0,8(sp)
    3ff0:	01010413          	addi	s0,sp,16
    3ff4:	00003797          	auipc	a5,0x3
    3ff8:	36c78793          	addi	a5,a5,876 # 7360 <Bitlist>
    3ffc:	0107c783          	lbu	a5,16(a5)
    4000:	10078463          	beqz	a5,4108 <generic_EINKLEMMSCHUTZ_CTRL+0x120>
    4004:	00003797          	auipc	a5,0x3
    4008:	20c7b783          	ld	a5,524(a5) # 7210 <_GLOBAL_OFFSET_TABLE_+0x1f0>
    400c:	0007c783          	lbu	a5,0(a5)
    4010:	0007871b          	sext.w	a4,a5
    4014:	00070693          	mv	a3,a4
    4018:	00100793          	li	a5,1
    401c:	00f68863          	beq	a3,a5,402c <generic_EINKLEMMSCHUTZ_CTRL+0x44>
    4020:	00200793          	li	a5,2
    4024:	06f70c63          	beq	a4,a5,409c <generic_EINKLEMMSCHUTZ_CTRL+0xb4>
    4028:	0c00006f          	j	40e8 <generic_EINKLEMMSCHUTZ_CTRL+0x100>
    402c:	00003797          	auipc	a5,0x3
    4030:	0a47b783          	ld	a5,164(a5) # 70d0 <_GLOBAL_OFFSET_TABLE_+0xb0>
    4034:	0007c783          	lbu	a5,0(a5)
    4038:	0c078c63          	beqz	a5,4110 <generic_EINKLEMMSCHUTZ_CTRL+0x128>
    403c:	00003797          	auipc	a5,0x3
    4040:	0b47b783          	ld	a5,180(a5) # 70f0 <_GLOBAL_OFFSET_TABLE_+0xd0>
    4044:	0007c783          	lbu	a5,0(a5)
    4048:	0c079463          	bnez	a5,4110 <generic_EINKLEMMSCHUTZ_CTRL+0x128>
    404c:	00003797          	auipc	a5,0x3
    4050:	2347b783          	ld	a5,564(a5) # 7280 <_GLOBAL_OFFSET_TABLE_+0x260>
    4054:	0007c783          	lbu	a5,0(a5)
    4058:	00078a63          	beqz	a5,406c <generic_EINKLEMMSCHUTZ_CTRL+0x84>
    405c:	00003797          	auipc	a5,0x3
    4060:	0dc7b783          	ld	a5,220(a5) # 7138 <_GLOBAL_OFFSET_TABLE_+0x118>
    4064:	0007c783          	lbu	a5,0(a5)
    4068:	0a079463          	bnez	a5,4110 <generic_EINKLEMMSCHUTZ_CTRL+0x128>
    406c:	00003797          	auipc	a5,0x3
    4070:	1647b783          	ld	a5,356(a5) # 71d0 <_GLOBAL_OFFSET_TABLE_+0x1b0>
    4074:	00078023          	sb	zero,0(a5)
    4078:	00003797          	auipc	a5,0x3
    407c:	2e878793          	addi	a5,a5,744 # 7360 <Bitlist>
    4080:	00100713          	li	a4,1
    4084:	00e78c23          	sb	a4,24(a5)
    4088:	00003797          	auipc	a5,0x3
    408c:	1887b783          	ld	a5,392(a5) # 7210 <_GLOBAL_OFFSET_TABLE_+0x1f0>
    4090:	00200713          	li	a4,2
    4094:	00e78023          	sb	a4,0(a5)
    4098:	0840006f          	j	411c <generic_EINKLEMMSCHUTZ_CTRL+0x134>
    409c:	00003797          	auipc	a5,0x3
    40a0:	2c478793          	addi	a5,a5,708 # 7360 <Bitlist>
    40a4:	00078c23          	sb	zero,24(a5)
    40a8:	00003797          	auipc	a5,0x3
    40ac:	0287b783          	ld	a5,40(a5) # 70d0 <_GLOBAL_OFFSET_TABLE_+0xb0>
    40b0:	0007c783          	lbu	a5,0(a5)
    40b4:	06079263          	bnez	a5,4118 <generic_EINKLEMMSCHUTZ_CTRL+0x130>
    40b8:	00003797          	auipc	a5,0x3
    40bc:	0387b783          	ld	a5,56(a5) # 70f0 <_GLOBAL_OFFSET_TABLE_+0xd0>
    40c0:	0007c783          	lbu	a5,0(a5)
    40c4:	04078a63          	beqz	a5,4118 <generic_EINKLEMMSCHUTZ_CTRL+0x130>
    40c8:	00003797          	auipc	a5,0x3
    40cc:	1087b783          	ld	a5,264(a5) # 71d0 <_GLOBAL_OFFSET_TABLE_+0x1b0>
    40d0:	00078023          	sb	zero,0(a5)
    40d4:	00003797          	auipc	a5,0x3
    40d8:	13c7b783          	ld	a5,316(a5) # 7210 <_GLOBAL_OFFSET_TABLE_+0x1f0>
    40dc:	00100713          	li	a4,1
    40e0:	00e78023          	sb	a4,0(a5)
    40e4:	0380006f          	j	411c <generic_EINKLEMMSCHUTZ_CTRL+0x134>
    40e8:	00003797          	auipc	a5,0x3
    40ec:	0e87b783          	ld	a5,232(a5) # 71d0 <_GLOBAL_OFFSET_TABLE_+0x1b0>
    40f0:	00078023          	sb	zero,0(a5)
    40f4:	00003797          	auipc	a5,0x3
    40f8:	11c7b783          	ld	a5,284(a5) # 7210 <_GLOBAL_OFFSET_TABLE_+0x1f0>
    40fc:	00100713          	li	a4,1
    4100:	00e78023          	sb	a4,0(a5)
    4104:	0180006f          	j	411c <generic_EINKLEMMSCHUTZ_CTRL+0x134>
    4108:	00000013          	nop
    410c:	0100006f          	j	411c <generic_EINKLEMMSCHUTZ_CTRL+0x134>
    4110:	00000013          	nop
    4114:	0080006f          	j	411c <generic_EINKLEMMSCHUTZ_CTRL+0x134>
    4118:	00000013          	nop
    411c:	00000013          	nop
    4120:	00813403          	ld	s0,8(sp)
    4124:	01010113          	addi	sp,sp,16
    4128:	00008067          	ret

000000000000412c <generic_BLOCK_ERKENNUNG_CTRL>:
    412c:	ff010113          	addi	sp,sp,-16
    4130:	00813423          	sd	s0,8(sp)
    4134:	01010413          	addi	s0,sp,16
    4138:	00003797          	auipc	a5,0x3
    413c:	22878793          	addi	a5,a5,552 # 7360 <Bitlist>
    4140:	0137c783          	lbu	a5,19(a5)
    4144:	02079863          	bnez	a5,4174 <generic_BLOCK_ERKENNUNG_CTRL+0x48>
    4148:	00003797          	auipc	a5,0x3
    414c:	21878793          	addi	a5,a5,536 # 7360 <Bitlist>
    4150:	0157c783          	lbu	a5,21(a5)
    4154:	02078063          	beqz	a5,4174 <generic_BLOCK_ERKENNUNG_CTRL+0x48>
    4158:	00003797          	auipc	a5,0x3
    415c:	20878793          	addi	a5,a5,520 # 7360 <Bitlist>
    4160:	0147c783          	lbu	a5,20(a5)
    4164:	00079863          	bnez	a5,4174 <generic_BLOCK_ERKENNUNG_CTRL+0x48>
    4168:	00003797          	auipc	a5,0x3
    416c:	1f878793          	addi	a5,a5,504 # 7360 <Bitlist>
    4170:	00078023          	sb	zero,0(a5)
    4174:	00003797          	auipc	a5,0x3
    4178:	1ec78793          	addi	a5,a5,492 # 7360 <Bitlist>
    417c:	0137c783          	lbu	a5,19(a5)
    4180:	36078663          	beqz	a5,44ec <generic_BLOCK_ERKENNUNG_CTRL+0x3c0>
    4184:	00003797          	auipc	a5,0x3
    4188:	ff47b783          	ld	a5,-12(a5) # 7178 <_GLOBAL_OFFSET_TABLE_+0x158>
    418c:	0007c783          	lbu	a5,0(a5)
    4190:	0007871b          	sext.w	a4,a5
    4194:	00070693          	mv	a3,a4
    4198:	00100793          	li	a5,1
    419c:	00f68863          	beq	a3,a5,41ac <generic_BLOCK_ERKENNUNG_CTRL+0x80>
    41a0:	00200793          	li	a5,2
    41a4:	08f70e63          	beq	a4,a5,4240 <generic_BLOCK_ERKENNUNG_CTRL+0x114>
    41a8:	3240006f          	j	44cc <generic_BLOCK_ERKENNUNG_CTRL+0x3a0>
    41ac:	00003797          	auipc	a5,0x3
    41b0:	f1c7b783          	ld	a5,-228(a5) # 70c8 <_GLOBAL_OFFSET_TABLE_+0xa8>
    41b4:	0007a703          	lw	a4,0(a5)
    41b8:	00003797          	auipc	a5,0x3
    41bc:	fe07b783          	ld	a5,-32(a5) # 7198 <_GLOBAL_OFFSET_TABLE_+0x178>
    41c0:	0007a783          	lw	a5,0(a5)
    41c4:	32f70863          	beq	a4,a5,44f4 <generic_BLOCK_ERKENNUNG_CTRL+0x3c8>
    41c8:	00003797          	auipc	a5,0x3
    41cc:	f007b783          	ld	a5,-256(a5) # 70c8 <_GLOBAL_OFFSET_TABLE_+0xa8>
    41d0:	0007a783          	lw	a5,0(a5)
    41d4:	32f05063          	blez	a5,44f4 <generic_BLOCK_ERKENNUNG_CTRL+0x3c8>
    41d8:	00003797          	auipc	a5,0x3
    41dc:	ff87b783          	ld	a5,-8(a5) # 71d0 <_GLOBAL_OFFSET_TABLE_+0x1b0>
    41e0:	00078023          	sb	zero,0(a5)
    41e4:	00003797          	auipc	a5,0x3
    41e8:	0847b783          	ld	a5,132(a5) # 7268 <_GLOBAL_OFFSET_TABLE_+0x248>
    41ec:	00078023          	sb	zero,0(a5)
    41f0:	00003797          	auipc	a5,0x3
    41f4:	f887b783          	ld	a5,-120(a5) # 7178 <_GLOBAL_OFFSET_TABLE_+0x158>
    41f8:	00200713          	li	a4,2
    41fc:	00e78023          	sb	a4,0(a5)
    4200:	00003797          	auipc	a5,0x3
    4204:	ee87b783          	ld	a5,-280(a5) # 70e8 <_GLOBAL_OFFSET_TABLE_+0xc8>
    4208:	0007a023          	sw	zero,0(a5)
    420c:	00003797          	auipc	a5,0x3
    4210:	0cc7b783          	ld	a5,204(a5) # 72d8 <_GLOBAL_OFFSET_TABLE_+0x2b8>
    4214:	00200713          	li	a4,2
    4218:	00e7a023          	sw	a4,0(a5)
    421c:	00003797          	auipc	a5,0x3
    4220:	e0c7b783          	ld	a5,-500(a5) # 7028 <_GLOBAL_OFFSET_TABLE_+0x8>
    4224:	00300713          	li	a4,3
    4228:	00e78023          	sb	a4,0(a5)
    422c:	00003797          	auipc	a5,0x3
    4230:	13478793          	addi	a5,a5,308 # 7360 <Bitlist>
    4234:	00100713          	li	a4,1
    4238:	00e78023          	sb	a4,0(a5)
    423c:	2bc0006f          	j	44f8 <generic_BLOCK_ERKENNUNG_CTRL+0x3cc>
    4240:	00003797          	auipc	a5,0x3
    4244:	ee07b783          	ld	a5,-288(a5) # 7120 <_GLOBAL_OFFSET_TABLE_+0x100>
    4248:	0007c783          	lbu	a5,0(a5)
    424c:	00079a63          	bnez	a5,4260 <generic_BLOCK_ERKENNUNG_CTRL+0x134>
    4250:	00003797          	auipc	a5,0x3
    4254:	0507b783          	ld	a5,80(a5) # 72a0 <_GLOBAL_OFFSET_TABLE_+0x280>
    4258:	0007c783          	lbu	a5,0(a5)
    425c:	02079263          	bnez	a5,4280 <generic_BLOCK_ERKENNUNG_CTRL+0x154>
    4260:	00003797          	auipc	a5,0x3
    4264:	0507b783          	ld	a5,80(a5) # 72b0 <_GLOBAL_OFFSET_TABLE_+0x290>
    4268:	0007c783          	lbu	a5,0(a5)
    426c:	04079063          	bnez	a5,42ac <generic_BLOCK_ERKENNUNG_CTRL+0x180>
    4270:	00003797          	auipc	a5,0x3
    4274:	ed07b783          	ld	a5,-304(a5) # 7140 <_GLOBAL_OFFSET_TABLE_+0x120>
    4278:	0007c783          	lbu	a5,0(a5)
    427c:	02078863          	beqz	a5,42ac <generic_BLOCK_ERKENNUNG_CTRL+0x180>
    4280:	00003797          	auipc	a5,0x3
    4284:	f507b783          	ld	a5,-176(a5) # 71d0 <_GLOBAL_OFFSET_TABLE_+0x1b0>
    4288:	00078023          	sb	zero,0(a5)
    428c:	00003797          	auipc	a5,0x3
    4290:	eec7b783          	ld	a5,-276(a5) # 7178 <_GLOBAL_OFFSET_TABLE_+0x158>
    4294:	00100713          	li	a4,1
    4298:	00e78023          	sb	a4,0(a5)
    429c:	00003797          	auipc	a5,0x3
    42a0:	d8c7b783          	ld	a5,-628(a5) # 7028 <_GLOBAL_OFFSET_TABLE_+0x8>
    42a4:	00078023          	sb	zero,0(a5)
    42a8:	2500006f          	j	44f8 <generic_BLOCK_ERKENNUNG_CTRL+0x3cc>
    42ac:	00003797          	auipc	a5,0x3
    42b0:	d7c7b783          	ld	a5,-644(a5) # 7028 <_GLOBAL_OFFSET_TABLE_+0x8>
    42b4:	0007c783          	lbu	a5,0(a5)
    42b8:	0007879b          	sext.w	a5,a5
    42bc:	00078693          	mv	a3,a5
    42c0:	00300713          	li	a4,3
    42c4:	06e68e63          	beq	a3,a4,4340 <generic_BLOCK_ERKENNUNG_CTRL+0x214>
    42c8:	00078693          	mv	a3,a5
    42cc:	00300713          	li	a4,3
    42d0:	18d74c63          	blt	a4,a3,4468 <generic_BLOCK_ERKENNUNG_CTRL+0x33c>
    42d4:	00078693          	mv	a3,a5
    42d8:	00100713          	li	a4,1
    42dc:	1ce68c63          	beq	a3,a4,44b4 <generic_BLOCK_ERKENNUNG_CTRL+0x388>
    42e0:	00078713          	mv	a4,a5
    42e4:	00200793          	li	a5,2
    42e8:	18f71063          	bne	a4,a5,4468 <generic_BLOCK_ERKENNUNG_CTRL+0x33c>
    42ec:	00003797          	auipc	a5,0x3
    42f0:	fec7b783          	ld	a5,-20(a5) # 72d8 <_GLOBAL_OFFSET_TABLE_+0x2b8>
    42f4:	0007a783          	lw	a5,0(a5)
    42f8:	fff7879b          	addiw	a5,a5,-1
    42fc:	0007871b          	sext.w	a4,a5
    4300:	00003797          	auipc	a5,0x3
    4304:	dc87b783          	ld	a5,-568(a5) # 70c8 <_GLOBAL_OFFSET_TABLE_+0xa8>
    4308:	0007a783          	lw	a5,0(a5)
    430c:	1ae7c863          	blt	a5,a4,44bc <generic_BLOCK_ERKENNUNG_CTRL+0x390>
    4310:	00003797          	auipc	a5,0x3
    4314:	ec07b783          	ld	a5,-320(a5) # 71d0 <_GLOBAL_OFFSET_TABLE_+0x1b0>
    4318:	00078023          	sb	zero,0(a5)
    431c:	00003797          	auipc	a5,0x3
    4320:	f4c7b783          	ld	a5,-180(a5) # 7268 <_GLOBAL_OFFSET_TABLE_+0x248>
    4324:	00100713          	li	a4,1
    4328:	00e78023          	sb	a4,0(a5)
    432c:	00003797          	auipc	a5,0x3
    4330:	cfc7b783          	ld	a5,-772(a5) # 7028 <_GLOBAL_OFFSET_TABLE_+0x8>
    4334:	00100713          	li	a4,1
    4338:	00e78023          	sb	a4,0(a5)
    433c:	18c0006f          	j	44c8 <generic_BLOCK_ERKENNUNG_CTRL+0x39c>
    4340:	00003797          	auipc	a5,0x3
    4344:	02078793          	addi	a5,a5,32 # 7360 <Bitlist>
    4348:	00078023          	sb	zero,0(a5)
    434c:	00003797          	auipc	a5,0x3
    4350:	d9c7b783          	ld	a5,-612(a5) # 70e8 <_GLOBAL_OFFSET_TABLE_+0xc8>
    4354:	0007a783          	lw	a5,0(a5)
    4358:	00078713          	mv	a4,a5
    435c:	00b00793          	li	a5,11
    4360:	02f71e63          	bne	a4,a5,439c <generic_BLOCK_ERKENNUNG_CTRL+0x270>
    4364:	00003797          	auipc	a5,0x3
    4368:	da47b783          	ld	a5,-604(a5) # 7108 <_GLOBAL_OFFSET_TABLE_+0xe8>
    436c:	0007a783          	lw	a5,0(a5)
    4370:	00078713          	mv	a4,a5
    4374:	00b00793          	li	a5,11
    4378:	02f70263          	beq	a4,a5,439c <generic_BLOCK_ERKENNUNG_CTRL+0x270>
    437c:	00003797          	auipc	a5,0x3
    4380:	e547b783          	ld	a5,-428(a5) # 71d0 <_GLOBAL_OFFSET_TABLE_+0x1b0>
    4384:	00078023          	sb	zero,0(a5)
    4388:	00003797          	auipc	a5,0x3
    438c:	ca07b783          	ld	a5,-864(a5) # 7028 <_GLOBAL_OFFSET_TABLE_+0x8>
    4390:	00200713          	li	a4,2
    4394:	00e78023          	sb	a4,0(a5)
    4398:	1300006f          	j	44c8 <generic_BLOCK_ERKENNUNG_CTRL+0x39c>
    439c:	00003797          	auipc	a5,0x3
    43a0:	c8c7b783          	ld	a5,-884(a5) # 7028 <_GLOBAL_OFFSET_TABLE_+0x8>
    43a4:	0007c783          	lbu	a5,0(a5)
    43a8:	00078713          	mv	a4,a5
    43ac:	00300793          	li	a5,3
    43b0:	10f71a63          	bne	a4,a5,44c4 <generic_BLOCK_ERKENNUNG_CTRL+0x398>
    43b4:	00003797          	auipc	a5,0x3
    43b8:	e2c7b783          	ld	a5,-468(a5) # 71e0 <_GLOBAL_OFFSET_TABLE_+0x1c0>
    43bc:	0007c783          	lbu	a5,0(a5)
    43c0:	00078713          	mv	a4,a5
    43c4:	00100793          	li	a5,1
    43c8:	0ef71e63          	bne	a4,a5,44c4 <generic_BLOCK_ERKENNUNG_CTRL+0x398>
    43cc:	00003797          	auipc	a5,0x3
    43d0:	ca47b783          	ld	a5,-860(a5) # 7070 <_GLOBAL_OFFSET_TABLE_+0x50>
    43d4:	0007b783          	ld	a5,0(a5)
    43d8:	0e078663          	beqz	a5,44c4 <generic_BLOCK_ERKENNUNG_CTRL+0x398>
    43dc:	00003797          	auipc	a5,0x3
    43e0:	eb47b783          	ld	a5,-332(a5) # 7290 <_GLOBAL_OFFSET_TABLE_+0x270>
    43e4:	0007b703          	ld	a4,0(a5)
    43e8:	00003797          	auipc	a5,0x3
    43ec:	c887b783          	ld	a5,-888(a5) # 7070 <_GLOBAL_OFFSET_TABLE_+0x50>
    43f0:	0007b783          	ld	a5,0(a5)
    43f4:	40f707b3          	sub	a5,a4,a5
    43f8:	d237f753          	fcvt.d.lu	fa4,a5
    43fc:	00001797          	auipc	a5,0x1
    4400:	00c78793          	addi	a5,a5,12 # 5408 <__libc_csu_fini+0xc>
    4404:	0007b787          	fld	fa5,0(a5)
    4408:	a2f727d3          	feq.d	a5,fa4,fa5
    440c:	0a078c63          	beqz	a5,44c4 <generic_BLOCK_ERKENNUNG_CTRL+0x398>
    4410:	00003797          	auipc	a5,0x3
    4414:	cd87b783          	ld	a5,-808(a5) # 70e8 <_GLOBAL_OFFSET_TABLE_+0xc8>
    4418:	0007a783          	lw	a5,0(a5)
    441c:	0017879b          	addiw	a5,a5,1
    4420:	0007871b          	sext.w	a4,a5
    4424:	00003797          	auipc	a5,0x3
    4428:	cc47b783          	ld	a5,-828(a5) # 70e8 <_GLOBAL_OFFSET_TABLE_+0xc8>
    442c:	00e7a023          	sw	a4,0(a5)
    4430:	00003797          	auipc	a5,0x3
    4434:	c987b783          	ld	a5,-872(a5) # 70c8 <_GLOBAL_OFFSET_TABLE_+0xa8>
    4438:	0007a703          	lw	a4,0(a5)
    443c:	00003797          	auipc	a5,0x3
    4440:	e9c7b783          	ld	a5,-356(a5) # 72d8 <_GLOBAL_OFFSET_TABLE_+0x2b8>
    4444:	0007a783          	lw	a5,0(a5)
    4448:	06e7de63          	bge	a5,a4,44c4 <generic_BLOCK_ERKENNUNG_CTRL+0x398>
    444c:	00003797          	auipc	a5,0x3
    4450:	c7c7b783          	ld	a5,-900(a5) # 70c8 <_GLOBAL_OFFSET_TABLE_+0xa8>
    4454:	0007a703          	lw	a4,0(a5)
    4458:	00003797          	auipc	a5,0x3
    445c:	e807b783          	ld	a5,-384(a5) # 72d8 <_GLOBAL_OFFSET_TABLE_+0x2b8>
    4460:	00e7a023          	sw	a4,0(a5)
    4464:	0600006f          	j	44c4 <generic_BLOCK_ERKENNUNG_CTRL+0x398>
    4468:	00003797          	auipc	a5,0x3
    446c:	d687b783          	ld	a5,-664(a5) # 71d0 <_GLOBAL_OFFSET_TABLE_+0x1b0>
    4470:	00078023          	sb	zero,0(a5)
    4474:	00003797          	auipc	a5,0x3
    4478:	c747b783          	ld	a5,-908(a5) # 70e8 <_GLOBAL_OFFSET_TABLE_+0xc8>
    447c:	0007a023          	sw	zero,0(a5)
    4480:	00003797          	auipc	a5,0x3
    4484:	e587b783          	ld	a5,-424(a5) # 72d8 <_GLOBAL_OFFSET_TABLE_+0x2b8>
    4488:	00200713          	li	a4,2
    448c:	00e7a023          	sw	a4,0(a5)
    4490:	00003797          	auipc	a5,0x3
    4494:	b987b783          	ld	a5,-1128(a5) # 7028 <_GLOBAL_OFFSET_TABLE_+0x8>
    4498:	00300713          	li	a4,3
    449c:	00e78023          	sb	a4,0(a5)
    44a0:	00003797          	auipc	a5,0x3
    44a4:	ec078793          	addi	a5,a5,-320 # 7360 <Bitlist>
    44a8:	00100713          	li	a4,1
    44ac:	00e78023          	sb	a4,0(a5)
    44b0:	0180006f          	j	44c8 <generic_BLOCK_ERKENNUNG_CTRL+0x39c>
    44b4:	00000013          	nop
    44b8:	0400006f          	j	44f8 <generic_BLOCK_ERKENNUNG_CTRL+0x3cc>
    44bc:	00000013          	nop
    44c0:	0380006f          	j	44f8 <generic_BLOCK_ERKENNUNG_CTRL+0x3cc>
    44c4:	00000013          	nop
    44c8:	0300006f          	j	44f8 <generic_BLOCK_ERKENNUNG_CTRL+0x3cc>
    44cc:	00003797          	auipc	a5,0x3
    44d0:	d047b783          	ld	a5,-764(a5) # 71d0 <_GLOBAL_OFFSET_TABLE_+0x1b0>
    44d4:	00078023          	sb	zero,0(a5)
    44d8:	00003797          	auipc	a5,0x3
    44dc:	ca07b783          	ld	a5,-864(a5) # 7178 <_GLOBAL_OFFSET_TABLE_+0x158>
    44e0:	00100713          	li	a4,1
    44e4:	00e78023          	sb	a4,0(a5)
    44e8:	0100006f          	j	44f8 <generic_BLOCK_ERKENNUNG_CTRL+0x3cc>
    44ec:	00000013          	nop
    44f0:	0080006f          	j	44f8 <generic_BLOCK_ERKENNUNG_CTRL+0x3cc>
    44f4:	00000013          	nop
    44f8:	00000013          	nop
    44fc:	00813403          	ld	s0,8(sp)
    4500:	01010113          	addi	sp,sp,16
    4504:	00008067          	ret

0000000000004508 <FH_DU>:
    4508:	ff010113          	addi	sp,sp,-16
    450c:	00113423          	sd	ra,8(sp)
    4510:	00813023          	sd	s0,0(sp)
    4514:	01010413          	addi	s0,sp,16
    4518:	00003797          	auipc	a5,0x3
    451c:	d787b783          	ld	a5,-648(a5) # 7290 <_GLOBAL_OFFSET_TABLE_+0x270>
    4520:	00100713          	li	a4,1
    4524:	00e7b023          	sd	a4,0(a5)
    4528:	00003797          	auipc	a5,0x3
    452c:	ca87b783          	ld	a5,-856(a5) # 71d0 <_GLOBAL_OFFSET_TABLE_+0x1b0>
    4530:	00078023          	sb	zero,0(a5)
    4534:	00003797          	auipc	a5,0x3
    4538:	cac7b783          	ld	a5,-852(a5) # 71e0 <_GLOBAL_OFFSET_TABLE_+0x1c0>
    453c:	00078023          	sb	zero,0(a5)
    4540:	6090006f          	j	5348 <FH_DU+0xe40>
    4544:	00003797          	auipc	a5,0x3
    4548:	c8c7b783          	ld	a5,-884(a5) # 71d0 <_GLOBAL_OFFSET_TABLE_+0x1b0>
    454c:	00100713          	li	a4,1
    4550:	00e78023          	sb	a4,0(a5)
    4554:	00003797          	auipc	a5,0x3
    4558:	c8c7b783          	ld	a5,-884(a5) # 71e0 <_GLOBAL_OFFSET_TABLE_+0x1c0>
    455c:	0007c783          	lbu	a5,0(a5)
    4560:	0017879b          	addiw	a5,a5,1
    4564:	0ff7f713          	andi	a4,a5,255
    4568:	00003797          	auipc	a5,0x3
    456c:	c787b783          	ld	a5,-904(a5) # 71e0 <_GLOBAL_OFFSET_TABLE_+0x1c0>
    4570:	00e78023          	sb	a4,0(a5)
    4574:	00003797          	auipc	a5,0x3
    4578:	c8c7b783          	ld	a5,-884(a5) # 7200 <_GLOBAL_OFFSET_TABLE_+0x1e0>
    457c:	0007c783          	lbu	a5,0(a5)
    4580:	0007879b          	sext.w	a5,a5
    4584:	00078693          	mv	a3,a5
    4588:	00300713          	li	a4,3
    458c:	10e68c63          	beq	a3,a4,46a4 <FH_DU+0x19c>
    4590:	00078693          	mv	a3,a5
    4594:	00300713          	li	a4,3
    4598:	14d74c63          	blt	a4,a3,46f0 <FH_DU+0x1e8>
    459c:	00078693          	mv	a3,a5
    45a0:	00100713          	li	a4,1
    45a4:	00e68a63          	beq	a3,a4,45b8 <FH_DU+0xb0>
    45a8:	00078713          	mv	a4,a5
    45ac:	00200793          	li	a5,2
    45b0:	04f70a63          	beq	a4,a5,4604 <FH_DU+0xfc>
    45b4:	13c0006f          	j	46f0 <FH_DU+0x1e8>
    45b8:	00003797          	auipc	a5,0x3
    45bc:	b787b783          	ld	a5,-1160(a5) # 7130 <_GLOBAL_OFFSET_TABLE_+0x110>
    45c0:	0007c783          	lbu	a5,0(a5)
    45c4:	14079c63          	bnez	a5,471c <FH_DU+0x214>
    45c8:	00003797          	auipc	a5,0x3
    45cc:	aa07b783          	ld	a5,-1376(a5) # 7068 <_GLOBAL_OFFSET_TABLE_+0x48>
    45d0:	0007c783          	lbu	a5,0(a5)
    45d4:	14078463          	beqz	a5,471c <FH_DU+0x214>
    45d8:	00003797          	auipc	a5,0x3
    45dc:	bf87b783          	ld	a5,-1032(a5) # 71d0 <_GLOBAL_OFFSET_TABLE_+0x1b0>
    45e0:	00078023          	sb	zero,0(a5)
    45e4:	00003797          	auipc	a5,0x3
    45e8:	a647b783          	ld	a5,-1436(a5) # 7048 <_GLOBAL_OFFSET_TABLE_+0x28>
    45ec:	0007a023          	sw	zero,0(a5)
    45f0:	00003797          	auipc	a5,0x3
    45f4:	c107b783          	ld	a5,-1008(a5) # 7200 <_GLOBAL_OFFSET_TABLE_+0x1e0>
    45f8:	00200713          	li	a4,2
    45fc:	00e78023          	sb	a4,0(a5)
    4600:	1300006f          	j	4730 <FH_DU+0x228>
    4604:	00003797          	auipc	a5,0x3
    4608:	b2c7b783          	ld	a5,-1236(a5) # 7130 <_GLOBAL_OFFSET_TABLE_+0x110>
    460c:	0007c783          	lbu	a5,0(a5)
    4610:	04078263          	beqz	a5,4654 <FH_DU+0x14c>
    4614:	00003797          	auipc	a5,0x3
    4618:	a547b783          	ld	a5,-1452(a5) # 7068 <_GLOBAL_OFFSET_TABLE_+0x48>
    461c:	0007c783          	lbu	a5,0(a5)
    4620:	02079a63          	bnez	a5,4654 <FH_DU+0x14c>
    4624:	00003797          	auipc	a5,0x3
    4628:	bac7b783          	ld	a5,-1108(a5) # 71d0 <_GLOBAL_OFFSET_TABLE_+0x1b0>
    462c:	00078023          	sb	zero,0(a5)
    4630:	00003797          	auipc	a5,0x3
    4634:	a187b783          	ld	a5,-1512(a5) # 7048 <_GLOBAL_OFFSET_TABLE_+0x28>
    4638:	f9c00713          	li	a4,-100
    463c:	00e7a023          	sw	a4,0(a5)
    4640:	00003797          	auipc	a5,0x3
    4644:	bc07b783          	ld	a5,-1088(a5) # 7200 <_GLOBAL_OFFSET_TABLE_+0x1e0>
    4648:	00100713          	li	a4,1
    464c:	00e78023          	sb	a4,0(a5)
    4650:	0e00006f          	j	4730 <FH_DU+0x228>
    4654:	00003797          	auipc	a5,0x3
    4658:	c647b783          	ld	a5,-924(a5) # 72b8 <_GLOBAL_OFFSET_TABLE_+0x298>
    465c:	0007c783          	lbu	a5,0(a5)
    4660:	0c078263          	beqz	a5,4724 <FH_DU+0x21c>
    4664:	00003797          	auipc	a5,0x3
    4668:	9cc7b783          	ld	a5,-1588(a5) # 7030 <_GLOBAL_OFFSET_TABLE_+0x10>
    466c:	0007c783          	lbu	a5,0(a5)
    4670:	0a079a63          	bnez	a5,4724 <FH_DU+0x21c>
    4674:	00003797          	auipc	a5,0x3
    4678:	b5c7b783          	ld	a5,-1188(a5) # 71d0 <_GLOBAL_OFFSET_TABLE_+0x1b0>
    467c:	00078023          	sb	zero,0(a5)
    4680:	00003797          	auipc	a5,0x3
    4684:	9c87b783          	ld	a5,-1592(a5) # 7048 <_GLOBAL_OFFSET_TABLE_+0x28>
    4688:	06400713          	li	a4,100
    468c:	00e7a023          	sw	a4,0(a5)
    4690:	00003797          	auipc	a5,0x3
    4694:	b707b783          	ld	a5,-1168(a5) # 7200 <_GLOBAL_OFFSET_TABLE_+0x1e0>
    4698:	00300713          	li	a4,3
    469c:	00e78023          	sb	a4,0(a5)
    46a0:	0900006f          	j	4730 <FH_DU+0x228>
    46a4:	00003797          	auipc	a5,0x3
    46a8:	c147b783          	ld	a5,-1004(a5) # 72b8 <_GLOBAL_OFFSET_TABLE_+0x298>
    46ac:	0007c783          	lbu	a5,0(a5)
    46b0:	06079e63          	bnez	a5,472c <FH_DU+0x224>
    46b4:	00003797          	auipc	a5,0x3
    46b8:	97c7b783          	ld	a5,-1668(a5) # 7030 <_GLOBAL_OFFSET_TABLE_+0x10>
    46bc:	0007c783          	lbu	a5,0(a5)
    46c0:	06078663          	beqz	a5,472c <FH_DU+0x224>
    46c4:	00003797          	auipc	a5,0x3
    46c8:	b0c7b783          	ld	a5,-1268(a5) # 71d0 <_GLOBAL_OFFSET_TABLE_+0x1b0>
    46cc:	00078023          	sb	zero,0(a5)
    46d0:	00003797          	auipc	a5,0x3
    46d4:	9787b783          	ld	a5,-1672(a5) # 7048 <_GLOBAL_OFFSET_TABLE_+0x28>
    46d8:	0007a023          	sw	zero,0(a5)
    46dc:	00003797          	auipc	a5,0x3
    46e0:	b247b783          	ld	a5,-1244(a5) # 7200 <_GLOBAL_OFFSET_TABLE_+0x1e0>
    46e4:	00200713          	li	a4,2
    46e8:	00e78023          	sb	a4,0(a5)
    46ec:	0440006f          	j	4730 <FH_DU+0x228>
    46f0:	00003797          	auipc	a5,0x3
    46f4:	ae07b783          	ld	a5,-1312(a5) # 71d0 <_GLOBAL_OFFSET_TABLE_+0x1b0>
    46f8:	00078023          	sb	zero,0(a5)
    46fc:	00003797          	auipc	a5,0x3
    4700:	94c7b783          	ld	a5,-1716(a5) # 7048 <_GLOBAL_OFFSET_TABLE_+0x28>
    4704:	0007a023          	sw	zero,0(a5)
    4708:	00003797          	auipc	a5,0x3
    470c:	af87b783          	ld	a5,-1288(a5) # 7200 <_GLOBAL_OFFSET_TABLE_+0x1e0>
    4710:	00200713          	li	a4,2
    4714:	00e78023          	sb	a4,0(a5)
    4718:	0180006f          	j	4730 <FH_DU+0x228>
    471c:	00000013          	nop
    4720:	0100006f          	j	4730 <FH_DU+0x228>
    4724:	00000013          	nop
    4728:	0080006f          	j	4730 <FH_DU+0x228>
    472c:	00000013          	nop
    4730:	00003797          	auipc	a5,0x3
    4734:	c3078793          	addi	a5,a5,-976 # 7360 <Bitlist>
    4738:	00a7c783          	lbu	a5,10(a5)
    473c:	00079a63          	bnez	a5,4750 <FH_DU+0x248>
    4740:	00003797          	auipc	a5,0x3
    4744:	9d87b783          	ld	a5,-1576(a5) # 7118 <_GLOBAL_OFFSET_TABLE_+0xf8>
    4748:	00300713          	li	a4,3
    474c:	00e78023          	sb	a4,0(a5)
    4750:	00003797          	auipc	a5,0x3
    4754:	c1078793          	addi	a5,a5,-1008 # 7360 <Bitlist>
    4758:	000785a3          	sb	zero,11(a5)
    475c:	00003797          	auipc	a5,0x3
    4760:	c0478793          	addi	a5,a5,-1020 # 7360 <Bitlist>
    4764:	0107c783          	lbu	a5,16(a5)
    4768:	00079a63          	bnez	a5,477c <FH_DU+0x274>
    476c:	00003797          	auipc	a5,0x3
    4770:	aa47b783          	ld	a5,-1372(a5) # 7210 <_GLOBAL_OFFSET_TABLE_+0x1f0>
    4774:	00100713          	li	a4,1
    4778:	00e78023          	sb	a4,0(a5)
    477c:	00003797          	auipc	a5,0x3
    4780:	be478793          	addi	a5,a5,-1052 # 7360 <Bitlist>
    4784:	000788a3          	sb	zero,17(a5)
    4788:	00003797          	auipc	a5,0x3
    478c:	bd878793          	addi	a5,a5,-1064 # 7360 <Bitlist>
    4790:	0137c783          	lbu	a5,19(a5)
    4794:	02079063          	bnez	a5,47b4 <FH_DU+0x2ac>
    4798:	00003797          	auipc	a5,0x3
    479c:	bc878793          	addi	a5,a5,-1080 # 7360 <Bitlist>
    47a0:	00078023          	sb	zero,0(a5)
    47a4:	00003797          	auipc	a5,0x3
    47a8:	9d47b783          	ld	a5,-1580(a5) # 7178 <_GLOBAL_OFFSET_TABLE_+0x158>
    47ac:	00100713          	li	a4,1
    47b0:	00e78023          	sb	a4,0(a5)
    47b4:	00003797          	auipc	a5,0x3
    47b8:	bac78793          	addi	a5,a5,-1108 # 7360 <Bitlist>
    47bc:	00078a23          	sb	zero,20(a5)
    47c0:	00003797          	auipc	a5,0x3
    47c4:	ba078793          	addi	a5,a5,-1120 # 7360 <Bitlist>
    47c8:	00d7c783          	lbu	a5,13(a5)
    47cc:	06079463          	bnez	a5,4834 <FH_DU+0x32c>
    47d0:	00003797          	auipc	a5,0x3
    47d4:	b9078793          	addi	a5,a5,-1136 # 7360 <Bitlist>
    47d8:	00078223          	sb	zero,4(a5)
    47dc:	00003797          	auipc	a5,0x3
    47e0:	b8478793          	addi	a5,a5,-1148 # 7360 <Bitlist>
    47e4:	00078323          	sb	zero,6(a5)
    47e8:	00003797          	auipc	a5,0x3
    47ec:	b307b783          	ld	a5,-1232(a5) # 7318 <_GLOBAL_OFFSET_TABLE_+0x2f8>
    47f0:	00200713          	li	a4,2
    47f4:	00e78023          	sb	a4,0(a5)
    47f8:	00003797          	auipc	a5,0x3
    47fc:	8a87b783          	ld	a5,-1880(a5) # 70a0 <_GLOBAL_OFFSET_TABLE_+0x80>
    4800:	0007a023          	sw	zero,0(a5)
    4804:	00003797          	auipc	a5,0x3
    4808:	9d47b783          	ld	a5,-1580(a5) # 71d8 <_GLOBAL_OFFSET_TABLE_+0x1b8>
    480c:	00100713          	li	a4,1
    4810:	00e78023          	sb	a4,0(a5)
    4814:	00003797          	auipc	a5,0x3
    4818:	b4c78793          	addi	a5,a5,-1204 # 7360 <Bitlist>
    481c:	00100713          	li	a4,1
    4820:	00e782a3          	sb	a4,5(a5)
    4824:	00003797          	auipc	a5,0x3
    4828:	88c7b783          	ld	a5,-1908(a5) # 70b0 <_GLOBAL_OFFSET_TABLE_+0x90>
    482c:	00100713          	li	a4,1
    4830:	00e78023          	sb	a4,0(a5)
    4834:	00003797          	auipc	a5,0x3
    4838:	b2c78793          	addi	a5,a5,-1236 # 7360 <Bitlist>
    483c:	00078723          	sb	zero,14(a5)
    4840:	00003797          	auipc	a5,0x3
    4844:	b2078793          	addi	a5,a5,-1248 # 7360 <Bitlist>
    4848:	00100713          	li	a4,1
    484c:	00e785a3          	sb	a4,11(a5)
    4850:	00003797          	auipc	a5,0x3
    4854:	b1078793          	addi	a5,a5,-1264 # 7360 <Bitlist>
    4858:	00100713          	li	a4,1
    485c:	00e788a3          	sb	a4,17(a5)
    4860:	00003797          	auipc	a5,0x3
    4864:	b0078793          	addi	a5,a5,-1280 # 7360 <Bitlist>
    4868:	00100713          	li	a4,1
    486c:	00e78a23          	sb	a4,20(a5)
    4870:	00003797          	auipc	a5,0x3
    4874:	af078793          	addi	a5,a5,-1296 # 7360 <Bitlist>
    4878:	00100713          	li	a4,1
    487c:	00e78723          	sb	a4,14(a5)
    4880:	00003797          	auipc	a5,0x3
    4884:	ac07b783          	ld	a5,-1344(a5) # 7340 <_GLOBAL_OFFSET_TABLE_+0x320>
    4888:	0007c703          	lbu	a4,0(a5)
    488c:	00003797          	auipc	a5,0x3
    4890:	a9c7b783          	ld	a5,-1380(a5) # 7328 <_GLOBAL_OFFSET_TABLE_+0x308>
    4894:	0007c783          	lbu	a5,0(a5)
    4898:	02f70663          	beq	a4,a5,48c4 <FH_DU+0x3bc>
    489c:	00003797          	auipc	a5,0x3
    48a0:	94c7b783          	ld	a5,-1716(a5) # 71e8 <_GLOBAL_OFFSET_TABLE_+0x1c8>
    48a4:	0007c783          	lbu	a5,0(a5)
    48a8:	00079e63          	bnez	a5,48c4 <FH_DU+0x3bc>
    48ac:	00003797          	auipc	a5,0x3
    48b0:	a947b783          	ld	a5,-1388(a5) # 7340 <_GLOBAL_OFFSET_TABLE_+0x320>
    48b4:	0007c703          	lbu	a4,0(a5)
    48b8:	00003797          	auipc	a5,0x3
    48bc:	9a07b783          	ld	a5,-1632(a5) # 7258 <_GLOBAL_OFFSET_TABLE_+0x238>
    48c0:	00e78023          	sb	a4,0(a5)
    48c4:	00003797          	auipc	a5,0x3
    48c8:	8cc7b783          	ld	a5,-1844(a5) # 7190 <_GLOBAL_OFFSET_TABLE_+0x170>
    48cc:	0007c703          	lbu	a4,0(a5)
    48d0:	00003797          	auipc	a5,0x3
    48d4:	8807b783          	ld	a5,-1920(a5) # 7150 <_GLOBAL_OFFSET_TABLE_+0x130>
    48d8:	0007c783          	lbu	a5,0(a5)
    48dc:	02f70663          	beq	a4,a5,4908 <FH_DU+0x400>
    48e0:	00003797          	auipc	a5,0x3
    48e4:	9087b783          	ld	a5,-1784(a5) # 71e8 <_GLOBAL_OFFSET_TABLE_+0x1c8>
    48e8:	0007c783          	lbu	a5,0(a5)
    48ec:	00078e63          	beqz	a5,4908 <FH_DU+0x400>
    48f0:	00003797          	auipc	a5,0x3
    48f4:	8a07b783          	ld	a5,-1888(a5) # 7190 <_GLOBAL_OFFSET_TABLE_+0x170>
    48f8:	0007c703          	lbu	a4,0(a5)
    48fc:	00003797          	auipc	a5,0x3
    4900:	a447b783          	ld	a5,-1468(a5) # 7340 <_GLOBAL_OFFSET_TABLE_+0x320>
    4904:	00e78023          	sb	a4,0(a5)
    4908:	00003797          	auipc	a5,0x3
    490c:	9707b783          	ld	a5,-1680(a5) # 7278 <_GLOBAL_OFFSET_TABLE_+0x258>
    4910:	0007c703          	lbu	a4,0(a5)
    4914:	00003797          	auipc	a5,0x3
    4918:	9347b783          	ld	a5,-1740(a5) # 7248 <_GLOBAL_OFFSET_TABLE_+0x228>
    491c:	0007c783          	lbu	a5,0(a5)
    4920:	02f70663          	beq	a4,a5,494c <FH_DU+0x444>
    4924:	00003797          	auipc	a5,0x3
    4928:	8c47b783          	ld	a5,-1852(a5) # 71e8 <_GLOBAL_OFFSET_TABLE_+0x1c8>
    492c:	0007c783          	lbu	a5,0(a5)
    4930:	00079e63          	bnez	a5,494c <FH_DU+0x444>
    4934:	00003797          	auipc	a5,0x3
    4938:	9447b783          	ld	a5,-1724(a5) # 7278 <_GLOBAL_OFFSET_TABLE_+0x258>
    493c:	0007c703          	lbu	a4,0(a5)
    4940:	00003797          	auipc	a5,0x3
    4944:	a087b783          	ld	a5,-1528(a5) # 7348 <_GLOBAL_OFFSET_TABLE_+0x328>
    4948:	00e78023          	sb	a4,0(a5)
    494c:	00003797          	auipc	a5,0x3
    4950:	9047b783          	ld	a5,-1788(a5) # 7250 <_GLOBAL_OFFSET_TABLE_+0x230>
    4954:	0007c703          	lbu	a4,0(a5)
    4958:	00003797          	auipc	a5,0x3
    495c:	8587b783          	ld	a5,-1960(a5) # 71b0 <_GLOBAL_OFFSET_TABLE_+0x190>
    4960:	0007c783          	lbu	a5,0(a5)
    4964:	02f70663          	beq	a4,a5,4990 <FH_DU+0x488>
    4968:	00003797          	auipc	a5,0x3
    496c:	8807b783          	ld	a5,-1920(a5) # 71e8 <_GLOBAL_OFFSET_TABLE_+0x1c8>
    4970:	0007c783          	lbu	a5,0(a5)
    4974:	00078e63          	beqz	a5,4990 <FH_DU+0x488>
    4978:	00003797          	auipc	a5,0x3
    497c:	8d87b783          	ld	a5,-1832(a5) # 7250 <_GLOBAL_OFFSET_TABLE_+0x230>
    4980:	0007c703          	lbu	a4,0(a5)
    4984:	00003797          	auipc	a5,0x3
    4988:	8f47b783          	ld	a5,-1804(a5) # 7278 <_GLOBAL_OFFSET_TABLE_+0x258>
    498c:	00e78023          	sb	a4,0(a5)
    4990:	00003797          	auipc	a5,0x3
    4994:	9d078793          	addi	a5,a5,-1584 # 7360 <Bitlist>
    4998:	00c7c703          	lbu	a4,12(a5)
    499c:	00003797          	auipc	a5,0x3
    49a0:	9c478793          	addi	a5,a5,-1596 # 7360 <Bitlist>
    49a4:	00e78523          	sb	a4,10(a5)
    49a8:	00003797          	auipc	a5,0x3
    49ac:	9b878793          	addi	a5,a5,-1608 # 7360 <Bitlist>
    49b0:	00f7c703          	lbu	a4,15(a5)
    49b4:	00003797          	auipc	a5,0x3
    49b8:	9ac78793          	addi	a5,a5,-1620 # 7360 <Bitlist>
    49bc:	00e786a3          	sb	a4,13(a5)
    49c0:	00003797          	auipc	a5,0x3
    49c4:	9a078793          	addi	a5,a5,-1632 # 7360 <Bitlist>
    49c8:	0127c703          	lbu	a4,18(a5)
    49cc:	00003797          	auipc	a5,0x3
    49d0:	99478793          	addi	a5,a5,-1644 # 7360 <Bitlist>
    49d4:	00e78823          	sb	a4,16(a5)
    49d8:	00003797          	auipc	a5,0x3
    49dc:	98878793          	addi	a5,a5,-1656 # 7360 <Bitlist>
    49e0:	0157c703          	lbu	a4,21(a5)
    49e4:	00003797          	auipc	a5,0x3
    49e8:	97c78793          	addi	a5,a5,-1668 # 7360 <Bitlist>
    49ec:	00e789a3          	sb	a4,19(a5)
    49f0:	00003797          	auipc	a5,0x3
    49f4:	9307b783          	ld	a5,-1744(a5) # 7320 <_GLOBAL_OFFSET_TABLE_+0x300>
    49f8:	0007c703          	lbu	a4,0(a5)
    49fc:	00003797          	auipc	a5,0x3
    4a00:	82c7b783          	ld	a5,-2004(a5) # 7228 <_GLOBAL_OFFSET_TABLE_+0x208>
    4a04:	00e78023          	sb	a4,0(a5)
    4a08:	00003797          	auipc	a5,0x3
    4a0c:	9407b783          	ld	a5,-1728(a5) # 7348 <_GLOBAL_OFFSET_TABLE_+0x328>
    4a10:	0007c703          	lbu	a4,0(a5)
    4a14:	00003797          	auipc	a5,0x3
    4a18:	8047b783          	ld	a5,-2044(a5) # 7218 <_GLOBAL_OFFSET_TABLE_+0x1f8>
    4a1c:	00e78023          	sb	a4,0(a5)
    4a20:	00002797          	auipc	a5,0x2
    4a24:	7287b783          	ld	a5,1832(a5) # 7148 <_GLOBAL_OFFSET_TABLE_+0x128>
    4a28:	0007c703          	lbu	a4,0(a5)
    4a2c:	00002797          	auipc	a5,0x2
    4a30:	7747b783          	ld	a5,1908(a5) # 71a0 <_GLOBAL_OFFSET_TABLE_+0x180>
    4a34:	00e78023          	sb	a4,0(a5)
    4a38:	00003797          	auipc	a5,0x3
    4a3c:	8207b783          	ld	a5,-2016(a5) # 7258 <_GLOBAL_OFFSET_TABLE_+0x238>
    4a40:	0007c703          	lbu	a4,0(a5)
    4a44:	00002797          	auipc	a5,0x2
    4a48:	71c7b783          	ld	a5,1820(a5) # 7160 <_GLOBAL_OFFSET_TABLE_+0x140>
    4a4c:	00e78023          	sb	a4,0(a5)
    4a50:	f81fd0ef          	jal	ra,29d0 <generic_KINDERSICHERUNG_CTRL>
    4a54:	00002797          	auipc	a5,0x2
    4a58:	6cc7b783          	ld	a5,1740(a5) # 7120 <_GLOBAL_OFFSET_TABLE_+0x100>
    4a5c:	0007c703          	lbu	a4,0(a5)
    4a60:	00003797          	auipc	a5,0x3
    4a64:	8587b783          	ld	a5,-1960(a5) # 72b8 <_GLOBAL_OFFSET_TABLE_+0x298>
    4a68:	00e78023          	sb	a4,0(a5)
    4a6c:	00003797          	auipc	a5,0x3
    4a70:	8447b783          	ld	a5,-1980(a5) # 72b0 <_GLOBAL_OFFSET_TABLE_+0x290>
    4a74:	0007c703          	lbu	a4,0(a5)
    4a78:	00002797          	auipc	a5,0x2
    4a7c:	6b87b783          	ld	a5,1720(a5) # 7130 <_GLOBAL_OFFSET_TABLE_+0x110>
    4a80:	00e78023          	sb	a4,0(a5)
    4a84:	00002797          	auipc	a5,0x2
    4a88:	6447b783          	ld	a5,1604(a5) # 70c8 <_GLOBAL_OFFSET_TABLE_+0xa8>
    4a8c:	0007a703          	lw	a4,0(a5)
    4a90:	00002797          	auipc	a5,0x2
    4a94:	7907b783          	ld	a5,1936(a5) # 7220 <_GLOBAL_OFFSET_TABLE_+0x200>
    4a98:	00e7a023          	sw	a4,0(a5)
    4a9c:	00002797          	auipc	a5,0x2
    4aa0:	6347b783          	ld	a5,1588(a5) # 70d0 <_GLOBAL_OFFSET_TABLE_+0xb0>
    4aa4:	0007c703          	lbu	a4,0(a5)
    4aa8:	00002797          	auipc	a5,0x2
    4aac:	7507b783          	ld	a5,1872(a5) # 71f8 <_GLOBAL_OFFSET_TABLE_+0x1d8>
    4ab0:	00e78023          	sb	a4,0(a5)
    4ab4:	00002797          	auipc	a5,0x2
    4ab8:	6bc7b783          	ld	a5,1724(a5) # 7170 <_GLOBAL_OFFSET_TABLE_+0x150>
    4abc:	0007a703          	lw	a4,0(a5)
    4ac0:	00002797          	auipc	a5,0x2
    4ac4:	6387b783          	ld	a5,1592(a5) # 70f8 <_GLOBAL_OFFSET_TABLE_+0xd8>
    4ac8:	00e7a023          	sw	a4,0(a5)
    4acc:	00002797          	auipc	a5,0x2
    4ad0:	7247b783          	ld	a5,1828(a5) # 71f0 <_GLOBAL_OFFSET_TABLE_+0x1d0>
    4ad4:	0007c703          	lbu	a4,0(a5)
    4ad8:	00002797          	auipc	a5,0x2
    4adc:	5e07b783          	ld	a5,1504(a5) # 70b8 <_GLOBAL_OFFSET_TABLE_+0x98>
    4ae0:	00e78023          	sb	a4,0(a5)
    4ae4:	00002797          	auipc	a5,0x2
    4ae8:	7447b783          	ld	a5,1860(a5) # 7228 <_GLOBAL_OFFSET_TABLE_+0x208>
    4aec:	0007c703          	lbu	a4,0(a5)
    4af0:	00003797          	auipc	a5,0x3
    4af4:	8307b783          	ld	a5,-2000(a5) # 7320 <_GLOBAL_OFFSET_TABLE_+0x300>
    4af8:	00e78023          	sb	a4,0(a5)
    4afc:	00002797          	auipc	a5,0x2
    4b00:	71c7b783          	ld	a5,1820(a5) # 7218 <_GLOBAL_OFFSET_TABLE_+0x1f8>
    4b04:	0007c703          	lbu	a4,0(a5)
    4b08:	00003797          	auipc	a5,0x3
    4b0c:	8407b783          	ld	a5,-1984(a5) # 7348 <_GLOBAL_OFFSET_TABLE_+0x328>
    4b10:	00e78023          	sb	a4,0(a5)
    4b14:	00002797          	auipc	a5,0x2
    4b18:	68c7b783          	ld	a5,1676(a5) # 71a0 <_GLOBAL_OFFSET_TABLE_+0x180>
    4b1c:	0007c703          	lbu	a4,0(a5)
    4b20:	00002797          	auipc	a5,0x2
    4b24:	6287b783          	ld	a5,1576(a5) # 7148 <_GLOBAL_OFFSET_TABLE_+0x128>
    4b28:	00e78023          	sb	a4,0(a5)
    4b2c:	00002797          	auipc	a5,0x2
    4b30:	6347b783          	ld	a5,1588(a5) # 7160 <_GLOBAL_OFFSET_TABLE_+0x140>
    4b34:	0007c703          	lbu	a4,0(a5)
    4b38:	00002797          	auipc	a5,0x2
    4b3c:	7207b783          	ld	a5,1824(a5) # 7258 <_GLOBAL_OFFSET_TABLE_+0x238>
    4b40:	00e78023          	sb	a4,0(a5)
    4b44:	00002797          	auipc	a5,0x2
    4b48:	7bc7b783          	ld	a5,1980(a5) # 7300 <_GLOBAL_OFFSET_TABLE_+0x2e0>
    4b4c:	0007c703          	lbu	a4,0(a5)
    4b50:	00002797          	auipc	a5,0x2
    4b54:	5887b783          	ld	a5,1416(a5) # 70d8 <_GLOBAL_OFFSET_TABLE_+0xb8>
    4b58:	00e78023          	sb	a4,0(a5)
    4b5c:	00002797          	auipc	a5,0x2
    4b60:	5b47b783          	ld	a5,1460(a5) # 7110 <_GLOBAL_OFFSET_TABLE_+0xf0>
    4b64:	0007c703          	lbu	a4,0(a5)
    4b68:	00002797          	auipc	a5,0x2
    4b6c:	5787b783          	ld	a5,1400(a5) # 70e0 <_GLOBAL_OFFSET_TABLE_+0xc0>
    4b70:	00e78023          	sb	a4,0(a5)
    4b74:	00002797          	auipc	a5,0x2
    4b78:	7ac7b783          	ld	a5,1964(a5) # 7320 <_GLOBAL_OFFSET_TABLE_+0x300>
    4b7c:	0007c703          	lbu	a4,0(a5)
    4b80:	00002797          	auipc	a5,0x2
    4b84:	6a87b783          	ld	a5,1704(a5) # 7228 <_GLOBAL_OFFSET_TABLE_+0x208>
    4b88:	00e78023          	sb	a4,0(a5)
    4b8c:	00002797          	auipc	a5,0x2
    4b90:	7bc7b783          	ld	a5,1980(a5) # 7348 <_GLOBAL_OFFSET_TABLE_+0x328>
    4b94:	0007c703          	lbu	a4,0(a5)
    4b98:	00002797          	auipc	a5,0x2
    4b9c:	6807b783          	ld	a5,1664(a5) # 7218 <_GLOBAL_OFFSET_TABLE_+0x1f8>
    4ba0:	00e78023          	sb	a4,0(a5)
    4ba4:	00002797          	auipc	a5,0x2
    4ba8:	5a47b783          	ld	a5,1444(a5) # 7148 <_GLOBAL_OFFSET_TABLE_+0x128>
    4bac:	0007c703          	lbu	a4,0(a5)
    4bb0:	00002797          	auipc	a5,0x2
    4bb4:	5f07b783          	ld	a5,1520(a5) # 71a0 <_GLOBAL_OFFSET_TABLE_+0x180>
    4bb8:	00e78023          	sb	a4,0(a5)
    4bbc:	00002797          	auipc	a5,0x2
    4bc0:	69c7b783          	ld	a5,1692(a5) # 7258 <_GLOBAL_OFFSET_TABLE_+0x238>
    4bc4:	0007c703          	lbu	a4,0(a5)
    4bc8:	00002797          	auipc	a5,0x2
    4bcc:	5987b783          	ld	a5,1432(a5) # 7160 <_GLOBAL_OFFSET_TABLE_+0x140>
    4bd0:	00e78023          	sb	a4,0(a5)
    4bd4:	c88fe0ef          	jal	ra,305c <generic_FH_TUERMODUL_CTRL>
    4bd8:	00002797          	auipc	a5,0x2
    4bdc:	5487b783          	ld	a5,1352(a5) # 7120 <_GLOBAL_OFFSET_TABLE_+0x100>
    4be0:	0007c703          	lbu	a4,0(a5)
    4be4:	00002797          	auipc	a5,0x2
    4be8:	6d47b783          	ld	a5,1748(a5) # 72b8 <_GLOBAL_OFFSET_TABLE_+0x298>
    4bec:	00e78023          	sb	a4,0(a5)
    4bf0:	00002797          	auipc	a5,0x2
    4bf4:	6c07b783          	ld	a5,1728(a5) # 72b0 <_GLOBAL_OFFSET_TABLE_+0x290>
    4bf8:	0007c703          	lbu	a4,0(a5)
    4bfc:	00002797          	auipc	a5,0x2
    4c00:	5347b783          	ld	a5,1332(a5) # 7130 <_GLOBAL_OFFSET_TABLE_+0x110>
    4c04:	00e78023          	sb	a4,0(a5)
    4c08:	00002797          	auipc	a5,0x2
    4c0c:	4c07b783          	ld	a5,1216(a5) # 70c8 <_GLOBAL_OFFSET_TABLE_+0xa8>
    4c10:	0007a703          	lw	a4,0(a5)
    4c14:	00002797          	auipc	a5,0x2
    4c18:	60c7b783          	ld	a5,1548(a5) # 7220 <_GLOBAL_OFFSET_TABLE_+0x200>
    4c1c:	00e7a023          	sw	a4,0(a5)
    4c20:	00002797          	auipc	a5,0x2
    4c24:	4b07b783          	ld	a5,1200(a5) # 70d0 <_GLOBAL_OFFSET_TABLE_+0xb0>
    4c28:	0007c703          	lbu	a4,0(a5)
    4c2c:	00002797          	auipc	a5,0x2
    4c30:	5cc7b783          	ld	a5,1484(a5) # 71f8 <_GLOBAL_OFFSET_TABLE_+0x1d8>
    4c34:	00e78023          	sb	a4,0(a5)
    4c38:	00002797          	auipc	a5,0x2
    4c3c:	5387b783          	ld	a5,1336(a5) # 7170 <_GLOBAL_OFFSET_TABLE_+0x150>
    4c40:	0007a703          	lw	a4,0(a5)
    4c44:	00002797          	auipc	a5,0x2
    4c48:	4b47b783          	ld	a5,1204(a5) # 70f8 <_GLOBAL_OFFSET_TABLE_+0xd8>
    4c4c:	00e7a023          	sw	a4,0(a5)
    4c50:	00002797          	auipc	a5,0x2
    4c54:	5a07b783          	ld	a5,1440(a5) # 71f0 <_GLOBAL_OFFSET_TABLE_+0x1d0>
    4c58:	0007c703          	lbu	a4,0(a5)
    4c5c:	00002797          	auipc	a5,0x2
    4c60:	45c7b783          	ld	a5,1116(a5) # 70b8 <_GLOBAL_OFFSET_TABLE_+0x98>
    4c64:	00e78023          	sb	a4,0(a5)
    4c68:	00002797          	auipc	a5,0x2
    4c6c:	5c07b783          	ld	a5,1472(a5) # 7228 <_GLOBAL_OFFSET_TABLE_+0x208>
    4c70:	0007c703          	lbu	a4,0(a5)
    4c74:	00002797          	auipc	a5,0x2
    4c78:	6ac7b783          	ld	a5,1708(a5) # 7320 <_GLOBAL_OFFSET_TABLE_+0x300>
    4c7c:	00e78023          	sb	a4,0(a5)
    4c80:	00002797          	auipc	a5,0x2
    4c84:	5987b783          	ld	a5,1432(a5) # 7218 <_GLOBAL_OFFSET_TABLE_+0x1f8>
    4c88:	0007c703          	lbu	a4,0(a5)
    4c8c:	00002797          	auipc	a5,0x2
    4c90:	6bc7b783          	ld	a5,1724(a5) # 7348 <_GLOBAL_OFFSET_TABLE_+0x328>
    4c94:	00e78023          	sb	a4,0(a5)
    4c98:	00002797          	auipc	a5,0x2
    4c9c:	5087b783          	ld	a5,1288(a5) # 71a0 <_GLOBAL_OFFSET_TABLE_+0x180>
    4ca0:	0007c703          	lbu	a4,0(a5)
    4ca4:	00002797          	auipc	a5,0x2
    4ca8:	4a47b783          	ld	a5,1188(a5) # 7148 <_GLOBAL_OFFSET_TABLE_+0x128>
    4cac:	00e78023          	sb	a4,0(a5)
    4cb0:	00002797          	auipc	a5,0x2
    4cb4:	4b07b783          	ld	a5,1200(a5) # 7160 <_GLOBAL_OFFSET_TABLE_+0x140>
    4cb8:	0007c703          	lbu	a4,0(a5)
    4cbc:	00002797          	auipc	a5,0x2
    4cc0:	59c7b783          	ld	a5,1436(a5) # 7258 <_GLOBAL_OFFSET_TABLE_+0x238>
    4cc4:	00e78023          	sb	a4,0(a5)
    4cc8:	00002797          	auipc	a5,0x2
    4ccc:	6387b783          	ld	a5,1592(a5) # 7300 <_GLOBAL_OFFSET_TABLE_+0x2e0>
    4cd0:	0007c703          	lbu	a4,0(a5)
    4cd4:	00002797          	auipc	a5,0x2
    4cd8:	4047b783          	ld	a5,1028(a5) # 70d8 <_GLOBAL_OFFSET_TABLE_+0xb8>
    4cdc:	00e78023          	sb	a4,0(a5)
    4ce0:	00002797          	auipc	a5,0x2
    4ce4:	4307b783          	ld	a5,1072(a5) # 7110 <_GLOBAL_OFFSET_TABLE_+0xf0>
    4ce8:	0007c703          	lbu	a4,0(a5)
    4cec:	00002797          	auipc	a5,0x2
    4cf0:	3f47b783          	ld	a5,1012(a5) # 70e0 <_GLOBAL_OFFSET_TABLE_+0xc0>
    4cf4:	00e78023          	sb	a4,0(a5)
    4cf8:	00002797          	auipc	a5,0x2
    4cfc:	6287b783          	ld	a5,1576(a5) # 7320 <_GLOBAL_OFFSET_TABLE_+0x300>
    4d00:	0007c703          	lbu	a4,0(a5)
    4d04:	00002797          	auipc	a5,0x2
    4d08:	5247b783          	ld	a5,1316(a5) # 7228 <_GLOBAL_OFFSET_TABLE_+0x208>
    4d0c:	00e78023          	sb	a4,0(a5)
    4d10:	00002797          	auipc	a5,0x2
    4d14:	6387b783          	ld	a5,1592(a5) # 7348 <_GLOBAL_OFFSET_TABLE_+0x328>
    4d18:	0007c703          	lbu	a4,0(a5)
    4d1c:	00002797          	auipc	a5,0x2
    4d20:	4fc7b783          	ld	a5,1276(a5) # 7218 <_GLOBAL_OFFSET_TABLE_+0x1f8>
    4d24:	00e78023          	sb	a4,0(a5)
    4d28:	00002797          	auipc	a5,0x2
    4d2c:	4207b783          	ld	a5,1056(a5) # 7148 <_GLOBAL_OFFSET_TABLE_+0x128>
    4d30:	0007c703          	lbu	a4,0(a5)
    4d34:	00002797          	auipc	a5,0x2
    4d38:	46c7b783          	ld	a5,1132(a5) # 71a0 <_GLOBAL_OFFSET_TABLE_+0x180>
    4d3c:	00e78023          	sb	a4,0(a5)
    4d40:	00002797          	auipc	a5,0x2
    4d44:	5187b783          	ld	a5,1304(a5) # 7258 <_GLOBAL_OFFSET_TABLE_+0x238>
    4d48:	0007c703          	lbu	a4,0(a5)
    4d4c:	00002797          	auipc	a5,0x2
    4d50:	4147b783          	ld	a5,1044(a5) # 7160 <_GLOBAL_OFFSET_TABLE_+0x140>
    4d54:	00e78023          	sb	a4,0(a5)
    4d58:	a90ff0ef          	jal	ra,3fe8 <generic_EINKLEMMSCHUTZ_CTRL>
    4d5c:	00002797          	auipc	a5,0x2
    4d60:	3c47b783          	ld	a5,964(a5) # 7120 <_GLOBAL_OFFSET_TABLE_+0x100>
    4d64:	0007c703          	lbu	a4,0(a5)
    4d68:	00002797          	auipc	a5,0x2
    4d6c:	5507b783          	ld	a5,1360(a5) # 72b8 <_GLOBAL_OFFSET_TABLE_+0x298>
    4d70:	00e78023          	sb	a4,0(a5)
    4d74:	00002797          	auipc	a5,0x2
    4d78:	53c7b783          	ld	a5,1340(a5) # 72b0 <_GLOBAL_OFFSET_TABLE_+0x290>
    4d7c:	0007c703          	lbu	a4,0(a5)
    4d80:	00002797          	auipc	a5,0x2
    4d84:	3b07b783          	ld	a5,944(a5) # 7130 <_GLOBAL_OFFSET_TABLE_+0x110>
    4d88:	00e78023          	sb	a4,0(a5)
    4d8c:	00002797          	auipc	a5,0x2
    4d90:	33c7b783          	ld	a5,828(a5) # 70c8 <_GLOBAL_OFFSET_TABLE_+0xa8>
    4d94:	0007a703          	lw	a4,0(a5)
    4d98:	00002797          	auipc	a5,0x2
    4d9c:	4887b783          	ld	a5,1160(a5) # 7220 <_GLOBAL_OFFSET_TABLE_+0x200>
    4da0:	00e7a023          	sw	a4,0(a5)
    4da4:	00002797          	auipc	a5,0x2
    4da8:	32c7b783          	ld	a5,812(a5) # 70d0 <_GLOBAL_OFFSET_TABLE_+0xb0>
    4dac:	0007c703          	lbu	a4,0(a5)
    4db0:	00002797          	auipc	a5,0x2
    4db4:	4487b783          	ld	a5,1096(a5) # 71f8 <_GLOBAL_OFFSET_TABLE_+0x1d8>
    4db8:	00e78023          	sb	a4,0(a5)
    4dbc:	00002797          	auipc	a5,0x2
    4dc0:	3b47b783          	ld	a5,948(a5) # 7170 <_GLOBAL_OFFSET_TABLE_+0x150>
    4dc4:	0007a703          	lw	a4,0(a5)
    4dc8:	00002797          	auipc	a5,0x2
    4dcc:	3307b783          	ld	a5,816(a5) # 70f8 <_GLOBAL_OFFSET_TABLE_+0xd8>
    4dd0:	00e7a023          	sw	a4,0(a5)
    4dd4:	00002797          	auipc	a5,0x2
    4dd8:	41c7b783          	ld	a5,1052(a5) # 71f0 <_GLOBAL_OFFSET_TABLE_+0x1d0>
    4ddc:	0007c703          	lbu	a4,0(a5)
    4de0:	00002797          	auipc	a5,0x2
    4de4:	2d87b783          	ld	a5,728(a5) # 70b8 <_GLOBAL_OFFSET_TABLE_+0x98>
    4de8:	00e78023          	sb	a4,0(a5)
    4dec:	00002797          	auipc	a5,0x2
    4df0:	43c7b783          	ld	a5,1084(a5) # 7228 <_GLOBAL_OFFSET_TABLE_+0x208>
    4df4:	0007c703          	lbu	a4,0(a5)
    4df8:	00002797          	auipc	a5,0x2
    4dfc:	5287b783          	ld	a5,1320(a5) # 7320 <_GLOBAL_OFFSET_TABLE_+0x300>
    4e00:	00e78023          	sb	a4,0(a5)
    4e04:	00002797          	auipc	a5,0x2
    4e08:	4147b783          	ld	a5,1044(a5) # 7218 <_GLOBAL_OFFSET_TABLE_+0x1f8>
    4e0c:	0007c703          	lbu	a4,0(a5)
    4e10:	00002797          	auipc	a5,0x2
    4e14:	5387b783          	ld	a5,1336(a5) # 7348 <_GLOBAL_OFFSET_TABLE_+0x328>
    4e18:	00e78023          	sb	a4,0(a5)
    4e1c:	00002797          	auipc	a5,0x2
    4e20:	3847b783          	ld	a5,900(a5) # 71a0 <_GLOBAL_OFFSET_TABLE_+0x180>
    4e24:	0007c703          	lbu	a4,0(a5)
    4e28:	00002797          	auipc	a5,0x2
    4e2c:	3207b783          	ld	a5,800(a5) # 7148 <_GLOBAL_OFFSET_TABLE_+0x128>
    4e30:	00e78023          	sb	a4,0(a5)
    4e34:	00002797          	auipc	a5,0x2
    4e38:	32c7b783          	ld	a5,812(a5) # 7160 <_GLOBAL_OFFSET_TABLE_+0x140>
    4e3c:	0007c703          	lbu	a4,0(a5)
    4e40:	00002797          	auipc	a5,0x2
    4e44:	4187b783          	ld	a5,1048(a5) # 7258 <_GLOBAL_OFFSET_TABLE_+0x238>
    4e48:	00e78023          	sb	a4,0(a5)
    4e4c:	00002797          	auipc	a5,0x2
    4e50:	4b47b783          	ld	a5,1204(a5) # 7300 <_GLOBAL_OFFSET_TABLE_+0x2e0>
    4e54:	0007c703          	lbu	a4,0(a5)
    4e58:	00002797          	auipc	a5,0x2
    4e5c:	2807b783          	ld	a5,640(a5) # 70d8 <_GLOBAL_OFFSET_TABLE_+0xb8>
    4e60:	00e78023          	sb	a4,0(a5)
    4e64:	00002797          	auipc	a5,0x2
    4e68:	2ac7b783          	ld	a5,684(a5) # 7110 <_GLOBAL_OFFSET_TABLE_+0xf0>
    4e6c:	0007c703          	lbu	a4,0(a5)
    4e70:	00002797          	auipc	a5,0x2
    4e74:	2707b783          	ld	a5,624(a5) # 70e0 <_GLOBAL_OFFSET_TABLE_+0xc0>
    4e78:	00e78023          	sb	a4,0(a5)
    4e7c:	00002797          	auipc	a5,0x2
    4e80:	4a47b783          	ld	a5,1188(a5) # 7320 <_GLOBAL_OFFSET_TABLE_+0x300>
    4e84:	0007c703          	lbu	a4,0(a5)
    4e88:	00002797          	auipc	a5,0x2
    4e8c:	3a07b783          	ld	a5,928(a5) # 7228 <_GLOBAL_OFFSET_TABLE_+0x208>
    4e90:	00e78023          	sb	a4,0(a5)
    4e94:	00002797          	auipc	a5,0x2
    4e98:	4b47b783          	ld	a5,1204(a5) # 7348 <_GLOBAL_OFFSET_TABLE_+0x328>
    4e9c:	0007c703          	lbu	a4,0(a5)
    4ea0:	00002797          	auipc	a5,0x2
    4ea4:	3787b783          	ld	a5,888(a5) # 7218 <_GLOBAL_OFFSET_TABLE_+0x1f8>
    4ea8:	00e78023          	sb	a4,0(a5)
    4eac:	00002797          	auipc	a5,0x2
    4eb0:	29c7b783          	ld	a5,668(a5) # 7148 <_GLOBAL_OFFSET_TABLE_+0x128>
    4eb4:	0007c703          	lbu	a4,0(a5)
    4eb8:	00002797          	auipc	a5,0x2
    4ebc:	2e87b783          	ld	a5,744(a5) # 71a0 <_GLOBAL_OFFSET_TABLE_+0x180>
    4ec0:	00e78023          	sb	a4,0(a5)
    4ec4:	00002797          	auipc	a5,0x2
    4ec8:	3947b783          	ld	a5,916(a5) # 7258 <_GLOBAL_OFFSET_TABLE_+0x238>
    4ecc:	0007c703          	lbu	a4,0(a5)
    4ed0:	00002797          	auipc	a5,0x2
    4ed4:	2907b783          	ld	a5,656(a5) # 7160 <_GLOBAL_OFFSET_TABLE_+0x140>
    4ed8:	00e78023          	sb	a4,0(a5)
    4edc:	a50ff0ef          	jal	ra,412c <generic_BLOCK_ERKENNUNG_CTRL>
    4ee0:	00002797          	auipc	a5,0x2
    4ee4:	2407b783          	ld	a5,576(a5) # 7120 <_GLOBAL_OFFSET_TABLE_+0x100>
    4ee8:	0007c703          	lbu	a4,0(a5)
    4eec:	00002797          	auipc	a5,0x2
    4ef0:	3cc7b783          	ld	a5,972(a5) # 72b8 <_GLOBAL_OFFSET_TABLE_+0x298>
    4ef4:	00e78023          	sb	a4,0(a5)
    4ef8:	00002797          	auipc	a5,0x2
    4efc:	3b87b783          	ld	a5,952(a5) # 72b0 <_GLOBAL_OFFSET_TABLE_+0x290>
    4f00:	0007c703          	lbu	a4,0(a5)
    4f04:	00002797          	auipc	a5,0x2
    4f08:	22c7b783          	ld	a5,556(a5) # 7130 <_GLOBAL_OFFSET_TABLE_+0x110>
    4f0c:	00e78023          	sb	a4,0(a5)
    4f10:	00002797          	auipc	a5,0x2
    4f14:	1b87b783          	ld	a5,440(a5) # 70c8 <_GLOBAL_OFFSET_TABLE_+0xa8>
    4f18:	0007a703          	lw	a4,0(a5)
    4f1c:	00002797          	auipc	a5,0x2
    4f20:	3047b783          	ld	a5,772(a5) # 7220 <_GLOBAL_OFFSET_TABLE_+0x200>
    4f24:	00e7a023          	sw	a4,0(a5)
    4f28:	00002797          	auipc	a5,0x2
    4f2c:	1a87b783          	ld	a5,424(a5) # 70d0 <_GLOBAL_OFFSET_TABLE_+0xb0>
    4f30:	0007c703          	lbu	a4,0(a5)
    4f34:	00002797          	auipc	a5,0x2
    4f38:	2c47b783          	ld	a5,708(a5) # 71f8 <_GLOBAL_OFFSET_TABLE_+0x1d8>
    4f3c:	00e78023          	sb	a4,0(a5)
    4f40:	00002797          	auipc	a5,0x2
    4f44:	2307b783          	ld	a5,560(a5) # 7170 <_GLOBAL_OFFSET_TABLE_+0x150>
    4f48:	0007a703          	lw	a4,0(a5)
    4f4c:	00002797          	auipc	a5,0x2
    4f50:	1ac7b783          	ld	a5,428(a5) # 70f8 <_GLOBAL_OFFSET_TABLE_+0xd8>
    4f54:	00e7a023          	sw	a4,0(a5)
    4f58:	00002797          	auipc	a5,0x2
    4f5c:	2987b783          	ld	a5,664(a5) # 71f0 <_GLOBAL_OFFSET_TABLE_+0x1d0>
    4f60:	0007c703          	lbu	a4,0(a5)
    4f64:	00002797          	auipc	a5,0x2
    4f68:	1547b783          	ld	a5,340(a5) # 70b8 <_GLOBAL_OFFSET_TABLE_+0x98>
    4f6c:	00e78023          	sb	a4,0(a5)
    4f70:	00002797          	auipc	a5,0x2
    4f74:	2b87b783          	ld	a5,696(a5) # 7228 <_GLOBAL_OFFSET_TABLE_+0x208>
    4f78:	0007c703          	lbu	a4,0(a5)
    4f7c:	00002797          	auipc	a5,0x2
    4f80:	3a47b783          	ld	a5,932(a5) # 7320 <_GLOBAL_OFFSET_TABLE_+0x300>
    4f84:	00e78023          	sb	a4,0(a5)
    4f88:	00002797          	auipc	a5,0x2
    4f8c:	2907b783          	ld	a5,656(a5) # 7218 <_GLOBAL_OFFSET_TABLE_+0x1f8>
    4f90:	0007c703          	lbu	a4,0(a5)
    4f94:	00002797          	auipc	a5,0x2
    4f98:	3b47b783          	ld	a5,948(a5) # 7348 <_GLOBAL_OFFSET_TABLE_+0x328>
    4f9c:	00e78023          	sb	a4,0(a5)
    4fa0:	00002797          	auipc	a5,0x2
    4fa4:	2007b783          	ld	a5,512(a5) # 71a0 <_GLOBAL_OFFSET_TABLE_+0x180>
    4fa8:	0007c703          	lbu	a4,0(a5)
    4fac:	00002797          	auipc	a5,0x2
    4fb0:	19c7b783          	ld	a5,412(a5) # 7148 <_GLOBAL_OFFSET_TABLE_+0x128>
    4fb4:	00e78023          	sb	a4,0(a5)
    4fb8:	00002797          	auipc	a5,0x2
    4fbc:	1a87b783          	ld	a5,424(a5) # 7160 <_GLOBAL_OFFSET_TABLE_+0x140>
    4fc0:	0007c703          	lbu	a4,0(a5)
    4fc4:	00002797          	auipc	a5,0x2
    4fc8:	2947b783          	ld	a5,660(a5) # 7258 <_GLOBAL_OFFSET_TABLE_+0x238>
    4fcc:	00e78023          	sb	a4,0(a5)
    4fd0:	00002797          	auipc	a5,0x2
    4fd4:	3307b783          	ld	a5,816(a5) # 7300 <_GLOBAL_OFFSET_TABLE_+0x2e0>
    4fd8:	0007c703          	lbu	a4,0(a5)
    4fdc:	00002797          	auipc	a5,0x2
    4fe0:	0fc7b783          	ld	a5,252(a5) # 70d8 <_GLOBAL_OFFSET_TABLE_+0xb8>
    4fe4:	00e78023          	sb	a4,0(a5)
    4fe8:	00002797          	auipc	a5,0x2
    4fec:	1287b783          	ld	a5,296(a5) # 7110 <_GLOBAL_OFFSET_TABLE_+0xf0>
    4ff0:	0007c703          	lbu	a4,0(a5)
    4ff4:	00002797          	auipc	a5,0x2
    4ff8:	0ec7b783          	ld	a5,236(a5) # 70e0 <_GLOBAL_OFFSET_TABLE_+0xc0>
    4ffc:	00e78023          	sb	a4,0(a5)
    5000:	00002797          	auipc	a5,0x2
    5004:	36078793          	addi	a5,a5,864 # 7360 <Bitlist>
    5008:	00a7c703          	lbu	a4,10(a5)
    500c:	00002797          	auipc	a5,0x2
    5010:	35478793          	addi	a5,a5,852 # 7360 <Bitlist>
    5014:	00e785a3          	sb	a4,11(a5)
    5018:	00002797          	auipc	a5,0x2
    501c:	34878793          	addi	a5,a5,840 # 7360 <Bitlist>
    5020:	00d7c703          	lbu	a4,13(a5)
    5024:	00002797          	auipc	a5,0x2
    5028:	33c78793          	addi	a5,a5,828 # 7360 <Bitlist>
    502c:	00e78723          	sb	a4,14(a5)
    5030:	00002797          	auipc	a5,0x2
    5034:	33078793          	addi	a5,a5,816 # 7360 <Bitlist>
    5038:	0107c703          	lbu	a4,16(a5)
    503c:	00002797          	auipc	a5,0x2
    5040:	32478793          	addi	a5,a5,804 # 7360 <Bitlist>
    5044:	00e788a3          	sb	a4,17(a5)
    5048:	00002797          	auipc	a5,0x2
    504c:	31878793          	addi	a5,a5,792 # 7360 <Bitlist>
    5050:	0137c703          	lbu	a4,19(a5)
    5054:	00002797          	auipc	a5,0x2
    5058:	30c78793          	addi	a5,a5,780 # 7360 <Bitlist>
    505c:	00e78a23          	sb	a4,20(a5)
    5060:	00002797          	auipc	a5,0x2
    5064:	0407b783          	ld	a5,64(a5) # 70a0 <_GLOBAL_OFFSET_TABLE_+0x80>
    5068:	0007a703          	lw	a4,0(a5)
    506c:	00002797          	auipc	a5,0x2
    5070:	fcc7b783          	ld	a5,-52(a5) # 7038 <_GLOBAL_OFFSET_TABLE_+0x18>
    5074:	00e7a023          	sw	a4,0(a5)
    5078:	00002797          	auipc	a5,0x2
    507c:	0507b783          	ld	a5,80(a5) # 70c8 <_GLOBAL_OFFSET_TABLE_+0xa8>
    5080:	0007a703          	lw	a4,0(a5)
    5084:	00002797          	auipc	a5,0x2
    5088:	1147b783          	ld	a5,276(a5) # 7198 <_GLOBAL_OFFSET_TABLE_+0x178>
    508c:	00e7a023          	sw	a4,0(a5)
    5090:	00002797          	auipc	a5,0x2
    5094:	1787b783          	ld	a5,376(a5) # 7208 <_GLOBAL_OFFSET_TABLE_+0x1e8>
    5098:	0007a703          	lw	a4,0(a5)
    509c:	00002797          	auipc	a5,0x2
    50a0:	fac7b783          	ld	a5,-84(a5) # 7048 <_GLOBAL_OFFSET_TABLE_+0x28>
    50a4:	00e7a023          	sw	a4,0(a5)
    50a8:	00002797          	auipc	a5,0x2
    50ac:	1787b783          	ld	a5,376(a5) # 7220 <_GLOBAL_OFFSET_TABLE_+0x200>
    50b0:	0007a703          	lw	a4,0(a5)
    50b4:	00002797          	auipc	a5,0x2
    50b8:	2847b783          	ld	a5,644(a5) # 7338 <_GLOBAL_OFFSET_TABLE_+0x318>
    50bc:	00e7a023          	sw	a4,0(a5)
    50c0:	00002797          	auipc	a5,0x2
    50c4:	0287b783          	ld	a5,40(a5) # 70e8 <_GLOBAL_OFFSET_TABLE_+0xc8>
    50c8:	0007a703          	lw	a4,0(a5)
    50cc:	00002797          	auipc	a5,0x2
    50d0:	03c7b783          	ld	a5,60(a5) # 7108 <_GLOBAL_OFFSET_TABLE_+0xe8>
    50d4:	00e7a023          	sw	a4,0(a5)
    50d8:	00002797          	auipc	a5,0x2
    50dc:	0887b783          	ld	a5,136(a5) # 7160 <_GLOBAL_OFFSET_TABLE_+0x140>
    50e0:	0007c703          	lbu	a4,0(a5)
    50e4:	00002797          	auipc	a5,0x2
    50e8:	fa47b783          	ld	a5,-92(a5) # 7088 <_GLOBAL_OFFSET_TABLE_+0x68>
    50ec:	00e78023          	sb	a4,0(a5)
    50f0:	00002797          	auipc	a5,0x2
    50f4:	0b07b783          	ld	a5,176(a5) # 71a0 <_GLOBAL_OFFSET_TABLE_+0x180>
    50f8:	0007c703          	lbu	a4,0(a5)
    50fc:	00002797          	auipc	a5,0x2
    5100:	0ac7b783          	ld	a5,172(a5) # 71a8 <_GLOBAL_OFFSET_TABLE_+0x188>
    5104:	00e78023          	sb	a4,0(a5)
    5108:	00002797          	auipc	a5,0x2
    510c:	1107b783          	ld	a5,272(a5) # 7218 <_GLOBAL_OFFSET_TABLE_+0x1f8>
    5110:	0007c703          	lbu	a4,0(a5)
    5114:	00002797          	auipc	a5,0x2
    5118:	0547b783          	ld	a5,84(a5) # 7168 <_GLOBAL_OFFSET_TABLE_+0x148>
    511c:	00e78023          	sb	a4,0(a5)
    5120:	00002797          	auipc	a5,0x2
    5124:	1087b783          	ld	a5,264(a5) # 7228 <_GLOBAL_OFFSET_TABLE_+0x208>
    5128:	0007c703          	lbu	a4,0(a5)
    512c:	00002797          	auipc	a5,0x2
    5130:	f947b783          	ld	a5,-108(a5) # 70c0 <_GLOBAL_OFFSET_TABLE_+0xa0>
    5134:	00e78023          	sb	a4,0(a5)
    5138:	00002797          	auipc	a5,0x2
    513c:	1307b783          	ld	a5,304(a5) # 7268 <_GLOBAL_OFFSET_TABLE_+0x248>
    5140:	0007c703          	lbu	a4,0(a5)
    5144:	00002797          	auipc	a5,0x2
    5148:	fcc7b783          	ld	a5,-52(a5) # 7110 <_GLOBAL_OFFSET_TABLE_+0xf0>
    514c:	00e78023          	sb	a4,0(a5)
    5150:	00002797          	auipc	a5,0x2
    5154:	fc07b783          	ld	a5,-64(a5) # 7110 <_GLOBAL_OFFSET_TABLE_+0xf0>
    5158:	0007c703          	lbu	a4,0(a5)
    515c:	00002797          	auipc	a5,0x2
    5160:	05c7b783          	ld	a5,92(a5) # 71b8 <_GLOBAL_OFFSET_TABLE_+0x198>
    5164:	00e78023          	sb	a4,0(a5)
    5168:	00002797          	auipc	a5,0x2
    516c:	0587b783          	ld	a5,88(a5) # 71c0 <_GLOBAL_OFFSET_TABLE_+0x1a0>
    5170:	0007c703          	lbu	a4,0(a5)
    5174:	00002797          	auipc	a5,0x2
    5178:	10c7b783          	ld	a5,268(a5) # 7280 <_GLOBAL_OFFSET_TABLE_+0x260>
    517c:	00e78023          	sb	a4,0(a5)
    5180:	00002797          	auipc	a5,0x2
    5184:	1007b783          	ld	a5,256(a5) # 7280 <_GLOBAL_OFFSET_TABLE_+0x260>
    5188:	0007c703          	lbu	a4,0(a5)
    518c:	00002797          	auipc	a5,0x2
    5190:	ed47b783          	ld	a5,-300(a5) # 7060 <_GLOBAL_OFFSET_TABLE_+0x40>
    5194:	00e78023          	sb	a4,0(a5)
    5198:	00002797          	auipc	a5,0x2
    519c:	0307b783          	ld	a5,48(a5) # 71c8 <_GLOBAL_OFFSET_TABLE_+0x1a8>
    51a0:	0007c703          	lbu	a4,0(a5)
    51a4:	00002797          	auipc	a5,0x2
    51a8:	f947b783          	ld	a5,-108(a5) # 7138 <_GLOBAL_OFFSET_TABLE_+0x118>
    51ac:	00e78023          	sb	a4,0(a5)
    51b0:	00002797          	auipc	a5,0x2
    51b4:	f887b783          	ld	a5,-120(a5) # 7138 <_GLOBAL_OFFSET_TABLE_+0x118>
    51b8:	0007c703          	lbu	a4,0(a5)
    51bc:	00002797          	auipc	a5,0x2
    51c0:	0ec7b783          	ld	a5,236(a5) # 72a8 <_GLOBAL_OFFSET_TABLE_+0x288>
    51c4:	00e78023          	sb	a4,0(a5)
    51c8:	00002797          	auipc	a5,0x2
    51cc:	1287b783          	ld	a5,296(a5) # 72f0 <_GLOBAL_OFFSET_TABLE_+0x2d0>
    51d0:	0007c703          	lbu	a4,0(a5)
    51d4:	00002797          	auipc	a5,0x2
    51d8:	0dc7b783          	ld	a5,220(a5) # 72b0 <_GLOBAL_OFFSET_TABLE_+0x290>
    51dc:	00e78023          	sb	a4,0(a5)
    51e0:	00002797          	auipc	a5,0x2
    51e4:	0d07b783          	ld	a5,208(a5) # 72b0 <_GLOBAL_OFFSET_TABLE_+0x290>
    51e8:	0007c703          	lbu	a4,0(a5)
    51ec:	00002797          	auipc	a5,0x2
    51f0:	f547b783          	ld	a5,-172(a5) # 7140 <_GLOBAL_OFFSET_TABLE_+0x120>
    51f4:	00e78023          	sb	a4,0(a5)
    51f8:	00002797          	auipc	a5,0x2
    51fc:	f307b783          	ld	a5,-208(a5) # 7128 <_GLOBAL_OFFSET_TABLE_+0x108>
    5200:	0007c703          	lbu	a4,0(a5)
    5204:	00002797          	auipc	a5,0x2
    5208:	f1c7b783          	ld	a5,-228(a5) # 7120 <_GLOBAL_OFFSET_TABLE_+0x100>
    520c:	00e78023          	sb	a4,0(a5)
    5210:	00002797          	auipc	a5,0x2
    5214:	f107b783          	ld	a5,-240(a5) # 7120 <_GLOBAL_OFFSET_TABLE_+0x100>
    5218:	0007c703          	lbu	a4,0(a5)
    521c:	00002797          	auipc	a5,0x2
    5220:	0847b783          	ld	a5,132(a5) # 72a0 <_GLOBAL_OFFSET_TABLE_+0x280>
    5224:	00e78023          	sb	a4,0(a5)
    5228:	00002797          	auipc	a5,0x2
    522c:	ea87b783          	ld	a5,-344(a5) # 70d0 <_GLOBAL_OFFSET_TABLE_+0xb0>
    5230:	0007c703          	lbu	a4,0(a5)
    5234:	00002797          	auipc	a5,0x2
    5238:	ebc7b783          	ld	a5,-324(a5) # 70f0 <_GLOBAL_OFFSET_TABLE_+0xd0>
    523c:	00e78023          	sb	a4,0(a5)
    5240:	00002797          	auipc	a5,0x2
    5244:	fb87b783          	ld	a5,-72(a5) # 71f8 <_GLOBAL_OFFSET_TABLE_+0x1d8>
    5248:	0007c703          	lbu	a4,0(a5)
    524c:	00002797          	auipc	a5,0x2
    5250:	0947b783          	ld	a5,148(a5) # 72e0 <_GLOBAL_OFFSET_TABLE_+0x2c0>
    5254:	00e78023          	sb	a4,0(a5)
    5258:	00002797          	auipc	a5,0x2
    525c:	0207b783          	ld	a5,32(a5) # 7278 <_GLOBAL_OFFSET_TABLE_+0x258>
    5260:	0007c703          	lbu	a4,0(a5)
    5264:	00002797          	auipc	a5,0x2
    5268:	fe47b783          	ld	a5,-28(a5) # 7248 <_GLOBAL_OFFSET_TABLE_+0x228>
    526c:	00e78023          	sb	a4,0(a5)
    5270:	00002797          	auipc	a5,0x2
    5274:	0d07b783          	ld	a5,208(a5) # 7340 <_GLOBAL_OFFSET_TABLE_+0x320>
    5278:	0007c703          	lbu	a4,0(a5)
    527c:	00002797          	auipc	a5,0x2
    5280:	0ac7b783          	ld	a5,172(a5) # 7328 <_GLOBAL_OFFSET_TABLE_+0x308>
    5284:	00e78023          	sb	a4,0(a5)
    5288:	00002797          	auipc	a5,0x2
    528c:	f087b783          	ld	a5,-248(a5) # 7190 <_GLOBAL_OFFSET_TABLE_+0x170>
    5290:	0007c703          	lbu	a4,0(a5)
    5294:	00002797          	auipc	a5,0x2
    5298:	ebc7b783          	ld	a5,-324(a5) # 7150 <_GLOBAL_OFFSET_TABLE_+0x130>
    529c:	00e78023          	sb	a4,0(a5)
    52a0:	00002797          	auipc	a5,0x2
    52a4:	fb07b783          	ld	a5,-80(a5) # 7250 <_GLOBAL_OFFSET_TABLE_+0x230>
    52a8:	0007c703          	lbu	a4,0(a5)
    52ac:	00002797          	auipc	a5,0x2
    52b0:	f047b783          	ld	a5,-252(a5) # 71b0 <_GLOBAL_OFFSET_TABLE_+0x190>
    52b4:	00e78023          	sb	a4,0(a5)
    52b8:	00002797          	auipc	a5,0x2
    52bc:	0507b783          	ld	a5,80(a5) # 7308 <_GLOBAL_OFFSET_TABLE_+0x2e8>
    52c0:	0007c703          	lbu	a4,0(a5)
    52c4:	00002797          	auipc	a5,0x2
    52c8:	e1c7b783          	ld	a5,-484(a5) # 70e0 <_GLOBAL_OFFSET_TABLE_+0xc0>
    52cc:	00e78023          	sb	a4,0(a5)
    52d0:	00002797          	auipc	a5,0x2
    52d4:	e107b783          	ld	a5,-496(a5) # 70e0 <_GLOBAL_OFFSET_TABLE_+0xc0>
    52d8:	0007c703          	lbu	a4,0(a5)
    52dc:	00002797          	auipc	a5,0x2
    52e0:	fe47b783          	ld	a5,-28(a5) # 72c0 <_GLOBAL_OFFSET_TABLE_+0x2a0>
    52e4:	00e78023          	sb	a4,0(a5)
    52e8:	00002797          	auipc	a5,0x2
    52ec:	f887b783          	ld	a5,-120(a5) # 7270 <_GLOBAL_OFFSET_TABLE_+0x250>
    52f0:	0007c703          	lbu	a4,0(a5)
    52f4:	00002797          	auipc	a5,0x2
    52f8:	e3c7b783          	ld	a5,-452(a5) # 7130 <_GLOBAL_OFFSET_TABLE_+0x110>
    52fc:	00e78023          	sb	a4,0(a5)
    5300:	00002797          	auipc	a5,0x2
    5304:	e307b783          	ld	a5,-464(a5) # 7130 <_GLOBAL_OFFSET_TABLE_+0x110>
    5308:	0007c703          	lbu	a4,0(a5)
    530c:	00002797          	auipc	a5,0x2
    5310:	d5c7b783          	ld	a5,-676(a5) # 7068 <_GLOBAL_OFFSET_TABLE_+0x48>
    5314:	00e78023          	sb	a4,0(a5)
    5318:	00002797          	auipc	a5,0x2
    531c:	f707b783          	ld	a5,-144(a5) # 7288 <_GLOBAL_OFFSET_TABLE_+0x268>
    5320:	0007c703          	lbu	a4,0(a5)
    5324:	00002797          	auipc	a5,0x2
    5328:	f947b783          	ld	a5,-108(a5) # 72b8 <_GLOBAL_OFFSET_TABLE_+0x298>
    532c:	00e78023          	sb	a4,0(a5)
    5330:	00002797          	auipc	a5,0x2
    5334:	f887b783          	ld	a5,-120(a5) # 72b8 <_GLOBAL_OFFSET_TABLE_+0x298>
    5338:	0007c703          	lbu	a4,0(a5)
    533c:	00002797          	auipc	a5,0x2
    5340:	cf47b783          	ld	a5,-780(a5) # 7030 <_GLOBAL_OFFSET_TABLE_+0x10>
    5344:	00e78023          	sb	a4,0(a5)
    5348:	00002797          	auipc	a5,0x2
    534c:	e887b783          	ld	a5,-376(a5) # 71d0 <_GLOBAL_OFFSET_TABLE_+0x1b0>
    5350:	0007c783          	lbu	a5,0(a5)
    5354:	9e078863          	beqz	a5,4544 <FH_DU+0x3c>
    5358:	00000013          	nop
    535c:	00000013          	nop
    5360:	00813083          	ld	ra,8(sp)
    5364:	00013403          	ld	s0,0(sp)
    5368:	01010113          	addi	sp,sp,16
    536c:	00008067          	ret

0000000000005370 <main>:
    5370:	ff010113          	addi	sp,sp,-16
    5374:	00113423          	sd	ra,8(sp)
    5378:	00813023          	sd	s0,0(sp)
    537c:	01010413          	addi	s0,sp,16
    5380:	d50fd0ef          	jal	ra,28d0 <init>
    5384:	ad8fd0ef          	jal	ra,265c <interface>
    5388:	980ff0ef          	jal	ra,4508 <FH_DU>
    538c:	00000793          	li	a5,0
    5390:	00078513          	mv	a0,a5
    5394:	00813083          	ld	ra,8(sp)
    5398:	00013403          	ld	s0,0(sp)
    539c:	01010113          	addi	sp,sp,16
    53a0:	00008067          	ret

00000000000053a4 <__libc_csu_init>:
    53a4:	7139                	addi	sp,sp,-64
    53a6:	f822                	sd	s0,48(sp)
    53a8:	f04a                	sd	s2,32(sp)
    53aa:	00002417          	auipc	s0,0x2
    53ae:	a5640413          	addi	s0,s0,-1450 # 6e00 <__frame_dummy_init_array_entry>
    53b2:	00002917          	auipc	s2,0x2
    53b6:	a5690913          	addi	s2,s2,-1450 # 6e08 <__do_global_dtors_aux_fini_array_entry>
    53ba:	40890933          	sub	s2,s2,s0
    53be:	fc06                	sd	ra,56(sp)
    53c0:	f426                	sd	s1,40(sp)
    53c2:	ec4e                	sd	s3,24(sp)
    53c4:	e852                	sd	s4,16(sp)
    53c6:	e456                	sd	s5,8(sp)
    53c8:	40395913          	srai	s2,s2,0x3
    53cc:	00090f63          	beqz	s2,53ea <__libc_csu_init+0x46>
    53d0:	89aa                	mv	s3,a0
    53d2:	8a2e                	mv	s4,a1
    53d4:	8ab2                	mv	s5,a2
    53d6:	4481                	li	s1,0
    53d8:	601c                	ld	a5,0(s0)
    53da:	8656                	mv	a2,s5
    53dc:	85d2                	mv	a1,s4
    53de:	854e                	mv	a0,s3
    53e0:	0485                	addi	s1,s1,1
    53e2:	9782                	jalr	a5
    53e4:	0421                	addi	s0,s0,8
    53e6:	fe9919e3          	bne	s2,s1,53d8 <__libc_csu_init+0x34>
    53ea:	70e2                	ld	ra,56(sp)
    53ec:	7442                	ld	s0,48(sp)
    53ee:	74a2                	ld	s1,40(sp)
    53f0:	7902                	ld	s2,32(sp)
    53f2:	69e2                	ld	s3,24(sp)
    53f4:	6a42                	ld	s4,16(sp)
    53f6:	6aa2                	ld	s5,8(sp)
    53f8:	6121                	addi	sp,sp,64
    53fa:	8082                	ret

00000000000053fc <__libc_csu_fini>:
    53fc:	8082                	ret
