
testcase1_bin：     文件格式 elf64-littleaarch64


Disassembly of section .init:

00000000004011a0 <_init>:
  4011a0:	d503201f 	nop
  4011a4:	a9bf7bfd 	stp	x29, x30, [sp, #-16]!
  4011a8:	910003fd 	mov	x29, sp
  4011ac:	940000f6 	bl	401584 <call_weak_fn>
  4011b0:	a8c17bfd 	ldp	x29, x30, [sp], #16
  4011b4:	d65f03c0 	ret

Disassembly of section .plt:

00000000004011c0 <.plt>:
  4011c0:	a9bf7bf0 	stp	x16, x30, [sp, #-16]!
  4011c4:	d00003f0 	adrp	x16, 47f000 <__FRAME_END__+0x1db6c>
  4011c8:	f947fe11 	ldr	x17, [x16, #4088]
  4011cc:	913fe210 	add	x16, x16, #0xff8
  4011d0:	d61f0220 	br	x17
  4011d4:	d503201f 	nop
  4011d8:	d503201f 	nop
  4011dc:	d503201f 	nop

00000000004011e0 <memcpy@plt>:
  4011e0:	f00003f0 	adrp	x16, 480000 <memcpy@GLIBC_2.17>
  4011e4:	f9400211 	ldr	x17, [x16]
  4011e8:	91000210 	add	x16, x16, #0x0
  4011ec:	d61f0220 	br	x17

00000000004011f0 <memmove@plt>:
  4011f0:	f00003f0 	adrp	x16, 480000 <memcpy@GLIBC_2.17>
  4011f4:	f9400611 	ldr	x17, [x16, #8]
  4011f8:	91002210 	add	x16, x16, #0x8
  4011fc:	d61f0220 	br	x17

0000000000401200 <strlen@plt>:
  401200:	f00003f0 	adrp	x16, 480000 <memcpy@GLIBC_2.17>
  401204:	f9400a11 	ldr	x17, [x16, #16]
  401208:	91004210 	add	x16, x16, #0x10
  40120c:	d61f0220 	br	x17

0000000000401210 <__libc_start_main@plt>:
  401210:	f00003f0 	adrp	x16, 480000 <memcpy@GLIBC_2.17>
  401214:	f9400e11 	ldr	x17, [x16, #24]
  401218:	91006210 	add	x16, x16, #0x18
  40121c:	d61f0220 	br	x17

0000000000401220 <mbtowc@plt>:
  401220:	f00003f0 	adrp	x16, 480000 <memcpy@GLIBC_2.17>
  401224:	f9401211 	ldr	x17, [x16, #32]
  401228:	91008210 	add	x16, x16, #0x20
  40122c:	d61f0220 	br	x17

0000000000401230 <strnlen@plt>:
  401230:	f00003f0 	adrp	x16, 480000 <memcpy@GLIBC_2.17>
  401234:	f9401611 	ldr	x17, [x16, #40]
  401238:	9100a210 	add	x16, x16, #0x28
  40123c:	d61f0220 	br	x17

0000000000401240 <strtod@plt>:
  401240:	f00003f0 	adrp	x16, 480000 <memcpy@GLIBC_2.17>
  401244:	f9401a11 	ldr	x17, [x16, #48]
  401248:	9100c210 	add	x16, x16, #0x30
  40124c:	d61f0220 	br	x17

0000000000401250 <setbuf@plt>:
  401250:	f00003f0 	adrp	x16, 480000 <memcpy@GLIBC_2.17>
  401254:	f9401e11 	ldr	x17, [x16, #56]
  401258:	9100e210 	add	x16, x16, #0x38
  40125c:	d61f0220 	br	x17

0000000000401260 <ftell@plt>:
  401260:	f00003f0 	adrp	x16, 480000 <memcpy@GLIBC_2.17>
  401264:	f9402211 	ldr	x17, [x16, #64]
  401268:	91010210 	add	x16, x16, #0x40
  40126c:	d61f0220 	br	x17

0000000000401270 <clock_gettime@plt>:
  401270:	f00003f0 	adrp	x16, 480000 <memcpy@GLIBC_2.17>
  401274:	f9402611 	ldr	x17, [x16, #72]
  401278:	91012210 	add	x16, x16, #0x48
  40127c:	d61f0220 	br	x17

0000000000401280 <fclose@plt>:
  401280:	f00003f0 	adrp	x16, 480000 <memcpy@GLIBC_2.17>
  401284:	f9402a11 	ldr	x17, [x16, #80]
  401288:	91014210 	add	x16, x16, #0x50
  40128c:	d61f0220 	br	x17

0000000000401290 <iswspace@plt>:
  401290:	f00003f0 	adrp	x16, 480000 <memcpy@GLIBC_2.17>
  401294:	f9402e11 	ldr	x17, [x16, #88]
  401298:	91016210 	add	x16, x16, #0x58
  40129c:	d61f0220 	br	x17

00000000004012a0 <getpid@plt>:
  4012a0:	f00003f0 	adrp	x16, 480000 <memcpy@GLIBC_2.17>
  4012a4:	f9403211 	ldr	x17, [x16, #96]
  4012a8:	91018210 	add	x16, x16, #0x60
  4012ac:	d61f0220 	br	x17

00000000004012b0 <fopen@plt>:
  4012b0:	f00003f0 	adrp	x16, 480000 <memcpy@GLIBC_2.17>
  4012b4:	f9403611 	ldr	x17, [x16, #104]
  4012b8:	9101a210 	add	x16, x16, #0x68
  4012bc:	d61f0220 	br	x17

00000000004012c0 <malloc@plt>:
  4012c0:	f00003f0 	adrp	x16, 480000 <memcpy@GLIBC_2.17>
  4012c4:	f9403a11 	ldr	x17, [x16, #112]
  4012c8:	9101c210 	add	x16, x16, #0x70
  4012cc:	d61f0220 	br	x17

00000000004012d0 <open@plt>:
  4012d0:	f00003f0 	adrp	x16, 480000 <memcpy@GLIBC_2.17>
  4012d4:	f9403e11 	ldr	x17, [x16, #120]
  4012d8:	9101e210 	add	x16, x16, #0x78
  4012dc:	d61f0220 	br	x17

00000000004012e0 <ungetwc@plt>:
  4012e0:	f00003f0 	adrp	x16, 480000 <memcpy@GLIBC_2.17>
  4012e4:	f9404211 	ldr	x17, [x16, #128]
  4012e8:	91020210 	add	x16, x16, #0x80
  4012ec:	d61f0220 	br	x17

00000000004012f0 <fgetc@plt>:
  4012f0:	f00003f0 	adrp	x16, 480000 <memcpy@GLIBC_2.17>
  4012f4:	f9404611 	ldr	x17, [x16, #136]
  4012f8:	91022210 	add	x16, x16, #0x88
  4012fc:	d61f0220 	br	x17

0000000000401300 <memset@plt>:
  401300:	f00003f0 	adrp	x16, 480000 <memcpy@GLIBC_2.17>
  401304:	f9404a11 	ldr	x17, [x16, #144]
  401308:	91024210 	add	x16, x16, #0x90
  40130c:	d61f0220 	br	x17

0000000000401310 <fdopen@plt>:
  401310:	f00003f0 	adrp	x16, 480000 <memcpy@GLIBC_2.17>
  401314:	f9404e11 	ldr	x17, [x16, #152]
  401318:	91026210 	add	x16, x16, #0x98
  40131c:	d61f0220 	br	x17

0000000000401320 <sleep@plt>:
  401320:	f00003f0 	adrp	x16, 480000 <memcpy@GLIBC_2.17>
  401324:	f9405211 	ldr	x17, [x16, #160]
  401328:	91028210 	add	x16, x16, #0xa0
  40132c:	d61f0220 	br	x17

0000000000401330 <close@plt>:
  401330:	f00003f0 	adrp	x16, 480000 <memcpy@GLIBC_2.17>
  401334:	f9405611 	ldr	x17, [x16, #168]
  401338:	9102a210 	add	x16, x16, #0xa8
  40133c:	d61f0220 	br	x17

0000000000401340 <__gmon_start__@plt>:
  401340:	f00003f0 	adrp	x16, 480000 <memcpy@GLIBC_2.17>
  401344:	f9405a11 	ldr	x17, [x16, #176]
  401348:	9102c210 	add	x16, x16, #0xb0
  40134c:	d61f0220 	br	x17

0000000000401350 <fseek@plt>:
  401350:	f00003f0 	adrp	x16, 480000 <memcpy@GLIBC_2.17>
  401354:	f9405e11 	ldr	x17, [x16, #184]
  401358:	9102e210 	add	x16, x16, #0xb8
  40135c:	d61f0220 	br	x17

0000000000401360 <abort@plt>:
  401360:	f00003f0 	adrp	x16, 480000 <memcpy@GLIBC_2.17>
  401364:	f9406211 	ldr	x17, [x16, #192]
  401368:	91030210 	add	x16, x16, #0xc0
  40136c:	d61f0220 	br	x17

0000000000401370 <access@plt>:
  401370:	f00003f0 	adrp	x16, 480000 <memcpy@GLIBC_2.17>
  401374:	f9406611 	ldr	x17, [x16, #200]
  401378:	91032210 	add	x16, x16, #0xc8
  40137c:	d61f0220 	br	x17

0000000000401380 <feof@plt>:
  401380:	f00003f0 	adrp	x16, 480000 <memcpy@GLIBC_2.17>
  401384:	f9406a11 	ldr	x17, [x16, #208]
  401388:	91034210 	add	x16, x16, #0xd0
  40138c:	d61f0220 	br	x17

0000000000401390 <puts@plt>:
  401390:	f00003f0 	adrp	x16, 480000 <memcpy@GLIBC_2.17>
  401394:	f9406e11 	ldr	x17, [x16, #216]
  401398:	91036210 	add	x16, x16, #0xd8
  40139c:	d61f0220 	br	x17

00000000004013a0 <strcmp@plt>:
  4013a0:	f00003f0 	adrp	x16, 480000 <memcpy@GLIBC_2.17>
  4013a4:	f9407211 	ldr	x17, [x16, #224]
  4013a8:	91038210 	add	x16, x16, #0xe0
  4013ac:	d61f0220 	br	x17

00000000004013b0 <__ctype_b_loc@plt>:
  4013b0:	f00003f0 	adrp	x16, 480000 <memcpy@GLIBC_2.17>
  4013b4:	f9407611 	ldr	x17, [x16, #232]
  4013b8:	9103a210 	add	x16, x16, #0xe8
  4013bc:	d61f0220 	br	x17

00000000004013c0 <pthread_detach@plt>:
  4013c0:	f00003f0 	adrp	x16, 480000 <memcpy@GLIBC_2.17>
  4013c4:	f9407a11 	ldr	x17, [x16, #240]
  4013c8:	9103c210 	add	x16, x16, #0xf0
  4013cc:	d61f0220 	br	x17

00000000004013d0 <strtol@plt>:
  4013d0:	f00003f0 	adrp	x16, 480000 <memcpy@GLIBC_2.17>
  4013d4:	f9407e11 	ldr	x17, [x16, #248]
  4013d8:	9103e210 	add	x16, x16, #0xf8
  4013dc:	d61f0220 	br	x17

00000000004013e0 <fread@plt>:
  4013e0:	f00003f0 	adrp	x16, 480000 <memcpy@GLIBC_2.17>
  4013e4:	f9408211 	ldr	x17, [x16, #256]
  4013e8:	91040210 	add	x16, x16, #0x100
  4013ec:	d61f0220 	br	x17

00000000004013f0 <wctomb@plt>:
  4013f0:	f00003f0 	adrp	x16, 480000 <memcpy@GLIBC_2.17>
  4013f4:	f9408611 	ldr	x17, [x16, #264]
  4013f8:	91042210 	add	x16, x16, #0x108
  4013fc:	d61f0220 	br	x17

0000000000401400 <strtold@plt>:
  401400:	f00003f0 	adrp	x16, 480000 <memcpy@GLIBC_2.17>
  401404:	f9408a11 	ldr	x17, [x16, #272]
  401408:	91044210 	add	x16, x16, #0x110
  40140c:	d61f0220 	br	x17

0000000000401410 <free@plt>:
  401410:	f00003f0 	adrp	x16, 480000 <memcpy@GLIBC_2.17>
  401414:	f9408e11 	ldr	x17, [x16, #280]
  401418:	91046210 	add	x16, x16, #0x118
  40141c:	d61f0220 	br	x17

0000000000401420 <ungetc@plt>:
  401420:	f00003f0 	adrp	x16, 480000 <memcpy@GLIBC_2.17>
  401424:	f9409211 	ldr	x17, [x16, #288]
  401428:	91048210 	add	x16, x16, #0x120
  40142c:	d61f0220 	br	x17

0000000000401430 <__ctype_get_mb_cur_max@plt>:
  401430:	f00003f0 	adrp	x16, 480000 <memcpy@GLIBC_2.17>
  401434:	f9409611 	ldr	x17, [x16, #296]
  401438:	9104a210 	add	x16, x16, #0x128
  40143c:	d61f0220 	br	x17

0000000000401440 <fwrite@plt>:
  401440:	f00003f0 	adrp	x16, 480000 <memcpy@GLIBC_2.17>
  401444:	f9409a11 	ldr	x17, [x16, #304]
  401448:	9104c210 	add	x16, x16, #0x130
  40144c:	d61f0220 	br	x17

0000000000401450 <pthread_create@plt>:
  401450:	f00003f0 	adrp	x16, 480000 <memcpy@GLIBC_2.17>
  401454:	f9409e11 	ldr	x17, [x16, #312]
  401458:	9104e210 	add	x16, x16, #0x138
  40145c:	d61f0220 	br	x17

0000000000401460 <fcntl@plt>:
  401460:	f00003f0 	adrp	x16, 480000 <memcpy@GLIBC_2.17>
  401464:	f940a211 	ldr	x17, [x16, #320]
  401468:	91050210 	add	x16, x16, #0x140
  40146c:	d61f0220 	br	x17

0000000000401470 <strcpy@plt>:
  401470:	f00003f0 	adrp	x16, 480000 <memcpy@GLIBC_2.17>
  401474:	f940a611 	ldr	x17, [x16, #328]
  401478:	91052210 	add	x16, x16, #0x148
  40147c:	d61f0220 	br	x17

0000000000401480 <vsprintf@plt>:
  401480:	f00003f0 	adrp	x16, 480000 <memcpy@GLIBC_2.17>
  401484:	f940aa11 	ldr	x17, [x16, #336]
  401488:	91054210 	add	x16, x16, #0x150
  40148c:	d61f0220 	br	x17

0000000000401490 <fgetwc@plt>:
  401490:	f00003f0 	adrp	x16, 480000 <memcpy@GLIBC_2.17>
  401494:	f940ae11 	ldr	x17, [x16, #344]
  401498:	91056210 	add	x16, x16, #0x158
  40149c:	d61f0220 	br	x17

00000000004014a0 <wcstombs@plt>:
  4014a0:	f00003f0 	adrp	x16, 480000 <memcpy@GLIBC_2.17>
  4014a4:	f940b211 	ldr	x17, [x16, #352]
  4014a8:	91058210 	add	x16, x16, #0x160
  4014ac:	d61f0220 	br	x17

00000000004014b0 <strncpy@plt>:
  4014b0:	f00003f0 	adrp	x16, 480000 <memcpy@GLIBC_2.17>
  4014b4:	f940b611 	ldr	x17, [x16, #360]
  4014b8:	9105a210 	add	x16, x16, #0x168
  4014bc:	d61f0220 	br	x17

00000000004014c0 <pthread_self@plt>:
  4014c0:	f00003f0 	adrp	x16, 480000 <memcpy@GLIBC_2.17>
  4014c4:	f940ba11 	ldr	x17, [x16, #368]
  4014c8:	9105c210 	add	x16, x16, #0x170
  4014cc:	d61f0220 	br	x17

00000000004014d0 <vfprintf@plt>:
  4014d0:	f00003f0 	adrp	x16, 480000 <memcpy@GLIBC_2.17>
  4014d4:	f940be11 	ldr	x17, [x16, #376]
  4014d8:	9105e210 	add	x16, x16, #0x178
  4014dc:	d61f0220 	br	x17

00000000004014e0 <printf@plt>:
  4014e0:	f00003f0 	adrp	x16, 480000 <memcpy@GLIBC_2.17>
  4014e4:	f940c211 	ldr	x17, [x16, #384]
  4014e8:	91060210 	add	x16, x16, #0x180
  4014ec:	d61f0220 	br	x17

00000000004014f0 <__errno_location@plt>:
  4014f0:	f00003f0 	adrp	x16, 480000 <memcpy@GLIBC_2.17>
  4014f4:	f940c611 	ldr	x17, [x16, #392]
  4014f8:	91062210 	add	x16, x16, #0x188
  4014fc:	d61f0220 	br	x17

0000000000401500 <getenv@plt>:
  401500:	f00003f0 	adrp	x16, 480000 <memcpy@GLIBC_2.17>
  401504:	f940ca11 	ldr	x17, [x16, #400]
  401508:	91064210 	add	x16, x16, #0x190
  40150c:	d61f0220 	br	x17

0000000000401510 <mkdir@plt>:
  401510:	f00003f0 	adrp	x16, 480000 <memcpy@GLIBC_2.17>
  401514:	f940ce11 	ldr	x17, [x16, #408]
  401518:	91066210 	add	x16, x16, #0x198
  40151c:	d61f0220 	br	x17

0000000000401520 <fprintf@plt>:
  401520:	f00003f0 	adrp	x16, 480000 <memcpy@GLIBC_2.17>
  401524:	f940d211 	ldr	x17, [x16, #416]
  401528:	91068210 	add	x16, x16, #0x1a0
  40152c:	d61f0220 	br	x17

Disassembly of section .text:

0000000000401540 <_start>:
  401540:	d503201f 	nop
  401544:	d280001d 	mov	x29, #0x0                   	// #0
  401548:	d280001e 	mov	x30, #0x0                   	// #0
  40154c:	aa0003e5 	mov	x5, x0
  401550:	f94003e1 	ldr	x1, [sp]
  401554:	910023e2 	add	x2, sp, #0x8
  401558:	910003e6 	mov	x6, sp
  40155c:	90000000 	adrp	x0, 401000 <__abi_tag+0xdac>
  401560:	9115d000 	add	x0, x0, #0x574
  401564:	d2800003 	mov	x3, #0x0                   	// #0
  401568:	d2800004 	mov	x4, #0x0                   	// #0
  40156c:	97ffff29 	bl	401210 <__libc_start_main@plt>
  401570:	97ffff7c 	bl	401360 <abort@plt>

0000000000401574 <__wrap_main>:
  401574:	d503201f 	nop
  401578:	14000031 	b	40163c <main>
  40157c:	d503201f 	nop

0000000000401580 <_dl_relocate_static_pie>:
  401580:	d65f03c0 	ret

0000000000401584 <call_weak_fn>:
  401584:	d00003e0 	adrp	x0, 47f000 <__FRAME_END__+0x1db6c>
  401588:	f947e400 	ldr	x0, [x0, #4040]
  40158c:	b4000040 	cbz	x0, 401594 <call_weak_fn+0x10>
  401590:	17ffff6c 	b	401340 <__gmon_start__@plt>
  401594:	d65f03c0 	ret

0000000000401598 <deregister_tm_clones>:
  401598:	900004a0 	adrp	x0, 495000 <__gcov_.SecFinishNumber+0x10>
  40159c:	912a6000 	add	x0, x0, #0xa98
  4015a0:	900004a1 	adrp	x1, 495000 <__gcov_.SecFinishNumber+0x10>
  4015a4:	912a6021 	add	x1, x1, #0xa98
  4015a8:	eb00003f 	cmp	x1, x0
  4015ac:	540000a0 	b.eq	4015c0 <deregister_tm_clones+0x28>  // b.none
  4015b0:	f0000281 	adrp	x1, 454000 <gcov_do_dump+0x1048>
  4015b4:	f946a421 	ldr	x1, [x1, #3400]
  4015b8:	b4000041 	cbz	x1, 4015c0 <deregister_tm_clones+0x28>
  4015bc:	d61f0020 	br	x1
  4015c0:	d65f03c0 	ret
  4015c4:	d503201f 	nop

00000000004015c8 <register_tm_clones>:
  4015c8:	900004a0 	adrp	x0, 495000 <__gcov_.SecFinishNumber+0x10>
  4015cc:	912a6000 	add	x0, x0, #0xa98
  4015d0:	900004a1 	adrp	x1, 495000 <__gcov_.SecFinishNumber+0x10>
  4015d4:	912a6021 	add	x1, x1, #0xa98
  4015d8:	cb000021 	sub	x1, x1, x0
  4015dc:	9343fc21 	asr	x1, x1, #3
  4015e0:	8b41fc21 	add	x1, x1, x1, lsr #63
  4015e4:	9341fc21 	asr	x1, x1, #1
  4015e8:	b40000c1 	cbz	x1, 401600 <register_tm_clones+0x38>
  4015ec:	f0000282 	adrp	x2, 454000 <gcov_do_dump+0x1048>
  4015f0:	f946a842 	ldr	x2, [x2, #3408]
  4015f4:	b4000062 	cbz	x2, 401600 <register_tm_clones+0x38>
  4015f8:	d61f0040 	br	x2
  4015fc:	d503201f 	nop
  401600:	d65f03c0 	ret
  401604:	d503201f 	nop

0000000000401608 <__do_global_dtors_aux>:
  401608:	a9be7bfd 	stp	x29, x30, [sp, #-32]!
  40160c:	910003fd 	mov	x29, sp
  401610:	f9000bf3 	str	x19, [sp, #16]
  401614:	900004b3 	adrp	x19, 495000 <__gcov_.SecFinishNumber+0x10>
  401618:	396a8260 	ldrb	w0, [x19, #2720]
  40161c:	35000080 	cbnz	w0, 40162c <__do_global_dtors_aux+0x24>
  401620:	97ffffde 	bl	401598 <deregister_tm_clones>
  401624:	52800020 	mov	w0, #0x1                   	// #1
  401628:	392a8260 	strb	w0, [x19, #2720]
  40162c:	f9400bf3 	ldr	x19, [sp, #16]
  401630:	a8c27bfd 	ldp	x29, x30, [sp], #32
  401634:	d65f03c0 	ret

0000000000401638 <frame_dummy>:
  401638:	17ffffe4 	b	4015c8 <register_tm_clones>

000000000040163c <main>:
  40163c:	a9bf7bfd 	stp	x29, x30, [sp, #-16]!
  401640:	910003fd 	mov	x29, sp
  401644:	9400029b 	bl	4020b0 <e2e_send_pthread_000>
  401648:	9400031e 	bl	4022c0 <e2e_recv_pthread_000>
  40164c:	52800000 	mov	w0, #0x0                   	// #0
  401650:	a8c17bfd 	ldp	x29, x30, [sp], #16
  401654:	d65f03c0 	ret

0000000000401658 <LTR_Log>:
  401658:	a9b77bfd 	stp	x29, x30, [sp, #-144]!
  40165c:	910003fd 	mov	x29, sp
  401660:	b9004fa0 	str	w0, [x29, #76]
  401664:	f90023a1 	str	x1, [x29, #64]
  401668:	f9001fa2 	str	x2, [x29, #56]
  40166c:	f9001ba3 	str	x3, [x29, #48]
  401670:	fd0017a0 	str	d0, [x29, #40]
  401674:	f90013a4 	str	x4, [x29, #32]
  401678:	f9000fa5 	str	x5, [x29, #24]
  40167c:	f9000ba6 	str	x6, [x29, #16]
  401680:	f00003e0 	adrp	x0, 480000 <memcpy@GLIBC_2.17>
  401684:	91070001 	add	x1, x0, #0x1c0
  401688:	910163a0 	add	x0, x29, #0x58
  40168c:	a9400c22 	ldp	x2, x3, [x1]
  401690:	a9000c02 	stp	x2, x3, [x0]
  401694:	a9410c22 	ldp	x2, x3, [x1, #16]
  401698:	a9010c02 	stp	x2, x3, [x0, #16]
  40169c:	a9420821 	ldp	x1, x2, [x1, #32]
  4016a0:	a9020801 	stp	x1, x2, [x0, #32]
  4016a4:	f9401fa0 	ldr	x0, [x29, #56]
  4016a8:	f100141f 	cmp	x0, #0x5
  4016ac:	54000068 	b.hi	4016b8 <LTR_Log+0x60>  // b.pmore
  4016b0:	f9401fa0 	ldr	x0, [x29, #56]
  4016b4:	14000002 	b	4016bc <LTR_Log+0x64>
  4016b8:	52800000 	mov	w0, #0x0                   	// #0
  4016bc:	b9008fa0 	str	w0, [x29, #140]
  4016c0:	b9408fa0 	ldr	w0, [x29, #140]
  4016c4:	d37df000 	lsl	x0, x0, #3
  4016c8:	910163a1 	add	x1, x29, #0x58
  4016cc:	f8606821 	ldr	x1, [x1, x0]
  4016d0:	f0000280 	adrp	x0, 454000 <gcov_do_dump+0x1048>
  4016d4:	91356000 	add	x0, x0, #0xd58
  4016d8:	f9401ba5 	ldr	x5, [x29, #48]
  4016dc:	f9400ba4 	ldr	x4, [x29, #16]
  4016e0:	f9400fa3 	ldr	x3, [x29, #24]
  4016e4:	f94013a2 	ldr	x2, [x29, #32]
  4016e8:	fd4017a0 	ldr	d0, [x29, #40]
  4016ec:	97ffff7d 	bl	4014e0 <printf@plt>
  4016f0:	52800000 	mov	w0, #0x0                   	// #0
  4016f4:	a8c97bfd 	ldp	x29, x30, [sp], #144
  4016f8:	d65f03c0 	ret

00000000004016fc <LTR_StrLog>:
  4016fc:	a9b97bfd 	stp	x29, x30, [sp, #-112]!
  401700:	910003fd 	mov	x29, sp
  401704:	b9002fa0 	str	w0, [x29, #44]
  401708:	f90013a1 	str	x1, [x29, #32]
  40170c:	f9000fa2 	str	x2, [x29, #24]
  401710:	f9000ba3 	str	x3, [x29, #16]
  401714:	f00003e0 	adrp	x0, 480000 <memcpy@GLIBC_2.17>
  401718:	91070001 	add	x1, x0, #0x1c0
  40171c:	9100e3a0 	add	x0, x29, #0x38
  401720:	a9400c22 	ldp	x2, x3, [x1]
  401724:	a9000c02 	stp	x2, x3, [x0]
  401728:	a9410c22 	ldp	x2, x3, [x1, #16]
  40172c:	a9010c02 	stp	x2, x3, [x0, #16]
  401730:	a9420821 	ldp	x1, x2, [x1, #32]
  401734:	a9020801 	stp	x1, x2, [x0, #32]
  401738:	f9400fa0 	ldr	x0, [x29, #24]
  40173c:	f100141f 	cmp	x0, #0x5
  401740:	54000068 	b.hi	40174c <LTR_StrLog+0x50>  // b.pmore
  401744:	f9400fa0 	ldr	x0, [x29, #24]
  401748:	14000002 	b	401750 <LTR_StrLog+0x54>
  40174c:	52800000 	mov	w0, #0x0                   	// #0
  401750:	b9006fa0 	str	w0, [x29, #108]
  401754:	b9406fa0 	ldr	w0, [x29, #108]
  401758:	d37df000 	lsl	x0, x0, #3
  40175c:	9100e3a1 	add	x1, x29, #0x38
  401760:	f8606821 	ldr	x1, [x1, x0]
  401764:	f0000280 	adrp	x0, 454000 <gcov_do_dump+0x1048>
  401768:	91374000 	add	x0, x0, #0xdd0
  40176c:	f9400ba2 	ldr	x2, [x29, #16]
  401770:	97ffff5c 	bl	4014e0 <printf@plt>
  401774:	52800000 	mov	w0, #0x0                   	// #0
  401778:	a8c77bfd 	ldp	x29, x30, [sp], #112
  40177c:	d65f03c0 	ret

0000000000401780 <LTR_Printf>:
  401780:	d11443ff 	sub	sp, sp, #0x510
  401784:	a9007bfd 	stp	x29, x30, [sp]
  401788:	910003fd 	mov	x29, sp
  40178c:	b9003fa0 	str	w0, [x29, #60]
  401790:	f9001ba1 	str	x1, [x29, #48]
  401794:	f90273a2 	str	x2, [x29, #1248]
  401798:	f90277a3 	str	x3, [x29, #1256]
  40179c:	f9027ba4 	str	x4, [x29, #1264]
  4017a0:	f9027fa5 	str	x5, [x29, #1272]
  4017a4:	f90283a6 	str	x6, [x29, #1280]
  4017a8:	f90287a7 	str	x7, [x29, #1288]
  4017ac:	911003a0 	add	x0, x29, #0x400
  4017b0:	3d801800 	str	q0, [x0, #96]
  4017b4:	911003a0 	add	x0, x29, #0x400
  4017b8:	3d801c01 	str	q1, [x0, #112]
  4017bc:	911003a0 	add	x0, x29, #0x400
  4017c0:	3d802002 	str	q2, [x0, #128]
  4017c4:	911003a0 	add	x0, x29, #0x400
  4017c8:	3d802403 	str	q3, [x0, #144]
  4017cc:	911003a0 	add	x0, x29, #0x400
  4017d0:	3d802804 	str	q4, [x0, #160]
  4017d4:	911003a0 	add	x0, x29, #0x400
  4017d8:	3d802c05 	str	q5, [x0, #176]
  4017dc:	911003a0 	add	x0, x29, #0x400
  4017e0:	3d803006 	str	q6, [x0, #192]
  4017e4:	911003a0 	add	x0, x29, #0x400
  4017e8:	3d803407 	str	q7, [x0, #208]
  4017ec:	910103a0 	add	x0, x29, #0x40
  4017f0:	d2808001 	mov	x1, #0x400                 	// #1024
  4017f4:	aa0103e2 	mov	x2, x1
  4017f8:	52800001 	mov	w1, #0x0                   	// #0
  4017fc:	97fffec1 	bl	401300 <memset@plt>
  401800:	911443a0 	add	x0, x29, #0x510
  401804:	f90223a0 	str	x0, [x29, #1088]
  401808:	911443a0 	add	x0, x29, #0x510
  40180c:	f90227a0 	str	x0, [x29, #1096]
  401810:	911383a0 	add	x0, x29, #0x4e0
  401814:	f9022ba0 	str	x0, [x29, #1104]
  401818:	128005e0 	mov	w0, #0xffffffd0            	// #-48
  40181c:	b9045ba0 	str	w0, [x29, #1112]
  401820:	12800fe0 	mov	w0, #0xffffff80            	// #-128
  401824:	b9045fa0 	str	w0, [x29, #1116]
  401828:	910043a2 	add	x2, x29, #0x10
  40182c:	911103a3 	add	x3, x29, #0x440
  401830:	a9400460 	ldp	x0, x1, [x3]
  401834:	a9000440 	stp	x0, x1, [x2]
  401838:	a9410460 	ldp	x0, x1, [x3, #16]
  40183c:	a9010440 	stp	x0, x1, [x2, #16]
  401840:	910043a1 	add	x1, x29, #0x10
  401844:	910103a0 	add	x0, x29, #0x40
  401848:	aa0103e2 	mov	x2, x1
  40184c:	f9401ba1 	ldr	x1, [x29, #48]
  401850:	97ffff0c 	bl	401480 <vsprintf@plt>
  401854:	910103a1 	add	x1, x29, #0x40
  401858:	f0000280 	adrp	x0, 454000 <gcov_do_dump+0x1048>
  40185c:	9137e000 	add	x0, x0, #0xdf8
  401860:	97ffff20 	bl	4014e0 <printf@plt>
  401864:	52800000 	mov	w0, #0x0                   	// #0
  401868:	a9407bfd 	ldp	x29, x30, [sp]
  40186c:	911443ff 	add	sp, sp, #0x510
  401870:	d65f03c0 	ret

0000000000401874 <LTR_CreateNs>:
  401874:	d10043ff 	sub	sp, sp, #0x10
  401878:	f90007e0 	str	x0, [sp, #8]
  40187c:	52800000 	mov	w0, #0x0                   	// #0
  401880:	910043ff 	add	sp, sp, #0x10
  401884:	d65f03c0 	ret

0000000000401888 <LTR_DeleteNs>:
  401888:	d10043ff 	sub	sp, sp, #0x10
  40188c:	b9000fe0 	str	w0, [sp, #12]
  401890:	52800000 	mov	w0, #0x0                   	// #0
  401894:	910043ff 	add	sp, sp, #0x10
  401898:	d65f03c0 	ret

000000000040189c <LTR_GetCurrentTsc>:
  40189c:	a9bd7bfd 	stp	x29, x30, [sp, #-48]!
  4018a0:	910003fd 	mov	x29, sp
  4018a4:	f9000fbf 	str	xzr, [x29, #24]
  4018a8:	f90013bf 	str	xzr, [x29, #32]
  4018ac:	910063a0 	add	x0, x29, #0x18
  4018b0:	aa0003e1 	mov	x1, x0
  4018b4:	52800040 	mov	w0, #0x2                   	// #2
  4018b8:	97fffe6e 	bl	401270 <clock_gettime@plt>
  4018bc:	f9400fa0 	ldr	x0, [x29, #24]
  4018c0:	9e630001 	ucvtf	d1, x0
  4018c4:	f0000280 	adrp	x0, 454000 <gcov_do_dump+0x1048>
  4018c8:	91380000 	add	x0, x0, #0xe00
  4018cc:	fd400000 	ldr	d0, [x0]
  4018d0:	1e600821 	fmul	d1, d1, d0
  4018d4:	f94013a0 	ldr	x0, [x29, #32]
  4018d8:	9e620000 	scvtf	d0, x0
  4018dc:	1e602820 	fadd	d0, d1, d0
  4018e0:	9e790000 	fcvtzu	x0, d0
  4018e4:	f90017a0 	str	x0, [x29, #40]
  4018e8:	f94017a1 	ldr	x1, [x29, #40]
  4018ec:	b202e7e0 	mov	x0, #0xcccccccccccccccc    	// #-3689348814741910324
  4018f0:	f29999a0 	movk	x0, #0xcccd
  4018f4:	9bc07c20 	umulh	x0, x1, x0
  4018f8:	d343fc00 	lsr	x0, x0, #3
  4018fc:	f90017a0 	str	x0, [x29, #40]
  401900:	f94017a0 	ldr	x0, [x29, #40]
  401904:	a8c37bfd 	ldp	x29, x30, [sp], #48
  401908:	d65f03c0 	ret

000000000040190c <LTR_UsDelay>:
  40190c:	d10043ff 	sub	sp, sp, #0x10
  401910:	f90007e0 	str	x0, [sp, #8]
  401914:	d503201f 	nop
  401918:	910043ff 	add	sp, sp, #0x10
  40191c:	d65f03c0 	ret

0000000000401920 <LTBUS_GetServoTsc>:
  401920:	d2800000 	mov	x0, #0x0                   	// #0
  401924:	d65f03c0 	ret

0000000000401928 <HELF_ServoCntInit>:
  401928:	52800000 	mov	w0, #0x0                   	// #0
  40192c:	d65f03c0 	ret

0000000000401930 <HELF_ServoCntFree>:
  401930:	d503201f 	nop
  401934:	d65f03c0 	ret

0000000000401938 <HELF_GetServoCnt>:
  401938:	d2800000 	mov	x0, #0x0                   	// #0
  40193c:	d65f03c0 	ret

0000000000401940 <LTR_Atomic32Set>:
  401940:	d10043ff 	sub	sp, sp, #0x10
  401944:	f90007e0 	str	x0, [sp, #8]
  401948:	b90007e1 	str	w1, [sp, #4]
  40194c:	f94007e0 	ldr	x0, [sp, #8]
  401950:	b94007e1 	ldr	w1, [sp, #4]
  401954:	b9000001 	str	w1, [x0]
  401958:	d503201f 	nop
  40195c:	910043ff 	add	sp, sp, #0x10
  401960:	d65f03c0 	ret

0000000000401964 <LTR_MemCpy>:
  401964:	a9bd7bfd 	stp	x29, x30, [sp, #-48]!
  401968:	910003fd 	mov	x29, sp
  40196c:	f90017a0 	str	x0, [x29, #40]
  401970:	f90013a1 	str	x1, [x29, #32]
  401974:	f9000fa2 	str	x2, [x29, #24]
  401978:	f9000ba3 	str	x3, [x29, #16]
  40197c:	f0000280 	adrp	x0, 454000 <gcov_do_dump+0x1048>
  401980:	91382000 	add	x0, x0, #0xe08
  401984:	97fffe83 	bl	401390 <puts@plt>
  401988:	f9400ba2 	ldr	x2, [x29, #16]
  40198c:	f9400fa1 	ldr	x1, [x29, #24]
  401990:	f94017a0 	ldr	x0, [x29, #40]
  401994:	97fffe13 	bl	4011e0 <memcpy@plt>
  401998:	52800000 	mov	w0, #0x0                   	// #0
  40199c:	a8c37bfd 	ldp	x29, x30, [sp], #48
  4019a0:	d65f03c0 	ret

00000000004019a4 <LTR_MemSet>:
  4019a4:	a9bd7bfd 	stp	x29, x30, [sp, #-48]!
  4019a8:	910003fd 	mov	x29, sp
  4019ac:	f90017a0 	str	x0, [x29, #40]
  4019b0:	f90013a1 	str	x1, [x29, #32]
  4019b4:	b9001fa2 	str	w2, [x29, #28]
  4019b8:	f9000ba3 	str	x3, [x29, #16]
  4019bc:	f0000280 	adrp	x0, 454000 <gcov_do_dump+0x1048>
  4019c0:	9138a000 	add	x0, x0, #0xe28
  4019c4:	97fffe73 	bl	401390 <puts@plt>
  4019c8:	f9400ba2 	ldr	x2, [x29, #16]
  4019cc:	b9401fa1 	ldr	w1, [x29, #28]
  4019d0:	f94017a0 	ldr	x0, [x29, #40]
  4019d4:	97fffe4b 	bl	401300 <memset@plt>
  4019d8:	52800000 	mov	w0, #0x0                   	// #0
  4019dc:	a8c37bfd 	ldp	x29, x30, [sp], #48
  4019e0:	d65f03c0 	ret

00000000004019e4 <LTR_ShmMap>:
  4019e4:	a9bd7bfd 	stp	x29, x30, [sp, #-48]!
  4019e8:	910003fd 	mov	x29, sp
  4019ec:	b9002fa0 	str	w0, [x29, #44]
  4019f0:	f90013a1 	str	x1, [x29, #32]
  4019f4:	b9002ba2 	str	w2, [x29, #40]
  4019f8:	f9000fa3 	str	x3, [x29, #24]
  4019fc:	b9402ba0 	ldr	w0, [x29, #40]
  401a00:	97fffe30 	bl	4012c0 <malloc@plt>
  401a04:	aa0003e1 	mov	x1, x0
  401a08:	f9400fa0 	ldr	x0, [x29, #24]
  401a0c:	f9000001 	str	x1, [x0]
  401a10:	f9400fa0 	ldr	x0, [x29, #24]
  401a14:	f9400000 	ldr	x0, [x0]
  401a18:	b9402ba1 	ldr	w1, [x29, #40]
  401a1c:	aa0103e2 	mov	x2, x1
  401a20:	52800001 	mov	w1, #0x0                   	// #0
  401a24:	97fffe37 	bl	401300 <memset@plt>
  401a28:	f9400fa0 	ldr	x0, [x29, #24]
  401a2c:	f9400001 	ldr	x1, [x0]
  401a30:	f0000280 	adrp	x0, 454000 <gcov_do_dump+0x1048>
  401a34:	91392000 	add	x0, x0, #0xe48
  401a38:	aa0103e3 	mov	x3, x1
  401a3c:	b9402ba2 	ldr	w2, [x29, #40]
  401a40:	f94013a1 	ldr	x1, [x29, #32]
  401a44:	97fffea7 	bl	4014e0 <printf@plt>
  401a48:	52800000 	mov	w0, #0x0                   	// #0
  401a4c:	a8c37bfd 	ldp	x29, x30, [sp], #48
  401a50:	d65f03c0 	ret

0000000000401a54 <LTR_ShmUnmap>:
  401a54:	a9be7bfd 	stp	x29, x30, [sp, #-32]!
  401a58:	910003fd 	mov	x29, sp
  401a5c:	f9000fa0 	str	x0, [x29, #24]
  401a60:	f0000280 	adrp	x0, 454000 <gcov_do_dump+0x1048>
  401a64:	913a2000 	add	x0, x0, #0xe88
  401a68:	f9400fa1 	ldr	x1, [x29, #24]
  401a6c:	97fffe9d 	bl	4014e0 <printf@plt>
  401a70:	f9400fa0 	ldr	x0, [x29, #24]
  401a74:	97fffe67 	bl	401410 <free@plt>
  401a78:	52800000 	mov	w0, #0x0                   	// #0
  401a7c:	a8c27bfd 	ldp	x29, x30, [sp], #32
  401a80:	d65f03c0 	ret

0000000000401a84 <LtrGetObjRefCnt>:
  401a84:	a9be7bfd 	stp	x29, x30, [sp, #-32]!
  401a88:	910003fd 	mov	x29, sp
  401a8c:	b9001fa0 	str	w0, [x29, #28]
  401a90:	f9000ba1 	str	x1, [x29, #16]
  401a94:	f0000280 	adrp	x0, 454000 <gcov_do_dump+0x1048>
  401a98:	913ae000 	add	x0, x0, #0xeb8
  401a9c:	f9400ba2 	ldr	x2, [x29, #16]
  401aa0:	b9401fa1 	ldr	w1, [x29, #28]
  401aa4:	97fffe8f 	bl	4014e0 <printf@plt>
  401aa8:	52800000 	mov	w0, #0x0                   	// #0
  401aac:	a8c27bfd 	ldp	x29, x30, [sp], #32
  401ab0:	d65f03c0 	ret

0000000000401ab4 <LTR_RegUninstallCb>:
  401ab4:	a9be7bfd 	stp	x29, x30, [sp, #-32]!
  401ab8:	910003fd 	mov	x29, sp
  401abc:	f9000fa0 	str	x0, [x29, #24]
  401ac0:	f0000280 	adrp	x0, 454000 <gcov_do_dump+0x1048>
  401ac4:	913bc000 	add	x0, x0, #0xef0
  401ac8:	97fffe32 	bl	401390 <puts@plt>
  401acc:	52800000 	mov	w0, #0x0                   	// #0
  401ad0:	a8c27bfd 	ldp	x29, x30, [sp], #32
  401ad4:	d65f03c0 	ret

0000000000401ad8 <LTR_GetNsObj>:
  401ad8:	a9bd7bfd 	stp	x29, x30, [sp, #-48]!
  401adc:	910003fd 	mov	x29, sp
  401ae0:	b9002fa0 	str	w0, [x29, #44]
  401ae4:	f90013a1 	str	x1, [x29, #32]
  401ae8:	b9002ba2 	str	w2, [x29, #40]
  401aec:	f9000fa3 	str	x3, [x29, #24]
  401af0:	f9400fa0 	ldr	x0, [x29, #24]
  401af4:	d00003e1 	adrp	x1, 47f000 <__FRAME_END__+0x1db6c>
  401af8:	f947d821 	ldr	x1, [x1, #4016]
  401afc:	f9000001 	str	x1, [x0]
  401b00:	f9400fa1 	ldr	x1, [x29, #24]
  401b04:	f0000280 	adrp	x0, 454000 <gcov_do_dump+0x1048>
  401b08:	913c4000 	add	x0, x0, #0xf10
  401b0c:	97fffe75 	bl	4014e0 <printf@plt>
  401b10:	52800000 	mov	w0, #0x0                   	// #0
  401b14:	a8c37bfd 	ldp	x29, x30, [sp], #48
  401b18:	d65f03c0 	ret

0000000000401b1c <LTR_GetPgId>:
  401b1c:	a9bf7bfd 	stp	x29, x30, [sp, #-16]!
  401b20:	910003fd 	mov	x29, sp
  401b24:	f0000280 	adrp	x0, 454000 <gcov_do_dump+0x1048>
  401b28:	913d0000 	add	x0, x0, #0xf40
  401b2c:	97fffe19 	bl	401390 <puts@plt>
  401b30:	52800020 	mov	w0, #0x1                   	// #1
  401b34:	a8c17bfd 	ldp	x29, x30, [sp], #16
  401b38:	d65f03c0 	ret

0000000000401b3c <LTR_PutNsObj>:
  401b3c:	a9be7bfd 	stp	x29, x30, [sp, #-32]!
  401b40:	910003fd 	mov	x29, sp
  401b44:	f9000fa0 	str	x0, [x29, #24]
  401b48:	f9400fa1 	ldr	x1, [x29, #24]
  401b4c:	f0000280 	adrp	x0, 454000 <gcov_do_dump+0x1048>
  401b50:	913d8000 	add	x0, x0, #0xf60
  401b54:	97fffe63 	bl	4014e0 <printf@plt>
  401b58:	52800000 	mov	w0, #0x0                   	// #0
  401b5c:	a8c27bfd 	ldp	x29, x30, [sp], #32
  401b60:	d65f03c0 	ret

0000000000401b64 <virt_to_phys>:
  401b64:	d10043ff 	sub	sp, sp, #0x10
  401b68:	f90007e0 	str	x0, [sp, #8]
  401b6c:	f94007e0 	ldr	x0, [sp, #8]
  401b70:	910043ff 	add	sp, sp, #0x10
  401b74:	d65f03c0 	ret

0000000000401b78 <LTR_ShmVa2Pa>:
  401b78:	a9be7bfd 	stp	x29, x30, [sp, #-32]!
  401b7c:	910003fd 	mov	x29, sp
  401b80:	f9000fa0 	str	x0, [x29, #24]
  401b84:	f9000ba1 	str	x1, [x29, #16]
  401b88:	f9400fa0 	ldr	x0, [x29, #24]
  401b8c:	97fffff6 	bl	401b64 <virt_to_phys>
  401b90:	aa0003e1 	mov	x1, x0
  401b94:	f9400ba0 	ldr	x0, [x29, #16]
  401b98:	f9000001 	str	x1, [x0]
  401b9c:	52800000 	mov	w0, #0x0                   	// #0
  401ba0:	a8c27bfd 	ldp	x29, x30, [sp], #32
  401ba4:	d65f03c0 	ret

0000000000401ba8 <LTR_SpinUnlock>:
  401ba8:	d10043ff 	sub	sp, sp, #0x10
  401bac:	f90007e0 	str	x0, [sp, #8]
  401bb0:	52800000 	mov	w0, #0x0                   	// #0
  401bb4:	910043ff 	add	sp, sp, #0x10
  401bb8:	d65f03c0 	ret

0000000000401bbc <LTR_SpinLock>:
  401bbc:	d10043ff 	sub	sp, sp, #0x10
  401bc0:	f90007e0 	str	x0, [sp, #8]
  401bc4:	52800000 	mov	w0, #0x0                   	// #0
  401bc8:	910043ff 	add	sp, sp, #0x10
  401bcc:	d65f03c0 	ret

0000000000401bd0 <LTR_CreateLock>:
  401bd0:	d10043ff 	sub	sp, sp, #0x10
  401bd4:	f90007e0 	str	x0, [sp, #8]
  401bd8:	d00003e0 	adrp	x0, 47f000 <__FRAME_END__+0x1db6c>
  401bdc:	f947d400 	ldr	x0, [x0, #4008]
  401be0:	910043ff 	add	sp, sp, #0x10
  401be4:	d65f03c0 	ret

0000000000401be8 <LTR_TrySpinLock>:
  401be8:	d10043ff 	sub	sp, sp, #0x10
  401bec:	f90007e0 	str	x0, [sp, #8]
  401bf0:	52800000 	mov	w0, #0x0                   	// #0
  401bf4:	910043ff 	add	sp, sp, #0x10
  401bf8:	d65f03c0 	ret

0000000000401bfc <LTR_DeleteLock>:
  401bfc:	d10043ff 	sub	sp, sp, #0x10
  401c00:	f90007e0 	str	x0, [sp, #8]
  401c04:	52800000 	mov	w0, #0x0                   	// #0
  401c08:	910043ff 	add	sp, sp, #0x10
  401c0c:	d65f03c0 	ret

0000000000401c10 <LTR_GetVcpuId>:
  401c10:	52800020 	mov	w0, #0x1                   	// #1
  401c14:	d65f03c0 	ret

0000000000401c18 <LTR_GetCpuId>:
  401c18:	52800000 	mov	w0, #0x0                   	// #0
  401c1c:	d65f03c0 	ret

0000000000401c20 <LTR_MsDelay>:
  401c20:	a9be7bfd 	stp	x29, x30, [sp, #-32]!
  401c24:	910003fd 	mov	x29, sp
  401c28:	f9000fa0 	str	x0, [x29, #24]
  401c2c:	f9400fa0 	ldr	x0, [x29, #24]
  401c30:	d343fc01 	lsr	x1, x0, #3
  401c34:	d29ef9e0 	mov	x0, #0xf7cf                	// #63439
  401c38:	f2bc6a60 	movk	x0, #0xe353, lsl #16
  401c3c:	f2d374a0 	movk	x0, #0x9ba5, lsl #32
  401c40:	f2e41880 	movk	x0, #0x20c4, lsl #48
  401c44:	9bc07c20 	umulh	x0, x1, x0
  401c48:	d344fc00 	lsr	x0, x0, #4
  401c4c:	97fffdb5 	bl	401320 <sleep@plt>
  401c50:	d503201f 	nop
  401c54:	a8c27bfd 	ldp	x29, x30, [sp], #32
  401c58:	d65f03c0 	ret

0000000000401c5c <LTR_GetNumaNum>:
  401c5c:	52800080 	mov	w0, #0x4                   	// #4
  401c60:	d65f03c0 	ret

0000000000401c64 <LTR_GetNumaId>:
  401c64:	52800000 	mov	w0, #0x0                   	// #0
  401c68:	d65f03c0 	ret

0000000000401c6c <LTR_NsDelay>:
  401c6c:	d10043ff 	sub	sp, sp, #0x10
  401c70:	f90007e0 	str	x0, [sp, #8]
  401c74:	d503201f 	nop
  401c78:	910043ff 	add	sp, sp, #0x10
  401c7c:	d65f03c0 	ret

0000000000401c80 <LTR_SetPgName>:
  401c80:	a9be7bfd 	stp	x29, x30, [sp, #-32]!
  401c84:	910003fd 	mov	x29, sp
  401c88:	f9000fa0 	str	x0, [x29, #24]
  401c8c:	f9400fa0 	ldr	x0, [x29, #24]
  401c90:	f100001f 	cmp	x0, #0x0
  401c94:	540000e0 	b.eq	401cb0 <LTR_SetPgName+0x30>  // b.none
  401c98:	b00004a0 	adrp	x0, 496000 <nsData+0x550>
  401c9c:	912ae000 	add	x0, x0, #0xab8
  401ca0:	d2800802 	mov	x2, #0x40                  	// #64
  401ca4:	f9400fa1 	ldr	x1, [x29, #24]
  401ca8:	97fffe02 	bl	4014b0 <strncpy@plt>
  401cac:	14000002 	b	401cb4 <LTR_SetPgName+0x34>
  401cb0:	d503201f 	nop
  401cb4:	a8c27bfd 	ldp	x29, x30, [sp], #32
  401cb8:	d65f03c0 	ret

0000000000401cbc <LTR_GetPgName>:
  401cbc:	b00004a0 	adrp	x0, 496000 <nsData+0x550>
  401cc0:	912ae000 	add	x0, x0, #0xab8
  401cc4:	d65f03c0 	ret

0000000000401cc8 <LTA_ReqRecordId>:
  401cc8:	d10083ff 	sub	sp, sp, #0x20
  401ccc:	b9001fe0 	str	w0, [sp, #28]
  401cd0:	f9000be1 	str	x1, [sp, #16]
  401cd4:	f90007e2 	str	x2, [sp, #8]
  401cd8:	b9001be3 	str	w3, [sp, #24]
  401cdc:	52800000 	mov	w0, #0x0                   	// #0
  401ce0:	910083ff 	add	sp, sp, #0x20
  401ce4:	d65f03c0 	ret

0000000000401ce8 <LTA_RecordData>:
  401ce8:	d10043ff 	sub	sp, sp, #0x10
  401cec:	b9000fe0 	str	w0, [sp, #12]
  401cf0:	f90003e1 	str	x1, [sp]
  401cf4:	52800000 	mov	w0, #0x0                   	// #0
  401cf8:	910043ff 	add	sp, sp, #0x10
  401cfc:	d65f03c0 	ret

0000000000401d00 <LTA_FreeRid>:
  401d00:	d10043ff 	sub	sp, sp, #0x10
  401d04:	b9000fe0 	str	w0, [sp, #12]
  401d08:	d503201f 	nop
  401d0c:	910043ff 	add	sp, sp, #0x10
  401d10:	d65f03c0 	ret

0000000000401d14 <LTA_DpInit>:
  401d14:	d10043ff 	sub	sp, sp, #0x10
  401d18:	b9000fe0 	str	w0, [sp, #12]
  401d1c:	52800000 	mov	w0, #0x0                   	// #0
  401d20:	910043ff 	add	sp, sp, #0x10
  401d24:	d65f03c0 	ret

0000000000401d28 <get_port>:
  401d28:	d10043ff 	sub	sp, sp, #0x10
  401d2c:	b9000fe0 	str	w0, [sp, #12]
  401d30:	b9000be1 	str	w1, [sp, #8]
  401d34:	b90007e2 	str	w2, [sp, #4]
  401d38:	b90003e3 	str	w3, [sp]
  401d3c:	52800020 	mov	w0, #0x1                   	// #1
  401d40:	910043ff 	add	sp, sp, #0x10
  401d44:	d65f03c0 	ret

0000000000401d48 <create_dynamic_qp>:
  401d48:	a9be7bfd 	stp	x29, x30, [sp, #-32]!
  401d4c:	910003fd 	mov	x29, sp
  401d50:	b9001fa0 	str	w0, [x29, #28]
  401d54:	39006fa1 	strb	w1, [x29, #27]
  401d58:	f9000ba2 	str	x2, [x29, #16]
  401d5c:	d2800100 	mov	x0, #0x8                   	// #8
  401d60:	97fffd58 	bl	4012c0 <malloc@plt>
  401d64:	aa0003e1 	mov	x1, x0
  401d68:	f9400ba0 	ldr	x0, [x29, #16]
  401d6c:	f9000001 	str	x1, [x0]
  401d70:	52800000 	mov	w0, #0x0                   	// #0
  401d74:	a8c27bfd 	ldp	x29, x30, [sp], #32
  401d78:	d65f03c0 	ret

0000000000401d7c <get_static_qp>:
  401d7c:	d10083ff 	sub	sp, sp, #0x20
  401d80:	b9001fe0 	str	w0, [sp, #28]
  401d84:	b9001be1 	str	w1, [sp, #24]
  401d88:	b90017e2 	str	w2, [sp, #20]
  401d8c:	b90013e3 	str	w3, [sp, #16]
  401d90:	f90007e4 	str	x4, [sp, #8]
  401d94:	52800000 	mov	w0, #0x0                   	// #0
  401d98:	910083ff 	add	sp, sp, #0x20
  401d9c:	d65f03c0 	ret

0000000000401da0 <get_mem_addr>:
  401da0:	a9bd7bfd 	stp	x29, x30, [sp, #-48]!
  401da4:	910003fd 	mov	x29, sp
  401da8:	b9001fa0 	str	w0, [x29, #28]
  401dac:	b9001ba1 	str	w1, [x29, #24]
  401db0:	f90017bf 	str	xzr, [x29, #40]
  401db4:	d2800400 	mov	x0, #0x20                  	// #32
  401db8:	97fffd42 	bl	4012c0 <malloc@plt>
  401dbc:	f90017a0 	str	x0, [x29, #40]
  401dc0:	b9401ba0 	ldr	w0, [x29, #24]
  401dc4:	97fffd3f 	bl	4012c0 <malloc@plt>
  401dc8:	aa0003e1 	mov	x1, x0
  401dcc:	f94017a0 	ldr	x0, [x29, #40]
  401dd0:	f9000001 	str	x1, [x0]
  401dd4:	f94017a0 	ldr	x0, [x29, #40]
  401dd8:	b9401ba1 	ldr	w1, [x29, #24]
  401ddc:	b9001801 	str	w1, [x0, #24]
  401de0:	f94017a0 	ldr	x0, [x29, #40]
  401de4:	a8c37bfd 	ldp	x29, x30, [sp], #48
  401de8:	d65f03c0 	ret

0000000000401dec <free_mem_addr>:
  401dec:	a9be7bfd 	stp	x29, x30, [sp, #-32]!
  401df0:	910003fd 	mov	x29, sp
  401df4:	b9001fa0 	str	w0, [x29, #28]
  401df8:	f9000ba1 	str	x1, [x29, #16]
  401dfc:	f9400ba0 	ldr	x0, [x29, #16]
  401e00:	f9400000 	ldr	x0, [x0]
  401e04:	97fffd83 	bl	401410 <free@plt>
  401e08:	f9400ba0 	ldr	x0, [x29, #16]
  401e0c:	97fffd81 	bl	401410 <free@plt>
  401e10:	52800000 	mov	w0, #0x0                   	// #0
  401e14:	a8c27bfd 	ldp	x29, x30, [sp], #32
  401e18:	d65f03c0 	ret

0000000000401e1c <delete_net_qp>:
  401e1c:	a9be7bfd 	stp	x29, x30, [sp, #-32]!
  401e20:	910003fd 	mov	x29, sp
  401e24:	f9000fa0 	str	x0, [x29, #24]
  401e28:	f9400fa0 	ldr	x0, [x29, #24]
  401e2c:	97fffd79 	bl	401410 <free@plt>
  401e30:	52800000 	mov	w0, #0x0                   	// #0
  401e34:	a8c27bfd 	ldp	x29, x30, [sp], #32
  401e38:	d65f03c0 	ret

0000000000401e3c <delete_dynamic_qp>:
  401e3c:	a9be7bfd 	stp	x29, x30, [sp, #-32]!
  401e40:	910003fd 	mov	x29, sp
  401e44:	f9000fa0 	str	x0, [x29, #24]
  401e48:	f9400fa0 	ldr	x0, [x29, #24]
  401e4c:	97fffd71 	bl	401410 <free@plt>
  401e50:	52800000 	mov	w0, #0x0                   	// #0
  401e54:	a8c27bfd 	ldp	x29, x30, [sp], #32
  401e58:	d65f03c0 	ret

0000000000401e5c <modify_dynamic_qp>:
  401e5c:	d10083ff 	sub	sp, sp, #0x20
  401e60:	f9000fe0 	str	x0, [sp, #24]
  401e64:	b90017e1 	str	w1, [sp, #20]
  401e68:	b90013e2 	str	w2, [sp, #16]
  401e6c:	b9000fe3 	str	w3, [sp, #12]
  401e70:	b9000be4 	str	w4, [sp, #8]
  401e74:	52800000 	mov	w0, #0x0                   	// #0
  401e78:	910083ff 	add	sp, sp, #0x20
  401e7c:	d65f03c0 	ret

0000000000401e80 <roce_pkt_send>:
  401e80:	d10083ff 	sub	sp, sp, #0x20
  401e84:	f9000fe0 	str	x0, [sp, #24]
  401e88:	f9000be1 	str	x1, [sp, #16]
  401e8c:	b9000fe2 	str	w2, [sp, #12]
  401e90:	b9000be3 	str	w3, [sp, #8]
  401e94:	b90007e4 	str	w4, [sp, #4]
  401e98:	52800000 	mov	w0, #0x0                   	// #0
  401e9c:	910083ff 	add	sp, sp, #0x20
  401ea0:	d65f03c0 	ret

0000000000401ea4 <roce_pkt_receive>:
  401ea4:	d10043ff 	sub	sp, sp, #0x10
  401ea8:	f90007e0 	str	x0, [sp, #8]
  401eac:	f90003e1 	str	x1, [sp]
  401eb0:	52800000 	mov	w0, #0x0                   	// #0
  401eb4:	910043ff 	add	sp, sp, #0x10
  401eb8:	d65f03c0 	ret

0000000000401ebc <roce_pkt_write>:
  401ebc:	a9bd7bfd 	stp	x29, x30, [sp, #-48]!
  401ec0:	910003fd 	mov	x29, sp
  401ec4:	f90017a0 	str	x0, [x29, #40]
  401ec8:	f90013a1 	str	x1, [x29, #32]
  401ecc:	f9000fa2 	str	x2, [x29, #24]
  401ed0:	f9400fa0 	ldr	x0, [x29, #24]
  401ed4:	b9401801 	ldr	w1, [x0, #24]
  401ed8:	f94013a0 	ldr	x0, [x29, #32]
  401edc:	b9401800 	ldr	w0, [x0, #24]
  401ee0:	6b00003f 	cmp	w1, w0
  401ee4:	54000140 	b.eq	401f0c <roce_pkt_write+0x50>  // b.none
  401ee8:	f9400fa0 	ldr	x0, [x29, #24]
  401eec:	b9401801 	ldr	w1, [x0, #24]
  401ef0:	f94013a0 	ldr	x0, [x29, #32]
  401ef4:	b9401802 	ldr	w2, [x0, #24]
  401ef8:	f0000280 	adrp	x0, 454000 <gcov_do_dump+0x1048>
  401efc:	913e4000 	add	x0, x0, #0xf90
  401f00:	97fffd78 	bl	4014e0 <printf@plt>
  401f04:	12800000 	mov	w0, #0xffffffff            	// #-1
  401f08:	1400000e 	b	401f40 <roce_pkt_write+0x84>
  401f0c:	f9400fa0 	ldr	x0, [x29, #24]
  401f10:	f9400000 	ldr	x0, [x0]
  401f14:	aa0003e3 	mov	x3, x0
  401f18:	f94013a0 	ldr	x0, [x29, #32]
  401f1c:	f9400000 	ldr	x0, [x0]
  401f20:	aa0003e1 	mov	x1, x0
  401f24:	f9400fa0 	ldr	x0, [x29, #24]
  401f28:	b9401800 	ldr	w0, [x0, #24]
  401f2c:	2a0003e0 	mov	w0, w0
  401f30:	aa0003e2 	mov	x2, x0
  401f34:	aa0303e0 	mov	x0, x3
  401f38:	97fffcaa 	bl	4011e0 <memcpy@plt>
  401f3c:	52800000 	mov	w0, #0x0                   	// #0
  401f40:	a8c37bfd 	ldp	x29, x30, [sp], #48
  401f44:	d65f03c0 	ret

0000000000401f48 <poll_ack_pkt_state>:
  401f48:	d10043ff 	sub	sp, sp, #0x10
  401f4c:	f90007e0 	str	x0, [sp, #8]
  401f50:	f90003e1 	str	x1, [sp]
  401f54:	52800000 	mov	w0, #0x0                   	// #0
  401f58:	910043ff 	add	sp, sp, #0x10
  401f5c:	d65f03c0 	ret

0000000000401f60 <roce_uninit_dp>:
  401f60:	52800000 	mov	w0, #0x0                   	// #0
  401f64:	d65f03c0 	ret

0000000000401f68 <roce_init_dp>:
  401f68:	52800000 	mov	w0, #0x0                   	// #0
  401f6c:	d65f03c0 	ret

0000000000401f70 <hns_roce_get_slot_id>:
  401f70:	52800000 	mov	w0, #0x0                   	// #0
  401f74:	d65f03c0 	ret

0000000000401f78 <reg_recv_pkt_irq>:
  401f78:	a9bc7bfd 	stp	x29, x30, [sp, #-64]!
  401f7c:	910003fd 	mov	x29, sp
  401f80:	f9000fa0 	str	x0, [x29, #24]
  401f84:	f9000ba1 	str	x1, [x29, #16]
  401f88:	52800140 	mov	w0, #0xa                   	// #10
  401f8c:	b90033a0 	str	w0, [x29, #48]
  401f90:	b9002bbf 	str	wzr, [x29, #40]
  401f94:	f94017a0 	ldr	x0, [x29, #40]
  401f98:	f80343a0 	stur	x0, [x29, #52]
  401f9c:	9100c3a0 	add	x0, x29, #0x30
  401fa0:	f9400ba1 	ldr	x1, [x29, #16]
  401fa4:	d63f0020 	blr	x1
  401fa8:	52800000 	mov	w0, #0x0                   	// #0
  401fac:	a8c47bfd 	ldp	x29, x30, [sp], #64
  401fb0:	d65f03c0 	ret

0000000000401fb4 <free_recv_pkt_irq>:
  401fb4:	d10043ff 	sub	sp, sp, #0x10
  401fb8:	f90007e0 	str	x0, [sp, #8]
  401fbc:	52800000 	mov	w0, #0x0                   	// #0
  401fc0:	910043ff 	add	sp, sp, #0x10
  401fc4:	d65f03c0 	ret

0000000000401fc8 <reg_mem_addr>:
  401fc8:	d10043ff 	sub	sp, sp, #0x10
  401fcc:	b9000fe0 	str	w0, [sp, #12]
  401fd0:	f90003e1 	str	x1, [sp]
  401fd4:	52800000 	mov	w0, #0x0                   	// #0
  401fd8:	910043ff 	add	sp, sp, #0x10
  401fdc:	d65f03c0 	ret

0000000000401fe0 <dereg_mem_addr>:
  401fe0:	d10043ff 	sub	sp, sp, #0x10
  401fe4:	b9000fe0 	str	w0, [sp, #12]
  401fe8:	f90003e1 	str	x1, [sp]
  401fec:	52800000 	mov	w0, #0x0                   	// #0
  401ff0:	910043ff 	add	sp, sp, #0x10
  401ff4:	d65f03c0 	ret

0000000000401ff8 <roce_get_wqe_cnt>:
  401ff8:	d10043ff 	sub	sp, sp, #0x10
  401ffc:	f90007e0 	str	x0, [sp, #8]
  402000:	52800000 	mov	w0, #0x0                   	// #0
  402004:	910043ff 	add	sp, sp, #0x10
  402008:	d65f03c0 	ret

000000000040200c <hns_roce_get_port_state>:
  40200c:	d10043ff 	sub	sp, sp, #0x10
  402010:	b9000fe0 	str	w0, [sp, #12]
  402014:	b9000be1 	str	w1, [sp, #8]
  402018:	b90007e2 	str	w2, [sp, #4]
  40201c:	b90003e3 	str	w3, [sp]
  402020:	52800020 	mov	w0, #0x1                   	// #1
  402024:	910043ff 	add	sp, sp, #0x10
  402028:	d65f03c0 	ret

000000000040202c <manage>:
  40202c:	a9bd7bfd 	stp	x29, x30, [sp, #-48]!
  402030:	910003fd 	mov	x29, sp
  402034:	f9000fa0 	str	x0, [x29, #24]
  402038:	97fffd22 	bl	4014c0 <pthread_self@plt>
  40203c:	97fffce1 	bl	4013c0 <pthread_detach@plt>
  402040:	f9400fa0 	ldr	x0, [x29, #24]
  402044:	f90017a0 	str	x0, [x29, #40]
  402048:	f94017a0 	ldr	x0, [x29, #40]
  40204c:	f9400400 	ldr	x0, [x0, #8]
  402050:	f9400001 	ldr	x1, [x0]
  402054:	d0000280 	adrp	x0, 454000 <gcov_do_dump+0x1048>
  402058:	913ee000 	add	x0, x0, #0xfb8
  40205c:	97fffd21 	bl	4014e0 <printf@plt>
  402060:	f94017a0 	ldr	x0, [x29, #40]
  402064:	f9400400 	ldr	x0, [x0, #8]
  402068:	52800021 	mov	w1, #0x1                   	// #1
  40206c:	94006f75 	bl	41de40 <XXCOMM_Init>
  402070:	b90027a0 	str	w0, [x29, #36]
  402074:	14000002 	b	40207c <manage+0x50>
  402078:	9400680a 	bl	41c0a0 <XXCOMM_E2E_ClientListen>
  40207c:	f94017a0 	ldr	x0, [x29, #40]
  402080:	b9400000 	ldr	w0, [x0]
  402084:	7100001f 	cmp	w0, #0x0
  402088:	54ffff81 	b.ne	402078 <manage+0x4c>  // b.any
  40208c:	94006fe0 	bl	41e00c <XXCOMM_UnInit>
  402090:	b90027a0 	str	w0, [x29, #36]
  402094:	d0000280 	adrp	x0, 454000 <gcov_do_dump+0x1048>
  402098:	913fa000 	add	x0, x0, #0xfe8
  40209c:	b94027a1 	ldr	w1, [x29, #36]
  4020a0:	97fffd10 	bl	4014e0 <printf@plt>
  4020a4:	b94027a0 	ldr	w0, [x29, #36]
  4020a8:	a8c37bfd 	ldp	x29, x30, [sp], #48
  4020ac:	d65f03c0 	ret

00000000004020b0 <e2e_send_pthread_000>:
  4020b0:	a9b17bfd 	stp	x29, x30, [sp, #-240]!
  4020b4:	910003fd 	mov	x29, sp
  4020b8:	f0000280 	adrp	x0, 455000 <_IO_stdin_used+0x2c0>
  4020bc:	91006000 	add	x0, x0, #0x18
  4020c0:	f9005fa0 	str	x0, [x29, #184]
  4020c4:	f0000280 	adrp	x0, 455000 <_IO_stdin_used+0x2c0>
  4020c8:	91024001 	add	x1, x0, #0x90
  4020cc:	9101c3a0 	add	x0, x29, #0x70
  4020d0:	a9400c22 	ldp	x2, x3, [x1]
  4020d4:	a9000c02 	stp	x2, x3, [x0]
  4020d8:	a9410c22 	ldp	x2, x3, [x1, #16]
  4020dc:	a9010c02 	stp	x2, x3, [x0, #16]
  4020e0:	a9420c22 	ldp	x2, x3, [x1, #32]
  4020e4:	a9020c02 	stp	x2, x3, [x0, #32]
  4020e8:	a9430c22 	ldp	x2, x3, [x1, #48]
  4020ec:	a9030c02 	stp	x2, x3, [x0, #48]
  4020f0:	b9404021 	ldr	w1, [x1, #64]
  4020f4:	b9004001 	str	w1, [x0, #64]
  4020f8:	f0000280 	adrp	x0, 455000 <_IO_stdin_used+0x2c0>
  4020fc:	91036001 	add	x1, x0, #0xd8
  402100:	9100c3a0 	add	x0, x29, #0x30
  402104:	a9400c22 	ldp	x2, x3, [x1]
  402108:	a9000c02 	stp	x2, x3, [x0]
  40210c:	a9410c22 	ldp	x2, x3, [x1, #16]
  402110:	a9010c02 	stp	x2, x3, [x0, #16]
  402114:	a9420c22 	ldp	x2, x3, [x1, #32]
  402118:	a9020c02 	stp	x2, x3, [x0, #32]
  40211c:	a9430821 	ldp	x1, x2, [x1, #48]
  402120:	a9030801 	stp	x1, x2, [x0, #48]
  402124:	d2800140 	mov	x0, #0xa                   	// #10
  402128:	f9006fa0 	str	x0, [x29, #216]
  40212c:	52800020 	mov	w0, #0x1                   	// #1
  402130:	b9001ba0 	str	w0, [x29, #24]
  402134:	9102e3a0 	add	x0, x29, #0xb8
  402138:	f90013a0 	str	x0, [x29, #32]
  40213c:	f9405fa0 	ldr	x0, [x29, #184]
  402140:	97fffed0 	bl	401c80 <LTR_SetPgName>
  402144:	910063a2 	add	x2, x29, #0x18
  402148:	b00003e0 	adrp	x0, 47f000 <__FRAME_END__+0x1db6c>
  40214c:	f947e001 	ldr	x1, [x0, #4032]
  402150:	910303a0 	add	x0, x29, #0xc0
  402154:	aa0203e3 	mov	x3, x2
  402158:	aa0103e2 	mov	x2, x1
  40215c:	d2800001 	mov	x1, #0x0                   	// #0
  402160:	97fffcbc 	bl	401450 <pthread_create@plt>
  402164:	b900d7a0 	str	w0, [x29, #212]
  402168:	b940d7a0 	ldr	w0, [x29, #212]
  40216c:	7100001f 	cmp	w0, #0x0
  402170:	540000a0 	b.eq	402184 <e2e_send_pthread_000+0xd4>  // b.none
  402174:	f0000280 	adrp	x0, 455000 <_IO_stdin_used+0x2c0>
  402178:	91008000 	add	x0, x0, #0x20
  40217c:	b940d7a1 	ldr	w1, [x29, #212]
  402180:	97fffcd8 	bl	4014e0 <printf@plt>
  402184:	52800020 	mov	w0, #0x1                   	// #1
  402188:	97fffc66 	bl	401320 <sleep@plt>
  40218c:	9102e3a0 	add	x0, x29, #0xb8
  402190:	52800021 	mov	w1, #0x1                   	// #1
  402194:	94006f2b 	bl	41de40 <XXCOMM_Init>
  402198:	b900d7a0 	str	w0, [x29, #212]
  40219c:	b940d7a0 	ldr	w0, [x29, #212]
  4021a0:	7100001f 	cmp	w0, #0x0
  4021a4:	54000060 	b.eq	4021b0 <e2e_send_pthread_000+0x100>  // b.none
  4021a8:	b940d7a0 	ldr	w0, [x29, #212]
  4021ac:	14000043 	b	4022b8 <e2e_send_pthread_000+0x208>
  4021b0:	9101c3a0 	add	x0, x29, #0x70
  4021b4:	94006aae 	bl	41cc6c <XXCOMM_E2E_CreateSession>
  4021b8:	f90067a0 	str	x0, [x29, #200]
  4021bc:	f94067a0 	ldr	x0, [x29, #200]
  4021c0:	f100001f 	cmp	x0, #0x0
  4021c4:	540000c1 	b.ne	4021dc <e2e_send_pthread_000+0x12c>  // b.any
  4021c8:	f0000280 	adrp	x0, 455000 <_IO_stdin_used+0x2c0>
  4021cc:	91018000 	add	x0, x0, #0x60
  4021d0:	97fffc70 	bl	401390 <puts@plt>
  4021d4:	12800000 	mov	w0, #0xffffffff            	// #-1
  4021d8:	14000038 	b	4022b8 <e2e_send_pthread_000+0x208>
  4021dc:	9100b3a0 	add	x0, x29, #0x2c
  4021e0:	aa0003e1 	mov	x1, x0
  4021e4:	f94067a0 	ldr	x0, [x29, #200]
  4021e8:	94006d58 	bl	41d748 <XXCOMM_E2E_GetSessionStatus>
  4021ec:	b9402fa0 	ldr	w0, [x29, #44]
  4021f0:	7100041f 	cmp	w0, #0x1
  4021f4:	54000040 	b.eq	4021fc <e2e_send_pthread_000+0x14c>  // b.none
  4021f8:	17fffff9 	b	4021dc <e2e_send_pthread_000+0x12c>
  4021fc:	d503201f 	nop
  402200:	f90077bf 	str	xzr, [x29, #232]
  402204:	14000020 	b	402284 <e2e_send_pthread_000+0x1d4>
  402208:	9100c3a0 	add	x0, x29, #0x30
  40220c:	12800004 	mov	w4, #0xffffffff            	// #-1
  402210:	52800023 	mov	w3, #0x1                   	// #1
  402214:	52800802 	mov	w2, #0x40                  	// #64
  402218:	aa0003e1 	mov	x1, x0
  40221c:	f94067a0 	ldr	x0, [x29, #200]
  402220:	94006da0 	bl	41d8a0 <XXCOMM_E2E_Send>
  402224:	b900d7a0 	str	w0, [x29, #212]
  402228:	b940d7a0 	ldr	w0, [x29, #212]
  40222c:	7100001f 	cmp	w0, #0x0
  402230:	540002a1 	b.ne	402284 <e2e_send_pthread_000+0x1d4>  // b.any
  402234:	f94077a0 	ldr	x0, [x29, #232]
  402238:	91000400 	add	x0, x0, #0x1
  40223c:	f90077a0 	str	x0, [x29, #232]
  402240:	b900e7bf 	str	wzr, [x29, #228]
  402244:	1400000d 	b	402278 <e2e_send_pthread_000+0x1c8>
  402248:	b980e7a0 	ldrsw	x0, [x29, #228]
  40224c:	d37df000 	lsl	x0, x0, #3
  402250:	9100c3a1 	add	x1, x29, #0x30
  402254:	f8606820 	ldr	x0, [x1, x0]
  402258:	91000402 	add	x2, x0, #0x1
  40225c:	b980e7a0 	ldrsw	x0, [x29, #228]
  402260:	d37df000 	lsl	x0, x0, #3
  402264:	9100c3a1 	add	x1, x29, #0x30
  402268:	f8206822 	str	x2, [x1, x0]
  40226c:	b940e7a0 	ldr	w0, [x29, #228]
  402270:	11000400 	add	w0, w0, #0x1
  402274:	b900e7a0 	str	w0, [x29, #228]
  402278:	b940e7a0 	ldr	w0, [x29, #228]
  40227c:	71001c1f 	cmp	w0, #0x7
  402280:	54fffe49 	b.ls	402248 <e2e_send_pthread_000+0x198>  // b.plast
  402284:	f94077a1 	ldr	x1, [x29, #232]
  402288:	f9406fa0 	ldr	x0, [x29, #216]
  40228c:	eb00003f 	cmp	x1, x0
  402290:	54fffbc3 	b.cc	402208 <e2e_send_pthread_000+0x158>  // b.lo, b.ul, b.last
  402294:	f94067a0 	ldr	x0, [x29, #200]
  402298:	94006bcf 	bl	41d1d4 <XXCOMM_E2E_DestroySession>
  40229c:	b900d7a0 	str	w0, [x29, #212]
  4022a0:	94006f5b 	bl	41e00c <XXCOMM_UnInit>
  4022a4:	b900d7a0 	str	w0, [x29, #212]
  4022a8:	b9001bbf 	str	wzr, [x29, #24]
  4022ac:	52800020 	mov	w0, #0x1                   	// #1
  4022b0:	97fffc1c 	bl	401320 <sleep@plt>
  4022b4:	b940d7a0 	ldr	w0, [x29, #212]
  4022b8:	a8cf7bfd 	ldp	x29, x30, [sp], #240
  4022bc:	d65f03c0 	ret

00000000004022c0 <e2e_recv_pthread_000>:
  4022c0:	a9b17bfd 	stp	x29, x30, [sp, #-240]!
  4022c4:	910003fd 	mov	x29, sp
  4022c8:	f0000280 	adrp	x0, 455000 <_IO_stdin_used+0x2c0>
  4022cc:	91046000 	add	x0, x0, #0x118
  4022d0:	f9005fa0 	str	x0, [x29, #184]
  4022d4:	f0000280 	adrp	x0, 455000 <_IO_stdin_used+0x2c0>
  4022d8:	9105e001 	add	x1, x0, #0x178
  4022dc:	9101c3a0 	add	x0, x29, #0x70
  4022e0:	a9400c22 	ldp	x2, x3, [x1]
  4022e4:	a9000c02 	stp	x2, x3, [x0]
  4022e8:	a9410c22 	ldp	x2, x3, [x1, #16]
  4022ec:	a9010c02 	stp	x2, x3, [x0, #16]
  4022f0:	a9420c22 	ldp	x2, x3, [x1, #32]
  4022f4:	a9020c02 	stp	x2, x3, [x0, #32]
  4022f8:	a9430c22 	ldp	x2, x3, [x1, #48]
  4022fc:	a9030c02 	stp	x2, x3, [x0, #48]
  402300:	b9404021 	ldr	w1, [x1, #64]
  402304:	b9004001 	str	w1, [x0, #64]
  402308:	52800020 	mov	w0, #0x1                   	// #1
  40230c:	b90063a0 	str	w0, [x29, #96]
  402310:	9102e3a0 	add	x0, x29, #0xb8
  402314:	f90037a0 	str	x0, [x29, #104]
  402318:	a9027fbf 	stp	xzr, xzr, [x29, #32]
  40231c:	a9037fbf 	stp	xzr, xzr, [x29, #48]
  402320:	a9047fbf 	stp	xzr, xzr, [x29, #64]
  402324:	a9057fbf 	stp	xzr, xzr, [x29, #80]
  402328:	d2800140 	mov	x0, #0xa                   	// #10
  40232c:	f9006fa0 	str	x0, [x29, #216]
  402330:	f9405fa0 	ldr	x0, [x29, #184]
  402334:	97fffe53 	bl	401c80 <LTR_SetPgName>
  402338:	910183a2 	add	x2, x29, #0x60
  40233c:	b00003e0 	adrp	x0, 47f000 <__FRAME_END__+0x1db6c>
  402340:	f947e001 	ldr	x1, [x0, #4032]
  402344:	910303a0 	add	x0, x29, #0xc0
  402348:	aa0203e3 	mov	x3, x2
  40234c:	aa0103e2 	mov	x2, x1
  402350:	d2800001 	mov	x1, #0x0                   	// #0
  402354:	97fffc3f 	bl	401450 <pthread_create@plt>
  402358:	b900d7a0 	str	w0, [x29, #212]
  40235c:	b940d7a0 	ldr	w0, [x29, #212]
  402360:	7100001f 	cmp	w0, #0x0
  402364:	540000a0 	b.eq	402378 <e2e_recv_pthread_000+0xb8>  // b.none
  402368:	f0000280 	adrp	x0, 455000 <_IO_stdin_used+0x2c0>
  40236c:	91048000 	add	x0, x0, #0x120
  402370:	b940d7a1 	ldr	w1, [x29, #212]
  402374:	97fffc5b 	bl	4014e0 <printf@plt>
  402378:	52800020 	mov	w0, #0x1                   	// #1
  40237c:	97fffbe9 	bl	401320 <sleep@plt>
  402380:	9102e3a0 	add	x0, x29, #0xb8
  402384:	52800021 	mov	w1, #0x1                   	// #1
  402388:	94006eae 	bl	41de40 <XXCOMM_Init>
  40238c:	b900d7a0 	str	w0, [x29, #212]
  402390:	b940d7a0 	ldr	w0, [x29, #212]
  402394:	7100001f 	cmp	w0, #0x0
  402398:	54000060 	b.eq	4023a4 <e2e_recv_pthread_000+0xe4>  // b.none
  40239c:	b940d7a0 	ldr	w0, [x29, #212]
  4023a0:	14000042 	b	4024a8 <e2e_recv_pthread_000+0x1e8>
  4023a4:	9101c3a0 	add	x0, x29, #0x70
  4023a8:	94006a31 	bl	41cc6c <XXCOMM_E2E_CreateSession>
  4023ac:	f90067a0 	str	x0, [x29, #200]
  4023b0:	f94067a0 	ldr	x0, [x29, #200]
  4023b4:	f100001f 	cmp	x0, #0x0
  4023b8:	540000c1 	b.ne	4023d0 <e2e_recv_pthread_000+0x110>  // b.any
  4023bc:	f0000280 	adrp	x0, 455000 <_IO_stdin_used+0x2c0>
  4023c0:	91018000 	add	x0, x0, #0x60
  4023c4:	97fffbf3 	bl	401390 <puts@plt>
  4023c8:	12800000 	mov	w0, #0xffffffff            	// #-1
  4023cc:	14000037 	b	4024a8 <e2e_recv_pthread_000+0x1e8>
  4023d0:	910073a0 	add	x0, x29, #0x1c
  4023d4:	aa0003e1 	mov	x1, x0
  4023d8:	f94067a0 	ldr	x0, [x29, #200]
  4023dc:	94006cdb 	bl	41d748 <XXCOMM_E2E_GetSessionStatus>
  4023e0:	b9401fa0 	ldr	w0, [x29, #28]
  4023e4:	7100041f 	cmp	w0, #0x1
  4023e8:	54000040 	b.eq	4023f0 <e2e_recv_pthread_000+0x130>  // b.none
  4023ec:	17fffff9 	b	4023d0 <e2e_recv_pthread_000+0x110>
  4023f0:	d503201f 	nop
  4023f4:	f90077bf 	str	xzr, [x29, #232]
  4023f8:	1400001f 	b	402474 <e2e_recv_pthread_000+0x1b4>
  4023fc:	910083a0 	add	x0, x29, #0x20
  402400:	12800003 	mov	w3, #0xffffffff            	// #-1
  402404:	52800802 	mov	w2, #0x40                  	// #64
  402408:	aa0003e1 	mov	x1, x0
  40240c:	f94067a0 	ldr	x0, [x29, #200]
  402410:	94006d74 	bl	41d9e0 <XXCOMM_E2E_Recv>
  402414:	b900d7a0 	str	w0, [x29, #212]
  402418:	b940d7a0 	ldr	w0, [x29, #212]
  40241c:	7100001f 	cmp	w0, #0x0
  402420:	54000081 	b.ne	402430 <e2e_recv_pthread_000+0x170>  // b.any
  402424:	f94077a0 	ldr	x0, [x29, #232]
  402428:	91000400 	add	x0, x0, #0x1
  40242c:	f90077a0 	str	x0, [x29, #232]
  402430:	b900e7bf 	str	wzr, [x29, #228]
  402434:	1400000d 	b	402468 <e2e_recv_pthread_000+0x1a8>
  402438:	b980e7a0 	ldrsw	x0, [x29, #228]
  40243c:	d37df000 	lsl	x0, x0, #3
  402440:	910083a1 	add	x1, x29, #0x20
  402444:	f8606821 	ldr	x1, [x1, x0]
  402448:	f0000280 	adrp	x0, 455000 <_IO_stdin_used+0x2c0>
  40244c:	91058000 	add	x0, x0, #0x160
  402450:	aa0103e2 	mov	x2, x1
  402454:	b940e7a1 	ldr	w1, [x29, #228]
  402458:	97fffc22 	bl	4014e0 <printf@plt>
  40245c:	b940e7a0 	ldr	w0, [x29, #228]
  402460:	11000400 	add	w0, w0, #0x1
  402464:	b900e7a0 	str	w0, [x29, #228]
  402468:	b940e7a0 	ldr	w0, [x29, #228]
  40246c:	71001c1f 	cmp	w0, #0x7
  402470:	54fffe49 	b.ls	402438 <e2e_recv_pthread_000+0x178>  // b.plast
  402474:	f94077a1 	ldr	x1, [x29, #232]
  402478:	f9406fa0 	ldr	x0, [x29, #216]
  40247c:	eb00003f 	cmp	x1, x0
  402480:	54fffbe3 	b.cc	4023fc <e2e_recv_pthread_000+0x13c>  // b.lo, b.ul, b.last
  402484:	f94067a0 	ldr	x0, [x29, #200]
  402488:	94006b53 	bl	41d1d4 <XXCOMM_E2E_DestroySession>
  40248c:	b900d7a0 	str	w0, [x29, #212]
  402490:	94006edf 	bl	41e00c <XXCOMM_UnInit>
  402494:	b900d7a0 	str	w0, [x29, #212]
  402498:	b90063bf 	str	wzr, [x29, #96]
  40249c:	52800020 	mov	w0, #0x1                   	// #1
  4024a0:	97fffba0 	bl	401320 <sleep@plt>
  4024a4:	b940d7a0 	ldr	w0, [x29, #212]
  4024a8:	a8cf7bfd 	ldp	x29, x30, [sp], #240
  4024ac:	d65f03c0 	ret

00000000004024b0 <XXCOMM_ShmMsgInit>:
  4024b0:	d10043ff 	sub	sp, sp, #0x10
  4024b4:	f90007e0 	str	x0, [sp, #8]
  4024b8:	b00004a0 	adrp	x0, 497000 <__gcov0.XXCOMM_E2E_CreateGeneralChn+0x18>
  4024bc:	91060000 	add	x0, x0, #0x180
  4024c0:	f9400000 	ldr	x0, [x0]
  4024c4:	91000401 	add	x1, x0, #0x1
  4024c8:	b00004a0 	adrp	x0, 497000 <__gcov0.XXCOMM_E2E_CreateGeneralChn+0x18>
  4024cc:	91060000 	add	x0, x0, #0x180
  4024d0:	f9000001 	str	x1, [x0]
  4024d4:	f94007e0 	ldr	x0, [sp, #8]
  4024d8:	529bdfe1 	mov	w1, #0xdeff                	// #57087
  4024dc:	72b55781 	movk	w1, #0xaabc, lsl #16
  4024e0:	b9000001 	str	w1, [x0]
  4024e4:	f94007e0 	ldr	x0, [sp, #8]
  4024e8:	529bd541 	mov	w1, #0xdeaa                	// #57002
  4024ec:	72bff781 	movk	w1, #0xffbc, lsl #16
  4024f0:	b900a801 	str	w1, [x0, #168]
  4024f4:	f94007e0 	ldr	x0, [sp, #8]
  4024f8:	b900081f 	str	wzr, [x0, #8]
  4024fc:	f94007e0 	ldr	x0, [sp, #8]
  402500:	b900041f 	str	wzr, [x0, #4]
  402504:	d503201f 	nop
  402508:	910043ff 	add	sp, sp, #0x10
  40250c:	d65f03c0 	ret

0000000000402510 <XXCOMM_E2E_IsChnMap>:
  402510:	d00003e0 	adrp	x0, 480000 <memcpy@GLIBC_2.17>
  402514:	911aa000 	add	x0, x0, #0x6a8
  402518:	b9400000 	ldr	w0, [x0]
  40251c:	7100041f 	cmp	w0, #0x1
  402520:	1a9f17e0 	cset	w0, eq  // eq = none
  402524:	12001c00 	and	w0, w0, #0xff
  402528:	2a0003e2 	mov	w2, w0
  40252c:	b00004a0 	adrp	x0, 497000 <__gcov0.XXCOMM_E2E_CreateGeneralChn+0x18>
  402530:	9105e000 	add	x0, x0, #0x178
  402534:	f9400000 	ldr	x0, [x0]
  402538:	91000401 	add	x1, x0, #0x1
  40253c:	b00004a0 	adrp	x0, 497000 <__gcov0.XXCOMM_E2E_CreateGeneralChn+0x18>
  402540:	9105e000 	add	x0, x0, #0x178
  402544:	f9000001 	str	x1, [x0]
  402548:	2a0203e0 	mov	w0, w2
  40254c:	d65f03c0 	ret

0000000000402550 <XXCOMM_E2E_SetChnMapFlag>:
  402550:	b00004a0 	adrp	x0, 497000 <__gcov0.XXCOMM_E2E_CreateGeneralChn+0x18>
  402554:	9105c000 	add	x0, x0, #0x170
  402558:	f9400000 	ldr	x0, [x0]
  40255c:	91000401 	add	x1, x0, #0x1
  402560:	b00004a0 	adrp	x0, 497000 <__gcov0.XXCOMM_E2E_CreateGeneralChn+0x18>
  402564:	9105c000 	add	x0, x0, #0x170
  402568:	f9000001 	str	x1, [x0]
  40256c:	d00003e0 	adrp	x0, 480000 <memcpy@GLIBC_2.17>
  402570:	911aa000 	add	x0, x0, #0x6a8
  402574:	52800021 	mov	w1, #0x1                   	// #1
  402578:	b9000001 	str	w1, [x0]
  40257c:	d503201f 	nop
  402580:	d65f03c0 	ret

0000000000402584 <XXCOMM_E2E_ClearChnMapFlag>:
  402584:	b00004a0 	adrp	x0, 497000 <__gcov0.XXCOMM_E2E_CreateGeneralChn+0x18>
  402588:	9105a000 	add	x0, x0, #0x168
  40258c:	f9400000 	ldr	x0, [x0]
  402590:	91000401 	add	x1, x0, #0x1
  402594:	b00004a0 	adrp	x0, 497000 <__gcov0.XXCOMM_E2E_CreateGeneralChn+0x18>
  402598:	9105a000 	add	x0, x0, #0x168
  40259c:	f9000001 	str	x1, [x0]
  4025a0:	d00003e0 	adrp	x0, 480000 <memcpy@GLIBC_2.17>
  4025a4:	911aa000 	add	x0, x0, #0x6a8
  4025a8:	b900001f 	str	wzr, [x0]
  4025ac:	d503201f 	nop
  4025b0:	d65f03c0 	ret

00000000004025b4 <XXCOMM_E2E_CreateDiscoveryChn>:
  4025b4:	a9bd7bfd 	stp	x29, x30, [sp, #-48]!
  4025b8:	910003fd 	mov	x29, sp
  4025bc:	f9000fa0 	str	x0, [x29, #24]
  4025c0:	f9000ba1 	str	x1, [x29, #16]
  4025c4:	b00004a0 	adrp	x0, 497000 <__gcov0.XXCOMM_E2E_CreateGeneralChn+0x18>
  4025c8:	91040000 	add	x0, x0, #0x100
  4025cc:	f9400000 	ldr	x0, [x0]
  4025d0:	91000401 	add	x1, x0, #0x1
  4025d4:	b00004a0 	adrp	x0, 497000 <__gcov0.XXCOMM_E2E_CreateGeneralChn+0x18>
  4025d8:	91040000 	add	x0, x0, #0x100
  4025dc:	f9000001 	str	x1, [x0]
  4025e0:	f90017bf 	str	xzr, [x29, #40]
  4025e4:	f9400fa0 	ldr	x0, [x29, #24]
  4025e8:	f100001f 	cmp	x0, #0x0
  4025ec:	54000160 	b.eq	402618 <XXCOMM_E2E_CreateDiscoveryChn+0x64>  // b.none
  4025f0:	b00004a0 	adrp	x0, 497000 <__gcov0.XXCOMM_E2E_CreateGeneralChn+0x18>
  4025f4:	91040000 	add	x0, x0, #0x100
  4025f8:	f9400400 	ldr	x0, [x0, #8]
  4025fc:	91000401 	add	x1, x0, #0x1
  402600:	b00004a0 	adrp	x0, 497000 <__gcov0.XXCOMM_E2E_CreateGeneralChn+0x18>
  402604:	91040000 	add	x0, x0, #0x100
  402608:	f9000401 	str	x1, [x0, #8]
  40260c:	f9400ba0 	ldr	x0, [x29, #16]
  402610:	f100001f 	cmp	x0, #0x0
  402614:	54000361 	b.ne	402680 <XXCOMM_E2E_CreateDiscoveryChn+0xcc>  // b.any
  402618:	f9400fa1 	ldr	x1, [x29, #24]
  40261c:	f9400ba2 	ldr	x2, [x29, #16]
  402620:	f0000280 	adrp	x0, 455000 <_IO_stdin_used+0x2c0>
  402624:	91070000 	add	x0, x0, #0x1c0
  402628:	d2800006 	mov	x6, #0x0                   	// #0
  40262c:	aa0203e5 	mov	x5, x2
  402630:	aa0103e4 	mov	x4, x1
  402634:	2f00e400 	movi	d0, #0x0
  402638:	aa0003e3 	mov	x3, x0
  40263c:	d2800042 	mov	x2, #0x2                   	// #2
  402640:	d28006a1 	mov	x1, #0x35                  	// #53
  402644:	f2a9ce01 	movk	x1, #0x4e70, lsl #16
  402648:	f2ced2c1 	movk	x1, #0x7696, lsl #32
  40264c:	f2fa5681 	movk	x1, #0xd2b4, lsl #48
  402650:	52800060 	mov	w0, #0x3                   	// #3
  402654:	97fffc01 	bl	401658 <LTR_Log>
  402658:	52800060 	mov	w0, #0x3                   	// #3
  40265c:	72b06060 	movk	w0, #0x8303, lsl #16
  402660:	b00004a1 	adrp	x1, 497000 <__gcov0.XXCOMM_E2E_CreateGeneralChn+0x18>
  402664:	91040021 	add	x1, x1, #0x100
  402668:	f9400c21 	ldr	x1, [x1, #24]
  40266c:	91000422 	add	x2, x1, #0x1
  402670:	b00004a1 	adrp	x1, 497000 <__gcov0.XXCOMM_E2E_CreateGeneralChn+0x18>
  402674:	91040021 	add	x1, x1, #0x100
  402678:	f9000c22 	str	x2, [x1, #24]
  40267c:	14000095 	b	4028d0 <XXCOMM_E2E_CreateDiscoveryChn+0x31c>
  402680:	b00004a0 	adrp	x0, 497000 <__gcov0.XXCOMM_E2E_CreateGeneralChn+0x18>
  402684:	91040000 	add	x0, x0, #0x100
  402688:	f9400800 	ldr	x0, [x0, #16]
  40268c:	91000401 	add	x1, x0, #0x1
  402690:	b00004a0 	adrp	x0, 497000 <__gcov0.XXCOMM_E2E_CreateGeneralChn+0x18>
  402694:	91040000 	add	x0, x0, #0x100
  402698:	f9000801 	str	x1, [x0, #16]
  40269c:	f9400fa0 	ldr	x0, [x29, #24]
  4026a0:	f90017a0 	str	x0, [x29, #40]
  4026a4:	f0000280 	adrp	x0, 455000 <_IO_stdin_used+0x2c0>
  4026a8:	91086000 	add	x0, x0, #0x218
  4026ac:	52b00002 	mov	w2, #0x80000000            	// #-2147483648
  4026b0:	52a00401 	mov	w1, #0x200000              	// #2097152
  4026b4:	9400a977 	bl	42cc90 <XXCOMM_ShmAllocGlobal>
  4026b8:	aa0003e1 	mov	x1, x0
  4026bc:	f94017a0 	ldr	x0, [x29, #40]
  4026c0:	f9000401 	str	x1, [x0, #8]
  4026c4:	f94017a0 	ldr	x0, [x29, #40]
  4026c8:	f9400400 	ldr	x0, [x0, #8]
  4026cc:	f100001f 	cmp	x0, #0x0
  4026d0:	54000401 	b.ne	402750 <XXCOMM_E2E_CreateDiscoveryChn+0x19c>  // b.any
  4026d4:	b00004a0 	adrp	x0, 497000 <__gcov0.XXCOMM_E2E_CreateGeneralChn+0x18>
  4026d8:	91040000 	add	x0, x0, #0x100
  4026dc:	f9401000 	ldr	x0, [x0, #32]
  4026e0:	91000401 	add	x1, x0, #0x1
  4026e4:	b00004a0 	adrp	x0, 497000 <__gcov0.XXCOMM_E2E_CreateGeneralChn+0x18>
  4026e8:	91040000 	add	x0, x0, #0x100
  4026ec:	f9001001 	str	x1, [x0, #32]
  4026f0:	f0000280 	adrp	x0, 455000 <_IO_stdin_used+0x2c0>
  4026f4:	9108a000 	add	x0, x0, #0x228
  4026f8:	d2800006 	mov	x6, #0x0                   	// #0
  4026fc:	d2800005 	mov	x5, #0x0                   	// #0
  402700:	d2800004 	mov	x4, #0x0                   	// #0
  402704:	2f00e400 	movi	d0, #0x0
  402708:	aa0003e3 	mov	x3, x0
  40270c:	d2800042 	mov	x2, #0x2                   	// #2
  402710:	d28007a1 	mov	x1, #0x3d                  	// #61
  402714:	f2a9ce01 	movk	x1, #0x4e70, lsl #16
  402718:	f2ced2c1 	movk	x1, #0x7696, lsl #32
  40271c:	f2fa5681 	movk	x1, #0xd2b4, lsl #48
  402720:	52800060 	mov	w0, #0x3                   	// #3
  402724:	97fffbcd 	bl	401658 <LTR_Log>
  402728:	52800080 	mov	w0, #0x4                   	// #4
  40272c:	72b06060 	movk	w0, #0x8303, lsl #16
  402730:	b00004a1 	adrp	x1, 497000 <__gcov0.XXCOMM_E2E_CreateGeneralChn+0x18>
  402734:	91040021 	add	x1, x1, #0x100
  402738:	f9401821 	ldr	x1, [x1, #48]
  40273c:	91000422 	add	x2, x1, #0x1
  402740:	b00004a1 	adrp	x1, 497000 <__gcov0.XXCOMM_E2E_CreateGeneralChn+0x18>
  402744:	91040021 	add	x1, x1, #0x100
  402748:	f9001822 	str	x2, [x1, #48]
  40274c:	14000061 	b	4028d0 <XXCOMM_E2E_CreateDiscoveryChn+0x31c>
  402750:	b00004a0 	adrp	x0, 497000 <__gcov0.XXCOMM_E2E_CreateGeneralChn+0x18>
  402754:	91040000 	add	x0, x0, #0x100
  402758:	f9401400 	ldr	x0, [x0, #40]
  40275c:	91000401 	add	x1, x0, #0x1
  402760:	b00004a0 	adrp	x0, 497000 <__gcov0.XXCOMM_E2E_CreateGeneralChn+0x18>
  402764:	91040000 	add	x0, x0, #0x100
  402768:	f9001401 	str	x1, [x0, #40]
  40276c:	f0000280 	adrp	x0, 455000 <_IO_stdin_used+0x2c0>
  402770:	9109e000 	add	x0, x0, #0x278
  402774:	52b00002 	mov	w2, #0x80000000            	// #-2147483648
  402778:	528c1301 	mov	w1, #0x6098                	// #24728
  40277c:	9400a945 	bl	42cc90 <XXCOMM_ShmAllocGlobal>
  402780:	aa0003e1 	mov	x1, x0
  402784:	f94017a0 	ldr	x0, [x29, #40]
  402788:	f9000001 	str	x1, [x0]
  40278c:	f94017a0 	ldr	x0, [x29, #40]
  402790:	f9400000 	ldr	x0, [x0]
  402794:	f100001f 	cmp	x0, #0x0
  402798:	54000541 	b.ne	402840 <XXCOMM_E2E_CreateDiscoveryChn+0x28c>  // b.any
  40279c:	b00004a0 	adrp	x0, 497000 <__gcov0.XXCOMM_E2E_CreateGeneralChn+0x18>
  4027a0:	91040000 	add	x0, x0, #0x100
  4027a4:	f9401c00 	ldr	x0, [x0, #56]
  4027a8:	91000401 	add	x1, x0, #0x1
  4027ac:	b00004a0 	adrp	x0, 497000 <__gcov0.XXCOMM_E2E_CreateGeneralChn+0x18>
  4027b0:	91040000 	add	x0, x0, #0x100
  4027b4:	f9001c01 	str	x1, [x0, #56]
  4027b8:	f94017a0 	ldr	x0, [x29, #40]
  4027bc:	f9400400 	ldr	x0, [x0, #8]
  4027c0:	9400a989 	bl	42cde4 <XXCOMM_ShmFree>
  4027c4:	b00004a0 	adrp	x0, 497000 <__gcov0.XXCOMM_E2E_CreateGeneralChn+0x18>
  4027c8:	91040000 	add	x0, x0, #0x100
  4027cc:	f9402400 	ldr	x0, [x0, #72]
  4027d0:	91000401 	add	x1, x0, #0x1
  4027d4:	b00004a0 	adrp	x0, 497000 <__gcov0.XXCOMM_E2E_CreateGeneralChn+0x18>
  4027d8:	91040000 	add	x0, x0, #0x100
  4027dc:	f9002401 	str	x1, [x0, #72]
  4027e0:	f0000280 	adrp	x0, 455000 <_IO_stdin_used+0x2c0>
  4027e4:	910a2000 	add	x0, x0, #0x288
  4027e8:	d2800006 	mov	x6, #0x0                   	// #0
  4027ec:	d2800005 	mov	x5, #0x0                   	// #0
  4027f0:	d2800004 	mov	x4, #0x0                   	// #0
  4027f4:	2f00e400 	movi	d0, #0x0
  4027f8:	aa0003e3 	mov	x3, x0
  4027fc:	d2800042 	mov	x2, #0x2                   	// #2
  402800:	d28008c1 	mov	x1, #0x46                  	// #70
  402804:	f2a9ce01 	movk	x1, #0x4e70, lsl #16
  402808:	f2ced2c1 	movk	x1, #0x7696, lsl #32
  40280c:	f2fa5681 	movk	x1, #0xd2b4, lsl #48
  402810:	52800060 	mov	w0, #0x3                   	// #3
  402814:	97fffb91 	bl	401658 <LTR_Log>
  402818:	528000a0 	mov	w0, #0x5                   	// #5
  40281c:	72b06060 	movk	w0, #0x8303, lsl #16
  402820:	b00004a1 	adrp	x1, 497000 <__gcov0.XXCOMM_E2E_CreateGeneralChn+0x18>
  402824:	91040021 	add	x1, x1, #0x100
  402828:	f9402821 	ldr	x1, [x1, #80]
  40282c:	91000422 	add	x2, x1, #0x1
  402830:	b00004a1 	adrp	x1, 497000 <__gcov0.XXCOMM_E2E_CreateGeneralChn+0x18>
  402834:	91040021 	add	x1, x1, #0x100
  402838:	f9002822 	str	x2, [x1, #80]
  40283c:	14000025 	b	4028d0 <XXCOMM_E2E_CreateDiscoveryChn+0x31c>
  402840:	b00004a0 	adrp	x0, 497000 <__gcov0.XXCOMM_E2E_CreateGeneralChn+0x18>
  402844:	91040000 	add	x0, x0, #0x100
  402848:	f9402000 	ldr	x0, [x0, #64]
  40284c:	91000401 	add	x1, x0, #0x1
  402850:	b00004a0 	adrp	x0, 497000 <__gcov0.XXCOMM_E2E_CreateGeneralChn+0x18>
  402854:	91040000 	add	x0, x0, #0x100
  402858:	f9002001 	str	x1, [x0, #64]
  40285c:	f94017a0 	ldr	x0, [x29, #40]
  402860:	52810001 	mov	w1, #0x800                 	// #2048
  402864:	b9001001 	str	w1, [x0, #16]
  402868:	f9400ba0 	ldr	x0, [x29, #16]
  40286c:	f9400001 	ldr	x1, [x0]
  402870:	f94017a0 	ldr	x0, [x29, #40]
  402874:	f9000c01 	str	x1, [x0, #24]
  402878:	f94017a0 	ldr	x0, [x29, #40]
  40287c:	f9400c00 	ldr	x0, [x0, #24]
  402880:	f100001f 	cmp	x0, #0x0
  402884:	54000160 	b.eq	4028b0 <XXCOMM_E2E_CreateDiscoveryChn+0x2fc>  // b.none
  402888:	b00004a0 	adrp	x0, 497000 <__gcov0.XXCOMM_E2E_CreateGeneralChn+0x18>
  40288c:	91040000 	add	x0, x0, #0x100
  402890:	f9402c00 	ldr	x0, [x0, #88]
  402894:	91000401 	add	x1, x0, #0x1
  402898:	b00004a0 	adrp	x0, 497000 <__gcov0.XXCOMM_E2E_CreateGeneralChn+0x18>
  40289c:	91040000 	add	x0, x0, #0x100
  4028a0:	f9002c01 	str	x1, [x0, #88]
  4028a4:	f94017a0 	ldr	x0, [x29, #40]
  4028a8:	f9400400 	ldr	x0, [x0, #8]
  4028ac:	97ffff01 	bl	4024b0 <XXCOMM_ShmMsgInit>
  4028b0:	52800000 	mov	w0, #0x0                   	// #0
  4028b4:	b00004a1 	adrp	x1, 497000 <__gcov0.XXCOMM_E2E_CreateGeneralChn+0x18>
  4028b8:	91040021 	add	x1, x1, #0x100
  4028bc:	f9403021 	ldr	x1, [x1, #96]
  4028c0:	91000422 	add	x2, x1, #0x1
  4028c4:	b00004a1 	adrp	x1, 497000 <__gcov0.XXCOMM_E2E_CreateGeneralChn+0x18>
  4028c8:	91040021 	add	x1, x1, #0x100
  4028cc:	f9003022 	str	x2, [x1, #96]
  4028d0:	a8c37bfd 	ldp	x29, x30, [sp], #48
  4028d4:	d65f03c0 	ret

00000000004028d8 <XXCOMM_E2E_MapDiscoveryChn>:
  4028d8:	a9bd7bfd 	stp	x29, x30, [sp, #-48]!
  4028dc:	910003fd 	mov	x29, sp
  4028e0:	f9000fa0 	str	x0, [x29, #24]
  4028e4:	b00004a0 	adrp	x0, 497000 <__gcov0.XXCOMM_E2E_CreateGeneralChn+0x18>
  4028e8:	91022000 	add	x0, x0, #0x88
  4028ec:	f9400000 	ldr	x0, [x0]
  4028f0:	91000401 	add	x1, x0, #0x1
  4028f4:	b00004a0 	adrp	x0, 497000 <__gcov0.XXCOMM_E2E_CreateGeneralChn+0x18>
  4028f8:	91022000 	add	x0, x0, #0x88
  4028fc:	f9000001 	str	x1, [x0]
  402900:	f90017bf 	str	xzr, [x29, #40]
  402904:	f90013bf 	str	xzr, [x29, #32]
  402908:	f0000280 	adrp	x0, 455000 <_IO_stdin_used+0x2c0>
  40290c:	91086000 	add	x0, x0, #0x218
  402910:	52b00002 	mov	w2, #0x80000000            	// #-2147483648
  402914:	52a00401 	mov	w1, #0x200000              	// #2097152
  402918:	9400a8de 	bl	42cc90 <XXCOMM_ShmAllocGlobal>
  40291c:	f90017a0 	str	x0, [x29, #40]
  402920:	f94017a0 	ldr	x0, [x29, #40]
  402924:	f100001f 	cmp	x0, #0x0
  402928:	54000401 	b.ne	4029a8 <XXCOMM_E2E_MapDiscoveryChn+0xd0>  // b.any
  40292c:	b00004a0 	adrp	x0, 497000 <__gcov0.XXCOMM_E2E_CreateGeneralChn+0x18>
  402930:	91022000 	add	x0, x0, #0x88
  402934:	f9400400 	ldr	x0, [x0, #8]
  402938:	91000401 	add	x1, x0, #0x1
  40293c:	b00004a0 	adrp	x0, 497000 <__gcov0.XXCOMM_E2E_CreateGeneralChn+0x18>
  402940:	91022000 	add	x0, x0, #0x88
  402944:	f9000401 	str	x1, [x0, #8]
  402948:	f0000280 	adrp	x0, 455000 <_IO_stdin_used+0x2c0>
  40294c:	910b6000 	add	x0, x0, #0x2d8
  402950:	d2800006 	mov	x6, #0x0                   	// #0
  402954:	d2800005 	mov	x5, #0x0                   	// #0
  402958:	d2800004 	mov	x4, #0x0                   	// #0
  40295c:	2f00e400 	movi	d0, #0x0
  402960:	aa0003e3 	mov	x3, x0
  402964:	d2800042 	mov	x2, #0x2                   	// #2
  402968:	d2800b41 	mov	x1, #0x5a                  	// #90
  40296c:	f2a9ce01 	movk	x1, #0x4e70, lsl #16
  402970:	f2ced2c1 	movk	x1, #0x7696, lsl #32
  402974:	f2fa5681 	movk	x1, #0xd2b4, lsl #48
  402978:	52800060 	mov	w0, #0x3                   	// #3
  40297c:	97fffb37 	bl	401658 <LTR_Log>
  402980:	528002a0 	mov	w0, #0x15                  	// #21
  402984:	72b06060 	movk	w0, #0x8303, lsl #16
  402988:	b00004a1 	adrp	x1, 497000 <__gcov0.XXCOMM_E2E_CreateGeneralChn+0x18>
  40298c:	91022021 	add	x1, x1, #0x88
  402990:	f9400821 	ldr	x1, [x1, #16]
  402994:	91000422 	add	x2, x1, #0x1
  402998:	b00004a1 	adrp	x1, 497000 <__gcov0.XXCOMM_E2E_CreateGeneralChn+0x18>
  40299c:	91022021 	add	x1, x1, #0x88
  4029a0:	f9000822 	str	x2, [x1, #16]
  4029a4:	140000ac 	b	402c54 <XXCOMM_E2E_MapDiscoveryChn+0x37c>
  4029a8:	f9400fa0 	ldr	x0, [x29, #24]
  4029ac:	f9400400 	ldr	x0, [x0, #8]
  4029b0:	f94017a1 	ldr	x1, [x29, #40]
  4029b4:	eb00003f 	cmp	x1, x0
  4029b8:	540005a0 	b.eq	402a6c <XXCOMM_E2E_MapDiscoveryChn+0x194>  // b.none
  4029bc:	b00004a0 	adrp	x0, 497000 <__gcov0.XXCOMM_E2E_CreateGeneralChn+0x18>
  4029c0:	91022000 	add	x0, x0, #0x88
  4029c4:	f9400c00 	ldr	x0, [x0, #24]
  4029c8:	91000401 	add	x1, x0, #0x1
  4029cc:	b00004a0 	adrp	x0, 497000 <__gcov0.XXCOMM_E2E_CreateGeneralChn+0x18>
  4029d0:	91022000 	add	x0, x0, #0x88
  4029d4:	f9000c01 	str	x1, [x0, #24]
  4029d8:	f9400fa0 	ldr	x0, [x29, #24]
  4029dc:	f9400400 	ldr	x0, [x0, #8]
  4029e0:	aa0003e2 	mov	x2, x0
  4029e4:	f94017a1 	ldr	x1, [x29, #40]
  4029e8:	f0000280 	adrp	x0, 455000 <_IO_stdin_used+0x2c0>
  4029ec:	910c2000 	add	x0, x0, #0x308
  4029f0:	d2800006 	mov	x6, #0x0                   	// #0
  4029f4:	aa0103e5 	mov	x5, x1
  4029f8:	aa0203e4 	mov	x4, x2
  4029fc:	2f00e400 	movi	d0, #0x0
  402a00:	aa0003e3 	mov	x3, x0
  402a04:	d2800042 	mov	x2, #0x2                   	// #2
  402a08:	d2800c01 	mov	x1, #0x60                  	// #96
  402a0c:	f2a9ce01 	movk	x1, #0x4e70, lsl #16
  402a10:	f2ced2c1 	movk	x1, #0x7696, lsl #32
  402a14:	f2fa5681 	movk	x1, #0xd2b4, lsl #48
  402a18:	52800060 	mov	w0, #0x3                   	// #3
  402a1c:	97fffb0f 	bl	401658 <LTR_Log>
  402a20:	b00004a0 	adrp	x0, 497000 <__gcov0.XXCOMM_E2E_CreateGeneralChn+0x18>
  402a24:	91022000 	add	x0, x0, #0x88
  402a28:	f9401400 	ldr	x0, [x0, #40]
  402a2c:	91000401 	add	x1, x0, #0x1
  402a30:	b00004a0 	adrp	x0, 497000 <__gcov0.XXCOMM_E2E_CreateGeneralChn+0x18>
  402a34:	91022000 	add	x0, x0, #0x88
  402a38:	f9001401 	str	x1, [x0, #40]
  402a3c:	f94017a0 	ldr	x0, [x29, #40]
  402a40:	9400a8e9 	bl	42cde4 <XXCOMM_ShmFree>
  402a44:	528002c0 	mov	w0, #0x16                  	// #22
  402a48:	72b06060 	movk	w0, #0x8303, lsl #16
  402a4c:	b00004a1 	adrp	x1, 497000 <__gcov0.XXCOMM_E2E_CreateGeneralChn+0x18>
  402a50:	91022021 	add	x1, x1, #0x88
  402a54:	f9401821 	ldr	x1, [x1, #48]
  402a58:	91000422 	add	x2, x1, #0x1
  402a5c:	b00004a1 	adrp	x1, 497000 <__gcov0.XXCOMM_E2E_CreateGeneralChn+0x18>
  402a60:	91022021 	add	x1, x1, #0x88
  402a64:	f9001822 	str	x2, [x1, #48]
  402a68:	1400007b 	b	402c54 <XXCOMM_E2E_MapDiscoveryChn+0x37c>
  402a6c:	b00004a0 	adrp	x0, 497000 <__gcov0.XXCOMM_E2E_CreateGeneralChn+0x18>
  402a70:	91022000 	add	x0, x0, #0x88
  402a74:	f9401000 	ldr	x0, [x0, #32]
  402a78:	91000401 	add	x1, x0, #0x1
  402a7c:	b00004a0 	adrp	x0, 497000 <__gcov0.XXCOMM_E2E_CreateGeneralChn+0x18>
  402a80:	91022000 	add	x0, x0, #0x88
  402a84:	f9001001 	str	x1, [x0, #32]
  402a88:	f0000280 	adrp	x0, 455000 <_IO_stdin_used+0x2c0>
  402a8c:	9109e000 	add	x0, x0, #0x278
  402a90:	52b00002 	mov	w2, #0x80000000            	// #-2147483648
  402a94:	528c1301 	mov	w1, #0x6098                	// #24728
  402a98:	9400a87e 	bl	42cc90 <XXCOMM_ShmAllocGlobal>
  402a9c:	f90013a0 	str	x0, [x29, #32]
  402aa0:	f94013a0 	ldr	x0, [x29, #32]
  402aa4:	f100001f 	cmp	x0, #0x0
  402aa8:	54000521 	b.ne	402b4c <XXCOMM_E2E_MapDiscoveryChn+0x274>  // b.any
  402aac:	b00004a0 	adrp	x0, 497000 <__gcov0.XXCOMM_E2E_CreateGeneralChn+0x18>
  402ab0:	91022000 	add	x0, x0, #0x88
  402ab4:	f9401c00 	ldr	x0, [x0, #56]
  402ab8:	91000401 	add	x1, x0, #0x1
  402abc:	b00004a0 	adrp	x0, 497000 <__gcov0.XXCOMM_E2E_CreateGeneralChn+0x18>
  402ac0:	91022000 	add	x0, x0, #0x88
  402ac4:	f9001c01 	str	x1, [x0, #56]
  402ac8:	f94017a0 	ldr	x0, [x29, #40]
  402acc:	9400a8c6 	bl	42cde4 <XXCOMM_ShmFree>
  402ad0:	b00004a0 	adrp	x0, 497000 <__gcov0.XXCOMM_E2E_CreateGeneralChn+0x18>
  402ad4:	91022000 	add	x0, x0, #0x88
  402ad8:	f9402000 	ldr	x0, [x0, #64]
  402adc:	91000401 	add	x1, x0, #0x1
  402ae0:	b00004a0 	adrp	x0, 497000 <__gcov0.XXCOMM_E2E_CreateGeneralChn+0x18>
  402ae4:	91022000 	add	x0, x0, #0x88
  402ae8:	f9002001 	str	x1, [x0, #64]
  402aec:	f0000280 	adrp	x0, 455000 <_IO_stdin_used+0x2c0>
  402af0:	910d6000 	add	x0, x0, #0x358
  402af4:	d2800006 	mov	x6, #0x0                   	// #0
  402af8:	d2800005 	mov	x5, #0x0                   	// #0
  402afc:	d2800004 	mov	x4, #0x0                   	// #0
  402b00:	2f00e400 	movi	d0, #0x0
  402b04:	aa0003e3 	mov	x3, x0
  402b08:	d2800042 	mov	x2, #0x2                   	// #2
  402b0c:	d2800d21 	mov	x1, #0x69                  	// #105
  402b10:	f2a9ce01 	movk	x1, #0x4e70, lsl #16
  402b14:	f2ced2c1 	movk	x1, #0x7696, lsl #32
  402b18:	f2fa5681 	movk	x1, #0xd2b4, lsl #48
  402b1c:	52800060 	mov	w0, #0x3                   	// #3
  402b20:	97ffface 	bl	401658 <LTR_Log>
  402b24:	528002e0 	mov	w0, #0x17                  	// #23
  402b28:	72b06060 	movk	w0, #0x8303, lsl #16
  402b2c:	b00004a1 	adrp	x1, 497000 <__gcov0.XXCOMM_E2E_CreateGeneralChn+0x18>
  402b30:	91022021 	add	x1, x1, #0x88
  402b34:	f9402421 	ldr	x1, [x1, #72]
  402b38:	91000422 	add	x2, x1, #0x1
  402b3c:	b00004a1 	adrp	x1, 497000 <__gcov0.XXCOMM_E2E_CreateGeneralChn+0x18>
  402b40:	91022021 	add	x1, x1, #0x88
  402b44:	f9002422 	str	x2, [x1, #72]
  402b48:	14000043 	b	402c54 <XXCOMM_E2E_MapDiscoveryChn+0x37c>
  402b4c:	f9400fa0 	ldr	x0, [x29, #24]
  402b50:	f9400000 	ldr	x0, [x0]
  402b54:	f94013a1 	ldr	x1, [x29, #32]
  402b58:	eb00003f 	cmp	x1, x0
  402b5c:	540006c0 	b.eq	402c34 <XXCOMM_E2E_MapDiscoveryChn+0x35c>  // b.none
  402b60:	b00004a0 	adrp	x0, 497000 <__gcov0.XXCOMM_E2E_CreateGeneralChn+0x18>
  402b64:	91022000 	add	x0, x0, #0x88
  402b68:	f9402800 	ldr	x0, [x0, #80]
  402b6c:	91000401 	add	x1, x0, #0x1
  402b70:	b00004a0 	adrp	x0, 497000 <__gcov0.XXCOMM_E2E_CreateGeneralChn+0x18>
  402b74:	91022000 	add	x0, x0, #0x88
  402b78:	f9002801 	str	x1, [x0, #80]
  402b7c:	f9400fa0 	ldr	x0, [x29, #24]
  402b80:	f9400000 	ldr	x0, [x0]
  402b84:	aa0003e2 	mov	x2, x0
  402b88:	f94013a1 	ldr	x1, [x29, #32]
  402b8c:	f0000280 	adrp	x0, 455000 <_IO_stdin_used+0x2c0>
  402b90:	910e6000 	add	x0, x0, #0x398
  402b94:	d2800006 	mov	x6, #0x0                   	// #0
  402b98:	aa0103e5 	mov	x5, x1
  402b9c:	aa0203e4 	mov	x4, x2
  402ba0:	2f00e400 	movi	d0, #0x0
  402ba4:	aa0003e3 	mov	x3, x0
  402ba8:	d2800042 	mov	x2, #0x2                   	// #2
  402bac:	d2800de1 	mov	x1, #0x6f                  	// #111
  402bb0:	f2a9ce01 	movk	x1, #0x4e70, lsl #16
  402bb4:	f2ced2c1 	movk	x1, #0x7696, lsl #32
  402bb8:	f2fa5681 	movk	x1, #0xd2b4, lsl #48
  402bbc:	52800060 	mov	w0, #0x3                   	// #3
  402bc0:	97fffaa6 	bl	401658 <LTR_Log>
  402bc4:	b00004a0 	adrp	x0, 497000 <__gcov0.XXCOMM_E2E_CreateGeneralChn+0x18>
  402bc8:	91022000 	add	x0, x0, #0x88
  402bcc:	f9402c00 	ldr	x0, [x0, #88]
  402bd0:	91000401 	add	x1, x0, #0x1
  402bd4:	b00004a0 	adrp	x0, 497000 <__gcov0.XXCOMM_E2E_CreateGeneralChn+0x18>
  402bd8:	91022000 	add	x0, x0, #0x88
  402bdc:	f9002c01 	str	x1, [x0, #88]
  402be0:	f94017a0 	ldr	x0, [x29, #40]
  402be4:	9400a880 	bl	42cde4 <XXCOMM_ShmFree>
  402be8:	b00004a0 	adrp	x0, 497000 <__gcov0.XXCOMM_E2E_CreateGeneralChn+0x18>
  402bec:	91022000 	add	x0, x0, #0x88
  402bf0:	f9403000 	ldr	x0, [x0, #96]
  402bf4:	91000401 	add	x1, x0, #0x1
  402bf8:	b00004a0 	adrp	x0, 497000 <__gcov0.XXCOMM_E2E_CreateGeneralChn+0x18>
  402bfc:	91022000 	add	x0, x0, #0x88
  402c00:	f9003001 	str	x1, [x0, #96]
  402c04:	f94013a0 	ldr	x0, [x29, #32]
  402c08:	9400a877 	bl	42cde4 <XXCOMM_ShmFree>
  402c0c:	52800300 	mov	w0, #0x18                  	// #24
  402c10:	72b06060 	movk	w0, #0x8303, lsl #16
  402c14:	b00004a1 	adrp	x1, 497000 <__gcov0.XXCOMM_E2E_CreateGeneralChn+0x18>
  402c18:	91022021 	add	x1, x1, #0x88
  402c1c:	f9403421 	ldr	x1, [x1, #104]
  402c20:	91000422 	add	x2, x1, #0x1
  402c24:	b00004a1 	adrp	x1, 497000 <__gcov0.XXCOMM_E2E_CreateGeneralChn+0x18>
  402c28:	91022021 	add	x1, x1, #0x88
  402c2c:	f9003422 	str	x2, [x1, #104]
  402c30:	14000009 	b	402c54 <XXCOMM_E2E_MapDiscoveryChn+0x37c>
  402c34:	52800000 	mov	w0, #0x0                   	// #0
  402c38:	b00004a1 	adrp	x1, 497000 <__gcov0.XXCOMM_E2E_CreateGeneralChn+0x18>
  402c3c:	91022021 	add	x1, x1, #0x88
  402c40:	f9403821 	ldr	x1, [x1, #112]
  402c44:	91000422 	add	x2, x1, #0x1
  402c48:	b00004a1 	adrp	x1, 497000 <__gcov0.XXCOMM_E2E_CreateGeneralChn+0x18>
  402c4c:	91022021 	add	x1, x1, #0x88
  402c50:	f9003822 	str	x2, [x1, #112]
  402c54:	a8c37bfd 	ldp	x29, x30, [sp], #48
  402c58:	d65f03c0 	ret

0000000000402c5c <XXCOMM_E2E_DeleteDiscoveryChn>:
  402c5c:	a9bd7bfd 	stp	x29, x30, [sp, #-48]!
  402c60:	910003fd 	mov	x29, sp
  402c64:	f9000fa0 	str	x0, [x29, #24]
  402c68:	f9400fa0 	ldr	x0, [x29, #24]
  402c6c:	f100001f 	cmp	x0, #0x0
  402c70:	54000401 	b.ne	402cf0 <XXCOMM_E2E_DeleteDiscoveryChn+0x94>  // b.any
  402c74:	b00004a0 	adrp	x0, 497000 <__gcov0.XXCOMM_E2E_CreateGeneralChn+0x18>
  402c78:	9100e000 	add	x0, x0, #0x38
  402c7c:	f9400000 	ldr	x0, [x0]
  402c80:	91000401 	add	x1, x0, #0x1
  402c84:	b00004a0 	adrp	x0, 497000 <__gcov0.XXCOMM_E2E_CreateGeneralChn+0x18>
  402c88:	9100e000 	add	x0, x0, #0x38
  402c8c:	f9000001 	str	x1, [x0]
  402c90:	f0000280 	adrp	x0, 455000 <_IO_stdin_used+0x2c0>
  402c94:	910fa000 	add	x0, x0, #0x3e8
  402c98:	d2800006 	mov	x6, #0x0                   	// #0
  402c9c:	d2800005 	mov	x5, #0x0                   	// #0
  402ca0:	d2800004 	mov	x4, #0x0                   	// #0
  402ca4:	2f00e400 	movi	d0, #0x0
  402ca8:	aa0003e3 	mov	x3, x0
  402cac:	d2800042 	mov	x2, #0x2                   	// #2
  402cb0:	d2800f61 	mov	x1, #0x7b                  	// #123
  402cb4:	f2a9ce01 	movk	x1, #0x4e70, lsl #16
  402cb8:	f2ced2c1 	movk	x1, #0x7696, lsl #32
  402cbc:	f2fa5681 	movk	x1, #0xd2b4, lsl #48
  402cc0:	52800060 	mov	w0, #0x3                   	// #3
  402cc4:	97fffa65 	bl	401658 <LTR_Log>
  402cc8:	528001a0 	mov	w0, #0xd                   	// #13
  402ccc:	72b06060 	movk	w0, #0x8303, lsl #16
  402cd0:	b00004a1 	adrp	x1, 497000 <__gcov0.XXCOMM_E2E_CreateGeneralChn+0x18>
  402cd4:	9100e021 	add	x1, x1, #0x38
  402cd8:	f9400821 	ldr	x1, [x1, #16]
  402cdc:	91000422 	add	x2, x1, #0x1
  402ce0:	b00004a1 	adrp	x1, 497000 <__gcov0.XXCOMM_E2E_CreateGeneralChn+0x18>
  402ce4:	9100e021 	add	x1, x1, #0x38
  402ce8:	f9000822 	str	x2, [x1, #16]
  402cec:	1400006f 	b	402ea8 <XXCOMM_E2E_DeleteDiscoveryChn+0x24c>
  402cf0:	b00004a0 	adrp	x0, 497000 <__gcov0.XXCOMM_E2E_CreateGeneralChn+0x18>
  402cf4:	9100e000 	add	x0, x0, #0x38
  402cf8:	f9400400 	ldr	x0, [x0, #8]
  402cfc:	91000401 	add	x1, x0, #0x1
  402d00:	b00004a0 	adrp	x0, 497000 <__gcov0.XXCOMM_E2E_CreateGeneralChn+0x18>
  402d04:	9100e000 	add	x0, x0, #0x38
  402d08:	f9000401 	str	x1, [x0, #8]
  402d0c:	f9400fa0 	ldr	x0, [x29, #24]
  402d10:	f9400000 	ldr	x0, [x0]
  402d14:	9400a834 	bl	42cde4 <XXCOMM_ShmFree>
  402d18:	b9002fa0 	str	w0, [x29, #44]
  402d1c:	b00004a0 	adrp	x0, 497000 <__gcov0.XXCOMM_E2E_CreateGeneralChn+0x18>
  402d20:	9100e000 	add	x0, x0, #0x38
  402d24:	f9400c00 	ldr	x0, [x0, #24]
  402d28:	91000401 	add	x1, x0, #0x1
  402d2c:	b00004a0 	adrp	x0, 497000 <__gcov0.XXCOMM_E2E_CreateGeneralChn+0x18>
  402d30:	9100e000 	add	x0, x0, #0x38
  402d34:	f9000c01 	str	x1, [x0, #24]
  402d38:	b9402fa0 	ldr	w0, [x29, #44]
  402d3c:	7100001f 	cmp	w0, #0x0
  402d40:	540003ea 	b.ge	402dbc <XXCOMM_E2E_DeleteDiscoveryChn+0x160>  // b.tcont
  402d44:	b00004a0 	adrp	x0, 497000 <__gcov0.XXCOMM_E2E_CreateGeneralChn+0x18>
  402d48:	9100e000 	add	x0, x0, #0x38
  402d4c:	f9401000 	ldr	x0, [x0, #32]
  402d50:	91000401 	add	x1, x0, #0x1
  402d54:	b00004a0 	adrp	x0, 497000 <__gcov0.XXCOMM_E2E_CreateGeneralChn+0x18>
  402d58:	9100e000 	add	x0, x0, #0x38
  402d5c:	f9001001 	str	x1, [x0, #32]
  402d60:	b9402fa0 	ldr	w0, [x29, #44]
  402d64:	2a0003e1 	mov	w1, w0
  402d68:	f0000280 	adrp	x0, 455000 <_IO_stdin_used+0x2c0>
  402d6c:	91108000 	add	x0, x0, #0x420
  402d70:	d2800006 	mov	x6, #0x0                   	// #0
  402d74:	d2800005 	mov	x5, #0x0                   	// #0
  402d78:	aa0103e4 	mov	x4, x1
  402d7c:	2f00e400 	movi	d0, #0x0
  402d80:	aa0003e3 	mov	x3, x0
  402d84:	d2800042 	mov	x2, #0x2                   	// #2
  402d88:	d2801021 	mov	x1, #0x81                  	// #129
  402d8c:	f2a9ce01 	movk	x1, #0x4e70, lsl #16
  402d90:	f2ced2c1 	movk	x1, #0x7696, lsl #32
  402d94:	f2fa5681 	movk	x1, #0xd2b4, lsl #48
  402d98:	52800060 	mov	w0, #0x3                   	// #3
  402d9c:	97fffa2f 	bl	401658 <LTR_Log>
  402da0:	b00004a0 	adrp	x0, 497000 <__gcov0.XXCOMM_E2E_CreateGeneralChn+0x18>
  402da4:	9100e000 	add	x0, x0, #0x38
  402da8:	f9401400 	ldr	x0, [x0, #40]
  402dac:	91000401 	add	x1, x0, #0x1
  402db0:	b00004a0 	adrp	x0, 497000 <__gcov0.XXCOMM_E2E_CreateGeneralChn+0x18>
  402db4:	9100e000 	add	x0, x0, #0x38
  402db8:	f9001401 	str	x1, [x0, #40]
  402dbc:	f9400fa0 	ldr	x0, [x29, #24]
  402dc0:	f9400400 	ldr	x0, [x0, #8]
  402dc4:	9400a808 	bl	42cde4 <XXCOMM_ShmFree>
  402dc8:	b9002fa0 	str	w0, [x29, #44]
  402dcc:	b9402fa0 	ldr	w0, [x29, #44]
  402dd0:	7100001f 	cmp	w0, #0x0
  402dd4:	5400042a 	b.ge	402e58 <XXCOMM_E2E_DeleteDiscoveryChn+0x1fc>  // b.tcont
  402dd8:	b00004a0 	adrp	x0, 497000 <__gcov0.XXCOMM_E2E_CreateGeneralChn+0x18>
  402ddc:	9100e000 	add	x0, x0, #0x38
  402de0:	f9401800 	ldr	x0, [x0, #48]
  402de4:	91000401 	add	x1, x0, #0x1
  402de8:	b00004a0 	adrp	x0, 497000 <__gcov0.XXCOMM_E2E_CreateGeneralChn+0x18>
  402dec:	9100e000 	add	x0, x0, #0x38
  402df0:	f9001801 	str	x1, [x0, #48]
  402df4:	b9402fa0 	ldr	w0, [x29, #44]
  402df8:	2a0003e1 	mov	w1, w0
  402dfc:	f0000280 	adrp	x0, 455000 <_IO_stdin_used+0x2c0>
  402e00:	91116000 	add	x0, x0, #0x458
  402e04:	d2800006 	mov	x6, #0x0                   	// #0
  402e08:	d2800005 	mov	x5, #0x0                   	// #0
  402e0c:	aa0103e4 	mov	x4, x1
  402e10:	2f00e400 	movi	d0, #0x0
  402e14:	aa0003e3 	mov	x3, x0
  402e18:	d2800042 	mov	x2, #0x2                   	// #2
  402e1c:	d28010c1 	mov	x1, #0x86                  	// #134
  402e20:	f2a9ce01 	movk	x1, #0x4e70, lsl #16
  402e24:	f2ced2c1 	movk	x1, #0x7696, lsl #32
  402e28:	f2fa5681 	movk	x1, #0xd2b4, lsl #48
  402e2c:	52800060 	mov	w0, #0x3                   	// #3
  402e30:	97fffa0a 	bl	401658 <LTR_Log>
  402e34:	b9402fa0 	ldr	w0, [x29, #44]
  402e38:	b00004a1 	adrp	x1, 497000 <__gcov0.XXCOMM_E2E_CreateGeneralChn+0x18>
  402e3c:	9100e021 	add	x1, x1, #0x38
  402e40:	f9402021 	ldr	x1, [x1, #64]
  402e44:	91000422 	add	x2, x1, #0x1
  402e48:	b00004a1 	adrp	x1, 497000 <__gcov0.XXCOMM_E2E_CreateGeneralChn+0x18>
  402e4c:	9100e021 	add	x1, x1, #0x38
  402e50:	f9002022 	str	x2, [x1, #64]
  402e54:	14000015 	b	402ea8 <XXCOMM_E2E_DeleteDiscoveryChn+0x24c>
  402e58:	b00004a0 	adrp	x0, 497000 <__gcov0.XXCOMM_E2E_CreateGeneralChn+0x18>
  402e5c:	9100e000 	add	x0, x0, #0x38
  402e60:	f9401c00 	ldr	x0, [x0, #56]
  402e64:	91000401 	add	x1, x0, #0x1
  402e68:	b00004a0 	adrp	x0, 497000 <__gcov0.XXCOMM_E2E_CreateGeneralChn+0x18>
  402e6c:	9100e000 	add	x0, x0, #0x38
  402e70:	f9001c01 	str	x1, [x0, #56]
  402e74:	f9400fa0 	ldr	x0, [x29, #24]
  402e78:	d2800403 	mov	x3, #0x20                  	// #32
  402e7c:	52800002 	mov	w2, #0x0                   	// #0
  402e80:	d2800401 	mov	x1, #0x20                  	// #32
  402e84:	9400cb66 	bl	435c1c <memset_s>
  402e88:	52800000 	mov	w0, #0x0                   	// #0
  402e8c:	b00004a1 	adrp	x1, 497000 <__gcov0.XXCOMM_E2E_CreateGeneralChn+0x18>
  402e90:	9100e021 	add	x1, x1, #0x38
  402e94:	f9402421 	ldr	x1, [x1, #72]
  402e98:	91000422 	add	x2, x1, #0x1
  402e9c:	b00004a1 	adrp	x1, 497000 <__gcov0.XXCOMM_E2E_CreateGeneralChn+0x18>
  402ea0:	9100e021 	add	x1, x1, #0x38
  402ea4:	f9002422 	str	x2, [x1, #72]
  402ea8:	a8c37bfd 	ldp	x29, x30, [sp], #48
  402eac:	d65f03c0 	ret

0000000000402eb0 <XXCOMM_E2E_CreateGeneralChn>:
  402eb0:	a9bc7bfd 	stp	x29, x30, [sp, #-64]!
  402eb4:	910003fd 	mov	x29, sp
  402eb8:	f9000fa0 	str	x0, [x29, #24]
  402ebc:	f9000ba1 	str	x1, [x29, #16]
  402ec0:	900004a0 	adrp	x0, 496000 <nsData+0x550>
  402ec4:	913fa000 	add	x0, x0, #0xfe8
  402ec8:	f9400000 	ldr	x0, [x0]
  402ecc:	91000401 	add	x1, x0, #0x1
  402ed0:	900004a0 	adrp	x0, 496000 <nsData+0x550>
  402ed4:	913fa000 	add	x0, x0, #0xfe8
  402ed8:	f9000001 	str	x1, [x0]
  402edc:	f9001bbf 	str	xzr, [x29, #48]
  402ee0:	f90017bf 	str	xzr, [x29, #40]
  402ee4:	b9003fbf 	str	wzr, [x29, #60]
  402ee8:	f9400fa0 	ldr	x0, [x29, #24]
  402eec:	f100001f 	cmp	x0, #0x0
  402ef0:	54000160 	b.eq	402f1c <XXCOMM_E2E_CreateGeneralChn+0x6c>  // b.none
  402ef4:	900004a0 	adrp	x0, 496000 <nsData+0x550>
  402ef8:	913fa000 	add	x0, x0, #0xfe8
  402efc:	f9400400 	ldr	x0, [x0, #8]
  402f00:	91000401 	add	x1, x0, #0x1
  402f04:	900004a0 	adrp	x0, 496000 <nsData+0x550>
  402f08:	913fa000 	add	x0, x0, #0xfe8
  402f0c:	f9000401 	str	x1, [x0, #8]
  402f10:	f9400ba0 	ldr	x0, [x29, #16]
  402f14:	f100001f 	cmp	x0, #0x0
  402f18:	54000361 	b.ne	402f84 <XXCOMM_E2E_CreateGeneralChn+0xd4>  // b.any
  402f1c:	f9400fa1 	ldr	x1, [x29, #24]
  402f20:	f9400ba2 	ldr	x2, [x29, #16]
  402f24:	f0000280 	adrp	x0, 455000 <_IO_stdin_used+0x2c0>
  402f28:	91124000 	add	x0, x0, #0x490
  402f2c:	d2800006 	mov	x6, #0x0                   	// #0
  402f30:	aa0203e5 	mov	x5, x2
  402f34:	aa0103e4 	mov	x4, x1
  402f38:	2f00e400 	movi	d0, #0x0
  402f3c:	aa0003e3 	mov	x3, x0
  402f40:	d2800042 	mov	x2, #0x2                   	// #2
  402f44:	d2801361 	mov	x1, #0x9b                  	// #155
  402f48:	f2a9ce01 	movk	x1, #0x4e70, lsl #16
  402f4c:	f2ced2c1 	movk	x1, #0x7696, lsl #32
  402f50:	f2fa5681 	movk	x1, #0xd2b4, lsl #48
  402f54:	52800060 	mov	w0, #0x3                   	// #3
  402f58:	97fff9c0 	bl	401658 <LTR_Log>
  402f5c:	52800a80 	mov	w0, #0x54                  	// #84
  402f60:	72b06060 	movk	w0, #0x8303, lsl #16
  402f64:	900004a1 	adrp	x1, 496000 <nsData+0x550>
  402f68:	913fa021 	add	x1, x1, #0xfe8
  402f6c:	f9400821 	ldr	x1, [x1, #16]
  402f70:	91000422 	add	x2, x1, #0x1
  402f74:	900004a1 	adrp	x1, 496000 <nsData+0x550>
  402f78:	913fa021 	add	x1, x1, #0xfe8
  402f7c:	f9000822 	str	x2, [x1, #16]
  402f80:	1400007b 	b	40316c <XXCOMM_E2E_CreateGeneralChn+0x2bc>
  402f84:	f9400ba0 	ldr	x0, [x29, #16]
  402f88:	f9400400 	ldr	x0, [x0, #8]
  402f8c:	f100001f 	cmp	x0, #0x0
  402f90:	54000401 	b.ne	403010 <XXCOMM_E2E_CreateGeneralChn+0x160>  // b.any
  402f94:	900004a0 	adrp	x0, 496000 <nsData+0x550>
  402f98:	913fa000 	add	x0, x0, #0xfe8
  402f9c:	f9400c00 	ldr	x0, [x0, #24]
  402fa0:	91000401 	add	x1, x0, #0x1
  402fa4:	900004a0 	adrp	x0, 496000 <nsData+0x550>
  402fa8:	913fa000 	add	x0, x0, #0xfe8
  402fac:	f9000c01 	str	x1, [x0, #24]
  402fb0:	f0000280 	adrp	x0, 455000 <_IO_stdin_used+0x2c0>
  402fb4:	9113a000 	add	x0, x0, #0x4e8
  402fb8:	d2800006 	mov	x6, #0x0                   	// #0
  402fbc:	d2800005 	mov	x5, #0x0                   	// #0
  402fc0:	d2800004 	mov	x4, #0x0                   	// #0
  402fc4:	2f00e400 	movi	d0, #0x0
  402fc8:	aa0003e3 	mov	x3, x0
  402fcc:	d2800042 	mov	x2, #0x2                   	// #2
  402fd0:	d2801401 	mov	x1, #0xa0                  	// #160
  402fd4:	f2a9ce01 	movk	x1, #0x4e70, lsl #16
  402fd8:	f2ced2c1 	movk	x1, #0x7696, lsl #32
  402fdc:	f2fa5681 	movk	x1, #0xd2b4, lsl #48
  402fe0:	52800060 	mov	w0, #0x3                   	// #3
  402fe4:	97fff99d 	bl	401658 <LTR_Log>
  402fe8:	52800aa0 	mov	w0, #0x55                  	// #85
  402fec:	72b06060 	movk	w0, #0x8303, lsl #16
  402ff0:	900004a1 	adrp	x1, 496000 <nsData+0x550>
  402ff4:	913fa021 	add	x1, x1, #0xfe8
  402ff8:	f9401021 	ldr	x1, [x1, #32]
  402ffc:	91000422 	add	x2, x1, #0x1
  403000:	f0000481 	adrp	x1, 496000 <nsData+0x550>
  403004:	913fa021 	add	x1, x1, #0xfe8
  403008:	f9001022 	str	x2, [x1, #32]
  40300c:	14000058 	b	40316c <XXCOMM_E2E_CreateGeneralChn+0x2bc>
  403010:	b9003fbf 	str	wzr, [x29, #60]
  403014:	1400003f 	b	403110 <XXCOMM_E2E_CreateGeneralChn+0x260>
  403018:	f0000480 	adrp	x0, 496000 <nsData+0x550>
  40301c:	913fa000 	add	x0, x0, #0xfe8
  403020:	f9401c00 	ldr	x0, [x0, #56]
  403024:	91000401 	add	x1, x0, #0x1
  403028:	f0000480 	adrp	x0, 496000 <nsData+0x550>
  40302c:	913fa000 	add	x0, x0, #0xfe8
  403030:	f9001c01 	str	x1, [x0, #56]
  403034:	b9403fa0 	ldr	w0, [x29, #60]
  403038:	d37be800 	lsl	x0, x0, #5
  40303c:	f9400fa1 	ldr	x1, [x29, #24]
  403040:	8b000020 	add	x0, x1, x0
  403044:	f9001ba0 	str	x0, [x29, #48]
  403048:	f9400ba0 	ldr	x0, [x29, #16]
  40304c:	b9400000 	ldr	w0, [x0]
  403050:	2a0003e0 	mov	w0, w0
  403054:	91000400 	add	x0, x0, #0x1
  403058:	d37ff801 	lsl	x1, x0, #1
  40305c:	b9403fa0 	ldr	w0, [x29, #60]
  403060:	8b000020 	add	x0, x1, x0
  403064:	f90017a0 	str	x0, [x29, #40]
  403068:	f9400ba0 	ldr	x0, [x29, #16]
  40306c:	f9400400 	ldr	x0, [x0, #8]
  403070:	aa0003e1 	mov	x1, x0
  403074:	f94017a0 	ldr	x0, [x29, #40]
  403078:	d375d000 	lsl	x0, x0, #11
  40307c:	8b000020 	add	x0, x1, x0
  403080:	aa0003e1 	mov	x1, x0
  403084:	f9401ba0 	ldr	x0, [x29, #48]
  403088:	f9000401 	str	x1, [x0, #8]
  40308c:	f9401ba0 	ldr	x0, [x29, #48]
  403090:	52810001 	mov	w1, #0x800                 	// #2048
  403094:	b9001001 	str	w1, [x0, #16]
  403098:	f9400ba0 	ldr	x0, [x29, #16]
  40309c:	b9403fa1 	ldr	w1, [x29, #60]
  4030a0:	91000821 	add	x1, x1, #0x2
  4030a4:	f8617801 	ldr	x1, [x0, x1, lsl #3]
  4030a8:	f9401ba0 	ldr	x0, [x29, #48]
  4030ac:	f9000c01 	str	x1, [x0, #24]
  4030b0:	f9400ba0 	ldr	x0, [x29, #16]
  4030b4:	f9400800 	ldr	x0, [x0, #16]
  4030b8:	f100001f 	cmp	x0, #0x0
  4030bc:	54000161 	b.ne	4030e8 <XXCOMM_E2E_CreateGeneralChn+0x238>  // b.any
  4030c0:	f0000480 	adrp	x0, 496000 <nsData+0x550>
  4030c4:	913fa000 	add	x0, x0, #0xfe8
  4030c8:	f9401400 	ldr	x0, [x0, #40]
  4030cc:	91000401 	add	x1, x0, #0x1
  4030d0:	f0000480 	adrp	x0, 496000 <nsData+0x550>
  4030d4:	913fa000 	add	x0, x0, #0xfe8
  4030d8:	f9001401 	str	x1, [x0, #40]
  4030dc:	f9401ba0 	ldr	x0, [x29, #48]
  4030e0:	f9400400 	ldr	x0, [x0, #8]
  4030e4:	97fffcf3 	bl	4024b0 <XXCOMM_ShmMsgInit>
  4030e8:	b9403fa0 	ldr	w0, [x29, #60]
  4030ec:	11000400 	add	w0, w0, #0x1
  4030f0:	b9003fa0 	str	w0, [x29, #60]
  4030f4:	f0000480 	adrp	x0, 496000 <nsData+0x550>
  4030f8:	913fa000 	add	x0, x0, #0xfe8
  4030fc:	f9401800 	ldr	x0, [x0, #48]
  403100:	91000401 	add	x1, x0, #0x1
  403104:	f0000480 	adrp	x0, 496000 <nsData+0x550>
  403108:	913fa000 	add	x0, x0, #0xfe8
  40310c:	f9001801 	str	x1, [x0, #48]
  403110:	b9403fa0 	ldr	w0, [x29, #60]
  403114:	7100041f 	cmp	w0, #0x1
  403118:	54fff809 	b.ls	403018 <XXCOMM_E2E_CreateGeneralChn+0x168>  // b.plast
  40311c:	f0000480 	adrp	x0, 496000 <nsData+0x550>
  403120:	913fa000 	add	x0, x0, #0xfe8
  403124:	f9402000 	ldr	x0, [x0, #64]
  403128:	91000401 	add	x1, x0, #0x1
  40312c:	f0000480 	adrp	x0, 496000 <nsData+0x550>
  403130:	913fa000 	add	x0, x0, #0xfe8
  403134:	f9002001 	str	x1, [x0, #64]
  403138:	f9400ba0 	ldr	x0, [x29, #16]
  40313c:	b9400001 	ldr	w1, [x0]
  403140:	f9400fa0 	ldr	x0, [x29, #24]
  403144:	b9004001 	str	w1, [x0, #64]
  403148:	97fffd02 	bl	402550 <XXCOMM_E2E_SetChnMapFlag>
  40314c:	52800000 	mov	w0, #0x0                   	// #0
  403150:	f0000481 	adrp	x1, 496000 <nsData+0x550>
  403154:	913fa021 	add	x1, x1, #0xfe8
  403158:	f9402421 	ldr	x1, [x1, #72]
  40315c:	91000422 	add	x2, x1, #0x1
  403160:	f0000481 	adrp	x1, 496000 <nsData+0x550>
  403164:	913fa021 	add	x1, x1, #0xfe8
  403168:	f9002422 	str	x2, [x1, #72]
  40316c:	a8c47bfd 	ldp	x29, x30, [sp], #64
  403170:	d65f03c0 	ret

0000000000403174 <XXCOMM_E2E_MapGeneralChn>:
  403174:	a9be7bfd 	stp	x29, x30, [sp, #-32]!
  403178:	910003fd 	mov	x29, sp
  40317c:	f9000fa0 	str	x0, [x29, #24]
  403180:	f0000480 	adrp	x0, 496000 <nsData+0x550>
  403184:	913f6000 	add	x0, x0, #0xfd8
  403188:	f9400000 	ldr	x0, [x0]
  40318c:	91000401 	add	x1, x0, #0x1
  403190:	f0000480 	adrp	x0, 496000 <nsData+0x550>
  403194:	913f6000 	add	x0, x0, #0xfd8
  403198:	f9000001 	str	x1, [x0]
  40319c:	97fffced 	bl	402550 <XXCOMM_E2E_SetChnMapFlag>
  4031a0:	52800002 	mov	w2, #0x0                   	// #0
  4031a4:	f0000480 	adrp	x0, 496000 <nsData+0x550>
  4031a8:	913f6000 	add	x0, x0, #0xfd8
  4031ac:	f9400400 	ldr	x0, [x0, #8]
  4031b0:	91000401 	add	x1, x0, #0x1
  4031b4:	f0000480 	adrp	x0, 496000 <nsData+0x550>
  4031b8:	913f6000 	add	x0, x0, #0xfd8
  4031bc:	f9000401 	str	x1, [x0, #8]
  4031c0:	2a0203e0 	mov	w0, w2
  4031c4:	a8c27bfd 	ldp	x29, x30, [sp], #32
  4031c8:	d65f03c0 	ret

00000000004031cc <XXCOMM_E2E_DeleteGeneralChn>:
  4031cc:	a9bd7bfd 	stp	x29, x30, [sp, #-48]!
  4031d0:	910003fd 	mov	x29, sp
  4031d4:	f9000fa0 	str	x0, [x29, #24]
  4031d8:	f90013bf 	str	xzr, [x29, #32]
  4031dc:	b9002fbf 	str	wzr, [x29, #44]
  4031e0:	f9400fa0 	ldr	x0, [x29, #24]
  4031e4:	f100001f 	cmp	x0, #0x0
  4031e8:	54000401 	b.ne	403268 <XXCOMM_E2E_DeleteGeneralChn+0x9c>  // b.any
  4031ec:	f0000480 	adrp	x0, 496000 <nsData+0x550>
  4031f0:	913ec000 	add	x0, x0, #0xfb0
  4031f4:	f9400000 	ldr	x0, [x0]
  4031f8:	91000401 	add	x1, x0, #0x1
  4031fc:	f0000480 	adrp	x0, 496000 <nsData+0x550>
  403200:	913ec000 	add	x0, x0, #0xfb0
  403204:	f9000001 	str	x1, [x0]
  403208:	d0000280 	adrp	x0, 455000 <_IO_stdin_used+0x2c0>
  40320c:	9114c000 	add	x0, x0, #0x530
  403210:	d2800006 	mov	x6, #0x0                   	// #0
  403214:	d2800005 	mov	x5, #0x0                   	// #0
  403218:	d2800004 	mov	x4, #0x0                   	// #0
  40321c:	2f00e400 	movi	d0, #0x0
  403220:	aa0003e3 	mov	x3, x0
  403224:	d2800042 	mov	x2, #0x2                   	// #2
  403228:	d28018c1 	mov	x1, #0xc6                  	// #198
  40322c:	f2a9ce01 	movk	x1, #0x4e70, lsl #16
  403230:	f2ced2c1 	movk	x1, #0x7696, lsl #32
  403234:	f2fa5681 	movk	x1, #0xd2b4, lsl #48
  403238:	52800060 	mov	w0, #0x3                   	// #3
  40323c:	97fff907 	bl	401658 <LTR_Log>
  403240:	52800ac2 	mov	w2, #0x56                  	// #86
  403244:	72b06062 	movk	w2, #0x8303, lsl #16
  403248:	f0000480 	adrp	x0, 496000 <nsData+0x550>
  40324c:	913ec000 	add	x0, x0, #0xfb0
  403250:	f9400400 	ldr	x0, [x0, #8]
  403254:	91000401 	add	x1, x0, #0x1
  403258:	f0000480 	adrp	x0, 496000 <nsData+0x550>
  40325c:	913ec000 	add	x0, x0, #0xfb0
  403260:	f9000401 	str	x1, [x0, #8]
  403264:	14000029 	b	403308 <XXCOMM_E2E_DeleteGeneralChn+0x13c>
  403268:	b9002fbf 	str	wzr, [x29, #44]
  40326c:	1400001c 	b	4032dc <XXCOMM_E2E_DeleteGeneralChn+0x110>
  403270:	f0000480 	adrp	x0, 496000 <nsData+0x550>
  403274:	913ec000 	add	x0, x0, #0xfb0
  403278:	f9400c00 	ldr	x0, [x0, #24]
  40327c:	91000401 	add	x1, x0, #0x1
  403280:	f0000480 	adrp	x0, 496000 <nsData+0x550>
  403284:	913ec000 	add	x0, x0, #0xfb0
  403288:	f9000c01 	str	x1, [x0, #24]
  40328c:	b9402fa0 	ldr	w0, [x29, #44]
  403290:	d37be800 	lsl	x0, x0, #5
  403294:	f9400fa1 	ldr	x1, [x29, #24]
  403298:	8b000020 	add	x0, x1, x0
  40329c:	f90013a0 	str	x0, [x29, #32]
  4032a0:	d2800403 	mov	x3, #0x20                  	// #32
  4032a4:	52800002 	mov	w2, #0x0                   	// #0
  4032a8:	d2800401 	mov	x1, #0x20                  	// #32
  4032ac:	f94013a0 	ldr	x0, [x29, #32]
  4032b0:	9400ca5b 	bl	435c1c <memset_s>
  4032b4:	b9402fa0 	ldr	w0, [x29, #44]
  4032b8:	11000400 	add	w0, w0, #0x1
  4032bc:	b9002fa0 	str	w0, [x29, #44]
  4032c0:	f0000480 	adrp	x0, 496000 <nsData+0x550>
  4032c4:	913ec000 	add	x0, x0, #0xfb0
  4032c8:	f9400800 	ldr	x0, [x0, #16]
  4032cc:	91000401 	add	x1, x0, #0x1
  4032d0:	f0000480 	adrp	x0, 496000 <nsData+0x550>
  4032d4:	913ec000 	add	x0, x0, #0xfb0
  4032d8:	f9000801 	str	x1, [x0, #16]
  4032dc:	b9402fa0 	ldr	w0, [x29, #44]
  4032e0:	7100041f 	cmp	w0, #0x1
  4032e4:	54fffc69 	b.ls	403270 <XXCOMM_E2E_DeleteGeneralChn+0xa4>  // b.plast
  4032e8:	52800002 	mov	w2, #0x0                   	// #0
  4032ec:	f0000480 	adrp	x0, 496000 <nsData+0x550>
  4032f0:	913ec000 	add	x0, x0, #0xfb0
  4032f4:	f9401000 	ldr	x0, [x0, #32]
  4032f8:	91000401 	add	x1, x0, #0x1
  4032fc:	f0000480 	adrp	x0, 496000 <nsData+0x550>
  403300:	913ec000 	add	x0, x0, #0xfb0
  403304:	f9001001 	str	x1, [x0, #32]
  403308:	2a0203e0 	mov	w0, w2
  40330c:	a8c37bfd 	ldp	x29, x30, [sp], #48
  403310:	d65f03c0 	ret

0000000000403314 <XXCOMM_E2E_CheckCreateFWChnProcess>:
  403314:	a9bd7bfd 	stp	x29, x30, [sp, #-48]!
  403318:	910003fd 	mov	x29, sp
  40331c:	f9000fa0 	str	x0, [x29, #24]
  403320:	f0000480 	adrp	x0, 496000 <nsData+0x550>
  403324:	913d8000 	add	x0, x0, #0xf60
  403328:	f9400000 	ldr	x0, [x0]
  40332c:	91000401 	add	x1, x0, #0x1
  403330:	f0000480 	adrp	x0, 496000 <nsData+0x550>
  403334:	913d8000 	add	x0, x0, #0xf60
  403338:	f9000001 	str	x1, [x0]
  40333c:	b9002fbf 	str	wzr, [x29, #44]
  403340:	f9400fa0 	ldr	x0, [x29, #24]
  403344:	b9400003 	ldr	w3, [x0]
  403348:	f9400fa0 	ldr	x0, [x29, #24]
  40334c:	b9400401 	ldr	w1, [x0, #4]
  403350:	f9400fa0 	ldr	x0, [x29, #24]
  403354:	91003000 	add	x0, x0, #0xc
  403358:	aa0003e2 	mov	x2, x0
  40335c:	2a0303e0 	mov	w0, w3
  403360:	940097ad 	bl	429214 <XXCOMM_GetPort>
  403364:	b9002fa0 	str	w0, [x29, #44]
  403368:	b9402fa0 	ldr	w0, [x29, #44]
  40336c:	7100001f 	cmp	w0, #0x0
  403370:	5400048a 	b.ge	403400 <XXCOMM_E2E_CheckCreateFWChnProcess+0xec>  // b.tcont
  403374:	f0000480 	adrp	x0, 496000 <nsData+0x550>
  403378:	913d8000 	add	x0, x0, #0xf60
  40337c:	f9400400 	ldr	x0, [x0, #8]
  403380:	91000401 	add	x1, x0, #0x1
  403384:	f0000480 	adrp	x0, 496000 <nsData+0x550>
  403388:	913d8000 	add	x0, x0, #0xf60
  40338c:	f9000401 	str	x1, [x0, #8]
  403390:	b9402fa0 	ldr	w0, [x29, #44]
  403394:	2a0003e1 	mov	w1, w0
  403398:	d0000280 	adrp	x0, 455000 <_IO_stdin_used+0x2c0>
  40339c:	9115a000 	add	x0, x0, #0x568
  4033a0:	d2800006 	mov	x6, #0x0                   	// #0
  4033a4:	d2800005 	mov	x5, #0x0                   	// #0
  4033a8:	aa0103e4 	mov	x4, x1
  4033ac:	2f00e400 	movi	d0, #0x0
  4033b0:	aa0003e3 	mov	x3, x0
  4033b4:	d2800042 	mov	x2, #0x2                   	// #2
  4033b8:	d2801b01 	mov	x1, #0xd8                  	// #216
  4033bc:	f2a9ce01 	movk	x1, #0x4e70, lsl #16
  4033c0:	f2ced2c1 	movk	x1, #0x7696, lsl #32
  4033c4:	f2fa5681 	movk	x1, #0xd2b4, lsl #48
  4033c8:	52800060 	mov	w0, #0x3                   	// #3
  4033cc:	97fff8a3 	bl	401658 <LTR_Log>
  4033d0:	f9400fa0 	ldr	x0, [x29, #24]
  4033d4:	52801fe1 	mov	w1, #0xff                  	// #255
  4033d8:	b9000801 	str	w1, [x0, #8]
  4033dc:	52800280 	mov	w0, #0x14                  	// #20
  4033e0:	f0000481 	adrp	x1, 496000 <nsData+0x550>
  4033e4:	913d8021 	add	x1, x1, #0xf60
  4033e8:	f9400c21 	ldr	x1, [x1, #24]
  4033ec:	91000422 	add	x2, x1, #0x1
  4033f0:	f0000481 	adrp	x1, 496000 <nsData+0x550>
  4033f4:	913d8021 	add	x1, x1, #0xf60
  4033f8:	f9000c22 	str	x2, [x1, #24]
  4033fc:	14000076 	b	4035d4 <XXCOMM_E2E_CheckCreateFWChnProcess+0x2c0>
  403400:	f0000480 	adrp	x0, 496000 <nsData+0x550>
  403404:	913d8000 	add	x0, x0, #0xf60
  403408:	f9400800 	ldr	x0, [x0, #16]
  40340c:	91000401 	add	x1, x0, #0x1
  403410:	f0000480 	adrp	x0, 496000 <nsData+0x550>
  403414:	913d8000 	add	x0, x0, #0xf60
  403418:	f9000801 	str	x1, [x0, #16]
  40341c:	b9402fa1 	ldr	w1, [x29, #44]
  403420:	f9400fa0 	ldr	x0, [x29, #24]
  403424:	b9000801 	str	w1, [x0, #8]
  403428:	f9400fa0 	ldr	x0, [x29, #24]
  40342c:	b9400802 	ldr	w2, [x0, #8]
  403430:	f9400fa0 	ldr	x0, [x29, #24]
  403434:	91016000 	add	x0, x0, #0x58
  403438:	aa0003e1 	mov	x1, x0
  40343c:	2a0203e0 	mov	w0, w2
  403440:	94009801 	bl	429444 <XXCOMM_E2E_CreateDynamicQP>
  403444:	b9002fa0 	str	w0, [x29, #44]
  403448:	b9402fa0 	ldr	w0, [x29, #44]
  40344c:	7100001f 	cmp	w0, #0x0
  403450:	54000480 	b.eq	4034e0 <XXCOMM_E2E_CheckCreateFWChnProcess+0x1cc>  // b.none
  403454:	f0000480 	adrp	x0, 496000 <nsData+0x550>
  403458:	913d8000 	add	x0, x0, #0xf60
  40345c:	f9401000 	ldr	x0, [x0, #32]
  403460:	91000401 	add	x1, x0, #0x1
  403464:	f0000480 	adrp	x0, 496000 <nsData+0x550>
  403468:	913d8000 	add	x0, x0, #0xf60
  40346c:	f9001001 	str	x1, [x0, #32]
  403470:	b9402fa0 	ldr	w0, [x29, #44]
  403474:	2a0003e1 	mov	w1, w0
  403478:	f9400fa0 	ldr	x0, [x29, #24]
  40347c:	b9400800 	ldr	w0, [x0, #8]
  403480:	2a0003e2 	mov	w2, w0
  403484:	d0000280 	adrp	x0, 455000 <_IO_stdin_used+0x2c0>
  403488:	9116c000 	add	x0, x0, #0x5b0
  40348c:	d2800006 	mov	x6, #0x0                   	// #0
  403490:	aa0203e5 	mov	x5, x2
  403494:	aa0103e4 	mov	x4, x1
  403498:	2f00e400 	movi	d0, #0x0
  40349c:	aa0003e3 	mov	x3, x0
  4034a0:	d2800042 	mov	x2, #0x2                   	// #2
  4034a4:	d2801c01 	mov	x1, #0xe0                  	// #224
  4034a8:	f2a9ce01 	movk	x1, #0x4e70, lsl #16
  4034ac:	f2ced2c1 	movk	x1, #0x7696, lsl #32
  4034b0:	f2fa5681 	movk	x1, #0xd2b4, lsl #48
  4034b4:	52800060 	mov	w0, #0x3                   	// #3
  4034b8:	97fff868 	bl	401658 <LTR_Log>
  4034bc:	b9402fa0 	ldr	w0, [x29, #44]
  4034c0:	f0000481 	adrp	x1, 496000 <nsData+0x550>
  4034c4:	913d8021 	add	x1, x1, #0xf60
  4034c8:	f9401821 	ldr	x1, [x1, #48]
  4034cc:	91000422 	add	x2, x1, #0x1
  4034d0:	f0000481 	adrp	x1, 496000 <nsData+0x550>
  4034d4:	913d8021 	add	x1, x1, #0xf60
  4034d8:	f9001822 	str	x2, [x1, #48]
  4034dc:	1400003e 	b	4035d4 <XXCOMM_E2E_CheckCreateFWChnProcess+0x2c0>
  4034e0:	f0000480 	adrp	x0, 496000 <nsData+0x550>
  4034e4:	913d8000 	add	x0, x0, #0xf60
  4034e8:	f9401400 	ldr	x0, [x0, #40]
  4034ec:	91000401 	add	x1, x0, #0x1
  4034f0:	f0000480 	adrp	x0, 496000 <nsData+0x550>
  4034f4:	913d8000 	add	x0, x0, #0xf60
  4034f8:	f9001401 	str	x1, [x0, #40]
  4034fc:	f9400fa0 	ldr	x0, [x29, #24]
  403500:	b9400802 	ldr	w2, [x0, #8]
  403504:	f9400fa0 	ldr	x0, [x29, #24]
  403508:	9103c000 	add	x0, x0, #0xf0
  40350c:	aa0003e1 	mov	x1, x0
  403510:	2a0203e0 	mov	w0, w2
  403514:	940097cc 	bl	429444 <XXCOMM_E2E_CreateDynamicQP>
  403518:	b9002fa0 	str	w0, [x29, #44]
  40351c:	b9402fa0 	ldr	w0, [x29, #44]
  403520:	7100001f 	cmp	w0, #0x0
  403524:	54000480 	b.eq	4035b4 <XXCOMM_E2E_CheckCreateFWChnProcess+0x2a0>  // b.none
  403528:	f0000480 	adrp	x0, 496000 <nsData+0x550>
  40352c:	913d8000 	add	x0, x0, #0xf60
  403530:	f9401c00 	ldr	x0, [x0, #56]
  403534:	91000401 	add	x1, x0, #0x1
  403538:	f0000480 	adrp	x0, 496000 <nsData+0x550>
  40353c:	913d8000 	add	x0, x0, #0xf60
  403540:	f9001c01 	str	x1, [x0, #56]
  403544:	b9402fa0 	ldr	w0, [x29, #44]
  403548:	2a0003e1 	mov	w1, w0
  40354c:	f9400fa0 	ldr	x0, [x29, #24]
  403550:	b9400800 	ldr	w0, [x0, #8]
  403554:	2a0003e2 	mov	w2, w0
  403558:	d0000280 	adrp	x0, 455000 <_IO_stdin_used+0x2c0>
  40355c:	91186000 	add	x0, x0, #0x618
  403560:	d2800006 	mov	x6, #0x0                   	// #0
  403564:	aa0203e5 	mov	x5, x2
  403568:	aa0103e4 	mov	x4, x1
  40356c:	2f00e400 	movi	d0, #0x0
  403570:	aa0003e3 	mov	x3, x0
  403574:	d2800042 	mov	x2, #0x2                   	// #2
  403578:	d2801ce1 	mov	x1, #0xe7                  	// #231
  40357c:	f2a9ce01 	movk	x1, #0x4e70, lsl #16
  403580:	f2ced2c1 	movk	x1, #0x7696, lsl #32
  403584:	f2fa5681 	movk	x1, #0xd2b4, lsl #48
  403588:	52800060 	mov	w0, #0x3                   	// #3
  40358c:	97fff833 	bl	401658 <LTR_Log>
  403590:	b9402fa0 	ldr	w0, [x29, #44]
  403594:	f0000481 	adrp	x1, 496000 <nsData+0x550>
  403598:	913d8021 	add	x1, x1, #0xf60
  40359c:	f9402021 	ldr	x1, [x1, #64]
  4035a0:	91000422 	add	x2, x1, #0x1
  4035a4:	f0000481 	adrp	x1, 496000 <nsData+0x550>
  4035a8:	913d8021 	add	x1, x1, #0xf60
  4035ac:	f9002022 	str	x2, [x1, #64]
  4035b0:	14000009 	b	4035d4 <XXCOMM_E2E_CheckCreateFWChnProcess+0x2c0>
  4035b4:	52800000 	mov	w0, #0x0                   	// #0
  4035b8:	f0000481 	adrp	x1, 496000 <nsData+0x550>
  4035bc:	913d8021 	add	x1, x1, #0xf60
  4035c0:	f9402421 	ldr	x1, [x1, #72]
  4035c4:	91000422 	add	x2, x1, #0x1
  4035c8:	f0000481 	adrp	x1, 496000 <nsData+0x550>
  4035cc:	913d8021 	add	x1, x1, #0xf60
  4035d0:	f9002422 	str	x2, [x1, #72]
  4035d4:	a8c37bfd 	ldp	x29, x30, [sp], #48
  4035d8:	d65f03c0 	ret

00000000004035dc <XXCOMM_E2E_CreateForwardChn>:
  4035dc:	a9bd7bfd 	stp	x29, x30, [sp, #-48]!
  4035e0:	910003fd 	mov	x29, sp
  4035e4:	f9000fa0 	str	x0, [x29, #24]
  4035e8:	f9000ba1 	str	x1, [x29, #16]
  4035ec:	f0000480 	adrp	x0, 496000 <nsData+0x550>
  4035f0:	913b8000 	add	x0, x0, #0xee0
  4035f4:	f9400000 	ldr	x0, [x0]
  4035f8:	91000401 	add	x1, x0, #0x1
  4035fc:	f0000480 	adrp	x0, 496000 <nsData+0x550>
  403600:	913b8000 	add	x0, x0, #0xee0
  403604:	f9000001 	str	x1, [x0]
  403608:	b9002fbf 	str	wzr, [x29, #44]
  40360c:	f90013bf 	str	xzr, [x29, #32]
  403610:	f9400fa0 	ldr	x0, [x29, #24]
  403614:	f100001f 	cmp	x0, #0x0
  403618:	54000160 	b.eq	403644 <XXCOMM_E2E_CreateForwardChn+0x68>  // b.none
  40361c:	f0000480 	adrp	x0, 496000 <nsData+0x550>
  403620:	913b8000 	add	x0, x0, #0xee0
  403624:	f9400400 	ldr	x0, [x0, #8]
  403628:	91000401 	add	x1, x0, #0x1
  40362c:	f0000480 	adrp	x0, 496000 <nsData+0x550>
  403630:	913b8000 	add	x0, x0, #0xee0
  403634:	f9000401 	str	x1, [x0, #8]
  403638:	f9400ba0 	ldr	x0, [x29, #16]
  40363c:	f100001f 	cmp	x0, #0x0
  403640:	54000361 	b.ne	4036ac <XXCOMM_E2E_CreateForwardChn+0xd0>  // b.any
  403644:	f9400fa1 	ldr	x1, [x29, #24]
  403648:	f9400ba2 	ldr	x2, [x29, #16]
  40364c:	d0000280 	adrp	x0, 455000 <_IO_stdin_used+0x2c0>
  403650:	911a0000 	add	x0, x0, #0x680
  403654:	d2800006 	mov	x6, #0x0                   	// #0
  403658:	aa0203e5 	mov	x5, x2
  40365c:	aa0103e4 	mov	x4, x1
  403660:	2f00e400 	movi	d0, #0x0
  403664:	aa0003e3 	mov	x3, x0
  403668:	d2800042 	mov	x2, #0x2                   	// #2
  40366c:	d2801e81 	mov	x1, #0xf4                  	// #244
  403670:	f2a9ce01 	movk	x1, #0x4e70, lsl #16
  403674:	f2ced2c1 	movk	x1, #0x7696, lsl #32
  403678:	f2fa5681 	movk	x1, #0xd2b4, lsl #48
  40367c:	52800060 	mov	w0, #0x3                   	// #3
  403680:	97fff7f6 	bl	401658 <LTR_Log>
  403684:	528000e0 	mov	w0, #0x7                   	// #7
  403688:	72b06060 	movk	w0, #0x8303, lsl #16
  40368c:	f0000481 	adrp	x1, 496000 <nsData+0x550>
  403690:	913b8021 	add	x1, x1, #0xee0
  403694:	f9400c21 	ldr	x1, [x1, #24]
  403698:	91000422 	add	x2, x1, #0x1
  40369c:	f0000481 	adrp	x1, 496000 <nsData+0x550>
  4036a0:	913b8021 	add	x1, x1, #0xee0
  4036a4:	f9000c22 	str	x2, [x1, #24]
  4036a8:	14000115 	b	403afc <XXCOMM_E2E_CreateForwardChn+0x520>
  4036ac:	f0000480 	adrp	x0, 496000 <nsData+0x550>
  4036b0:	913b8000 	add	x0, x0, #0xee0
  4036b4:	f9400800 	ldr	x0, [x0, #16]
  4036b8:	91000401 	add	x1, x0, #0x1
  4036bc:	f0000480 	adrp	x0, 496000 <nsData+0x550>
  4036c0:	913b8000 	add	x0, x0, #0xee0
  4036c4:	f9000801 	str	x1, [x0, #16]
  4036c8:	f9400fa0 	ldr	x0, [x29, #24]
  4036cc:	f90013a0 	str	x0, [x29, #32]
  4036d0:	f9400ba0 	ldr	x0, [x29, #16]
  4036d4:	b9400401 	ldr	w1, [x0, #4]
  4036d8:	f94013a0 	ldr	x0, [x29, #32]
  4036dc:	b9000401 	str	w1, [x0, #4]
  4036e0:	f9400ba0 	ldr	x0, [x29, #16]
  4036e4:	b9400001 	ldr	w1, [x0]
  4036e8:	f94013a0 	ldr	x0, [x29, #32]
  4036ec:	b9000001 	str	w1, [x0]
  4036f0:	f94013a0 	ldr	x0, [x29, #32]
  4036f4:	b901801f 	str	wzr, [x0, #384]
  4036f8:	f94013a0 	ldr	x0, [x29, #32]
  4036fc:	b9400000 	ldr	w0, [x0]
  403700:	2a0003e1 	mov	w1, w0
  403704:	f94013a0 	ldr	x0, [x29, #32]
  403708:	b9400400 	ldr	w0, [x0, #4]
  40370c:	2a0003e2 	mov	w2, w0
  403710:	d0000280 	adrp	x0, 455000 <_IO_stdin_used+0x2c0>
  403714:	911b6000 	add	x0, x0, #0x6d8
  403718:	d2800006 	mov	x6, #0x0                   	// #0
  40371c:	aa0203e5 	mov	x5, x2
  403720:	aa0103e4 	mov	x4, x1
  403724:	2f00e400 	movi	d0, #0x0
  403728:	aa0003e3 	mov	x3, x0
  40372c:	d2800082 	mov	x2, #0x4                   	// #4
  403730:	d2801fa1 	mov	x1, #0xfd                  	// #253
  403734:	f2a9ce01 	movk	x1, #0x4e70, lsl #16
  403738:	f2ced2c1 	movk	x1, #0x7696, lsl #32
  40373c:	f2fa5681 	movk	x1, #0xd2b4, lsl #48
  403740:	52800060 	mov	w0, #0x3                   	// #3
  403744:	97fff7c5 	bl	401658 <LTR_Log>
  403748:	f0000480 	adrp	x0, 496000 <nsData+0x550>
  40374c:	913b8000 	add	x0, x0, #0xee0
  403750:	f9401000 	ldr	x0, [x0, #32]
  403754:	91000401 	add	x1, x0, #0x1
  403758:	f0000480 	adrp	x0, 496000 <nsData+0x550>
  40375c:	913b8000 	add	x0, x0, #0xee0
  403760:	f9001001 	str	x1, [x0, #32]
  403764:	f94013a0 	ldr	x0, [x29, #32]
  403768:	97fffeeb 	bl	403314 <XXCOMM_E2E_CheckCreateFWChnProcess>
  40376c:	b9002fa0 	str	w0, [x29, #44]
  403770:	b9402fa0 	ldr	w0, [x29, #44]
  403774:	7100001f 	cmp	w0, #0x0
  403778:	54000140 	b.eq	4037a0 <XXCOMM_E2E_CreateForwardChn+0x1c4>  // b.none
  40377c:	b9402fa0 	ldr	w0, [x29, #44]
  403780:	f0000481 	adrp	x1, 496000 <nsData+0x550>
  403784:	913b8021 	add	x1, x1, #0xee0
  403788:	f9401421 	ldr	x1, [x1, #40]
  40378c:	91000422 	add	x2, x1, #0x1
  403790:	f0000481 	adrp	x1, 496000 <nsData+0x550>
  403794:	913b8021 	add	x1, x1, #0xee0
  403798:	f9001422 	str	x2, [x1, #40]
  40379c:	140000d8 	b	403afc <XXCOMM_E2E_CreateForwardChn+0x520>
  4037a0:	d2800100 	mov	x0, #0x8                   	// #8
  4037a4:	97fff6c7 	bl	4012c0 <malloc@plt>
  4037a8:	aa0003e1 	mov	x1, x0
  4037ac:	f94013a0 	ldr	x0, [x29, #32]
  4037b0:	f9001001 	str	x1, [x0, #32]
  4037b4:	f94013a0 	ldr	x0, [x29, #32]
  4037b8:	f9401000 	ldr	x0, [x0, #32]
  4037bc:	f100001f 	cmp	x0, #0x0
  4037c0:	540004c1 	b.ne	403858 <XXCOMM_E2E_CreateForwardChn+0x27c>  // b.any
  4037c4:	f0000480 	adrp	x0, 496000 <nsData+0x550>
  4037c8:	913b8000 	add	x0, x0, #0xee0
  4037cc:	f9401800 	ldr	x0, [x0, #48]
  4037d0:	91000401 	add	x1, x0, #0x1
  4037d4:	f0000480 	adrp	x0, 496000 <nsData+0x550>
  4037d8:	913b8000 	add	x0, x0, #0xee0
  4037dc:	f9001801 	str	x1, [x0, #48]
  4037e0:	f94013a0 	ldr	x0, [x29, #32]
  4037e4:	b9400000 	ldr	w0, [x0]
  4037e8:	2a0003e1 	mov	w1, w0
  4037ec:	f94013a0 	ldr	x0, [x29, #32]
  4037f0:	b9400400 	ldr	w0, [x0, #4]
  4037f4:	2a0003e2 	mov	w2, w0
  4037f8:	d0000280 	adrp	x0, 455000 <_IO_stdin_used+0x2c0>
  4037fc:	911c2000 	add	x0, x0, #0x708
  403800:	d2800006 	mov	x6, #0x0                   	// #0
  403804:	aa0203e5 	mov	x5, x2
  403808:	aa0103e4 	mov	x4, x1
  40380c:	2f00e400 	movi	d0, #0x0
  403810:	aa0003e3 	mov	x3, x0
  403814:	d2800042 	mov	x2, #0x2                   	// #2
  403818:	d28020e1 	mov	x1, #0x107                 	// #263
  40381c:	f2a9ce01 	movk	x1, #0x4e70, lsl #16
  403820:	f2ced2c1 	movk	x1, #0x7696, lsl #32
  403824:	f2fa5681 	movk	x1, #0xd2b4, lsl #48
  403828:	52800060 	mov	w0, #0x3                   	// #3
  40382c:	97fff78b 	bl	401658 <LTR_Log>
  403830:	52800120 	mov	w0, #0x9                   	// #9
  403834:	72b06060 	movk	w0, #0x8303, lsl #16
  403838:	f0000481 	adrp	x1, 496000 <nsData+0x550>
  40383c:	913b8021 	add	x1, x1, #0xee0
  403840:	f9402021 	ldr	x1, [x1, #64]
  403844:	91000422 	add	x2, x1, #0x1
  403848:	f0000481 	adrp	x1, 496000 <nsData+0x550>
  40384c:	913b8021 	add	x1, x1, #0xee0
  403850:	f9002022 	str	x2, [x1, #64]
  403854:	140000aa 	b	403afc <XXCOMM_E2E_CreateForwardChn+0x520>
  403858:	f0000480 	adrp	x0, 496000 <nsData+0x550>
  40385c:	913b8000 	add	x0, x0, #0xee0
  403860:	f9401c00 	ldr	x0, [x0, #56]
  403864:	91000401 	add	x1, x0, #0x1
  403868:	f0000480 	adrp	x0, 496000 <nsData+0x550>
  40386c:	913b8000 	add	x0, x0, #0xee0
  403870:	f9001c01 	str	x1, [x0, #56]
  403874:	f94013a0 	ldr	x0, [x29, #32]
  403878:	f9401000 	ldr	x0, [x0, #32]
  40387c:	d2800103 	mov	x3, #0x8                   	// #8
  403880:	52800002 	mov	w2, #0x0                   	// #0
  403884:	d2800101 	mov	x1, #0x8                   	// #8
  403888:	97fff847 	bl	4019a4 <LTR_MemSet>
  40388c:	f0000480 	adrp	x0, 496000 <nsData+0x550>
  403890:	913b8000 	add	x0, x0, #0xee0
  403894:	f9402400 	ldr	x0, [x0, #72]
  403898:	91000401 	add	x1, x0, #0x1
  40389c:	f0000480 	adrp	x0, 496000 <nsData+0x550>
  4038a0:	913b8000 	add	x0, x0, #0xee0
  4038a4:	f9002401 	str	x1, [x0, #72]
  4038a8:	f94013a0 	ldr	x0, [x29, #32]
  4038ac:	b9400805 	ldr	w5, [x0, #8]
  4038b0:	f94013a0 	ldr	x0, [x29, #32]
  4038b4:	b9400401 	ldr	w1, [x0, #4]
  4038b8:	f94013a0 	ldr	x0, [x29, #32]
  4038bc:	b9400c02 	ldr	w2, [x0, #12]
  4038c0:	f94013a0 	ldr	x0, [x29, #32]
  4038c4:	f9401000 	ldr	x0, [x0, #32]
  4038c8:	aa0003e4 	mov	x4, x0
  4038cc:	2a0203e3 	mov	w3, w2
  4038d0:	2a0103e2 	mov	w2, w1
  4038d4:	52800001 	mov	w1, #0x0                   	// #0
  4038d8:	2a0503e0 	mov	w0, w5
  4038dc:	97fff928 	bl	401d7c <get_static_qp>
  4038e0:	b9002fa0 	str	w0, [x29, #44]
  4038e4:	b9402fa0 	ldr	w0, [x29, #44]
  4038e8:	7100001f 	cmp	w0, #0x0
  4038ec:	54000820 	b.eq	4039f0 <XXCOMM_E2E_CreateForwardChn+0x414>  // b.none
  4038f0:	f0000480 	adrp	x0, 496000 <nsData+0x550>
  4038f4:	913b8000 	add	x0, x0, #0xee0
  4038f8:	f9402800 	ldr	x0, [x0, #80]
  4038fc:	91000401 	add	x1, x0, #0x1
  403900:	f0000480 	adrp	x0, 496000 <nsData+0x550>
  403904:	913b8000 	add	x0, x0, #0xee0
  403908:	f9002801 	str	x1, [x0, #80]
  40390c:	f94013a0 	ldr	x0, [x29, #32]
  403910:	b9400000 	ldr	w0, [x0]
  403914:	2a0003e1 	mov	w1, w0
  403918:	f94013a0 	ldr	x0, [x29, #32]
  40391c:	b9400400 	ldr	w0, [x0, #4]
  403920:	2a0003e2 	mov	w2, w0
  403924:	b9402fa0 	ldr	w0, [x29, #44]
  403928:	2a0003e3 	mov	w3, w0
  40392c:	d0000280 	adrp	x0, 455000 <_IO_stdin_used+0x2c0>
  403930:	911d8000 	add	x0, x0, #0x760
  403934:	aa0303e6 	mov	x6, x3
  403938:	aa0203e5 	mov	x5, x2
  40393c:	aa0103e4 	mov	x4, x1
  403940:	2f00e400 	movi	d0, #0x0
  403944:	aa0003e3 	mov	x3, x0
  403948:	d2800042 	mov	x2, #0x2                   	// #2
  40394c:	d2802201 	mov	x1, #0x110                 	// #272
  403950:	f2a9ce01 	movk	x1, #0x4e70, lsl #16
  403954:	f2ced2c1 	movk	x1, #0x7696, lsl #32
  403958:	f2fa5681 	movk	x1, #0xd2b4, lsl #48
  40395c:	52800060 	mov	w0, #0x3                   	// #3
  403960:	97fff73e 	bl	401658 <LTR_Log>
  403964:	f0000480 	adrp	x0, 496000 <nsData+0x550>
  403968:	913b8000 	add	x0, x0, #0xee0
  40396c:	f9403000 	ldr	x0, [x0, #96]
  403970:	91000401 	add	x1, x0, #0x1
  403974:	f0000480 	adrp	x0, 496000 <nsData+0x550>
  403978:	913b8000 	add	x0, x0, #0xee0
  40397c:	f9003001 	str	x1, [x0, #96]
  403980:	f94013a0 	ldr	x0, [x29, #32]
  403984:	b9400800 	ldr	w0, [x0, #8]
  403988:	2a0003e1 	mov	w1, w0
  40398c:	b9402fa0 	ldr	w0, [x29, #44]
  403990:	2a0003e2 	mov	w2, w0
  403994:	d0000280 	adrp	x0, 455000 <_IO_stdin_used+0x2c0>
  403998:	911ee000 	add	x0, x0, #0x7b8
  40399c:	d2800006 	mov	x6, #0x0                   	// #0
  4039a0:	aa0203e5 	mov	x5, x2
  4039a4:	aa0103e4 	mov	x4, x1
  4039a8:	2f00e400 	movi	d0, #0x0
  4039ac:	aa0003e3 	mov	x3, x0
  4039b0:	d2800042 	mov	x2, #0x2                   	// #2
  4039b4:	d2802241 	mov	x1, #0x112                 	// #274
  4039b8:	f2a9ce01 	movk	x1, #0x4e70, lsl #16
  4039bc:	f2ced2c1 	movk	x1, #0x7696, lsl #32
  4039c0:	f2fa5681 	movk	x1, #0xd2b4, lsl #48
  4039c4:	52800060 	mov	w0, #0x3                   	// #3
  4039c8:	97fff724 	bl	401658 <LTR_Log>
  4039cc:	b9402fa0 	ldr	w0, [x29, #44]
  4039d0:	f0000481 	adrp	x1, 496000 <nsData+0x550>
  4039d4:	913b8021 	add	x1, x1, #0xee0
  4039d8:	f9403421 	ldr	x1, [x1, #104]
  4039dc:	91000422 	add	x2, x1, #0x1
  4039e0:	f0000481 	adrp	x1, 496000 <nsData+0x550>
  4039e4:	913b8021 	add	x1, x1, #0xee0
  4039e8:	f9003422 	str	x2, [x1, #104]
  4039ec:	14000044 	b	403afc <XXCOMM_E2E_CreateForwardChn+0x520>
  4039f0:	f0000480 	adrp	x0, 496000 <nsData+0x550>
  4039f4:	913b8000 	add	x0, x0, #0xee0
  4039f8:	f9402c00 	ldr	x0, [x0, #88]
  4039fc:	91000401 	add	x1, x0, #0x1
  403a00:	f0000480 	adrp	x0, 496000 <nsData+0x550>
  403a04:	913b8000 	add	x0, x0, #0xee0
  403a08:	f9002c01 	str	x1, [x0, #88]
  403a0c:	f94013a0 	ldr	x0, [x29, #32]
  403a10:	52800021 	mov	w1, #0x1                   	// #1
  403a14:	b9016001 	str	w1, [x0, #352]
  403a18:	f94013a0 	ldr	x0, [x29, #32]
  403a1c:	b9400000 	ldr	w0, [x0]
  403a20:	2a0003e1 	mov	w1, w0
  403a24:	f94013a0 	ldr	x0, [x29, #32]
  403a28:	b9400400 	ldr	w0, [x0, #4]
  403a2c:	2a0003e2 	mov	w2, w0
  403a30:	d0000280 	adrp	x0, 455000 <_IO_stdin_used+0x2c0>
  403a34:	91200000 	add	x0, x0, #0x800
  403a38:	d2800006 	mov	x6, #0x0                   	// #0
  403a3c:	aa0203e5 	mov	x5, x2
  403a40:	aa0103e4 	mov	x4, x1
  403a44:	2f00e400 	movi	d0, #0x0
  403a48:	aa0003e3 	mov	x3, x0
  403a4c:	d2800082 	mov	x2, #0x4                   	// #4
  403a50:	d2802301 	mov	x1, #0x118                 	// #280
  403a54:	f2a9ce01 	movk	x1, #0x4e70, lsl #16
  403a58:	f2ced2c1 	movk	x1, #0x7696, lsl #32
  403a5c:	f2fa5681 	movk	x1, #0xd2b4, lsl #48
  403a60:	52800060 	mov	w0, #0x3                   	// #3
  403a64:	97fff6fd 	bl	401658 <LTR_Log>
  403a68:	f0000480 	adrp	x0, 496000 <nsData+0x550>
  403a6c:	913b8000 	add	x0, x0, #0xee0
  403a70:	f9403800 	ldr	x0, [x0, #112]
  403a74:	91000401 	add	x1, x0, #0x1
  403a78:	f0000480 	adrp	x0, 496000 <nsData+0x550>
  403a7c:	913b8000 	add	x0, x0, #0xee0
  403a80:	f9003801 	str	x1, [x0, #112]
  403a84:	f94013a0 	ldr	x0, [x29, #32]
  403a88:	f9401000 	ldr	x0, [x0, #32]
  403a8c:	b9400000 	ldr	w0, [x0]
  403a90:	2a0003e1 	mov	w1, w0
  403a94:	f94013a0 	ldr	x0, [x29, #32]
  403a98:	f9401000 	ldr	x0, [x0, #32]
  403a9c:	b9400400 	ldr	w0, [x0, #4]
  403aa0:	2a0003e2 	mov	w2, w0
  403aa4:	d0000280 	adrp	x0, 455000 <_IO_stdin_used+0x2c0>
  403aa8:	91214000 	add	x0, x0, #0x850
  403aac:	d2800006 	mov	x6, #0x0                   	// #0
  403ab0:	aa0203e5 	mov	x5, x2
  403ab4:	aa0103e4 	mov	x4, x1
  403ab8:	2f00e400 	movi	d0, #0x0
  403abc:	aa0003e3 	mov	x3, x0
  403ac0:	d2800082 	mov	x2, #0x4                   	// #4
  403ac4:	d2802341 	mov	x1, #0x11a                 	// #282
  403ac8:	f2a9ce01 	movk	x1, #0x4e70, lsl #16
  403acc:	f2ced2c1 	movk	x1, #0x7696, lsl #32
  403ad0:	f2fa5681 	movk	x1, #0xd2b4, lsl #48
  403ad4:	52800060 	mov	w0, #0x3                   	// #3
  403ad8:	97fff6e0 	bl	401658 <LTR_Log>
  403adc:	52800000 	mov	w0, #0x0                   	// #0
  403ae0:	f0000481 	adrp	x1, 496000 <nsData+0x550>
  403ae4:	913b8021 	add	x1, x1, #0xee0
  403ae8:	f9403c21 	ldr	x1, [x1, #120]
  403aec:	91000422 	add	x2, x1, #0x1
  403af0:	f0000481 	adrp	x1, 496000 <nsData+0x550>
  403af4:	913b8021 	add	x1, x1, #0xee0
  403af8:	f9003c22 	str	x2, [x1, #120]
  403afc:	a8c37bfd 	ldp	x29, x30, [sp], #48
  403b00:	d65f03c0 	ret

0000000000403b04 <XXCOMM_E2E_DeleteForwardChn>:
  403b04:	a9bd7bfd 	stp	x29, x30, [sp, #-48]!
  403b08:	910003fd 	mov	x29, sp
  403b0c:	f9000fa0 	str	x0, [x29, #24]
  403b10:	f90017bf 	str	xzr, [x29, #40]
  403b14:	f9400fa0 	ldr	x0, [x29, #24]
  403b18:	f100001f 	cmp	x0, #0x0
  403b1c:	54000401 	b.ne	403b9c <XXCOMM_E2E_DeleteForwardChn+0x98>  // b.any
  403b20:	f0000480 	adrp	x0, 496000 <nsData+0x550>
  403b24:	91390000 	add	x0, x0, #0xe40
  403b28:	f9400000 	ldr	x0, [x0]
  403b2c:	91000401 	add	x1, x0, #0x1
  403b30:	f0000480 	adrp	x0, 496000 <nsData+0x550>
  403b34:	91390000 	add	x0, x0, #0xe40
  403b38:	f9000001 	str	x1, [x0]
  403b3c:	d0000280 	adrp	x0, 455000 <_IO_stdin_used+0x2c0>
  403b40:	91222000 	add	x0, x0, #0x888
  403b44:	d2800006 	mov	x6, #0x0                   	// #0
  403b48:	d2800005 	mov	x5, #0x0                   	// #0
  403b4c:	d2800004 	mov	x4, #0x0                   	// #0
  403b50:	2f00e400 	movi	d0, #0x0
  403b54:	aa0003e3 	mov	x3, x0
  403b58:	d2800042 	mov	x2, #0x2                   	// #2
  403b5c:	d2802481 	mov	x1, #0x124                 	// #292
  403b60:	f2a9ce01 	movk	x1, #0x4e70, lsl #16
  403b64:	f2ced2c1 	movk	x1, #0x7696, lsl #32
  403b68:	f2fa5681 	movk	x1, #0xd2b4, lsl #48
  403b6c:	52800060 	mov	w0, #0x3                   	// #3
  403b70:	97fff6ba 	bl	401658 <LTR_Log>
  403b74:	52800ae2 	mov	w2, #0x57                  	// #87
  403b78:	72b06062 	movk	w2, #0x8303, lsl #16
  403b7c:	f0000480 	adrp	x0, 496000 <nsData+0x550>
  403b80:	91390000 	add	x0, x0, #0xe40
  403b84:	f9400800 	ldr	x0, [x0, #16]
  403b88:	91000401 	add	x1, x0, #0x1
  403b8c:	f0000480 	adrp	x0, 496000 <nsData+0x550>
  403b90:	91390000 	add	x0, x0, #0xe40
  403b94:	f9000801 	str	x1, [x0, #16]
  403b98:	14000122 	b	404020 <XXCOMM_E2E_DeleteForwardChn+0x51c>
  403b9c:	f0000480 	adrp	x0, 496000 <nsData+0x550>
  403ba0:	91390000 	add	x0, x0, #0xe40
  403ba4:	f9400400 	ldr	x0, [x0, #8]
  403ba8:	91000401 	add	x1, x0, #0x1
  403bac:	f0000480 	adrp	x0, 496000 <nsData+0x550>
  403bb0:	91390000 	add	x0, x0, #0xe40
  403bb4:	f9000401 	str	x1, [x0, #8]
  403bb8:	f9400fa0 	ldr	x0, [x29, #24]
  403bbc:	f90017a0 	str	x0, [x29, #40]
  403bc0:	f94017a0 	ldr	x0, [x29, #40]
  403bc4:	b9400800 	ldr	w0, [x0, #8]
  403bc8:	2a0003e1 	mov	w1, w0
  403bcc:	f94017a0 	ldr	x0, [x29, #40]
  403bd0:	b9400000 	ldr	w0, [x0]
  403bd4:	2a0003e2 	mov	w2, w0
  403bd8:	f94017a0 	ldr	x0, [x29, #40]
  403bdc:	b9400400 	ldr	w0, [x0, #4]
  403be0:	2a0003e3 	mov	w3, w0
  403be4:	d0000280 	adrp	x0, 455000 <_IO_stdin_used+0x2c0>
  403be8:	91230000 	add	x0, x0, #0x8c0
  403bec:	aa0303e6 	mov	x6, x3
  403bf0:	aa0203e5 	mov	x5, x2
  403bf4:	aa0103e4 	mov	x4, x1
  403bf8:	2f00e400 	movi	d0, #0x0
  403bfc:	aa0003e3 	mov	x3, x0
  403c00:	d2800082 	mov	x2, #0x4                   	// #4
  403c04:	d2802541 	mov	x1, #0x12a                 	// #298
  403c08:	f2a9ce01 	movk	x1, #0x4e70, lsl #16
  403c0c:	f2ced2c1 	movk	x1, #0x7696, lsl #32
  403c10:	f2fa5681 	movk	x1, #0xd2b4, lsl #48
  403c14:	52800060 	mov	w0, #0x3                   	// #3
  403c18:	97fff690 	bl	401658 <LTR_Log>
  403c1c:	f0000480 	adrp	x0, 496000 <nsData+0x550>
  403c20:	91390000 	add	x0, x0, #0xe40
  403c24:	f9400c00 	ldr	x0, [x0, #24]
  403c28:	91000401 	add	x1, x0, #0x1
  403c2c:	f0000480 	adrp	x0, 496000 <nsData+0x550>
  403c30:	91390000 	add	x0, x0, #0xe40
  403c34:	f9000c01 	str	x1, [x0, #24]
  403c38:	f94017a0 	ldr	x0, [x29, #40]
  403c3c:	b901601f 	str	wzr, [x0, #352]
  403c40:	f94017a0 	ldr	x0, [x29, #40]
  403c44:	f9401000 	ldr	x0, [x0, #32]
  403c48:	94009a1f 	bl	42a4c4 <XXCOMM_E2E_FreeStaticQP>
  403c4c:	b90027a0 	str	w0, [x29, #36]
  403c50:	f0000480 	adrp	x0, 496000 <nsData+0x550>
  403c54:	91390000 	add	x0, x0, #0xe40
  403c58:	f9401000 	ldr	x0, [x0, #32]
  403c5c:	91000401 	add	x1, x0, #0x1
  403c60:	f0000480 	adrp	x0, 496000 <nsData+0x550>
  403c64:	91390000 	add	x0, x0, #0xe40
  403c68:	f9001001 	str	x1, [x0, #32]
  403c6c:	b94027a0 	ldr	w0, [x29, #36]
  403c70:	7100001f 	cmp	w0, #0x0
  403c74:	540004a0 	b.eq	403d08 <XXCOMM_E2E_DeleteForwardChn+0x204>  // b.none
  403c78:	f0000480 	adrp	x0, 496000 <nsData+0x550>
  403c7c:	91390000 	add	x0, x0, #0xe40
  403c80:	f9401400 	ldr	x0, [x0, #40]
  403c84:	91000401 	add	x1, x0, #0x1
  403c88:	f0000480 	adrp	x0, 496000 <nsData+0x550>
  403c8c:	91390000 	add	x0, x0, #0xe40
  403c90:	f9001401 	str	x1, [x0, #40]
  403c94:	f94017a0 	ldr	x0, [x29, #40]
  403c98:	b9400000 	ldr	w0, [x0]
  403c9c:	2a0003e1 	mov	w1, w0
  403ca0:	f94017a0 	ldr	x0, [x29, #40]
  403ca4:	b9400400 	ldr	w0, [x0, #4]
  403ca8:	2a0003e2 	mov	w2, w0
  403cac:	b94027a0 	ldr	w0, [x29, #36]
  403cb0:	2a0003e3 	mov	w3, w0
  403cb4:	d0000280 	adrp	x0, 455000 <_IO_stdin_used+0x2c0>
  403cb8:	91242000 	add	x0, x0, #0x908
  403cbc:	aa0303e6 	mov	x6, x3
  403cc0:	aa0203e5 	mov	x5, x2
  403cc4:	aa0103e4 	mov	x4, x1
  403cc8:	2f00e400 	movi	d0, #0x0
  403ccc:	aa0003e3 	mov	x3, x0
  403cd0:	d2800042 	mov	x2, #0x2                   	// #2
  403cd4:	d2802601 	mov	x1, #0x130                 	// #304
  403cd8:	f2a9ce01 	movk	x1, #0x4e70, lsl #16
  403cdc:	f2ced2c1 	movk	x1, #0x7696, lsl #32
  403ce0:	f2fa5681 	movk	x1, #0xd2b4, lsl #48
  403ce4:	52800060 	mov	w0, #0x3                   	// #3
  403ce8:	97fff65c 	bl	401658 <LTR_Log>
  403cec:	f0000480 	adrp	x0, 496000 <nsData+0x550>
  403cf0:	91390000 	add	x0, x0, #0xe40
  403cf4:	f9401800 	ldr	x0, [x0, #48]
  403cf8:	91000401 	add	x1, x0, #0x1
  403cfc:	f0000480 	adrp	x0, 496000 <nsData+0x550>
  403d00:	91390000 	add	x0, x0, #0xe40
  403d04:	f9001801 	str	x1, [x0, #48]
  403d08:	f94017a0 	ldr	x0, [x29, #40]
  403d0c:	b9400803 	ldr	w3, [x0, #8]
  403d10:	f94017a0 	ldr	x0, [x29, #40]
  403d14:	91004000 	add	x0, x0, #0x10
  403d18:	52800022 	mov	w2, #0x1                   	// #1
  403d1c:	aa0003e1 	mov	x1, x0
  403d20:	2a0303e0 	mov	w0, w3
  403d24:	94009935 	bl	42a1f8 <XXCOMM_E2E_FreeMemAddr>
  403d28:	f0000480 	adrp	x0, 496000 <nsData+0x550>
  403d2c:	91390000 	add	x0, x0, #0xe40
  403d30:	f9401c00 	ldr	x0, [x0, #56]
  403d34:	91000401 	add	x1, x0, #0x1
  403d38:	f0000480 	adrp	x0, 496000 <nsData+0x550>
  403d3c:	91390000 	add	x0, x0, #0xe40
  403d40:	f9001c01 	str	x1, [x0, #56]
  403d44:	f94017a0 	ldr	x0, [x29, #40]
  403d48:	b9400803 	ldr	w3, [x0, #8]
  403d4c:	f94017a0 	ldr	x0, [x29, #40]
  403d50:	91006000 	add	x0, x0, #0x18
  403d54:	52800042 	mov	w2, #0x2                   	// #2
  403d58:	aa0003e1 	mov	x1, x0
  403d5c:	2a0303e0 	mov	w0, w3
  403d60:	94009926 	bl	42a1f8 <XXCOMM_E2E_FreeMemAddr>
  403d64:	f0000480 	adrp	x0, 496000 <nsData+0x550>
  403d68:	91390000 	add	x0, x0, #0xe40
  403d6c:	f9402000 	ldr	x0, [x0, #64]
  403d70:	91000401 	add	x1, x0, #0x1
  403d74:	f0000480 	adrp	x0, 496000 <nsData+0x550>
  403d78:	91390000 	add	x0, x0, #0xe40
  403d7c:	f9002001 	str	x1, [x0, #64]
  403d80:	f94017a0 	ldr	x0, [x29, #40]
  403d84:	b9400803 	ldr	w3, [x0, #8]
  403d88:	f94017a0 	ldr	x0, [x29, #40]
  403d8c:	9100c000 	add	x0, x0, #0x30
  403d90:	52800062 	mov	w2, #0x3                   	// #3
  403d94:	aa0003e1 	mov	x1, x0
  403d98:	2a0303e0 	mov	w0, w3
  403d9c:	94009917 	bl	42a1f8 <XXCOMM_E2E_FreeMemAddr>
  403da0:	f0000480 	adrp	x0, 496000 <nsData+0x550>
  403da4:	91390000 	add	x0, x0, #0xe40
  403da8:	f9402400 	ldr	x0, [x0, #72]
  403dac:	91000401 	add	x1, x0, #0x1
  403db0:	f0000480 	adrp	x0, 496000 <nsData+0x550>
  403db4:	91390000 	add	x0, x0, #0xe40
  403db8:	f9002401 	str	x1, [x0, #72]
  403dbc:	f94017a0 	ldr	x0, [x29, #40]
  403dc0:	b9400803 	ldr	w3, [x0, #8]
  403dc4:	f94017a0 	ldr	x0, [x29, #40]
  403dc8:	9100a000 	add	x0, x0, #0x28
  403dcc:	52800082 	mov	w2, #0x4                   	// #4
  403dd0:	aa0003e1 	mov	x1, x0
  403dd4:	2a0303e0 	mov	w0, w3
  403dd8:	94009908 	bl	42a1f8 <XXCOMM_E2E_FreeMemAddr>
  403ddc:	f0000480 	adrp	x0, 496000 <nsData+0x550>
  403de0:	91390000 	add	x0, x0, #0xe40
  403de4:	f9402800 	ldr	x0, [x0, #80]
  403de8:	91000401 	add	x1, x0, #0x1
  403dec:	f0000480 	adrp	x0, 496000 <nsData+0x550>
  403df0:	91390000 	add	x0, x0, #0xe40
  403df4:	f9002801 	str	x1, [x0, #80]
  403df8:	f94017a0 	ldr	x0, [x29, #40]
  403dfc:	b9400803 	ldr	w3, [x0, #8]
  403e00:	f94017a0 	ldr	x0, [x29, #40]
  403e04:	9101a000 	add	x0, x0, #0x68
  403e08:	528000a2 	mov	w2, #0x5                   	// #5
  403e0c:	aa0003e1 	mov	x1, x0
  403e10:	2a0303e0 	mov	w0, w3
  403e14:	940098f9 	bl	42a1f8 <XXCOMM_E2E_FreeMemAddr>
  403e18:	f0000480 	adrp	x0, 496000 <nsData+0x550>
  403e1c:	91390000 	add	x0, x0, #0xe40
  403e20:	f9402c00 	ldr	x0, [x0, #88]
  403e24:	91000401 	add	x1, x0, #0x1
  403e28:	f0000480 	adrp	x0, 496000 <nsData+0x550>
  403e2c:	91390000 	add	x0, x0, #0xe40
  403e30:	f9002c01 	str	x1, [x0, #88]
  403e34:	f94017a0 	ldr	x0, [x29, #40]
  403e38:	b9400803 	ldr	w3, [x0, #8]
  403e3c:	f94017a0 	ldr	x0, [x29, #40]
  403e40:	91018000 	add	x0, x0, #0x60
  403e44:	528000c2 	mov	w2, #0x6                   	// #6
  403e48:	aa0003e1 	mov	x1, x0
  403e4c:	2a0303e0 	mov	w0, w3
  403e50:	940098ea 	bl	42a1f8 <XXCOMM_E2E_FreeMemAddr>
  403e54:	f0000480 	adrp	x0, 496000 <nsData+0x550>
  403e58:	91390000 	add	x0, x0, #0xe40
  403e5c:	f9403000 	ldr	x0, [x0, #96]
  403e60:	91000401 	add	x1, x0, #0x1
  403e64:	f0000480 	adrp	x0, 496000 <nsData+0x550>
  403e68:	91390000 	add	x0, x0, #0xe40
  403e6c:	f9003001 	str	x1, [x0, #96]
  403e70:	f94017a0 	ldr	x0, [x29, #40]
  403e74:	b9400803 	ldr	w3, [x0, #8]
  403e78:	f94017a0 	ldr	x0, [x29, #40]
  403e7c:	91026000 	add	x0, x0, #0x98
  403e80:	528000e2 	mov	w2, #0x7                   	// #7
  403e84:	aa0003e1 	mov	x1, x0
  403e88:	2a0303e0 	mov	w0, w3
  403e8c:	940098db 	bl	42a1f8 <XXCOMM_E2E_FreeMemAddr>
  403e90:	f0000480 	adrp	x0, 496000 <nsData+0x550>
  403e94:	91390000 	add	x0, x0, #0xe40
  403e98:	f9403400 	ldr	x0, [x0, #104]
  403e9c:	91000401 	add	x1, x0, #0x1
  403ea0:	f0000480 	adrp	x0, 496000 <nsData+0x550>
  403ea4:	91390000 	add	x0, x0, #0xe40
  403ea8:	f9003401 	str	x1, [x0, #104]
  403eac:	f94017a0 	ldr	x0, [x29, #40]
  403eb0:	b9400803 	ldr	w3, [x0, #8]
  403eb4:	f94017a0 	ldr	x0, [x29, #40]
  403eb8:	91024000 	add	x0, x0, #0x90
  403ebc:	52800102 	mov	w2, #0x8                   	// #8
  403ec0:	aa0003e1 	mov	x1, x0
  403ec4:	2a0303e0 	mov	w0, w3
  403ec8:	940098cc 	bl	42a1f8 <XXCOMM_E2E_FreeMemAddr>
  403ecc:	f0000480 	adrp	x0, 496000 <nsData+0x550>
  403ed0:	91390000 	add	x0, x0, #0xe40
  403ed4:	f9403800 	ldr	x0, [x0, #112]
  403ed8:	91000401 	add	x1, x0, #0x1
  403edc:	f0000480 	adrp	x0, 496000 <nsData+0x550>
  403ee0:	91390000 	add	x0, x0, #0xe40
  403ee4:	f9003801 	str	x1, [x0, #112]
  403ee8:	f94017a0 	ldr	x0, [x29, #40]
  403eec:	b9400803 	ldr	w3, [x0, #8]
  403ef0:	f94017a0 	ldr	x0, [x29, #40]
  403ef4:	91032000 	add	x0, x0, #0xc8
  403ef8:	52800122 	mov	w2, #0x9                   	// #9
  403efc:	aa0003e1 	mov	x1, x0
  403f00:	2a0303e0 	mov	w0, w3
  403f04:	940098bd 	bl	42a1f8 <XXCOMM_E2E_FreeMemAddr>
  403f08:	f0000480 	adrp	x0, 496000 <nsData+0x550>
  403f0c:	91390000 	add	x0, x0, #0xe40
  403f10:	f9403c00 	ldr	x0, [x0, #120]
  403f14:	91000401 	add	x1, x0, #0x1
  403f18:	f0000480 	adrp	x0, 496000 <nsData+0x550>
  403f1c:	91390000 	add	x0, x0, #0xe40
  403f20:	f9003c01 	str	x1, [x0, #120]
  403f24:	f94017a0 	ldr	x0, [x29, #40]
  403f28:	b9400803 	ldr	w3, [x0, #8]
  403f2c:	f94017a0 	ldr	x0, [x29, #40]
  403f30:	91030000 	add	x0, x0, #0xc0
  403f34:	52800142 	mov	w2, #0xa                   	// #10
  403f38:	aa0003e1 	mov	x1, x0
  403f3c:	2a0303e0 	mov	w0, w3
  403f40:	940098ae 	bl	42a1f8 <XXCOMM_E2E_FreeMemAddr>
  403f44:	f0000480 	adrp	x0, 496000 <nsData+0x550>
  403f48:	91390000 	add	x0, x0, #0xe40
  403f4c:	f9404000 	ldr	x0, [x0, #128]
  403f50:	91000401 	add	x1, x0, #0x1
  403f54:	f0000480 	adrp	x0, 496000 <nsData+0x550>
  403f58:	91390000 	add	x0, x0, #0xe40
  403f5c:	f9004001 	str	x1, [x0, #128]
  403f60:	f94017a0 	ldr	x0, [x29, #40]
  403f64:	91016000 	add	x0, x0, #0x58
  403f68:	94009597 	bl	4295c4 <XXCOMM_E2E_FreeDynamicQP>
  403f6c:	f0000480 	adrp	x0, 496000 <nsData+0x550>
  403f70:	91390000 	add	x0, x0, #0xe40
  403f74:	f9404400 	ldr	x0, [x0, #136]
  403f78:	91000401 	add	x1, x0, #0x1
  403f7c:	f0000480 	adrp	x0, 496000 <nsData+0x550>
  403f80:	91390000 	add	x0, x0, #0xe40
  403f84:	f9004401 	str	x1, [x0, #136]
  403f88:	f94017a0 	ldr	x0, [x29, #40]
  403f8c:	9103c000 	add	x0, x0, #0xf0
  403f90:	9400958d 	bl	4295c4 <XXCOMM_E2E_FreeDynamicQP>
  403f94:	f0000480 	adrp	x0, 496000 <nsData+0x550>
  403f98:	91390000 	add	x0, x0, #0xe40
  403f9c:	f9404800 	ldr	x0, [x0, #144]
  403fa0:	91000401 	add	x1, x0, #0x1
  403fa4:	f0000480 	adrp	x0, 496000 <nsData+0x550>
  403fa8:	91390000 	add	x0, x0, #0xe40
  403fac:	f9004801 	str	x1, [x0, #144]
  403fb0:	f94017a0 	ldr	x0, [x29, #40]
  403fb4:	b9400000 	ldr	w0, [x0]
  403fb8:	2a0003e1 	mov	w1, w0
  403fbc:	f94017a0 	ldr	x0, [x29, #40]
  403fc0:	b9400400 	ldr	w0, [x0, #4]
  403fc4:	2a0003e2 	mov	w2, w0
  403fc8:	d0000280 	adrp	x0, 455000 <_IO_stdin_used+0x2c0>
  403fcc:	91258000 	add	x0, x0, #0x960
  403fd0:	d2800006 	mov	x6, #0x0                   	// #0
  403fd4:	aa0203e5 	mov	x5, x2
  403fd8:	aa0103e4 	mov	x4, x1
  403fdc:	2f00e400 	movi	d0, #0x0
  403fe0:	aa0003e3 	mov	x3, x0
  403fe4:	d2800082 	mov	x2, #0x4                   	// #4
  403fe8:	d2802841 	mov	x1, #0x142                 	// #322
  403fec:	f2a9ce01 	movk	x1, #0x4e70, lsl #16
  403ff0:	f2ced2c1 	movk	x1, #0x7696, lsl #32
  403ff4:	f2fa5681 	movk	x1, #0xd2b4, lsl #48
  403ff8:	52800060 	mov	w0, #0x3                   	// #3
  403ffc:	97fff597 	bl	401658 <LTR_Log>
  404000:	52800002 	mov	w2, #0x0                   	// #0
  404004:	d0000480 	adrp	x0, 496000 <nsData+0x550>
  404008:	91390000 	add	x0, x0, #0xe40
  40400c:	f9404c00 	ldr	x0, [x0, #152]
  404010:	91000401 	add	x1, x0, #0x1
  404014:	d0000480 	adrp	x0, 496000 <nsData+0x550>
  404018:	91390000 	add	x0, x0, #0xe40
  40401c:	f9004c01 	str	x1, [x0, #152]
  404020:	2a0203e0 	mov	w0, w2
  404024:	a8c37bfd 	ldp	x29, x30, [sp], #48
  404028:	d65f03c0 	ret

000000000040402c <XXCOMM_E2E_CreateSyncChn>:
  40402c:	a9bd7bfd 	stp	x29, x30, [sp, #-48]!
  404030:	910003fd 	mov	x29, sp
  404034:	f9000fa0 	str	x0, [x29, #24]
  404038:	f9000ba1 	str	x1, [x29, #16]
  40403c:	d0000480 	adrp	x0, 496000 <nsData+0x550>
  404040:	91366000 	add	x0, x0, #0xd98
  404044:	f9400000 	ldr	x0, [x0]
  404048:	91000401 	add	x1, x0, #0x1
  40404c:	d0000480 	adrp	x0, 496000 <nsData+0x550>
  404050:	91366000 	add	x0, x0, #0xd98
  404054:	f9000001 	str	x1, [x0]
  404058:	f90017bf 	str	xzr, [x29, #40]
  40405c:	f9400fa0 	ldr	x0, [x29, #24]
  404060:	f100001f 	cmp	x0, #0x0
  404064:	54000160 	b.eq	404090 <XXCOMM_E2E_CreateSyncChn+0x64>  // b.none
  404068:	d0000480 	adrp	x0, 496000 <nsData+0x550>
  40406c:	91366000 	add	x0, x0, #0xd98
  404070:	f9400400 	ldr	x0, [x0, #8]
  404074:	91000401 	add	x1, x0, #0x1
  404078:	d0000480 	adrp	x0, 496000 <nsData+0x550>
  40407c:	91366000 	add	x0, x0, #0xd98
  404080:	f9000401 	str	x1, [x0, #8]
  404084:	f9400ba0 	ldr	x0, [x29, #16]
  404088:	f100001f 	cmp	x0, #0x0
  40408c:	54000361 	b.ne	4040f8 <XXCOMM_E2E_CreateSyncChn+0xcc>  // b.any
  404090:	f9400fa1 	ldr	x1, [x29, #24]
  404094:	f9400ba2 	ldr	x2, [x29, #16]
  404098:	b0000280 	adrp	x0, 455000 <_IO_stdin_used+0x2c0>
  40409c:	91124000 	add	x0, x0, #0x490
  4040a0:	d2800006 	mov	x6, #0x0                   	// #0
  4040a4:	aa0203e5 	mov	x5, x2
  4040a8:	aa0103e4 	mov	x4, x1
  4040ac:	2f00e400 	movi	d0, #0x0
  4040b0:	aa0003e3 	mov	x3, x0
  4040b4:	d2800042 	mov	x2, #0x2                   	// #2
  4040b8:	d28029a1 	mov	x1, #0x14d                 	// #333
  4040bc:	f2a9ce01 	movk	x1, #0x4e70, lsl #16
  4040c0:	f2ced2c1 	movk	x1, #0x7696, lsl #32
  4040c4:	f2fa5681 	movk	x1, #0xd2b4, lsl #48
  4040c8:	52800060 	mov	w0, #0x3                   	// #3
  4040cc:	97fff563 	bl	401658 <LTR_Log>
  4040d0:	52800a00 	mov	w0, #0x50                  	// #80
  4040d4:	72b06060 	movk	w0, #0x8303, lsl #16
  4040d8:	d0000481 	adrp	x1, 496000 <nsData+0x550>
  4040dc:	91366021 	add	x1, x1, #0xd98
  4040e0:	f9400c21 	ldr	x1, [x1, #24]
  4040e4:	91000422 	add	x2, x1, #0x1
  4040e8:	d0000481 	adrp	x1, 496000 <nsData+0x550>
  4040ec:	91366021 	add	x1, x1, #0xd98
  4040f0:	f9000c22 	str	x2, [x1, #24]
  4040f4:	14000174 	b	4046c4 <XXCOMM_E2E_CreateSyncChn+0x698>
  4040f8:	d0000480 	adrp	x0, 496000 <nsData+0x550>
  4040fc:	91366000 	add	x0, x0, #0xd98
  404100:	f9400800 	ldr	x0, [x0, #16]
  404104:	91000401 	add	x1, x0, #0x1
  404108:	d0000480 	adrp	x0, 496000 <nsData+0x550>
  40410c:	91366000 	add	x0, x0, #0xd98
  404110:	f9000801 	str	x1, [x0, #16]
  404114:	f9400fa0 	ldr	x0, [x29, #24]
  404118:	f90017a0 	str	x0, [x29, #40]
  40411c:	f94017a0 	ldr	x0, [x29, #40]
  404120:	b9400001 	ldr	w1, [x0]
  404124:	f9400ba0 	ldr	x0, [x29, #16]
  404128:	b9400000 	ldr	w0, [x0]
  40412c:	6b00003f 	cmp	w1, w0
  404130:	540001c1 	b.ne	404168 <XXCOMM_E2E_CreateSyncChn+0x13c>  // b.any
  404134:	d0000480 	adrp	x0, 496000 <nsData+0x550>
  404138:	91366000 	add	x0, x0, #0xd98
  40413c:	f9401000 	ldr	x0, [x0, #32]
  404140:	91000401 	add	x1, x0, #0x1
  404144:	d0000480 	adrp	x0, 496000 <nsData+0x550>
  404148:	91366000 	add	x0, x0, #0xd98
  40414c:	f9001001 	str	x1, [x0, #32]
  404150:	f94017a0 	ldr	x0, [x29, #40]
  404154:	b9400401 	ldr	w1, [x0, #4]
  404158:	f9400ba0 	ldr	x0, [x29, #16]
  40415c:	b9400400 	ldr	w0, [x0, #4]
  404160:	6b00003f 	cmp	w1, w0
  404164:	54000740 	b.eq	40424c <XXCOMM_E2E_CreateSyncChn+0x220>  // b.none
  404168:	f94017a0 	ldr	x0, [x29, #40]
  40416c:	b9400000 	ldr	w0, [x0]
  404170:	2a0003e1 	mov	w1, w0
  404174:	f94017a0 	ldr	x0, [x29, #40]
  404178:	b9400400 	ldr	w0, [x0, #4]
  40417c:	2a0003e2 	mov	w2, w0
  404180:	b0000280 	adrp	x0, 455000 <_IO_stdin_used+0x2c0>
  404184:	9126c000 	add	x0, x0, #0x9b0
  404188:	d2800006 	mov	x6, #0x0                   	// #0
  40418c:	aa0203e5 	mov	x5, x2
  404190:	aa0103e4 	mov	x4, x1
  404194:	2f00e400 	movi	d0, #0x0
  404198:	aa0003e3 	mov	x3, x0
  40419c:	d2800042 	mov	x2, #0x2                   	// #2
  4041a0:	d2802a81 	mov	x1, #0x154                 	// #340
  4041a4:	f2a9ce01 	movk	x1, #0x4e70, lsl #16
  4041a8:	f2ced2c1 	movk	x1, #0x7696, lsl #32
  4041ac:	f2fa5681 	movk	x1, #0xd2b4, lsl #48
  4041b0:	52800060 	mov	w0, #0x3                   	// #3
  4041b4:	97fff529 	bl	401658 <LTR_Log>
  4041b8:	d0000480 	adrp	x0, 496000 <nsData+0x550>
  4041bc:	91366000 	add	x0, x0, #0xd98
  4041c0:	f9401400 	ldr	x0, [x0, #40]
  4041c4:	91000401 	add	x1, x0, #0x1
  4041c8:	d0000480 	adrp	x0, 496000 <nsData+0x550>
  4041cc:	91366000 	add	x0, x0, #0xd98
  4041d0:	f9001401 	str	x1, [x0, #40]
  4041d4:	f9400ba0 	ldr	x0, [x29, #16]
  4041d8:	b9400000 	ldr	w0, [x0]
  4041dc:	2a0003e1 	mov	w1, w0
  4041e0:	f9400ba0 	ldr	x0, [x29, #16]
  4041e4:	b9400400 	ldr	w0, [x0, #4]
  4041e8:	2a0003e2 	mov	w2, w0
  4041ec:	b0000280 	adrp	x0, 455000 <_IO_stdin_used+0x2c0>
  4041f0:	91280000 	add	x0, x0, #0xa00
  4041f4:	d2800006 	mov	x6, #0x0                   	// #0
  4041f8:	aa0203e5 	mov	x5, x2
  4041fc:	aa0103e4 	mov	x4, x1
  404200:	2f00e400 	movi	d0, #0x0
  404204:	aa0003e3 	mov	x3, x0
  404208:	d2800042 	mov	x2, #0x2                   	// #2
  40420c:	d2802ac1 	mov	x1, #0x156                 	// #342
  404210:	f2a9ce01 	movk	x1, #0x4e70, lsl #16
  404214:	f2ced2c1 	movk	x1, #0x7696, lsl #32
  404218:	f2fa5681 	movk	x1, #0xd2b4, lsl #48
  40421c:	52800060 	mov	w0, #0x3                   	// #3
  404220:	97fff50e 	bl	401658 <LTR_Log>
  404224:	52800ec0 	mov	w0, #0x76                  	// #118
  404228:	72b06060 	movk	w0, #0x8303, lsl #16
  40422c:	d0000481 	adrp	x1, 496000 <nsData+0x550>
  404230:	91366021 	add	x1, x1, #0xd98
  404234:	f9401821 	ldr	x1, [x1, #48]
  404238:	91000422 	add	x2, x1, #0x1
  40423c:	d0000481 	adrp	x1, 496000 <nsData+0x550>
  404240:	91366021 	add	x1, x1, #0xd98
  404244:	f9001822 	str	x2, [x1, #48]
  404248:	1400011f 	b	4046c4 <XXCOMM_E2E_CreateSyncChn+0x698>
  40424c:	f94017a0 	ldr	x0, [x29, #40]
  404250:	b9400800 	ldr	w0, [x0, #8]
  404254:	7103fc1f 	cmp	w0, #0xff
  404258:	540004a1 	b.ne	4042ec <XXCOMM_E2E_CreateSyncChn+0x2c0>  // b.any
  40425c:	d0000480 	adrp	x0, 496000 <nsData+0x550>
  404260:	91366000 	add	x0, x0, #0xd98
  404264:	f9401c00 	ldr	x0, [x0, #56]
  404268:	91000401 	add	x1, x0, #0x1
  40426c:	d0000480 	adrp	x0, 496000 <nsData+0x550>
  404270:	91366000 	add	x0, x0, #0xd98
  404274:	f9001c01 	str	x1, [x0, #56]
  404278:	f9400ba0 	ldr	x0, [x29, #16]
  40427c:	b9400000 	ldr	w0, [x0]
  404280:	2a0003e1 	mov	w1, w0
  404284:	f9400ba0 	ldr	x0, [x29, #16]
  404288:	b9400400 	ldr	w0, [x0, #4]
  40428c:	2a0003e2 	mov	w2, w0
  404290:	b0000280 	adrp	x0, 455000 <_IO_stdin_used+0x2c0>
  404294:	9128c000 	add	x0, x0, #0xa30
  404298:	d2800006 	mov	x6, #0x0                   	// #0
  40429c:	aa0203e5 	mov	x5, x2
  4042a0:	aa0103e4 	mov	x4, x1
  4042a4:	2f00e400 	movi	d0, #0x0
  4042a8:	aa0003e3 	mov	x3, x0
  4042ac:	d2800062 	mov	x2, #0x3                   	// #3
  4042b0:	d2802b61 	mov	x1, #0x15b                 	// #347
  4042b4:	f2a9ce01 	movk	x1, #0x4e70, lsl #16
  4042b8:	f2ced2c1 	movk	x1, #0x7696, lsl #32
  4042bc:	f2fa5681 	movk	x1, #0xd2b4, lsl #48
  4042c0:	52800060 	mov	w0, #0x3                   	// #3
  4042c4:	97fff4e5 	bl	401658 <LTR_Log>
  4042c8:	52800000 	mov	w0, #0x0                   	// #0
  4042cc:	d0000481 	adrp	x1, 496000 <nsData+0x550>
  4042d0:	91366021 	add	x1, x1, #0xd98
  4042d4:	f9402421 	ldr	x1, [x1, #72]
  4042d8:	91000422 	add	x2, x1, #0x1
  4042dc:	d0000481 	adrp	x1, 496000 <nsData+0x550>
  4042e0:	91366021 	add	x1, x1, #0xd98
  4042e4:	f9002422 	str	x2, [x1, #72]
  4042e8:	140000f7 	b	4046c4 <XXCOMM_E2E_CreateSyncChn+0x698>
  4042ec:	d0000480 	adrp	x0, 496000 <nsData+0x550>
  4042f0:	91366000 	add	x0, x0, #0xd98
  4042f4:	f9402000 	ldr	x0, [x0, #64]
  4042f8:	91000401 	add	x1, x0, #0x1
  4042fc:	d0000480 	adrp	x0, 496000 <nsData+0x550>
  404300:	91366000 	add	x0, x0, #0xd98
  404304:	f9002001 	str	x1, [x0, #64]
  404308:	f94017a0 	ldr	x0, [x29, #40]
  40430c:	b9400802 	ldr	w2, [x0, #8]
  404310:	f94017a0 	ldr	x0, [x29, #40]
  404314:	91054000 	add	x0, x0, #0x150
  404318:	aa0003e1 	mov	x1, x0
  40431c:	2a0203e0 	mov	w0, w2
  404320:	94009449 	bl	429444 <XXCOMM_E2E_CreateDynamicQP>
  404324:	b90027a0 	str	w0, [x29, #36]
  404328:	b94027a0 	ldr	w0, [x29, #36]
  40432c:	7100001f 	cmp	w0, #0x0
  404330:	54000440 	b.eq	4043b8 <XXCOMM_E2E_CreateSyncChn+0x38c>  // b.none
  404334:	d0000480 	adrp	x0, 496000 <nsData+0x550>
  404338:	91366000 	add	x0, x0, #0xd98
  40433c:	f9402800 	ldr	x0, [x0, #80]
  404340:	91000401 	add	x1, x0, #0x1
  404344:	d0000480 	adrp	x0, 496000 <nsData+0x550>
  404348:	91366000 	add	x0, x0, #0xd98
  40434c:	f9002801 	str	x1, [x0, #80]
  404350:	f94017a0 	ldr	x0, [x29, #40]
  404354:	b9400800 	ldr	w0, [x0, #8]
  404358:	2a0003e1 	mov	w1, w0
  40435c:	b0000280 	adrp	x0, 455000 <_IO_stdin_used+0x2c0>
  404360:	9129c000 	add	x0, x0, #0xa70
  404364:	d2800006 	mov	x6, #0x0                   	// #0
  404368:	d2800005 	mov	x5, #0x0                   	// #0
  40436c:	aa0103e4 	mov	x4, x1
  404370:	2f00e400 	movi	d0, #0x0
  404374:	aa0003e3 	mov	x3, x0
  404378:	d2800042 	mov	x2, #0x2                   	// #2
  40437c:	d2802c21 	mov	x1, #0x161                 	// #353
  404380:	f2a9ce01 	movk	x1, #0x4e70, lsl #16
  404384:	f2ced2c1 	movk	x1, #0x7696, lsl #32
  404388:	f2fa5681 	movk	x1, #0xd2b4, lsl #48
  40438c:	52800060 	mov	w0, #0x3                   	// #3
  404390:	97fff4b2 	bl	401658 <LTR_Log>
  404394:	b94027a0 	ldr	w0, [x29, #36]
  404398:	d0000481 	adrp	x1, 496000 <nsData+0x550>
  40439c:	91366021 	add	x1, x1, #0xd98
  4043a0:	f9403021 	ldr	x1, [x1, #96]
  4043a4:	91000422 	add	x2, x1, #0x1
  4043a8:	d0000481 	adrp	x1, 496000 <nsData+0x550>
  4043ac:	91366021 	add	x1, x1, #0xd98
  4043b0:	f9003022 	str	x2, [x1, #96]
  4043b4:	140000c4 	b	4046c4 <XXCOMM_E2E_CreateSyncChn+0x698>
  4043b8:	d0000480 	adrp	x0, 496000 <nsData+0x550>
  4043bc:	91366000 	add	x0, x0, #0xd98
  4043c0:	f9402c00 	ldr	x0, [x0, #88]
  4043c4:	91000401 	add	x1, x0, #0x1
  4043c8:	d0000480 	adrp	x0, 496000 <nsData+0x550>
  4043cc:	91366000 	add	x0, x0, #0xd98
  4043d0:	f9002c01 	str	x1, [x0, #88]
  4043d4:	f94017a0 	ldr	x0, [x29, #40]
  4043d8:	f940a800 	ldr	x0, [x0, #336]
  4043dc:	b9400401 	ldr	w1, [x0, #4]
  4043e0:	f94017a0 	ldr	x0, [x29, #40]
  4043e4:	b9012801 	str	w1, [x0, #296]
  4043e8:	f94017a0 	ldr	x0, [x29, #40]
  4043ec:	b9400804 	ldr	w4, [x0, #8]
  4043f0:	f94017a0 	ldr	x0, [x29, #40]
  4043f4:	91040000 	add	x0, x0, #0x100
  4043f8:	52800163 	mov	w3, #0xb                   	// #11
  4043fc:	52810002 	mov	w2, #0x800                 	// #2048
  404400:	aa0003e1 	mov	x1, x0
  404404:	2a0403e0 	mov	w0, w4
  404408:	940095e1 	bl	429b8c <XXCOMM_E2E_AllocMemAddr>
  40440c:	b90027a0 	str	w0, [x29, #36]
  404410:	b94027a0 	ldr	w0, [x29, #36]
  404414:	7100001f 	cmp	w0, #0x0
  404418:	54000500 	b.eq	4044b8 <XXCOMM_E2E_CreateSyncChn+0x48c>  // b.none
  40441c:	d0000480 	adrp	x0, 496000 <nsData+0x550>
  404420:	91366000 	add	x0, x0, #0xd98
  404424:	f9403400 	ldr	x0, [x0, #104]
  404428:	91000401 	add	x1, x0, #0x1
  40442c:	d0000480 	adrp	x0, 496000 <nsData+0x550>
  404430:	91366000 	add	x0, x0, #0xd98
  404434:	f9003401 	str	x1, [x0, #104]
  404438:	f94017a0 	ldr	x0, [x29, #40]
  40443c:	b9400800 	ldr	w0, [x0, #8]
  404440:	2a0003e1 	mov	w1, w0
  404444:	f94017a0 	ldr	x0, [x29, #40]
  404448:	b9400000 	ldr	w0, [x0]
  40444c:	2a0003e2 	mov	w2, w0
  404450:	f94017a0 	ldr	x0, [x29, #40]
  404454:	b9400400 	ldr	w0, [x0, #4]
  404458:	2a0003e3 	mov	w3, w0
  40445c:	b0000280 	adrp	x0, 455000 <_IO_stdin_used+0x2c0>
  404460:	912ae000 	add	x0, x0, #0xab8
  404464:	aa0303e6 	mov	x6, x3
  404468:	aa0203e5 	mov	x5, x2
  40446c:	aa0103e4 	mov	x4, x1
  404470:	2f00e400 	movi	d0, #0x0
  404474:	aa0003e3 	mov	x3, x0
  404478:	d2800042 	mov	x2, #0x2                   	// #2
  40447c:	d2802d21 	mov	x1, #0x169                 	// #361
  404480:	f2a9ce01 	movk	x1, #0x4e70, lsl #16
  404484:	f2ced2c1 	movk	x1, #0x7696, lsl #32
  404488:	f2fa5681 	movk	x1, #0xd2b4, lsl #48
  40448c:	52800060 	mov	w0, #0x3                   	// #3
  404490:	97fff472 	bl	401658 <LTR_Log>
  404494:	b94027a0 	ldr	w0, [x29, #36]
  404498:	d0000481 	adrp	x1, 496000 <nsData+0x550>
  40449c:	91366021 	add	x1, x1, #0xd98
  4044a0:	f9403c21 	ldr	x1, [x1, #120]
  4044a4:	91000422 	add	x2, x1, #0x1
  4044a8:	d0000481 	adrp	x1, 496000 <nsData+0x550>
  4044ac:	91366021 	add	x1, x1, #0xd98
  4044b0:	f9003c22 	str	x2, [x1, #120]
  4044b4:	14000084 	b	4046c4 <XXCOMM_E2E_CreateSyncChn+0x698>
  4044b8:	d0000480 	adrp	x0, 496000 <nsData+0x550>
  4044bc:	91366000 	add	x0, x0, #0xd98
  4044c0:	f9403800 	ldr	x0, [x0, #112]
  4044c4:	91000401 	add	x1, x0, #0x1
  4044c8:	d0000480 	adrp	x0, 496000 <nsData+0x550>
  4044cc:	91366000 	add	x0, x0, #0xd98
  4044d0:	f9003801 	str	x1, [x0, #112]
  4044d4:	f94017a0 	ldr	x0, [x29, #40]
  4044d8:	b9400804 	ldr	w4, [x0, #8]
  4044dc:	f94017a0 	ldr	x0, [x29, #40]
  4044e0:	9103e000 	add	x0, x0, #0xf8
  4044e4:	52800183 	mov	w3, #0xc                   	// #12
  4044e8:	52810002 	mov	w2, #0x800                 	// #2048
  4044ec:	aa0003e1 	mov	x1, x0
  4044f0:	2a0403e0 	mov	w0, w4
  4044f4:	940095a6 	bl	429b8c <XXCOMM_E2E_AllocMemAddr>
  4044f8:	b90027a0 	str	w0, [x29, #36]
  4044fc:	b94027a0 	ldr	w0, [x29, #36]
  404500:	7100001f 	cmp	w0, #0x0
  404504:	540006e0 	b.eq	4045e0 <XXCOMM_E2E_CreateSyncChn+0x5b4>  // b.none
  404508:	d0000480 	adrp	x0, 496000 <nsData+0x550>
  40450c:	91366000 	add	x0, x0, #0xd98
  404510:	f9404000 	ldr	x0, [x0, #128]
  404514:	91000401 	add	x1, x0, #0x1
  404518:	d0000480 	adrp	x0, 496000 <nsData+0x550>
  40451c:	91366000 	add	x0, x0, #0xd98
  404520:	f9004001 	str	x1, [x0, #128]
  404524:	f94017a0 	ldr	x0, [x29, #40]
  404528:	b9400803 	ldr	w3, [x0, #8]
  40452c:	f94017a0 	ldr	x0, [x29, #40]
  404530:	91040000 	add	x0, x0, #0x100
  404534:	52800002 	mov	w2, #0x0                   	// #0
  404538:	aa0003e1 	mov	x1, x0
  40453c:	2a0303e0 	mov	w0, w3
  404540:	9400972e 	bl	42a1f8 <XXCOMM_E2E_FreeMemAddr>
  404544:	d0000480 	adrp	x0, 496000 <nsData+0x550>
  404548:	91366000 	add	x0, x0, #0xd98
  40454c:	f9404800 	ldr	x0, [x0, #144]
  404550:	91000401 	add	x1, x0, #0x1
  404554:	d0000480 	adrp	x0, 496000 <nsData+0x550>
  404558:	91366000 	add	x0, x0, #0xd98
  40455c:	f9004801 	str	x1, [x0, #144]
  404560:	f94017a0 	ldr	x0, [x29, #40]
  404564:	b9400800 	ldr	w0, [x0, #8]
  404568:	2a0003e1 	mov	w1, w0
  40456c:	f94017a0 	ldr	x0, [x29, #40]
  404570:	b9400000 	ldr	w0, [x0]
  404574:	2a0003e2 	mov	w2, w0
  404578:	f94017a0 	ldr	x0, [x29, #40]
  40457c:	b9400400 	ldr	w0, [x0, #4]
  404580:	2a0003e3 	mov	w3, w0
  404584:	b0000280 	adrp	x0, 455000 <_IO_stdin_used+0x2c0>
  404588:	912ae000 	add	x0, x0, #0xab8
  40458c:	aa0303e6 	mov	x6, x3
  404590:	aa0203e5 	mov	x5, x2
  404594:	aa0103e4 	mov	x4, x1
  404598:	2f00e400 	movi	d0, #0x0
  40459c:	aa0003e3 	mov	x3, x0
  4045a0:	d2800042 	mov	x2, #0x2                   	// #2
  4045a4:	d2802e01 	mov	x1, #0x170                 	// #368
  4045a8:	f2a9ce01 	movk	x1, #0x4e70, lsl #16
  4045ac:	f2ced2c1 	movk	x1, #0x7696, lsl #32
  4045b0:	f2fa5681 	movk	x1, #0xd2b4, lsl #48
  4045b4:	52800060 	mov	w0, #0x3                   	// #3
  4045b8:	97fff428 	bl	401658 <LTR_Log>
  4045bc:	b94027a0 	ldr	w0, [x29, #36]
  4045c0:	d0000481 	adrp	x1, 496000 <nsData+0x550>
  4045c4:	91366021 	add	x1, x1, #0xd98
  4045c8:	f9404c21 	ldr	x1, [x1, #152]
  4045cc:	91000422 	add	x2, x1, #0x1
  4045d0:	d0000481 	adrp	x1, 496000 <nsData+0x550>
  4045d4:	91366021 	add	x1, x1, #0xd98
  4045d8:	f9004c22 	str	x2, [x1, #152]
  4045dc:	1400003a 	b	4046c4 <XXCOMM_E2E_CreateSyncChn+0x698>
  4045e0:	d0000480 	adrp	x0, 496000 <nsData+0x550>
  4045e4:	91366000 	add	x0, x0, #0xd98
  4045e8:	f9404400 	ldr	x0, [x0, #136]
  4045ec:	91000401 	add	x1, x0, #0x1
  4045f0:	d0000480 	adrp	x0, 496000 <nsData+0x550>
  4045f4:	91366000 	add	x0, x0, #0xd98
  4045f8:	f9004401 	str	x1, [x0, #136]
  4045fc:	f94017a0 	ldr	x0, [x29, #40]
  404600:	f9407c00 	ldr	x0, [x0, #248]
  404604:	f9400001 	ldr	x1, [x0]
  404608:	f94017a0 	ldr	x0, [x29, #40]
  40460c:	f9008401 	str	x1, [x0, #264]
  404610:	f94017a0 	ldr	x0, [x29, #40]
  404614:	f9407c00 	ldr	x0, [x0, #248]
  404618:	b9401801 	ldr	w1, [x0, #24]
  40461c:	f94017a0 	ldr	x0, [x29, #40]
  404620:	b9012001 	str	w1, [x0, #288]
  404624:	f94017a0 	ldr	x0, [x29, #40]
  404628:	f9407c00 	ldr	x0, [x0, #248]
  40462c:	b9401c01 	ldr	w1, [x0, #28]
  404630:	f94017a0 	ldr	x0, [x29, #40]
  404634:	b9012401 	str	w1, [x0, #292]
  404638:	f94017a0 	ldr	x0, [x29, #40]
  40463c:	52800021 	mov	w1, #0x1                   	// #1
  404640:	b9015c01 	str	w1, [x0, #348]
  404644:	f94017a0 	ldr	x0, [x29, #40]
  404648:	b9400000 	ldr	w0, [x0]
  40464c:	2a0003e1 	mov	w1, w0
  404650:	f94017a0 	ldr	x0, [x29, #40]
  404654:	b9400400 	ldr	w0, [x0, #4]
  404658:	2a0003e2 	mov	w2, w0
  40465c:	f94017a0 	ldr	x0, [x29, #40]
  404660:	f940a800 	ldr	x0, [x0, #336]
  404664:	b9400400 	ldr	w0, [x0, #4]
  404668:	2a0003e3 	mov	w3, w0
  40466c:	b0000280 	adrp	x0, 455000 <_IO_stdin_used+0x2c0>
  404670:	912c6000 	add	x0, x0, #0xb18
  404674:	aa0303e6 	mov	x6, x3
  404678:	aa0203e5 	mov	x5, x2
  40467c:	aa0103e4 	mov	x4, x1
  404680:	2f00e400 	movi	d0, #0x0
  404684:	aa0003e3 	mov	x3, x0
  404688:	d2800082 	mov	x2, #0x4                   	// #4
  40468c:	d2802f21 	mov	x1, #0x179                 	// #377
  404690:	f2a9ce01 	movk	x1, #0x4e70, lsl #16
  404694:	f2ced2c1 	movk	x1, #0x7696, lsl #32
  404698:	f2fa5681 	movk	x1, #0xd2b4, lsl #48
  40469c:	52800060 	mov	w0, #0x3                   	// #3
  4046a0:	97fff3ee 	bl	401658 <LTR_Log>
  4046a4:	52800000 	mov	w0, #0x0                   	// #0
  4046a8:	d0000481 	adrp	x1, 496000 <nsData+0x550>
  4046ac:	91366021 	add	x1, x1, #0xd98
  4046b0:	f9405021 	ldr	x1, [x1, #160]
  4046b4:	91000422 	add	x2, x1, #0x1
  4046b8:	d0000481 	adrp	x1, 496000 <nsData+0x550>
  4046bc:	91366021 	add	x1, x1, #0xd98
  4046c0:	f9005022 	str	x2, [x1, #160]
  4046c4:	a8c37bfd 	ldp	x29, x30, [sp], #48
  4046c8:	d65f03c0 	ret

00000000004046cc <XXCOMM_E2E_DeleteSyncChn>:
  4046cc:	a9bd7bfd 	stp	x29, x30, [sp, #-48]!
  4046d0:	910003fd 	mov	x29, sp
  4046d4:	f9000fa0 	str	x0, [x29, #24]
  4046d8:	f90017bf 	str	xzr, [x29, #40]
  4046dc:	f9400fa0 	ldr	x0, [x29, #24]
  4046e0:	f100001f 	cmp	x0, #0x0
  4046e4:	54000401 	b.ne	404764 <XXCOMM_E2E_DeleteSyncChn+0x98>  // b.any
  4046e8:	d0000480 	adrp	x0, 496000 <nsData+0x550>
  4046ec:	91352000 	add	x0, x0, #0xd48
  4046f0:	f9400000 	ldr	x0, [x0]
  4046f4:	91000401 	add	x1, x0, #0x1
  4046f8:	d0000480 	adrp	x0, 496000 <nsData+0x550>
  4046fc:	91352000 	add	x0, x0, #0xd48
  404700:	f9000001 	str	x1, [x0]
  404704:	b0000280 	adrp	x0, 455000 <_IO_stdin_used+0x2c0>
  404708:	912d8000 	add	x0, x0, #0xb60
  40470c:	d2800006 	mov	x6, #0x0                   	// #0
  404710:	d2800005 	mov	x5, #0x0                   	// #0
  404714:	d2800004 	mov	x4, #0x0                   	// #0
  404718:	2f00e400 	movi	d0, #0x0
  40471c:	aa0003e3 	mov	x3, x0
  404720:	d2800042 	mov	x2, #0x2                   	// #2
  404724:	d2803041 	mov	x1, #0x182                 	// #386
  404728:	f2a9ce01 	movk	x1, #0x4e70, lsl #16
  40472c:	f2ced2c1 	movk	x1, #0x7696, lsl #32
  404730:	f2fa5681 	movk	x1, #0xd2b4, lsl #48
  404734:	52800060 	mov	w0, #0x3                   	// #3
  404738:	97fff3c8 	bl	401658 <LTR_Log>
  40473c:	528009e2 	mov	w2, #0x4f                  	// #79
  404740:	72b06062 	movk	w2, #0x8303, lsl #16
  404744:	d0000480 	adrp	x0, 496000 <nsData+0x550>
  404748:	91352000 	add	x0, x0, #0xd48
  40474c:	f9400800 	ldr	x0, [x0, #16]
  404750:	91000401 	add	x1, x0, #0x1
  404754:	d0000480 	adrp	x0, 496000 <nsData+0x550>
  404758:	91352000 	add	x0, x0, #0xd48
  40475c:	f9000801 	str	x1, [x0, #16]
  404760:	14000077 	b	40493c <XXCOMM_E2E_DeleteSyncChn+0x270>
  404764:	d0000480 	adrp	x0, 496000 <nsData+0x550>
  404768:	91352000 	add	x0, x0, #0xd48
  40476c:	f9400400 	ldr	x0, [x0, #8]
  404770:	91000401 	add	x1, x0, #0x1
  404774:	d0000480 	adrp	x0, 496000 <nsData+0x550>
  404778:	91352000 	add	x0, x0, #0xd48
  40477c:	f9000401 	str	x1, [x0, #8]
  404780:	f9400fa0 	ldr	x0, [x29, #24]
  404784:	f90017a0 	str	x0, [x29, #40]
  404788:	f94017a0 	ldr	x0, [x29, #40]
  40478c:	b9015c1f 	str	wzr, [x0, #348]
  404790:	f94017a0 	ldr	x0, [x29, #40]
  404794:	f9408000 	ldr	x0, [x0, #256]
  404798:	f100001f 	cmp	x0, #0x0
  40479c:	54000320 	b.eq	404800 <XXCOMM_E2E_DeleteSyncChn+0x134>  // b.none
  4047a0:	d0000480 	adrp	x0, 496000 <nsData+0x550>
  4047a4:	91352000 	add	x0, x0, #0xd48
  4047a8:	f9400c00 	ldr	x0, [x0, #24]
  4047ac:	91000401 	add	x1, x0, #0x1
  4047b0:	d0000480 	adrp	x0, 496000 <nsData+0x550>
  4047b4:	91352000 	add	x0, x0, #0xd48
  4047b8:	f9000c01 	str	x1, [x0, #24]
  4047bc:	f94017a0 	ldr	x0, [x29, #40]
  4047c0:	b9400803 	ldr	w3, [x0, #8]
  4047c4:	f94017a0 	ldr	x0, [x29, #40]
  4047c8:	91040000 	add	x0, x0, #0x100
  4047cc:	52800162 	mov	w2, #0xb                   	// #11
  4047d0:	aa0003e1 	mov	x1, x0
  4047d4:	2a0303e0 	mov	w0, w3
  4047d8:	94009688 	bl	42a1f8 <XXCOMM_E2E_FreeMemAddr>
  4047dc:	f94017a0 	ldr	x0, [x29, #40]
  4047e0:	f900801f 	str	xzr, [x0, #256]
  4047e4:	d0000480 	adrp	x0, 496000 <nsData+0x550>
  4047e8:	91352000 	add	x0, x0, #0xd48
  4047ec:	f9401000 	ldr	x0, [x0, #32]
  4047f0:	91000401 	add	x1, x0, #0x1
  4047f4:	d0000480 	adrp	x0, 496000 <nsData+0x550>
  4047f8:	91352000 	add	x0, x0, #0xd48
  4047fc:	f9001001 	str	x1, [x0, #32]
  404800:	f94017a0 	ldr	x0, [x29, #40]
  404804:	f9407c00 	ldr	x0, [x0, #248]
  404808:	f100001f 	cmp	x0, #0x0
  40480c:	54000320 	b.eq	404870 <XXCOMM_E2E_DeleteSyncChn+0x1a4>  // b.none
  404810:	d0000480 	adrp	x0, 496000 <nsData+0x550>
  404814:	91352000 	add	x0, x0, #0xd48
  404818:	f9401400 	ldr	x0, [x0, #40]
  40481c:	91000401 	add	x1, x0, #0x1
  404820:	d0000480 	adrp	x0, 496000 <nsData+0x550>
  404824:	91352000 	add	x0, x0, #0xd48
  404828:	f9001401 	str	x1, [x0, #40]
  40482c:	f94017a0 	ldr	x0, [x29, #40]
  404830:	b9400803 	ldr	w3, [x0, #8]
  404834:	f94017a0 	ldr	x0, [x29, #40]
  404838:	9103e000 	add	x0, x0, #0xf8
  40483c:	52800182 	mov	w2, #0xc                   	// #12
  404840:	aa0003e1 	mov	x1, x0
  404844:	2a0303e0 	mov	w0, w3
  404848:	9400966c 	bl	42a1f8 <XXCOMM_E2E_FreeMemAddr>
  40484c:	f94017a0 	ldr	x0, [x29, #40]
  404850:	f9007c1f 	str	xzr, [x0, #248]
  404854:	d0000480 	adrp	x0, 496000 <nsData+0x550>
  404858:	91352000 	add	x0, x0, #0xd48
  40485c:	f9401800 	ldr	x0, [x0, #48]
  404860:	91000401 	add	x1, x0, #0x1
  404864:	d0000480 	adrp	x0, 496000 <nsData+0x550>
  404868:	91352000 	add	x0, x0, #0xd48
  40486c:	f9001801 	str	x1, [x0, #48]
  404870:	f94017a0 	ldr	x0, [x29, #40]
  404874:	f940a800 	ldr	x0, [x0, #336]
  404878:	f100001f 	cmp	x0, #0x0
  40487c:	54000280 	b.eq	4048cc <XXCOMM_E2E_DeleteSyncChn+0x200>  // b.none
  404880:	d0000480 	adrp	x0, 496000 <nsData+0x550>
  404884:	91352000 	add	x0, x0, #0xd48
  404888:	f9401c00 	ldr	x0, [x0, #56]
  40488c:	91000401 	add	x1, x0, #0x1
  404890:	d0000480 	adrp	x0, 496000 <nsData+0x550>
  404894:	91352000 	add	x0, x0, #0xd48
  404898:	f9001c01 	str	x1, [x0, #56]
  40489c:	f94017a0 	ldr	x0, [x29, #40]
  4048a0:	91054000 	add	x0, x0, #0x150
  4048a4:	94009348 	bl	4295c4 <XXCOMM_E2E_FreeDynamicQP>
  4048a8:	f94017a0 	ldr	x0, [x29, #40]
  4048ac:	f900a81f 	str	xzr, [x0, #336]
  4048b0:	d0000480 	adrp	x0, 496000 <nsData+0x550>
  4048b4:	91352000 	add	x0, x0, #0xd48
  4048b8:	f9402000 	ldr	x0, [x0, #64]
  4048bc:	91000401 	add	x1, x0, #0x1
  4048c0:	d0000480 	adrp	x0, 496000 <nsData+0x550>
  4048c4:	91352000 	add	x0, x0, #0xd48
  4048c8:	f9002001 	str	x1, [x0, #64]
  4048cc:	f94017a0 	ldr	x0, [x29, #40]
  4048d0:	b9400000 	ldr	w0, [x0]
  4048d4:	2a0003e1 	mov	w1, w0
  4048d8:	f94017a0 	ldr	x0, [x29, #40]
  4048dc:	b9400400 	ldr	w0, [x0, #4]
  4048e0:	2a0003e2 	mov	w2, w0
  4048e4:	b0000280 	adrp	x0, 455000 <_IO_stdin_used+0x2c0>
  4048e8:	912e6000 	add	x0, x0, #0xb98
  4048ec:	d2800006 	mov	x6, #0x0                   	// #0
  4048f0:	aa0203e5 	mov	x5, x2
  4048f4:	aa0103e4 	mov	x4, x1
  4048f8:	2f00e400 	movi	d0, #0x0
  4048fc:	aa0003e3 	mov	x3, x0
  404900:	d2800082 	mov	x2, #0x4                   	// #4
  404904:	d2803281 	mov	x1, #0x194                 	// #404
  404908:	f2a9ce01 	movk	x1, #0x4e70, lsl #16
  40490c:	f2ced2c1 	movk	x1, #0x7696, lsl #32
  404910:	f2fa5681 	movk	x1, #0xd2b4, lsl #48
  404914:	52800060 	mov	w0, #0x3                   	// #3
  404918:	97fff350 	bl	401658 <LTR_Log>
  40491c:	52800002 	mov	w2, #0x0                   	// #0
  404920:	d0000480 	adrp	x0, 496000 <nsData+0x550>
  404924:	91352000 	add	x0, x0, #0xd48
  404928:	f9402400 	ldr	x0, [x0, #72]
  40492c:	91000401 	add	x1, x0, #0x1
  404930:	d0000480 	adrp	x0, 496000 <nsData+0x550>
  404934:	91352000 	add	x0, x0, #0xd48
  404938:	f9002401 	str	x1, [x0, #72]
  40493c:	2a0203e0 	mov	w0, w2
  404940:	a8c37bfd 	ldp	x29, x30, [sp], #48
  404944:	d65f03c0 	ret

0000000000404948 <XXCOMM_E2E_CreateMsgChn>:
  404948:	a9bd7bfd 	stp	x29, x30, [sp, #-48]!
  40494c:	910003fd 	mov	x29, sp
  404950:	f90017a0 	str	x0, [x29, #40]
  404954:	f90013a1 	str	x1, [x29, #32]
  404958:	b9001fa2 	str	w2, [x29, #28]
  40495c:	900003e0 	adrp	x0, 480000 <memcpy@GLIBC_2.17>
  404960:	9107c001 	add	x1, x0, #0x1f0
  404964:	b9401fa0 	ldr	w0, [x29, #28]
  404968:	d37be800 	lsl	x0, x0, #5
  40496c:	8b000020 	add	x0, x1, x0
  404970:	f9400400 	ldr	x0, [x0, #8]
  404974:	f100001f 	cmp	x0, #0x0
  404978:	54000401 	b.ne	4049f8 <XXCOMM_E2E_CreateMsgChn+0xb0>  // b.any
  40497c:	d0000480 	adrp	x0, 496000 <nsData+0x550>
  404980:	91346000 	add	x0, x0, #0xd18
  404984:	f9400000 	ldr	x0, [x0]
  404988:	91000401 	add	x1, x0, #0x1
  40498c:	d0000480 	adrp	x0, 496000 <nsData+0x550>
  404990:	91346000 	add	x0, x0, #0xd18
  404994:	f9000001 	str	x1, [x0]
  404998:	b0000280 	adrp	x0, 455000 <_IO_stdin_used+0x2c0>
  40499c:	912fa000 	add	x0, x0, #0xbe8
  4049a0:	d2800006 	mov	x6, #0x0                   	// #0
  4049a4:	d2800005 	mov	x5, #0x0                   	// #0
  4049a8:	d2800004 	mov	x4, #0x0                   	// #0
  4049ac:	2f00e400 	movi	d0, #0x0
  4049b0:	aa0003e3 	mov	x3, x0
  4049b4:	d2800042 	mov	x2, #0x2                   	// #2
  4049b8:	d2803441 	mov	x1, #0x1a2                 	// #418
  4049bc:	f2a9ce01 	movk	x1, #0x4e70, lsl #16
  4049c0:	f2ced2c1 	movk	x1, #0x7696, lsl #32
  4049c4:	f2fa5681 	movk	x1, #0xd2b4, lsl #48
  4049c8:	52800060 	mov	w0, #0x3                   	// #3
  4049cc:	97fff323 	bl	401658 <LTR_Log>
  4049d0:	52801080 	mov	w0, #0x84                  	// #132
  4049d4:	72b06060 	movk	w0, #0x8303, lsl #16
  4049d8:	d0000481 	adrp	x1, 496000 <nsData+0x550>
  4049dc:	91346021 	add	x1, x1, #0xd18
  4049e0:	f9400421 	ldr	x1, [x1, #8]
  4049e4:	91000422 	add	x2, x1, #0x1
  4049e8:	d0000481 	adrp	x1, 496000 <nsData+0x550>
  4049ec:	91346021 	add	x1, x1, #0xd18
  4049f0:	f9000422 	str	x2, [x1, #8]
  4049f4:	14000048 	b	404b14 <XXCOMM_E2E_CreateMsgChn+0x1cc>
  4049f8:	900003e0 	adrp	x0, 480000 <memcpy@GLIBC_2.17>
  4049fc:	9107c001 	add	x1, x0, #0x1f0
  404a00:	b9401fa0 	ldr	w0, [x29, #28]
  404a04:	d37be800 	lsl	x0, x0, #5
  404a08:	8b000020 	add	x0, x1, x0
  404a0c:	b9400000 	ldr	w0, [x0]
  404a10:	b9401fa1 	ldr	w1, [x29, #28]
  404a14:	6b00003f 	cmp	w1, w0
  404a18:	54000500 	b.eq	404ab8 <XXCOMM_E2E_CreateMsgChn+0x170>  // b.none
  404a1c:	d0000480 	adrp	x0, 496000 <nsData+0x550>
  404a20:	91346000 	add	x0, x0, #0xd18
  404a24:	f9400800 	ldr	x0, [x0, #16]
  404a28:	91000401 	add	x1, x0, #0x1
  404a2c:	d0000480 	adrp	x0, 496000 <nsData+0x550>
  404a30:	91346000 	add	x0, x0, #0xd18
  404a34:	f9000801 	str	x1, [x0, #16]
  404a38:	b9401fa2 	ldr	w2, [x29, #28]
  404a3c:	900003e0 	adrp	x0, 480000 <memcpy@GLIBC_2.17>
  404a40:	9107c001 	add	x1, x0, #0x1f0
  404a44:	b9401fa0 	ldr	w0, [x29, #28]
  404a48:	d37be800 	lsl	x0, x0, #5
  404a4c:	8b000020 	add	x0, x1, x0
  404a50:	b9400000 	ldr	w0, [x0]
  404a54:	2a0003e1 	mov	w1, w0
  404a58:	b0000280 	adrp	x0, 455000 <_IO_stdin_used+0x2c0>
  404a5c:	91306000 	add	x0, x0, #0xc18
  404a60:	d2800006 	mov	x6, #0x0                   	// #0
  404a64:	aa0103e5 	mov	x5, x1
  404a68:	aa0203e4 	mov	x4, x2
  404a6c:	2f00e400 	movi	d0, #0x0
  404a70:	aa0003e3 	mov	x3, x0
  404a74:	d2800042 	mov	x2, #0x2                   	// #2
  404a78:	d28034e1 	mov	x1, #0x1a7                 	// #423
  404a7c:	f2a9ce01 	movk	x1, #0x4e70, lsl #16
  404a80:	f2ced2c1 	movk	x1, #0x7696, lsl #32
  404a84:	f2fa5681 	movk	x1, #0xd2b4, lsl #48
  404a88:	52800060 	mov	w0, #0x3                   	// #3
  404a8c:	97fff2f3 	bl	401658 <LTR_Log>
  404a90:	52800040 	mov	w0, #0x2                   	// #2
  404a94:	72b06060 	movk	w0, #0x8303, lsl #16
  404a98:	d0000481 	adrp	x1, 496000 <nsData+0x550>
  404a9c:	91346021 	add	x1, x1, #0xd18
  404aa0:	f9401021 	ldr	x1, [x1, #32]
  404aa4:	91000422 	add	x2, x1, #0x1
  404aa8:	d0000481 	adrp	x1, 496000 <nsData+0x550>
  404aac:	91346021 	add	x1, x1, #0xd18
  404ab0:	f9001022 	str	x2, [x1, #32]
  404ab4:	14000018 	b	404b14 <XXCOMM_E2E_CreateMsgChn+0x1cc>
  404ab8:	d0000480 	adrp	x0, 496000 <nsData+0x550>
  404abc:	91346000 	add	x0, x0, #0xd18
  404ac0:	f9400c00 	ldr	x0, [x0, #24]
  404ac4:	91000401 	add	x1, x0, #0x1
  404ac8:	d0000480 	adrp	x0, 496000 <nsData+0x550>
  404acc:	91346000 	add	x0, x0, #0xd18
  404ad0:	f9000c01 	str	x1, [x0, #24]
  404ad4:	900003e0 	adrp	x0, 480000 <memcpy@GLIBC_2.17>
  404ad8:	9107c001 	add	x1, x0, #0x1f0
  404adc:	b9401fa0 	ldr	w0, [x29, #28]
  404ae0:	d37be800 	lsl	x0, x0, #5
  404ae4:	8b000020 	add	x0, x1, x0
  404ae8:	f9400402 	ldr	x2, [x0, #8]
  404aec:	f94013a1 	ldr	x1, [x29, #32]
  404af0:	f94017a0 	ldr	x0, [x29, #40]
  404af4:	d63f0040 	blr	x2
  404af8:	d0000481 	adrp	x1, 496000 <nsData+0x550>
  404afc:	91346021 	add	x1, x1, #0xd18
  404b00:	f9401421 	ldr	x1, [x1, #40]
  404b04:	91000422 	add	x2, x1, #0x1
  404b08:	d0000481 	adrp	x1, 496000 <nsData+0x550>
  404b0c:	91346021 	add	x1, x1, #0xd18
  404b10:	f9001422 	str	x2, [x1, #40]
  404b14:	a8c37bfd 	ldp	x29, x30, [sp], #48
  404b18:	d65f03c0 	ret

0000000000404b1c <XXCOMM_E2E_MapMsgChn>:
  404b1c:	a9be7bfd 	stp	x29, x30, [sp, #-32]!
  404b20:	910003fd 	mov	x29, sp
  404b24:	f9000fa0 	str	x0, [x29, #24]
  404b28:	b90017a1 	str	w1, [x29, #20]
  404b2c:	900003e0 	adrp	x0, 480000 <memcpy@GLIBC_2.17>
  404b30:	9107c001 	add	x1, x0, #0x1f0
  404b34:	b94017a0 	ldr	w0, [x29, #20]
  404b38:	d37be800 	lsl	x0, x0, #5
  404b3c:	8b000020 	add	x0, x1, x0
  404b40:	f9400800 	ldr	x0, [x0, #16]
  404b44:	f100001f 	cmp	x0, #0x0
  404b48:	54000401 	b.ne	404bc8 <XXCOMM_E2E_MapMsgChn+0xac>  // b.any
  404b4c:	d0000480 	adrp	x0, 496000 <nsData+0x550>
  404b50:	9133a000 	add	x0, x0, #0xce8
  404b54:	f9400000 	ldr	x0, [x0]
  404b58:	91000401 	add	x1, x0, #0x1
  404b5c:	d0000480 	adrp	x0, 496000 <nsData+0x550>
  404b60:	9133a000 	add	x0, x0, #0xce8
  404b64:	f9000001 	str	x1, [x0]
  404b68:	b0000280 	adrp	x0, 455000 <_IO_stdin_used+0x2c0>
  404b6c:	91316000 	add	x0, x0, #0xc58
  404b70:	d2800006 	mov	x6, #0x0                   	// #0
  404b74:	d2800005 	mov	x5, #0x0                   	// #0
  404b78:	d2800004 	mov	x4, #0x0                   	// #0
  404b7c:	2f00e400 	movi	d0, #0x0
  404b80:	aa0003e3 	mov	x3, x0
  404b84:	d2800042 	mov	x2, #0x2                   	// #2
  404b88:	d2803601 	mov	x1, #0x1b0                 	// #432
  404b8c:	f2a9ce01 	movk	x1, #0x4e70, lsl #16
  404b90:	f2ced2c1 	movk	x1, #0x7696, lsl #32
  404b94:	f2fa5681 	movk	x1, #0xd2b4, lsl #48
  404b98:	52800060 	mov	w0, #0x3                   	// #3
  404b9c:	97fff2af 	bl	401658 <LTR_Log>
  404ba0:	528010a0 	mov	w0, #0x85                  	// #133
  404ba4:	72b06060 	movk	w0, #0x8303, lsl #16
  404ba8:	d0000481 	adrp	x1, 496000 <nsData+0x550>
  404bac:	9133a021 	add	x1, x1, #0xce8
  404bb0:	f9400421 	ldr	x1, [x1, #8]
  404bb4:	91000422 	add	x2, x1, #0x1
  404bb8:	d0000481 	adrp	x1, 496000 <nsData+0x550>
  404bbc:	9133a021 	add	x1, x1, #0xce8
  404bc0:	f9000422 	str	x2, [x1, #8]
  404bc4:	14000047 	b	404ce0 <XXCOMM_E2E_MapMsgChn+0x1c4>
  404bc8:	900003e0 	adrp	x0, 480000 <memcpy@GLIBC_2.17>
  404bcc:	9107c001 	add	x1, x0, #0x1f0
  404bd0:	b94017a0 	ldr	w0, [x29, #20]
  404bd4:	d37be800 	lsl	x0, x0, #5
  404bd8:	8b000020 	add	x0, x1, x0
  404bdc:	b9400000 	ldr	w0, [x0]
  404be0:	b94017a1 	ldr	w1, [x29, #20]
  404be4:	6b00003f 	cmp	w1, w0
  404be8:	54000500 	b.eq	404c88 <XXCOMM_E2E_MapMsgChn+0x16c>  // b.none
  404bec:	d0000480 	adrp	x0, 496000 <nsData+0x550>
  404bf0:	9133a000 	add	x0, x0, #0xce8
  404bf4:	f9400800 	ldr	x0, [x0, #16]
  404bf8:	91000401 	add	x1, x0, #0x1
  404bfc:	d0000480 	adrp	x0, 496000 <nsData+0x550>
  404c00:	9133a000 	add	x0, x0, #0xce8
  404c04:	f9000801 	str	x1, [x0, #16]
  404c08:	b94017a2 	ldr	w2, [x29, #20]
  404c0c:	900003e0 	adrp	x0, 480000 <memcpy@GLIBC_2.17>
  404c10:	9107c001 	add	x1, x0, #0x1f0
  404c14:	b94017a0 	ldr	w0, [x29, #20]
  404c18:	d37be800 	lsl	x0, x0, #5
  404c1c:	8b000020 	add	x0, x1, x0
  404c20:	b9400000 	ldr	w0, [x0]
  404c24:	2a0003e1 	mov	w1, w0
  404c28:	b0000280 	adrp	x0, 455000 <_IO_stdin_used+0x2c0>
  404c2c:	91322000 	add	x0, x0, #0xc88
  404c30:	d2800006 	mov	x6, #0x0                   	// #0
  404c34:	aa0103e5 	mov	x5, x1
  404c38:	aa0203e4 	mov	x4, x2
  404c3c:	2f00e400 	movi	d0, #0x0
  404c40:	aa0003e3 	mov	x3, x0
  404c44:	d2800042 	mov	x2, #0x2                   	// #2
  404c48:	d28036a1 	mov	x1, #0x1b5                 	// #437
  404c4c:	f2a9ce01 	movk	x1, #0x4e70, lsl #16
  404c50:	f2ced2c1 	movk	x1, #0x7696, lsl #32
  404c54:	f2fa5681 	movk	x1, #0xd2b4, lsl #48
  404c58:	52800060 	mov	w0, #0x3                   	// #3
  404c5c:	97fff27f 	bl	401658 <LTR_Log>
  404c60:	52800280 	mov	w0, #0x14                  	// #20
  404c64:	72b06060 	movk	w0, #0x8303, lsl #16
  404c68:	d0000481 	adrp	x1, 496000 <nsData+0x550>
  404c6c:	9133a021 	add	x1, x1, #0xce8
  404c70:	f9401021 	ldr	x1, [x1, #32]
  404c74:	91000422 	add	x2, x1, #0x1
  404c78:	d0000481 	adrp	x1, 496000 <nsData+0x550>
  404c7c:	9133a021 	add	x1, x1, #0xce8
  404c80:	f9001022 	str	x2, [x1, #32]
  404c84:	14000017 	b	404ce0 <XXCOMM_E2E_MapMsgChn+0x1c4>
  404c88:	d0000480 	adrp	x0, 496000 <nsData+0x550>
  404c8c:	9133a000 	add	x0, x0, #0xce8
  404c90:	f9400c00 	ldr	x0, [x0, #24]
  404c94:	91000401 	add	x1, x0, #0x1
  404c98:	d0000480 	adrp	x0, 496000 <nsData+0x550>
  404c9c:	9133a000 	add	x0, x0, #0xce8
  404ca0:	f9000c01 	str	x1, [x0, #24]
  404ca4:	900003e0 	adrp	x0, 480000 <memcpy@GLIBC_2.17>
  404ca8:	9107c001 	add	x1, x0, #0x1f0
  404cac:	b94017a0 	ldr	w0, [x29, #20]
  404cb0:	d37be800 	lsl	x0, x0, #5
  404cb4:	8b000020 	add	x0, x1, x0
  404cb8:	f9400801 	ldr	x1, [x0, #16]
  404cbc:	f9400fa0 	ldr	x0, [x29, #24]
  404cc0:	d63f0020 	blr	x1
  404cc4:	d0000481 	adrp	x1, 496000 <nsData+0x550>
  404cc8:	9133a021 	add	x1, x1, #0xce8
  404ccc:	f9401421 	ldr	x1, [x1, #40]
  404cd0:	91000422 	add	x2, x1, #0x1
  404cd4:	d0000481 	adrp	x1, 496000 <nsData+0x550>
  404cd8:	9133a021 	add	x1, x1, #0xce8
  404cdc:	f9001422 	str	x2, [x1, #40]
  404ce0:	a8c27bfd 	ldp	x29, x30, [sp], #32
  404ce4:	d65f03c0 	ret

0000000000404ce8 <XXCOMM_E2E_DeleteMsgChn>:
  404ce8:	a9be7bfd 	stp	x29, x30, [sp, #-32]!
  404cec:	910003fd 	mov	x29, sp
  404cf0:	f9000fa0 	str	x0, [x29, #24]
  404cf4:	b90017a1 	str	w1, [x29, #20]
  404cf8:	900003e0 	adrp	x0, 480000 <memcpy@GLIBC_2.17>
  404cfc:	9107c001 	add	x1, x0, #0x1f0
  404d00:	b94017a0 	ldr	w0, [x29, #20]
  404d04:	d37be800 	lsl	x0, x0, #5
  404d08:	8b000020 	add	x0, x1, x0
  404d0c:	f9400c00 	ldr	x0, [x0, #24]
  404d10:	f100001f 	cmp	x0, #0x0
  404d14:	54000401 	b.ne	404d94 <XXCOMM_E2E_DeleteMsgChn+0xac>  // b.any
  404d18:	d0000480 	adrp	x0, 496000 <nsData+0x550>
  404d1c:	9132e000 	add	x0, x0, #0xcb8
  404d20:	f9400000 	ldr	x0, [x0]
  404d24:	91000401 	add	x1, x0, #0x1
  404d28:	d0000480 	adrp	x0, 496000 <nsData+0x550>
  404d2c:	9132e000 	add	x0, x0, #0xcb8
  404d30:	f9000001 	str	x1, [x0]
  404d34:	b0000280 	adrp	x0, 455000 <_IO_stdin_used+0x2c0>
  404d38:	91332000 	add	x0, x0, #0xcc8
  404d3c:	d2800006 	mov	x6, #0x0                   	// #0
  404d40:	d2800005 	mov	x5, #0x0                   	// #0
  404d44:	d2800004 	mov	x4, #0x0                   	// #0
  404d48:	2f00e400 	movi	d0, #0x0
  404d4c:	aa0003e3 	mov	x3, x0
  404d50:	d2800042 	mov	x2, #0x2                   	// #2
  404d54:	d28037c1 	mov	x1, #0x1be                 	// #446
  404d58:	f2a9ce01 	movk	x1, #0x4e70, lsl #16
  404d5c:	f2ced2c1 	movk	x1, #0x7696, lsl #32
  404d60:	f2fa5681 	movk	x1, #0xd2b4, lsl #48
  404d64:	52800060 	mov	w0, #0x3                   	// #3
  404d68:	97fff23c 	bl	401658 <LTR_Log>
  404d6c:	528010c0 	mov	w0, #0x86                  	// #134
  404d70:	72b06060 	movk	w0, #0x8303, lsl #16
  404d74:	d0000481 	adrp	x1, 496000 <nsData+0x550>
  404d78:	9132e021 	add	x1, x1, #0xcb8
  404d7c:	f9400421 	ldr	x1, [x1, #8]
  404d80:	91000422 	add	x2, x1, #0x1
  404d84:	d0000481 	adrp	x1, 496000 <nsData+0x550>
  404d88:	9132e021 	add	x1, x1, #0xcb8
  404d8c:	f9000422 	str	x2, [x1, #8]
  404d90:	14000047 	b	404eac <XXCOMM_E2E_DeleteMsgChn+0x1c4>
  404d94:	900003e0 	adrp	x0, 480000 <memcpy@GLIBC_2.17>
  404d98:	9107c001 	add	x1, x0, #0x1f0
  404d9c:	b94017a0 	ldr	w0, [x29, #20]
  404da0:	d37be800 	lsl	x0, x0, #5
  404da4:	8b000020 	add	x0, x1, x0
  404da8:	b9400000 	ldr	w0, [x0]
  404dac:	b94017a1 	ldr	w1, [x29, #20]
  404db0:	6b00003f 	cmp	w1, w0
  404db4:	54000500 	b.eq	404e54 <XXCOMM_E2E_DeleteMsgChn+0x16c>  // b.none
  404db8:	d0000480 	adrp	x0, 496000 <nsData+0x550>
  404dbc:	9132e000 	add	x0, x0, #0xcb8
  404dc0:	f9400800 	ldr	x0, [x0, #16]
  404dc4:	91000401 	add	x1, x0, #0x1
  404dc8:	d0000480 	adrp	x0, 496000 <nsData+0x550>
  404dcc:	9132e000 	add	x0, x0, #0xcb8
  404dd0:	f9000801 	str	x1, [x0, #16]
  404dd4:	b94017a2 	ldr	w2, [x29, #20]
  404dd8:	900003e0 	adrp	x0, 480000 <memcpy@GLIBC_2.17>
  404ddc:	9107c001 	add	x1, x0, #0x1f0
  404de0:	b94017a0 	ldr	w0, [x29, #20]
  404de4:	d37be800 	lsl	x0, x0, #5
  404de8:	8b000020 	add	x0, x1, x0
  404dec:	b9400000 	ldr	w0, [x0]
  404df0:	2a0003e1 	mov	w1, w0
  404df4:	b0000280 	adrp	x0, 455000 <_IO_stdin_used+0x2c0>
  404df8:	9133e000 	add	x0, x0, #0xcf8
  404dfc:	d2800006 	mov	x6, #0x0                   	// #0
  404e00:	aa0103e5 	mov	x5, x1
  404e04:	aa0203e4 	mov	x4, x2
  404e08:	2f00e400 	movi	d0, #0x0
  404e0c:	aa0003e3 	mov	x3, x0
  404e10:	d2800042 	mov	x2, #0x2                   	// #2
  404e14:	d2803861 	mov	x1, #0x1c3                 	// #451
  404e18:	f2a9ce01 	movk	x1, #0x4e70, lsl #16
  404e1c:	f2ced2c1 	movk	x1, #0x7696, lsl #32
  404e20:	f2fa5681 	movk	x1, #0xd2b4, lsl #48
  404e24:	52800060 	mov	w0, #0x3                   	// #3
  404e28:	97fff20c 	bl	401658 <LTR_Log>
  404e2c:	52800180 	mov	w0, #0xc                   	// #12
  404e30:	72b06060 	movk	w0, #0x8303, lsl #16
  404e34:	d0000481 	adrp	x1, 496000 <nsData+0x550>
  404e38:	9132e021 	add	x1, x1, #0xcb8
  404e3c:	f9401021 	ldr	x1, [x1, #32]
  404e40:	91000422 	add	x2, x1, #0x1
  404e44:	d0000481 	adrp	x1, 496000 <nsData+0x550>
  404e48:	9132e021 	add	x1, x1, #0xcb8
  404e4c:	f9001022 	str	x2, [x1, #32]
  404e50:	14000017 	b	404eac <XXCOMM_E2E_DeleteMsgChn+0x1c4>
  404e54:	d0000480 	adrp	x0, 496000 <nsData+0x550>
  404e58:	9132e000 	add	x0, x0, #0xcb8
  404e5c:	f9400c00 	ldr	x0, [x0, #24]
  404e60:	91000401 	add	x1, x0, #0x1
  404e64:	d0000480 	adrp	x0, 496000 <nsData+0x550>
  404e68:	9132e000 	add	x0, x0, #0xcb8
  404e6c:	f9000c01 	str	x1, [x0, #24]
  404e70:	900003e0 	adrp	x0, 480000 <memcpy@GLIBC_2.17>
  404e74:	9107c001 	add	x1, x0, #0x1f0
  404e78:	b94017a0 	ldr	w0, [x29, #20]
  404e7c:	d37be800 	lsl	x0, x0, #5
  404e80:	8b000020 	add	x0, x1, x0
  404e84:	f9400c01 	ldr	x1, [x0, #24]
  404e88:	f9400fa0 	ldr	x0, [x29, #24]
  404e8c:	d63f0020 	blr	x1
  404e90:	d0000481 	adrp	x1, 496000 <nsData+0x550>
  404e94:	9132e021 	add	x1, x1, #0xcb8
  404e98:	f9401421 	ldr	x1, [x1, #40]
  404e9c:	91000422 	add	x2, x1, #0x1
  404ea0:	d0000481 	adrp	x1, 496000 <nsData+0x550>
  404ea4:	9132e021 	add	x1, x1, #0xcb8
  404ea8:	f9001422 	str	x2, [x1, #40]
  404eac:	a8c27bfd 	ldp	x29, x30, [sp], #32
  404eb0:	d65f03c0 	ret

0000000000404eb4 <XXCOMM_E2E_ResetSyncChn>:
  404eb4:	a9ba7bfd 	stp	x29, x30, [sp, #-96]!
  404eb8:	910003fd 	mov	x29, sp
  404ebc:	b9001fa0 	str	w0, [x29, #28]
  404ec0:	b9001ba1 	str	w1, [x29, #24]
  404ec4:	d0000480 	adrp	x0, 496000 <nsData+0x550>
  404ec8:	91314000 	add	x0, x0, #0xc50
  404ecc:	f9400000 	ldr	x0, [x0]
  404ed0:	91000401 	add	x1, x0, #0x1
  404ed4:	d0000480 	adrp	x0, 496000 <nsData+0x550>
  404ed8:	91314000 	add	x0, x0, #0xc50
  404edc:	f9000001 	str	x1, [x0]
  404ee0:	a902ffbf 	stp	xzr, xzr, [x29, #40]
  404ee4:	a903ffbf 	stp	xzr, xzr, [x29, #56]
  404ee8:	94004ca0 	bl	418168 <XXCOMM_E2E_DevGetFwChnList>
  404eec:	f9002fa0 	str	x0, [x29, #88]
  404ef0:	d0000480 	adrp	x0, 496000 <nsData+0x550>
  404ef4:	91314000 	add	x0, x0, #0xc50
  404ef8:	f9400400 	ldr	x0, [x0, #8]
  404efc:	91000401 	add	x1, x0, #0x1
  404f00:	d0000480 	adrp	x0, 496000 <nsData+0x550>
  404f04:	91314000 	add	x0, x0, #0xc50
  404f08:	f9000401 	str	x1, [x0, #8]
  404f0c:	940044ee 	bl	4162c4 <XXCOMM_E2E_GetForwardRecvData>
  404f10:	f9002ba0 	str	x0, [x29, #80]
  404f14:	d0000480 	adrp	x0, 496000 <nsData+0x550>
  404f18:	91314000 	add	x0, x0, #0xc50
  404f1c:	f9400800 	ldr	x0, [x0, #16]
  404f20:	91000401 	add	x1, x0, #0x1
  404f24:	d0000480 	adrp	x0, 496000 <nsData+0x550>
  404f28:	91314000 	add	x0, x0, #0xc50
  404f2c:	f9000801 	str	x1, [x0, #16]
  404f30:	b9401ba1 	ldr	w1, [x29, #24]
  404f34:	aa0103e0 	mov	x0, x1
  404f38:	d37ff800 	lsl	x0, x0, #1
  404f3c:	8b010000 	add	x0, x0, x1
  404f40:	d37cec00 	lsl	x0, x0, #4
  404f44:	8b010000 	add	x0, x0, x1
  404f48:	d37df000 	lsl	x0, x0, #3
  404f4c:	aa0003e1 	mov	x1, x0
  404f50:	f9402fa0 	ldr	x0, [x29, #88]
  404f54:	8b010000 	add	x0, x0, x1
  404f58:	b9415c00 	ldr	w0, [x0, #348]
  404f5c:	7100041f 	cmp	w0, #0x1
  404f60:	54001629 	b.ls	405224 <XXCOMM_E2E_ResetSyncChn+0x370>  // b.plast
  404f64:	d0000480 	adrp	x0, 496000 <nsData+0x550>
  404f68:	91314000 	add	x0, x0, #0xc50
  404f6c:	f9400c00 	ldr	x0, [x0, #24]
  404f70:	91000401 	add	x1, x0, #0x1
  404f74:	d0000480 	adrp	x0, 496000 <nsData+0x550>
  404f78:	91314000 	add	x0, x0, #0xc50
  404f7c:	f9000c01 	str	x1, [x0, #24]
  404f80:	b9401ba1 	ldr	w1, [x29, #24]
  404f84:	aa0103e0 	mov	x0, x1
  404f88:	d37ff800 	lsl	x0, x0, #1
  404f8c:	8b010000 	add	x0, x0, x1
  404f90:	d37cec00 	lsl	x0, x0, #4
  404f94:	8b010000 	add	x0, x0, x1
  404f98:	d37df000 	lsl	x0, x0, #3
  404f9c:	aa0003e1 	mov	x1, x0
  404fa0:	f9402fa0 	ldr	x0, [x29, #88]
  404fa4:	8b010000 	add	x0, x0, x1
  404fa8:	b9416000 	ldr	w0, [x0, #352]
  404fac:	7100041f 	cmp	w0, #0x1
  404fb0:	54000260 	b.eq	404ffc <XXCOMM_E2E_ResetSyncChn+0x148>  // b.none
  404fb4:	d0000480 	adrp	x0, 496000 <nsData+0x550>
  404fb8:	91314000 	add	x0, x0, #0xc50
  404fbc:	f9401000 	ldr	x0, [x0, #32]
  404fc0:	91000401 	add	x1, x0, #0x1
  404fc4:	d0000480 	adrp	x0, 496000 <nsData+0x550>
  404fc8:	91314000 	add	x0, x0, #0xc50
  404fcc:	f9001001 	str	x1, [x0, #32]
  404fd0:	b9401ba1 	ldr	w1, [x29, #24]
  404fd4:	aa0103e0 	mov	x0, x1
  404fd8:	d37cec00 	lsl	x0, x0, #4
  404fdc:	cb010000 	sub	x0, x0, x1
  404fe0:	d37cec00 	lsl	x0, x0, #4
  404fe4:	aa0003e1 	mov	x1, x0
  404fe8:	f9402ba0 	ldr	x0, [x29, #80]
  404fec:	8b010000 	add	x0, x0, x1
  404ff0:	b9401000 	ldr	w0, [x0, #16]
  404ff4:	7100141f 	cmp	w0, #0x5
  404ff8:	54001161 	b.ne	405224 <XXCOMM_E2E_ResetSyncChn+0x370>  // b.any
  404ffc:	b9401fa0 	ldr	w0, [x29, #28]
  405000:	b9002ba0 	str	w0, [x29, #40]
  405004:	b9401ba0 	ldr	w0, [x29, #24]
  405008:	b9002fa0 	str	w0, [x29, #44]
  40500c:	b9401ba1 	ldr	w1, [x29, #24]
  405010:	aa0103e0 	mov	x0, x1
  405014:	d37ff800 	lsl	x0, x0, #1
  405018:	8b010000 	add	x0, x0, x1
  40501c:	d37cec00 	lsl	x0, x0, #4
  405020:	8b010000 	add	x0, x0, x1
  405024:	d37df000 	lsl	x0, x0, #3
  405028:	aa0003e1 	mov	x1, x0
  40502c:	f9402fa0 	ldr	x0, [x29, #88]
  405030:	8b010000 	add	x0, x0, x1
  405034:	52800061 	mov	w1, #0x3                   	// #3
  405038:	97ffff2c 	bl	404ce8 <XXCOMM_E2E_DeleteMsgChn>
  40503c:	b9004fa0 	str	w0, [x29, #76]
  405040:	b0000480 	adrp	x0, 496000 <nsData+0x550>
  405044:	91314000 	add	x0, x0, #0xc50
  405048:	f9401400 	ldr	x0, [x0, #40]
  40504c:	91000401 	add	x1, x0, #0x1
  405050:	b0000480 	adrp	x0, 496000 <nsData+0x550>
  405054:	91314000 	add	x0, x0, #0xc50
  405058:	f9001401 	str	x1, [x0, #40]
  40505c:	b9404fa0 	ldr	w0, [x29, #76]
  405060:	7100001f 	cmp	w0, #0x0
  405064:	54000400 	b.eq	4050e4 <XXCOMM_E2E_ResetSyncChn+0x230>  // b.none
  405068:	b0000480 	adrp	x0, 496000 <nsData+0x550>
  40506c:	91314000 	add	x0, x0, #0xc50
  405070:	f9401800 	ldr	x0, [x0, #48]
  405074:	91000401 	add	x1, x0, #0x1
  405078:	b0000480 	adrp	x0, 496000 <nsData+0x550>
  40507c:	91314000 	add	x0, x0, #0xc50
  405080:	f9001801 	str	x1, [x0, #48]
  405084:	b9401ba1 	ldr	w1, [x29, #24]
  405088:	b9404fa0 	ldr	w0, [x29, #76]
  40508c:	2a0003e2 	mov	w2, w0
  405090:	90000280 	adrp	x0, 455000 <_IO_stdin_used+0x2c0>
  405094:	9134e000 	add	x0, x0, #0xd38
  405098:	d2800006 	mov	x6, #0x0                   	// #0
  40509c:	aa0203e5 	mov	x5, x2
  4050a0:	aa0103e4 	mov	x4, x1
  4050a4:	2f00e400 	movi	d0, #0x0
  4050a8:	aa0003e3 	mov	x3, x0
  4050ac:	d2800042 	mov	x2, #0x2                   	// #2
  4050b0:	d2803b01 	mov	x1, #0x1d8                 	// #472
  4050b4:	f2a9ce01 	movk	x1, #0x4e70, lsl #16
  4050b8:	f2ced2c1 	movk	x1, #0x7696, lsl #32
  4050bc:	f2fa5681 	movk	x1, #0xd2b4, lsl #48
  4050c0:	52800060 	mov	w0, #0x3                   	// #3
  4050c4:	97fff165 	bl	401658 <LTR_Log>
  4050c8:	b0000480 	adrp	x0, 496000 <nsData+0x550>
  4050cc:	91314000 	add	x0, x0, #0xc50
  4050d0:	f9401c00 	ldr	x0, [x0, #56]
  4050d4:	91000401 	add	x1, x0, #0x1
  4050d8:	b0000480 	adrp	x0, 496000 <nsData+0x550>
  4050dc:	91314000 	add	x0, x0, #0xc50
  4050e0:	f9001c01 	str	x1, [x0, #56]
  4050e4:	b9401ba1 	ldr	w1, [x29, #24]
  4050e8:	aa0103e0 	mov	x0, x1
  4050ec:	d37ff800 	lsl	x0, x0, #1
  4050f0:	8b010000 	add	x0, x0, x1
  4050f4:	d37cec00 	lsl	x0, x0, #4
  4050f8:	8b010000 	add	x0, x0, x1
  4050fc:	d37df000 	lsl	x0, x0, #3
  405100:	aa0003e1 	mov	x1, x0
  405104:	f9402fa0 	ldr	x0, [x29, #88]
  405108:	8b010000 	add	x0, x0, x1
  40510c:	9100a3a1 	add	x1, x29, #0x28
  405110:	52800062 	mov	w2, #0x3                   	// #3
  405114:	97fffe0d 	bl	404948 <XXCOMM_E2E_CreateMsgChn>
  405118:	b9004fa0 	str	w0, [x29, #76]
  40511c:	b0000480 	adrp	x0, 496000 <nsData+0x550>
  405120:	91314000 	add	x0, x0, #0xc50
  405124:	f9402000 	ldr	x0, [x0, #64]
  405128:	91000401 	add	x1, x0, #0x1
  40512c:	b0000480 	adrp	x0, 496000 <nsData+0x550>
  405130:	91314000 	add	x0, x0, #0xc50
  405134:	f9002001 	str	x1, [x0, #64]
  405138:	b9404fa0 	ldr	w0, [x29, #76]
  40513c:	7100001f 	cmp	w0, #0x0
  405140:	54000420 	b.eq	4051c4 <XXCOMM_E2E_ResetSyncChn+0x310>  // b.none
  405144:	b0000480 	adrp	x0, 496000 <nsData+0x550>
  405148:	91314000 	add	x0, x0, #0xc50
  40514c:	f9402400 	ldr	x0, [x0, #72]
  405150:	91000401 	add	x1, x0, #0x1
  405154:	b0000480 	adrp	x0, 496000 <nsData+0x550>
  405158:	91314000 	add	x0, x0, #0xc50
  40515c:	f9002401 	str	x1, [x0, #72]
  405160:	b9401fa1 	ldr	w1, [x29, #28]
  405164:	b9401ba2 	ldr	w2, [x29, #24]
  405168:	b9404fa0 	ldr	w0, [x29, #76]
  40516c:	2a0003e3 	mov	w3, w0
  405170:	90000280 	adrp	x0, 455000 <_IO_stdin_used+0x2c0>
  405174:	9135c000 	add	x0, x0, #0xd70
  405178:	aa0303e6 	mov	x6, x3
  40517c:	aa0203e5 	mov	x5, x2
  405180:	aa0103e4 	mov	x4, x1
  405184:	2f00e400 	movi	d0, #0x0
  405188:	aa0003e3 	mov	x3, x0
  40518c:	d2800042 	mov	x2, #0x2                   	// #2
  405190:	d2803ba1 	mov	x1, #0x1dd                 	// #477
  405194:	f2a9ce01 	movk	x1, #0x4e70, lsl #16
  405198:	f2ced2c1 	movk	x1, #0x7696, lsl #32
  40519c:	f2fa5681 	movk	x1, #0xd2b4, lsl #48
  4051a0:	52800060 	mov	w0, #0x3                   	// #3
  4051a4:	97fff12d 	bl	401658 <LTR_Log>
  4051a8:	b0000480 	adrp	x0, 496000 <nsData+0x550>
  4051ac:	91314000 	add	x0, x0, #0xc50
  4051b0:	f9402800 	ldr	x0, [x0, #80]
  4051b4:	91000401 	add	x1, x0, #0x1
  4051b8:	b0000480 	adrp	x0, 496000 <nsData+0x550>
  4051bc:	91314000 	add	x0, x0, #0xc50
  4051c0:	f9002801 	str	x1, [x0, #80]
  4051c4:	b9401fa1 	ldr	w1, [x29, #28]
  4051c8:	b9401ba2 	ldr	w2, [x29, #24]
  4051cc:	90000280 	adrp	x0, 455000 <_IO_stdin_used+0x2c0>
  4051d0:	9136c000 	add	x0, x0, #0xdb0
  4051d4:	d2800006 	mov	x6, #0x0                   	// #0
  4051d8:	aa0203e5 	mov	x5, x2
  4051dc:	aa0103e4 	mov	x4, x1
  4051e0:	2f00e400 	movi	d0, #0x0
  4051e4:	aa0003e3 	mov	x3, x0
  4051e8:	d2800082 	mov	x2, #0x4                   	// #4
  4051ec:	d2803be1 	mov	x1, #0x1df                 	// #479
  4051f0:	f2a9ce01 	movk	x1, #0x4e70, lsl #16
  4051f4:	f2ced2c1 	movk	x1, #0x7696, lsl #32
  4051f8:	f2fa5681 	movk	x1, #0xd2b4, lsl #48
  4051fc:	52800060 	mov	w0, #0x3                   	// #3
  405200:	97fff116 	bl	401658 <LTR_Log>
  405204:	b0000480 	adrp	x0, 496000 <nsData+0x550>
  405208:	91314000 	add	x0, x0, #0xc50
  40520c:	f9402c00 	ldr	x0, [x0, #88]
  405210:	91000401 	add	x1, x0, #0x1
  405214:	b0000480 	adrp	x0, 496000 <nsData+0x550>
  405218:	91314000 	add	x0, x0, #0xc50
  40521c:	f9002c01 	str	x1, [x0, #88]
  405220:	d503201f 	nop
  405224:	d503201f 	nop
  405228:	b0000480 	adrp	x0, 496000 <nsData+0x550>
  40522c:	91314000 	add	x0, x0, #0xc50
  405230:	f9403000 	ldr	x0, [x0, #96]
  405234:	91000401 	add	x1, x0, #0x1
  405238:	b0000480 	adrp	x0, 496000 <nsData+0x550>
  40523c:	91314000 	add	x0, x0, #0xc50
  405240:	f9003001 	str	x1, [x0, #96]
  405244:	d503201f 	nop
  405248:	a8c67bfd 	ldp	x29, x30, [sp], #96
  40524c:	d65f03c0 	ret

0000000000405250 <XXCOMM_E2E_ModifySyncChn>:
  405250:	a9b67bfd 	stp	x29, x30, [sp, #-160]!
  405254:	910003fd 	mov	x29, sp
  405258:	b9001fa0 	str	w0, [x29, #28]
  40525c:	b9001ba1 	str	w1, [x29, #24]
  405260:	b0000480 	adrp	x0, 496000 <nsData+0x550>
  405264:	912f4000 	add	x0, x0, #0xbd0
  405268:	f9400000 	ldr	x0, [x0]
  40526c:	91000401 	add	x1, x0, #0x1
  405270:	b0000480 	adrp	x0, 496000 <nsData+0x550>
  405274:	912f4000 	add	x0, x0, #0xbd0
  405278:	f9000001 	str	x1, [x0]
  40527c:	a902ffbf 	stp	xzr, xzr, [x29, #40]
  405280:	a903ffbf 	stp	xzr, xzr, [x29, #56]
  405284:	a904ffbf 	stp	xzr, xzr, [x29, #72]
  405288:	a905ffbf 	stp	xzr, xzr, [x29, #88]
  40528c:	a906ffbf 	stp	xzr, xzr, [x29, #104]
  405290:	a907ffbf 	stp	xzr, xzr, [x29, #120]
  405294:	f90047bf 	str	xzr, [x29, #136]
  405298:	94004bb4 	bl	418168 <XXCOMM_E2E_DevGetFwChnList>
  40529c:	f9004fa0 	str	x0, [x29, #152]
  4052a0:	b9401ba1 	ldr	w1, [x29, #24]
  4052a4:	aa0103e0 	mov	x0, x1
  4052a8:	d37ff800 	lsl	x0, x0, #1
  4052ac:	8b010000 	add	x0, x0, x1
  4052b0:	d37cec00 	lsl	x0, x0, #4
  4052b4:	8b010000 	add	x0, x0, x1
  4052b8:	d37df000 	lsl	x0, x0, #3
  4052bc:	aa0003e1 	mov	x1, x0
  4052c0:	f9404fa0 	ldr	x0, [x29, #152]
  4052c4:	8b010000 	add	x0, x0, x1
  4052c8:	b9415800 	ldr	w0, [x0, #344]
  4052cc:	b90097a0 	str	w0, [x29, #148]
  4052d0:	b9401ba1 	ldr	w1, [x29, #24]
  4052d4:	aa0103e0 	mov	x0, x1
  4052d8:	d37ff800 	lsl	x0, x0, #1
  4052dc:	8b010000 	add	x0, x0, x1
  4052e0:	d37cec00 	lsl	x0, x0, #4
  4052e4:	8b010000 	add	x0, x0, x1
  4052e8:	d37df000 	lsl	x0, x0, #3
  4052ec:	aa0003e1 	mov	x1, x0
  4052f0:	f9404fa0 	ldr	x0, [x29, #152]
  4052f4:	8b010000 	add	x0, x0, x1
  4052f8:	b9415c00 	ldr	w0, [x0, #348]
  4052fc:	7100101f 	cmp	w0, #0x4
  405300:	54002580 	b.eq	4057b0 <XXCOMM_E2E_ModifySyncChn+0x560>  // b.none
  405304:	b0000480 	adrp	x0, 496000 <nsData+0x550>
  405308:	912f4000 	add	x0, x0, #0xbd0
  40530c:	f9400400 	ldr	x0, [x0, #8]
  405310:	91000401 	add	x1, x0, #0x1
  405314:	b0000480 	adrp	x0, 496000 <nsData+0x550>
  405318:	912f4000 	add	x0, x0, #0xbd0
  40531c:	f9000401 	str	x1, [x0, #8]
  405320:	b9401ba1 	ldr	w1, [x29, #24]
  405324:	aa0103e0 	mov	x0, x1
  405328:	d37ff800 	lsl	x0, x0, #1
  40532c:	8b010000 	add	x0, x0, x1
  405330:	d37cec00 	lsl	x0, x0, #4
  405334:	8b010000 	add	x0, x0, x1
  405338:	d37df000 	lsl	x0, x0, #3
  40533c:	aa0003e1 	mov	x1, x0
  405340:	f9404fa0 	ldr	x0, [x29, #152]
  405344:	8b010000 	add	x0, x0, x1
  405348:	b9415c00 	ldr	w0, [x0, #348]
  40534c:	7100081f 	cmp	w0, #0x2
  405350:	54001061 	b.ne	40555c <XXCOMM_E2E_ModifySyncChn+0x30c>  // b.any
  405354:	b0000480 	adrp	x0, 496000 <nsData+0x550>
  405358:	912f4000 	add	x0, x0, #0xbd0
  40535c:	f9400800 	ldr	x0, [x0, #16]
  405360:	91000401 	add	x1, x0, #0x1
  405364:	b0000480 	adrp	x0, 496000 <nsData+0x550>
  405368:	912f4000 	add	x0, x0, #0xbd0
  40536c:	f9000801 	str	x1, [x0, #16]
  405370:	b9401ba1 	ldr	w1, [x29, #24]
  405374:	aa0103e0 	mov	x0, x1
  405378:	d37ff800 	lsl	x0, x0, #1
  40537c:	8b010000 	add	x0, x0, x1
  405380:	d37cec00 	lsl	x0, x0, #4
  405384:	8b010000 	add	x0, x0, x1
  405388:	d37df000 	lsl	x0, x0, #3
  40538c:	aa0003e1 	mov	x1, x0
  405390:	f9404fa0 	ldr	x0, [x29, #152]
  405394:	8b010000 	add	x0, x0, x1
  405398:	f940a805 	ldr	x5, [x0, #336]
  40539c:	b9401ba1 	ldr	w1, [x29, #24]
  4053a0:	aa0103e0 	mov	x0, x1
  4053a4:	d37ff800 	lsl	x0, x0, #1
  4053a8:	8b010000 	add	x0, x0, x1
  4053ac:	d37cec00 	lsl	x0, x0, #4
  4053b0:	8b010000 	add	x0, x0, x1
  4053b4:	d37df000 	lsl	x0, x0, #3
  4053b8:	aa0003e1 	mov	x1, x0
  4053bc:	f9404fa0 	ldr	x0, [x29, #152]
  4053c0:	8b010000 	add	x0, x0, x1
  4053c4:	b9400c00 	ldr	w0, [x0, #12]
  4053c8:	2a0003e4 	mov	w4, w0
  4053cc:	b9401ba3 	ldr	w3, [x29, #24]
  4053d0:	52800002 	mov	w2, #0x0                   	// #0
  4053d4:	b94097a1 	ldr	w1, [x29, #148]
  4053d8:	aa0503e0 	mov	x0, x5
  4053dc:	97fff2a0 	bl	401e5c <modify_dynamic_qp>
  4053e0:	b90093a0 	str	w0, [x29, #144]
  4053e4:	b94093a0 	ldr	w0, [x29, #144]
  4053e8:	7100001f 	cmp	w0, #0x0
  4053ec:	540004c1 	b.ne	405484 <XXCOMM_E2E_ModifySyncChn+0x234>  // b.any
  4053f0:	b0000480 	adrp	x0, 496000 <nsData+0x550>
  4053f4:	912f4000 	add	x0, x0, #0xbd0
  4053f8:	f9400c00 	ldr	x0, [x0, #24]
  4053fc:	91000401 	add	x1, x0, #0x1
  405400:	b0000480 	adrp	x0, 496000 <nsData+0x550>
  405404:	912f4000 	add	x0, x0, #0xbd0
  405408:	f9000c01 	str	x1, [x0, #24]
  40540c:	b9401ba1 	ldr	w1, [x29, #24]
  405410:	aa0103e0 	mov	x0, x1
  405414:	d37ff800 	lsl	x0, x0, #1
  405418:	8b010000 	add	x0, x0, x1
  40541c:	d37cec00 	lsl	x0, x0, #4
  405420:	8b010000 	add	x0, x0, x1
  405424:	d37df000 	lsl	x0, x0, #3
  405428:	aa0003e1 	mov	x1, x0
  40542c:	f9404fa0 	ldr	x0, [x29, #152]
  405430:	8b010000 	add	x0, x0, x1
  405434:	52800061 	mov	w1, #0x3                   	// #3
  405438:	b9015c01 	str	w1, [x0, #348]
  40543c:	b9401fa1 	ldr	w1, [x29, #28]
  405440:	b9401ba2 	ldr	w2, [x29, #24]
  405444:	b94097a3 	ldr	w3, [x29, #148]
  405448:	90000280 	adrp	x0, 455000 <_IO_stdin_used+0x2c0>
  40544c:	9137c000 	add	x0, x0, #0xdf0
  405450:	aa0303e6 	mov	x6, x3
  405454:	aa0203e5 	mov	x5, x2
  405458:	aa0103e4 	mov	x4, x1
  40545c:	2f00e400 	movi	d0, #0x0
  405460:	aa0003e3 	mov	x3, x0
  405464:	d2800082 	mov	x2, #0x4                   	// #4
  405468:	d2803ee1 	mov	x1, #0x1f7                 	// #503
  40546c:	f2a9ce01 	movk	x1, #0x4e70, lsl #16
  405470:	f2ced2c1 	movk	x1, #0x7696, lsl #32
  405474:	f2fa5681 	movk	x1, #0xd2b4, lsl #48
  405478:	52800060 	mov	w0, #0x3                   	// #3
  40547c:	97fff077 	bl	401658 <LTR_Log>
  405480:	14000037 	b	40555c <XXCOMM_E2E_ModifySyncChn+0x30c>
  405484:	b0000480 	adrp	x0, 496000 <nsData+0x550>
  405488:	912be000 	add	x0, x0, #0xaf8
  40548c:	b9401ba1 	ldr	w1, [x29, #24]
  405490:	b8617800 	ldr	w0, [x0, x1, lsl #2]
  405494:	7100c41f 	cmp	w0, #0x31
  405498:	5400052c 	b.gt	40553c <XXCOMM_E2E_ModifySyncChn+0x2ec>
  40549c:	b0000480 	adrp	x0, 496000 <nsData+0x550>
  4054a0:	912f4000 	add	x0, x0, #0xbd0
  4054a4:	f9401000 	ldr	x0, [x0, #32]
  4054a8:	91000401 	add	x1, x0, #0x1
  4054ac:	b0000480 	adrp	x0, 496000 <nsData+0x550>
  4054b0:	912f4000 	add	x0, x0, #0xbd0
  4054b4:	f9001001 	str	x1, [x0, #32]
  4054b8:	b9401fa1 	ldr	w1, [x29, #28]
  4054bc:	b9401ba2 	ldr	w2, [x29, #24]
  4054c0:	b94097a3 	ldr	w3, [x29, #148]
  4054c4:	90000280 	adrp	x0, 455000 <_IO_stdin_used+0x2c0>
  4054c8:	91390000 	add	x0, x0, #0xe40
  4054cc:	aa0303e6 	mov	x6, x3
  4054d0:	aa0203e5 	mov	x5, x2
  4054d4:	aa0103e4 	mov	x4, x1
  4054d8:	2f00e400 	movi	d0, #0x0
  4054dc:	aa0003e3 	mov	x3, x0
  4054e0:	d2800042 	mov	x2, #0x2                   	// #2
  4054e4:	d2803f61 	mov	x1, #0x1fb                 	// #507
  4054e8:	f2a9ce01 	movk	x1, #0x4e70, lsl #16
  4054ec:	f2ced2c1 	movk	x1, #0x7696, lsl #32
  4054f0:	f2fa5681 	movk	x1, #0xd2b4, lsl #48
  4054f4:	52800060 	mov	w0, #0x3                   	// #3
  4054f8:	97fff058 	bl	401658 <LTR_Log>
  4054fc:	b0000480 	adrp	x0, 496000 <nsData+0x550>
  405500:	912be000 	add	x0, x0, #0xaf8
  405504:	b9401ba1 	ldr	w1, [x29, #24]
  405508:	b8617800 	ldr	w0, [x0, x1, lsl #2]
  40550c:	11000402 	add	w2, w0, #0x1
  405510:	b0000480 	adrp	x0, 496000 <nsData+0x550>
  405514:	912be000 	add	x0, x0, #0xaf8
  405518:	b9401ba1 	ldr	w1, [x29, #24]
  40551c:	b8217802 	str	w2, [x0, x1, lsl #2]
  405520:	b0000480 	adrp	x0, 496000 <nsData+0x550>
  405524:	912f4000 	add	x0, x0, #0xbd0
  405528:	f9401400 	ldr	x0, [x0, #40]
  40552c:	91000401 	add	x1, x0, #0x1
  405530:	b0000480 	adrp	x0, 496000 <nsData+0x550>
  405534:	912f4000 	add	x0, x0, #0xbd0
  405538:	f9001401 	str	x1, [x0, #40]
  40553c:	b0000480 	adrp	x0, 496000 <nsData+0x550>
  405540:	912f4000 	add	x0, x0, #0xbd0
  405544:	f9401800 	ldr	x0, [x0, #48]
  405548:	91000401 	add	x1, x0, #0x1
  40554c:	b0000480 	adrp	x0, 496000 <nsData+0x550>
  405550:	912f4000 	add	x0, x0, #0xbd0
  405554:	f9001801 	str	x1, [x0, #48]
  405558:	14000097 	b	4057b4 <XXCOMM_E2E_ModifySyncChn+0x564>
  40555c:	b0000480 	adrp	x0, 496000 <nsData+0x550>
  405560:	912be000 	add	x0, x0, #0xaf8
  405564:	b9401ba1 	ldr	w1, [x29, #24]
  405568:	b821781f 	str	wzr, [x0, x1, lsl #2]
  40556c:	b9401ba1 	ldr	w1, [x29, #24]
  405570:	aa0103e0 	mov	x0, x1
  405574:	d37ff800 	lsl	x0, x0, #1
  405578:	8b010000 	add	x0, x0, x1
  40557c:	d37cec00 	lsl	x0, x0, #4
  405580:	8b010000 	add	x0, x0, x1
  405584:	d37df000 	lsl	x0, x0, #3
  405588:	aa0003e1 	mov	x1, x0
  40558c:	f9404fa0 	ldr	x0, [x29, #152]
  405590:	8b010000 	add	x0, x0, x1
  405594:	b9415c00 	ldr	w0, [x0, #348]
  405598:	7100081f 	cmp	w0, #0x2
  40559c:	54000328 	b.hi	405600 <XXCOMM_E2E_ModifySyncChn+0x3b0>  // b.pmore
  4055a0:	b0000480 	adrp	x0, 496000 <nsData+0x550>
  4055a4:	912f4000 	add	x0, x0, #0xbd0
  4055a8:	f9401c00 	ldr	x0, [x0, #56]
  4055ac:	91000401 	add	x1, x0, #0x1
  4055b0:	b0000480 	adrp	x0, 496000 <nsData+0x550>
  4055b4:	912f4000 	add	x0, x0, #0xbd0
  4055b8:	f9001c01 	str	x1, [x0, #56]
  4055bc:	b0000480 	adrp	x0, 496000 <nsData+0x550>
  4055c0:	912cc000 	add	x0, x0, #0xb30
  4055c4:	b9401ba1 	ldr	w1, [x29, #24]
  4055c8:	b8617800 	ldr	w0, [x0, x1, lsl #2]
  4055cc:	7100041f 	cmp	w0, #0x1
  4055d0:	54000181 	b.ne	405600 <XXCOMM_E2E_ModifySyncChn+0x3b0>  // b.any
  4055d4:	b0000480 	adrp	x0, 496000 <nsData+0x550>
  4055d8:	912cc000 	add	x0, x0, #0xb30
  4055dc:	b9401ba1 	ldr	w1, [x29, #24]
  4055e0:	b821781f 	str	wzr, [x0, x1, lsl #2]
  4055e4:	b0000480 	adrp	x0, 496000 <nsData+0x550>
  4055e8:	912f4000 	add	x0, x0, #0xbd0
  4055ec:	f9402000 	ldr	x0, [x0, #64]
  4055f0:	91000401 	add	x1, x0, #0x1
  4055f4:	b0000480 	adrp	x0, 496000 <nsData+0x550>
  4055f8:	912f4000 	add	x0, x0, #0xbd0
  4055fc:	f9002001 	str	x1, [x0, #64]
  405600:	b9401ba1 	ldr	w1, [x29, #24]
  405604:	aa0103e0 	mov	x0, x1
  405608:	d37ff800 	lsl	x0, x0, #1
  40560c:	8b010000 	add	x0, x0, x1
  405610:	d37cec00 	lsl	x0, x0, #4
  405614:	8b010000 	add	x0, x0, x1
  405618:	d37df000 	lsl	x0, x0, #3
  40561c:	aa0003e1 	mov	x1, x0
  405620:	f9404fa0 	ldr	x0, [x29, #152]
  405624:	8b010000 	add	x0, x0, x1
  405628:	b9415c00 	ldr	w0, [x0, #348]
  40562c:	71000c1f 	cmp	w0, #0x3
  405630:	54000b01 	b.ne	405790 <XXCOMM_E2E_ModifySyncChn+0x540>  // b.any
  405634:	b0000480 	adrp	x0, 496000 <nsData+0x550>
  405638:	912f4000 	add	x0, x0, #0xbd0
  40563c:	f9402400 	ldr	x0, [x0, #72]
  405640:	91000401 	add	x1, x0, #0x1
  405644:	b0000480 	adrp	x0, 496000 <nsData+0x550>
  405648:	912f4000 	add	x0, x0, #0xbd0
  40564c:	f9002401 	str	x1, [x0, #72]
  405650:	b0000480 	adrp	x0, 496000 <nsData+0x550>
  405654:	912cc000 	add	x0, x0, #0xb30
  405658:	b9401ba1 	ldr	w1, [x29, #24]
  40565c:	b8617800 	ldr	w0, [x0, x1, lsl #2]
  405660:	7100001f 	cmp	w0, #0x0
  405664:	54000341 	b.ne	4056cc <XXCOMM_E2E_ModifySyncChn+0x47c>  // b.any
  405668:	b0000480 	adrp	x0, 496000 <nsData+0x550>
  40566c:	912f4000 	add	x0, x0, #0xbd0
  405670:	f9402800 	ldr	x0, [x0, #80]
  405674:	91000401 	add	x1, x0, #0x1
  405678:	b0000480 	adrp	x0, 496000 <nsData+0x550>
  40567c:	912f4000 	add	x0, x0, #0xbd0
  405680:	f9002801 	str	x1, [x0, #80]
  405684:	97fff086 	bl	40189c <LTR_GetCurrentTsc>
  405688:	aa0003e2 	mov	x2, x0
  40568c:	b0000480 	adrp	x0, 496000 <nsData+0x550>
  405690:	912da000 	add	x0, x0, #0xb68
  405694:	b9401ba1 	ldr	w1, [x29, #24]
  405698:	f8217802 	str	x2, [x0, x1, lsl #3]
  40569c:	b0000480 	adrp	x0, 496000 <nsData+0x550>
  4056a0:	912cc000 	add	x0, x0, #0xb30
  4056a4:	b9401ba1 	ldr	w1, [x29, #24]
  4056a8:	52800022 	mov	w2, #0x1                   	// #1
  4056ac:	b8217802 	str	w2, [x0, x1, lsl #2]
  4056b0:	b0000480 	adrp	x0, 496000 <nsData+0x550>
  4056b4:	912f4000 	add	x0, x0, #0xbd0
  4056b8:	f9402c00 	ldr	x0, [x0, #88]
  4056bc:	91000401 	add	x1, x0, #0x1
  4056c0:	b0000480 	adrp	x0, 496000 <nsData+0x550>
  4056c4:	912f4000 	add	x0, x0, #0xbd0
  4056c8:	f9002c01 	str	x1, [x0, #88]
  4056cc:	97fff074 	bl	40189c <LTR_GetCurrentTsc>
  4056d0:	aa0003e2 	mov	x2, x0
  4056d4:	b0000480 	adrp	x0, 496000 <nsData+0x550>
  4056d8:	912f4000 	add	x0, x0, #0xbd0
  4056dc:	f9403000 	ldr	x0, [x0, #96]
  4056e0:	91000401 	add	x1, x0, #0x1
  4056e4:	b0000480 	adrp	x0, 496000 <nsData+0x550>
  4056e8:	912f4000 	add	x0, x0, #0xbd0
  4056ec:	f9003001 	str	x1, [x0, #96]
  4056f0:	b9401ba0 	ldr	w0, [x29, #24]
  4056f4:	d37df000 	lsl	x0, x0, #3
  4056f8:	9100a3a1 	add	x1, x29, #0x28
  4056fc:	f8206822 	str	x2, [x1, x0]
  405700:	b9401ba0 	ldr	w0, [x29, #24]
  405704:	d37df000 	lsl	x0, x0, #3
  405708:	9100a3a1 	add	x1, x29, #0x28
  40570c:	f8606821 	ldr	x1, [x1, x0]
  405710:	b0000480 	adrp	x0, 496000 <nsData+0x550>
  405714:	912da000 	add	x0, x0, #0xb68
  405718:	b9401ba2 	ldr	w2, [x29, #24]
  40571c:	f8627800 	ldr	x0, [x0, x2, lsl #3]
  405720:	cb000021 	sub	x1, x1, x0
  405724:	d29c1fe0 	mov	x0, #0xe0ff                	// #57599
  405728:	f2a0bea0 	movk	x0, #0x5f5, lsl #16
  40572c:	eb00003f 	cmp	x1, x0
  405730:	54000309 	b.ls	405790 <XXCOMM_E2E_ModifySyncChn+0x540>  // b.plast
  405734:	b9401ba1 	ldr	w1, [x29, #24]
  405738:	aa0103e0 	mov	x0, x1
  40573c:	d37ff800 	lsl	x0, x0, #1
  405740:	8b010000 	add	x0, x0, x1
  405744:	d37cec00 	lsl	x0, x0, #4
  405748:	8b010000 	add	x0, x0, x1
  40574c:	d37df000 	lsl	x0, x0, #3
  405750:	aa0003e1 	mov	x1, x0
  405754:	f9404fa0 	ldr	x0, [x29, #152]
  405758:	8b010000 	add	x0, x0, x1
  40575c:	52800081 	mov	w1, #0x4                   	// #4
  405760:	b9015c01 	str	w1, [x0, #348]
  405764:	b0000480 	adrp	x0, 496000 <nsData+0x550>
  405768:	912cc000 	add	x0, x0, #0xb30
  40576c:	b9401ba1 	ldr	w1, [x29, #24]
  405770:	b821781f 	str	wzr, [x0, x1, lsl #2]
  405774:	b0000480 	adrp	x0, 496000 <nsData+0x550>
  405778:	912f4000 	add	x0, x0, #0xbd0
  40577c:	f9403400 	ldr	x0, [x0, #104]
  405780:	91000401 	add	x1, x0, #0x1
  405784:	b0000480 	adrp	x0, 496000 <nsData+0x550>
  405788:	912f4000 	add	x0, x0, #0xbd0
  40578c:	f9003401 	str	x1, [x0, #104]
  405790:	b0000480 	adrp	x0, 496000 <nsData+0x550>
  405794:	912f4000 	add	x0, x0, #0xbd0
  405798:	f9403800 	ldr	x0, [x0, #112]
  40579c:	91000401 	add	x1, x0, #0x1
  4057a0:	b0000480 	adrp	x0, 496000 <nsData+0x550>
  4057a4:	912f4000 	add	x0, x0, #0xbd0
  4057a8:	f9003801 	str	x1, [x0, #112]
  4057ac:	14000009 	b	4057d0 <XXCOMM_E2E_ModifySyncChn+0x580>
  4057b0:	d503201f 	nop
  4057b4:	b0000480 	adrp	x0, 496000 <nsData+0x550>
  4057b8:	912f4000 	add	x0, x0, #0xbd0
  4057bc:	f9403c00 	ldr	x0, [x0, #120]
  4057c0:	91000401 	add	x1, x0, #0x1
  4057c4:	b0000480 	adrp	x0, 496000 <nsData+0x550>
  4057c8:	912f4000 	add	x0, x0, #0xbd0
  4057cc:	f9003c01 	str	x1, [x0, #120]
  4057d0:	a8ca7bfd 	ldp	x29, x30, [sp], #160
  4057d4:	d65f03c0 	ret

00000000004057d8 <_GLOBAL__sub_I_00100_0_XXCOMM_E2E_IsChnMap>:
  4057d8:	a9bf7bfd 	stp	x29, x30, [sp, #-16]!
  4057dc:	910003fd 	mov	x29, sp
  4057e0:	f00003c0 	adrp	x0, 480000 <memcpy@GLIBC_2.17>
  4057e4:	910a6000 	add	x0, x0, #0x298
  4057e8:	94013ad0 	bl	454328 <__gcov_init>
  4057ec:	a8c17bfd 	ldp	x29, x30, [sp], #16
  4057f0:	d65f03c0 	ret

00000000004057f4 <_GLOBAL__sub_D_00100_1_XXCOMM_E2E_IsChnMap>:
  4057f4:	a9bf7bfd 	stp	x29, x30, [sp, #-16]!
  4057f8:	910003fd 	mov	x29, sp
  4057fc:	94013aa3 	bl	454288 <__gcov_exit>
  405800:	a8c17bfd 	ldp	x29, x30, [sp], #16
  405804:	d65f03c0 	ret

0000000000405808 <XXCOMM_GetRandNum>:
  405808:	a9bf7bfd 	stp	x29, x30, [sp, #-16]!
  40580c:	910003fd 	mov	x29, sp
  405810:	d0000480 	adrp	x0, 497000 <__gcov0.XXCOMM_E2E_CreateGeneralChn+0x18>
  405814:	91280000 	add	x0, x0, #0xa00
  405818:	f9400000 	ldr	x0, [x0]
  40581c:	91000401 	add	x1, x0, #0x1
  405820:	d0000480 	adrp	x0, 497000 <__gcov0.XXCOMM_E2E_CreateGeneralChn+0x18>
  405824:	91280000 	add	x0, x0, #0xa00
  405828:	f9000001 	str	x1, [x0]
  40582c:	97fff01c 	bl	40189c <LTR_GetCurrentTsc>
  405830:	aa0003e2 	mov	x2, x0
  405834:	d0000480 	adrp	x0, 497000 <__gcov0.XXCOMM_E2E_CreateGeneralChn+0x18>
  405838:	91280000 	add	x0, x0, #0xa00
  40583c:	f9400400 	ldr	x0, [x0, #8]
  405840:	91000401 	add	x1, x0, #0x1
  405844:	d0000480 	adrp	x0, 497000 <__gcov0.XXCOMM_E2E_CreateGeneralChn+0x18>
  405848:	91280000 	add	x0, x0, #0xa00
  40584c:	f9000401 	str	x1, [x0, #8]
  405850:	aa0203e0 	mov	x0, x2
  405854:	a8c17bfd 	ldp	x29, x30, [sp], #16
  405858:	d65f03c0 	ret

000000000040585c <XXCOMM_E2E_IsClientIdValid>:
  40585c:	d10043ff 	sub	sp, sp, #0x10
  405860:	b9000fe0 	str	w0, [sp, #12]
  405864:	b9400fe0 	ldr	w0, [sp, #12]
  405868:	7101001f 	cmp	w0, #0x40
  40586c:	540001a8 	b.hi	4058a0 <XXCOMM_E2E_IsClientIdValid+0x44>  // b.pmore
  405870:	d0000480 	adrp	x0, 497000 <__gcov0.XXCOMM_E2E_CreateGeneralChn+0x18>
  405874:	9127a000 	add	x0, x0, #0x9e8
  405878:	f9400000 	ldr	x0, [x0]
  40587c:	91000401 	add	x1, x0, #0x1
  405880:	d0000480 	adrp	x0, 497000 <__gcov0.XXCOMM_E2E_CreateGeneralChn+0x18>
  405884:	9127a000 	add	x0, x0, #0x9e8
  405888:	f9000001 	str	x1, [x0]
  40588c:	b9400fe0 	ldr	w0, [sp, #12]
  405890:	7100001f 	cmp	w0, #0x0
  405894:	54000060 	b.eq	4058a0 <XXCOMM_E2E_IsClientIdValid+0x44>  // b.none
  405898:	52800022 	mov	w2, #0x1                   	// #1
  40589c:	14000009 	b	4058c0 <XXCOMM_E2E_IsClientIdValid+0x64>
  4058a0:	52800002 	mov	w2, #0x0                   	// #0
  4058a4:	d0000480 	adrp	x0, 497000 <__gcov0.XXCOMM_E2E_CreateGeneralChn+0x18>
  4058a8:	9127a000 	add	x0, x0, #0x9e8
  4058ac:	f9400400 	ldr	x0, [x0, #8]
  4058b0:	91000401 	add	x1, x0, #0x1
  4058b4:	d0000480 	adrp	x0, 497000 <__gcov0.XXCOMM_E2E_CreateGeneralChn+0x18>
  4058b8:	9127a000 	add	x0, x0, #0x9e8
  4058bc:	f9000401 	str	x1, [x0, #8]
  4058c0:	d0000480 	adrp	x0, 497000 <__gcov0.XXCOMM_E2E_CreateGeneralChn+0x18>
  4058c4:	9127a000 	add	x0, x0, #0x9e8
  4058c8:	f9400800 	ldr	x0, [x0, #16]
  4058cc:	91000401 	add	x1, x0, #0x1
  4058d0:	d0000480 	adrp	x0, 497000 <__gcov0.XXCOMM_E2E_CreateGeneralChn+0x18>
  4058d4:	9127a000 	add	x0, x0, #0x9e8
  4058d8:	f9000801 	str	x1, [x0, #16]
  4058dc:	2a0203e0 	mov	w0, w2
  4058e0:	910043ff 	add	sp, sp, #0x10
  4058e4:	d65f03c0 	ret

00000000004058e8 <XXCOMM_E2E_IsSessionIdValid>:
  4058e8:	d10043ff 	sub	sp, sp, #0x10
  4058ec:	b9000fe0 	str	w0, [sp, #12]
  4058f0:	b9400fe0 	ldr	w0, [sp, #12]
  4058f4:	7103fc1f 	cmp	w0, #0xff
  4058f8:	1a9f87e0 	cset	w0, ls  // ls = plast
  4058fc:	12001c00 	and	w0, w0, #0xff
  405900:	2a0003e2 	mov	w2, w0
  405904:	d0000480 	adrp	x0, 497000 <__gcov0.XXCOMM_E2E_CreateGeneralChn+0x18>
  405908:	91278000 	add	x0, x0, #0x9e0
  40590c:	f9400000 	ldr	x0, [x0]
  405910:	91000401 	add	x1, x0, #0x1
  405914:	d0000480 	adrp	x0, 497000 <__gcov0.XXCOMM_E2E_CreateGeneralChn+0x18>
  405918:	91278000 	add	x0, x0, #0x9e0
  40591c:	f9000001 	str	x1, [x0]
  405920:	2a0203e0 	mov	w0, w2
  405924:	910043ff 	add	sp, sp, #0x10
  405928:	d65f03c0 	ret

000000000040592c <XXCOMM_E2E_ClientRespProc>:
  40592c:	a9bc7bfd 	stp	x29, x30, [sp, #-64]!
  405930:	910003fd 	mov	x29, sp
  405934:	f90017a0 	str	x0, [x29, #40]
  405938:	f90013a1 	str	x1, [x29, #32]
  40593c:	f9000fa2 	str	x2, [x29, #24]
  405940:	d0000480 	adrp	x0, 497000 <__gcov0.XXCOMM_E2E_CreateGeneralChn+0x18>
  405944:	9126c000 	add	x0, x0, #0x9b0
  405948:	f9400000 	ldr	x0, [x0]
  40594c:	91000401 	add	x1, x0, #0x1
  405950:	d0000480 	adrp	x0, 497000 <__gcov0.XXCOMM_E2E_CreateGeneralChn+0x18>
  405954:	9126c000 	add	x0, x0, #0x9b0
  405958:	f9000001 	str	x1, [x0]
  40595c:	f9001fbf 	str	xzr, [x29, #56]
  405960:	9100e3a0 	add	x0, x29, #0x38
  405964:	94004a4e 	bl	41829c <XXCOMM_E2E_GetDevConnectLock>
  405968:	d0000480 	adrp	x0, 497000 <__gcov0.XXCOMM_E2E_CreateGeneralChn+0x18>
  40596c:	9126c000 	add	x0, x0, #0x9b0
  405970:	f9400400 	ldr	x0, [x0, #8]
  405974:	91000401 	add	x1, x0, #0x1
  405978:	d0000480 	adrp	x0, 497000 <__gcov0.XXCOMM_E2E_CreateGeneralChn+0x18>
  40597c:	9126c000 	add	x0, x0, #0x9b0
  405980:	f9000401 	str	x1, [x0, #8]
  405984:	f9401fa0 	ldr	x0, [x29, #56]
  405988:	94009d50 	bl	42cec8 <XXCOMM_ShmLock>
  40598c:	f94013a2 	ldr	x2, [x29, #32]
  405990:	f94017a0 	ldr	x0, [x29, #40]
  405994:	a9400400 	ldp	x0, x1, [x0]
  405998:	a90a8440 	stp	x0, x1, [x2, #168]
  40599c:	f94013a0 	ldr	x0, [x29, #32]
  4059a0:	b940a801 	ldr	w1, [x0, #168]
  4059a4:	f94013a0 	ldr	x0, [x29, #32]
  4059a8:	b9404800 	ldr	w0, [x0, #72]
  4059ac:	6b00003f 	cmp	w1, w0
  4059b0:	54000180 	b.eq	4059e0 <XXCOMM_E2E_ClientRespProc+0xb4>  // b.none
  4059b4:	f94013a0 	ldr	x0, [x29, #32]
  4059b8:	52800021 	mov	w1, #0x1                   	// #1
  4059bc:	b9011801 	str	w1, [x0, #280]
  4059c0:	d0000480 	adrp	x0, 497000 <__gcov0.XXCOMM_E2E_CreateGeneralChn+0x18>
  4059c4:	9126c000 	add	x0, x0, #0x9b0
  4059c8:	f9400800 	ldr	x0, [x0, #16]
  4059cc:	91000401 	add	x1, x0, #0x1
  4059d0:	d0000480 	adrp	x0, 497000 <__gcov0.XXCOMM_E2E_CreateGeneralChn+0x18>
  4059d4:	9126c000 	add	x0, x0, #0x9b0
  4059d8:	f9000801 	str	x1, [x0, #16]
  4059dc:	1400000a 	b	405a04 <XXCOMM_E2E_ClientRespProc+0xd8>
  4059e0:	f94013a0 	ldr	x0, [x29, #32]
  4059e4:	b901181f 	str	wzr, [x0, #280]
  4059e8:	d0000480 	adrp	x0, 497000 <__gcov0.XXCOMM_E2E_CreateGeneralChn+0x18>
  4059ec:	9126c000 	add	x0, x0, #0x9b0
  4059f0:	f9400c00 	ldr	x0, [x0, #24]
  4059f4:	91000401 	add	x1, x0, #0x1
  4059f8:	d0000480 	adrp	x0, 497000 <__gcov0.XXCOMM_E2E_CreateGeneralChn+0x18>
  4059fc:	9126c000 	add	x0, x0, #0x9b0
  405a00:	f9000c01 	str	x1, [x0, #24]
  405a04:	f94013a0 	ldr	x0, [x29, #32]
  405a08:	52800041 	mov	w1, #0x2                   	// #2
  405a0c:	b9010801 	str	w1, [x0, #264]
  405a10:	97ffefa3 	bl	40189c <LTR_GetCurrentTsc>
  405a14:	aa0003e2 	mov	x2, x0
  405a18:	d0000480 	adrp	x0, 497000 <__gcov0.XXCOMM_E2E_CreateGeneralChn+0x18>
  405a1c:	9126c000 	add	x0, x0, #0x9b0
  405a20:	f9401000 	ldr	x0, [x0, #32]
  405a24:	91000401 	add	x1, x0, #0x1
  405a28:	d0000480 	adrp	x0, 497000 <__gcov0.XXCOMM_E2E_CreateGeneralChn+0x18>
  405a2c:	9126c000 	add	x0, x0, #0x9b0
  405a30:	f9001001 	str	x1, [x0, #32]
  405a34:	f9400fa0 	ldr	x0, [x29, #24]
  405a38:	f9000402 	str	x2, [x0, #8]
  405a3c:	f9401fa0 	ldr	x0, [x29, #56]
  405a40:	94009d38 	bl	42cf20 <XXCOMM_ShmUnLock>
  405a44:	d503201f 	nop
  405a48:	d0000480 	adrp	x0, 497000 <__gcov0.XXCOMM_E2E_CreateGeneralChn+0x18>
  405a4c:	9126c000 	add	x0, x0, #0x9b0
  405a50:	f9401400 	ldr	x0, [x0, #40]
  405a54:	91000401 	add	x1, x0, #0x1
  405a58:	d0000480 	adrp	x0, 497000 <__gcov0.XXCOMM_E2E_CreateGeneralChn+0x18>
  405a5c:	9126c000 	add	x0, x0, #0x9b0
  405a60:	f9001401 	str	x1, [x0, #40]
  405a64:	a8c47bfd 	ldp	x29, x30, [sp], #64
  405a68:	d65f03c0 	ret

0000000000405a6c <XXCOMM_E2E_ClientResetTrxCnt>:
  405a6c:	a9be7bfd 	stp	x29, x30, [sp, #-32]!
  405a70:	910003fd 	mov	x29, sp
  405a74:	f9000fa0 	str	x0, [x29, #24]
  405a78:	f9400fa0 	ldr	x0, [x29, #24]
  405a7c:	f100001f 	cmp	x0, #0x0
  405a80:	540003e1 	b.ne	405afc <XXCOMM_E2E_ClientResetTrxCnt+0x90>  // b.any
  405a84:	d0000480 	adrp	x0, 497000 <__gcov0.XXCOMM_E2E_CreateGeneralChn+0x18>
  405a88:	91264000 	add	x0, x0, #0x990
  405a8c:	f9400000 	ldr	x0, [x0]
  405a90:	91000401 	add	x1, x0, #0x1
  405a94:	d0000480 	adrp	x0, 497000 <__gcov0.XXCOMM_E2E_CreateGeneralChn+0x18>
  405a98:	91264000 	add	x0, x0, #0x990
  405a9c:	f9000001 	str	x1, [x0]
  405aa0:	90000280 	adrp	x0, 455000 <_IO_stdin_used+0x2c0>
  405aa4:	913ca000 	add	x0, x0, #0xf28
  405aa8:	d2800006 	mov	x6, #0x0                   	// #0
  405aac:	d2800005 	mov	x5, #0x0                   	// #0
  405ab0:	d2800004 	mov	x4, #0x0                   	// #0
  405ab4:	2f00e400 	movi	d0, #0x0
  405ab8:	aa0003e3 	mov	x3, x0
  405abc:	d2800042 	mov	x2, #0x2                   	// #2
  405ac0:	d2800621 	mov	x1, #0x31                  	// #49
  405ac4:	f2b9dfa1 	movk	x1, #0xcefd, lsl #16
  405ac8:	f2c4ef41 	movk	x1, #0x277a, lsl #32
  405acc:	f2e70b41 	movk	x1, #0x385a, lsl #48
  405ad0:	52800060 	mov	w0, #0x3                   	// #3
  405ad4:	97ffeee1 	bl	401658 <LTR_Log>
  405ad8:	d503201f 	nop
  405adc:	d0000480 	adrp	x0, 497000 <__gcov0.XXCOMM_E2E_CreateGeneralChn+0x18>
  405ae0:	91264000 	add	x0, x0, #0x990
  405ae4:	f9400400 	ldr	x0, [x0, #8]
  405ae8:	91000401 	add	x1, x0, #0x1
  405aec:	d0000480 	adrp	x0, 497000 <__gcov0.XXCOMM_E2E_CreateGeneralChn+0x18>
  405af0:	91264000 	add	x0, x0, #0x990
  405af4:	f9000401 	str	x1, [x0, #8]
  405af8:	14000023 	b	405b84 <XXCOMM_E2E_ClientResetTrxCnt+0x118>
  405afc:	f9400fa0 	ldr	x0, [x29, #24]
  405b00:	f900b81f 	str	xzr, [x0, #368]
  405b04:	f9400fa0 	ldr	x0, [x29, #24]
  405b08:	b9404000 	ldr	w0, [x0, #64]
  405b0c:	7100001f 	cmp	w0, #0x0
  405b10:	54000141 	b.ne	405b38 <XXCOMM_E2E_ClientResetTrxCnt+0xcc>  // b.any
  405b14:	f9400fa0 	ldr	x0, [x29, #24]
  405b18:	b901781f 	str	wzr, [x0, #376]
  405b1c:	f9400fa0 	ldr	x0, [x29, #24]
  405b20:	b9017c1f 	str	wzr, [x0, #380]
  405b24:	f9400fa0 	ldr	x0, [x29, #24]
  405b28:	b901801f 	str	wzr, [x0, #384]
  405b2c:	f9400fa0 	ldr	x0, [x29, #24]
  405b30:	b901841f 	str	wzr, [x0, #388]
  405b34:	1400000c 	b	405b64 <XXCOMM_E2E_ClientResetTrxCnt+0xf8>
  405b38:	f9400fa0 	ldr	x0, [x29, #24]
  405b3c:	b901881f 	str	wzr, [x0, #392]
  405b40:	f9400fa0 	ldr	x0, [x29, #24]
  405b44:	b9018c1f 	str	wzr, [x0, #396]
  405b48:	d0000480 	adrp	x0, 497000 <__gcov0.XXCOMM_E2E_CreateGeneralChn+0x18>
  405b4c:	91264000 	add	x0, x0, #0x990
  405b50:	f9400800 	ldr	x0, [x0, #16]
  405b54:	91000401 	add	x1, x0, #0x1
  405b58:	d0000480 	adrp	x0, 497000 <__gcov0.XXCOMM_E2E_CreateGeneralChn+0x18>
  405b5c:	91264000 	add	x0, x0, #0x990
  405b60:	f9000801 	str	x1, [x0, #16]
  405b64:	d0000480 	adrp	x0, 497000 <__gcov0.XXCOMM_E2E_CreateGeneralChn+0x18>
  405b68:	91264000 	add	x0, x0, #0x990
  405b6c:	f9400c00 	ldr	x0, [x0, #24]
  405b70:	91000401 	add	x1, x0, #0x1
  405b74:	d0000480 	adrp	x0, 497000 <__gcov0.XXCOMM_E2E_CreateGeneralChn+0x18>
  405b78:	91264000 	add	x0, x0, #0x990
  405b7c:	f9000c01 	str	x1, [x0, #24]
  405b80:	d503201f 	nop
  405b84:	a8c27bfd 	ldp	x29, x30, [sp], #32
  405b88:	d65f03c0 	ret

0000000000405b8c <XXCOMM_E2E_DlinkUpdateSessionStatus>:
  405b8c:	a9be7bfd 	stp	x29, x30, [sp, #-32]!
  405b90:	910003fd 	mov	x29, sp
  405b94:	f9000fa0 	str	x0, [x29, #24]
  405b98:	f9000ba1 	str	x1, [x29, #16]
  405b9c:	f9400fa0 	ldr	x0, [x29, #24]
  405ba0:	b9411800 	ldr	w0, [x0, #280]
  405ba4:	7100001f 	cmp	w0, #0x0
  405ba8:	540002e0 	b.eq	405c04 <XXCOMM_E2E_DlinkUpdateSessionStatus+0x78>  // b.none
  405bac:	d0000480 	adrp	x0, 497000 <__gcov0.XXCOMM_E2E_CreateGeneralChn+0x18>
  405bb0:	91258000 	add	x0, x0, #0x960
  405bb4:	f9400000 	ldr	x0, [x0]
  405bb8:	91000401 	add	x1, x0, #0x1
  405bbc:	d0000480 	adrp	x0, 497000 <__gcov0.XXCOMM_E2E_CreateGeneralChn+0x18>
  405bc0:	91258000 	add	x0, x0, #0x960
  405bc4:	f9000001 	str	x1, [x0]
  405bc8:	f9400fa0 	ldr	x0, [x29, #24]
  405bcc:	b9404000 	ldr	w0, [x0, #64]
  405bd0:	7100041f 	cmp	w0, #0x1
  405bd4:	54000180 	b.eq	405c04 <XXCOMM_E2E_DlinkUpdateSessionStatus+0x78>  // b.none
  405bd8:	d0000480 	adrp	x0, 497000 <__gcov0.XXCOMM_E2E_CreateGeneralChn+0x18>
  405bdc:	91258000 	add	x0, x0, #0x960
  405be0:	f9400400 	ldr	x0, [x0, #8]
  405be4:	91000401 	add	x1, x0, #0x1
  405be8:	d0000480 	adrp	x0, 497000 <__gcov0.XXCOMM_E2E_CreateGeneralChn+0x18>
  405bec:	91258000 	add	x0, x0, #0x960
  405bf0:	f9000401 	str	x1, [x0, #8]
  405bf4:	f9400fa0 	ldr	x0, [x29, #24]
  405bf8:	b9410c00 	ldr	w0, [x0, #268]
  405bfc:	7100041f 	cmp	w0, #0x1
  405c00:	54000421 	b.ne	405c84 <XXCOMM_E2E_DlinkUpdateSessionStatus+0xf8>  // b.any
  405c04:	f9400fa0 	ldr	x0, [x29, #24]
  405c08:	528000a1 	mov	w1, #0x5                   	// #5
  405c0c:	b9010801 	str	w1, [x0, #264]
  405c10:	f9400ba0 	ldr	x0, [x29, #16]
  405c14:	f100001f 	cmp	x0, #0x0
  405c18:	54000260 	b.eq	405c64 <XXCOMM_E2E_DlinkUpdateSessionStatus+0xd8>  // b.none
  405c1c:	d0000480 	adrp	x0, 497000 <__gcov0.XXCOMM_E2E_CreateGeneralChn+0x18>
  405c20:	91258000 	add	x0, x0, #0x960
  405c24:	f9400800 	ldr	x0, [x0, #16]
  405c28:	91000401 	add	x1, x0, #0x1
  405c2c:	d0000480 	adrp	x0, 497000 <__gcov0.XXCOMM_E2E_CreateGeneralChn+0x18>
  405c30:	91258000 	add	x0, x0, #0x960
  405c34:	f9000801 	str	x1, [x0, #16]
  405c38:	97ffef19 	bl	40189c <LTR_GetCurrentTsc>
  405c3c:	aa0003e1 	mov	x1, x0
  405c40:	f9400ba0 	ldr	x0, [x29, #16]
  405c44:	f9000801 	str	x1, [x0, #16]
  405c48:	d0000480 	adrp	x0, 497000 <__gcov0.XXCOMM_E2E_CreateGeneralChn+0x18>
  405c4c:	91258000 	add	x0, x0, #0x960
  405c50:	f9400c00 	ldr	x0, [x0, #24]
  405c54:	91000401 	add	x1, x0, #0x1
  405c58:	d0000480 	adrp	x0, 497000 <__gcov0.XXCOMM_E2E_CreateGeneralChn+0x18>
  405c5c:	91258000 	add	x0, x0, #0x960
  405c60:	f9000c01 	str	x1, [x0, #24]
  405c64:	d0000480 	adrp	x0, 497000 <__gcov0.XXCOMM_E2E_CreateGeneralChn+0x18>
  405c68:	91258000 	add	x0, x0, #0x960
  405c6c:	f9401000 	ldr	x0, [x0, #32]
  405c70:	91000401 	add	x1, x0, #0x1
  405c74:	d0000480 	adrp	x0, 497000 <__gcov0.XXCOMM_E2E_CreateGeneralChn+0x18>
  405c78:	91258000 	add	x0, x0, #0x960
  405c7c:	f9001001 	str	x1, [x0, #32]
  405c80:	1400000b 	b	405cac <XXCOMM_E2E_DlinkUpdateSessionStatus+0x120>
  405c84:	f9400fa0 	ldr	x0, [x29, #24]
  405c88:	52800081 	mov	w1, #0x4                   	// #4
  405c8c:	b9010801 	str	w1, [x0, #264]
  405c90:	d0000480 	adrp	x0, 497000 <__gcov0.XXCOMM_E2E_CreateGeneralChn+0x18>
  405c94:	91258000 	add	x0, x0, #0x960
  405c98:	f9401400 	ldr	x0, [x0, #40]
  405c9c:	91000401 	add	x1, x0, #0x1
  405ca0:	d0000480 	adrp	x0, 497000 <__gcov0.XXCOMM_E2E_CreateGeneralChn+0x18>
  405ca4:	91258000 	add	x0, x0, #0x960
  405ca8:	f9001401 	str	x1, [x0, #40]
  405cac:	d503201f 	nop
  405cb0:	a8c27bfd 	ldp	x29, x30, [sp], #32
  405cb4:	d65f03c0 	ret

0000000000405cb8 <XXCOMM_E2E_ClientDlinkNoticeRecv>:
  405cb8:	a9bb7bfd 	stp	x29, x30, [sp, #-80]!
  405cbc:	910003fd 	mov	x29, sp
  405cc0:	f9000fa0 	str	x0, [x29, #24]
  405cc4:	d0000480 	adrp	x0, 497000 <__gcov0.XXCOMM_E2E_CreateGeneralChn+0x18>
  405cc8:	91232000 	add	x0, x0, #0x8c8
  405ccc:	f9400000 	ldr	x0, [x0]
  405cd0:	91000401 	add	x1, x0, #0x1
  405cd4:	d0000480 	adrp	x0, 497000 <__gcov0.XXCOMM_E2E_CreateGeneralChn+0x18>
  405cd8:	91232000 	add	x0, x0, #0x8c8
  405cdc:	f9000001 	str	x1, [x0]
  405ce0:	b9004bbf 	str	wzr, [x29, #72]
  405ce4:	f90023bf 	str	xzr, [x29, #64]
  405ce8:	f9001fbf 	str	xzr, [x29, #56]
  405cec:	f9400fa0 	ldr	x0, [x29, #24]
  405cf0:	f9400000 	ldr	x0, [x0]
  405cf4:	f9001ba0 	str	x0, [x29, #48]
  405cf8:	f9400fa0 	ldr	x0, [x29, #24]
  405cfc:	f9400000 	ldr	x0, [x0]
  405d00:	f90017a0 	str	x0, [x29, #40]
  405d04:	f9401ba0 	ldr	x0, [x29, #48]
  405d08:	b9401800 	ldr	w0, [x0, #24]
  405d0c:	94007828 	bl	423dac <XXCOMM_DFX_GetClientSessionDfx>
  405d10:	f90013a0 	str	x0, [x29, #32]
  405d14:	d0000480 	adrp	x0, 497000 <__gcov0.XXCOMM_E2E_CreateGeneralChn+0x18>
  405d18:	91232000 	add	x0, x0, #0x8c8
  405d1c:	f9400400 	ldr	x0, [x0, #8]
  405d20:	91000401 	add	x1, x0, #0x1
  405d24:	d0000480 	adrp	x0, 497000 <__gcov0.XXCOMM_E2E_CreateGeneralChn+0x18>
  405d28:	91232000 	add	x0, x0, #0x8c8
  405d2c:	f9000401 	str	x1, [x0, #8]
  405d30:	940048ce 	bl	418068 <XXCOMM_E2E_GetSessionListInClient>
  405d34:	f90023a0 	str	x0, [x29, #64]
  405d38:	f9401ba0 	ldr	x0, [x29, #48]
  405d3c:	b9401800 	ldr	w0, [x0, #24]
  405d40:	2a0003e1 	mov	w1, w0
  405d44:	d2803500 	mov	x0, #0x1a8                 	// #424
  405d48:	9b007c20 	mul	x0, x1, x0
  405d4c:	f94023a1 	ldr	x1, [x29, #64]
  405d50:	8b000020 	add	x0, x1, x0
  405d54:	f9001fa0 	str	x0, [x29, #56]
  405d58:	f9401fa0 	ldr	x0, [x29, #56]
  405d5c:	9102e002 	add	x2, x0, #0xb8
  405d60:	f9401ba0 	ldr	x0, [x29, #48]
  405d64:	91008001 	add	x1, x0, #0x20
  405d68:	aa0203e0 	mov	x0, x2
  405d6c:	a9400c22 	ldp	x2, x3, [x1]
  405d70:	a9000c02 	stp	x2, x3, [x0]
  405d74:	a9410c22 	ldp	x2, x3, [x1, #16]
  405d78:	a9010c02 	stp	x2, x3, [x0, #16]
  405d7c:	a9420c22 	ldp	x2, x3, [x1, #32]
  405d80:	a9020c02 	stp	x2, x3, [x0, #32]
  405d84:	a9430c22 	ldp	x2, x3, [x1, #48]
  405d88:	a9030c02 	stp	x2, x3, [x0, #48]
  405d8c:	a9440821 	ldp	x1, x2, [x1, #64]
  405d90:	a9040801 	stp	x1, x2, [x0, #64]
  405d94:	f9401fa2 	ldr	x2, [x29, #56]
  405d98:	f9401ba0 	ldr	x0, [x29, #48]
  405d9c:	a9400400 	ldp	x0, x1, [x0]
  405da0:	a90a8440 	stp	x0, x1, [x2, #168]
  405da4:	f9401fa0 	ldr	x0, [x29, #56]
  405da8:	f9406001 	ldr	x1, [x0, #192]
  405dac:	f9401fa0 	ldr	x0, [x29, #56]
  405db0:	f9003001 	str	x1, [x0, #96]
  405db4:	f9401fa0 	ldr	x0, [x29, #56]
  405db8:	b9404801 	ldr	w1, [x0, #72]
  405dbc:	f9401fa0 	ldr	x0, [x29, #56]
  405dc0:	b940a800 	ldr	w0, [x0, #168]
  405dc4:	6b00003f 	cmp	w1, w0
  405dc8:	54000180 	b.eq	405df8 <XXCOMM_E2E_ClientDlinkNoticeRecv+0x140>  // b.none
  405dcc:	f9401fa0 	ldr	x0, [x29, #56]
  405dd0:	52800021 	mov	w1, #0x1                   	// #1
  405dd4:	b9011801 	str	w1, [x0, #280]
  405dd8:	d0000480 	adrp	x0, 497000 <__gcov0.XXCOMM_E2E_CreateGeneralChn+0x18>
  405ddc:	91232000 	add	x0, x0, #0x8c8
  405de0:	f9400800 	ldr	x0, [x0, #16]
  405de4:	91000401 	add	x1, x0, #0x1
  405de8:	d0000480 	adrp	x0, 497000 <__gcov0.XXCOMM_E2E_CreateGeneralChn+0x18>
  405dec:	91232000 	add	x0, x0, #0x8c8
  405df0:	f9000801 	str	x1, [x0, #16]
  405df4:	1400000a 	b	405e1c <XXCOMM_E2E_ClientDlinkNoticeRecv+0x164>
  405df8:	f9401fa0 	ldr	x0, [x29, #56]
  405dfc:	b901181f 	str	wzr, [x0, #280]
  405e00:	d0000480 	adrp	x0, 497000 <__gcov0.XXCOMM_E2E_CreateGeneralChn+0x18>
  405e04:	91232000 	add	x0, x0, #0x8c8
  405e08:	f9400c00 	ldr	x0, [x0, #24]
  405e0c:	91000401 	add	x1, x0, #0x1
  405e10:	d0000480 	adrp	x0, 497000 <__gcov0.XXCOMM_E2E_CreateGeneralChn+0x18>
  405e14:	91232000 	add	x0, x0, #0x8c8
  405e18:	f9000c01 	str	x1, [x0, #24]
  405e1c:	d5033e9f 	dsb	st
  405e20:	d0000480 	adrp	x0, 497000 <__gcov0.XXCOMM_E2E_CreateGeneralChn+0x18>
  405e24:	91232000 	add	x0, x0, #0x8c8
  405e28:	f9401000 	ldr	x0, [x0, #32]
  405e2c:	91000401 	add	x1, x0, #0x1
  405e30:	d0000480 	adrp	x0, 497000 <__gcov0.XXCOMM_E2E_CreateGeneralChn+0x18>
  405e34:	91232000 	add	x0, x0, #0x8c8
  405e38:	f9001001 	str	x1, [x0, #32]
  405e3c:	f9401fa0 	ldr	x0, [x29, #56]
  405e40:	9400741e 	bl	422eb8 <XXCOMM_E2E_ClientGetDlinkRefCnt>
  405e44:	2a0003e2 	mov	w2, w0
  405e48:	d0000480 	adrp	x0, 497000 <__gcov0.XXCOMM_E2E_CreateGeneralChn+0x18>
  405e4c:	91232000 	add	x0, x0, #0x8c8
  405e50:	f9401400 	ldr	x0, [x0, #40]
  405e54:	91000401 	add	x1, x0, #0x1
  405e58:	d0000480 	adrp	x0, 497000 <__gcov0.XXCOMM_E2E_CreateGeneralChn+0x18>
  405e5c:	91232000 	add	x0, x0, #0x8c8
  405e60:	f9001401 	str	x1, [x0, #40]
  405e64:	7100005f 	cmp	w2, #0x0
  405e68:	54000620 	b.eq	405f2c <XXCOMM_E2E_ClientDlinkNoticeRecv+0x274>  // b.none
  405e6c:	d0000480 	adrp	x0, 497000 <__gcov0.XXCOMM_E2E_CreateGeneralChn+0x18>
  405e70:	91232000 	add	x0, x0, #0x8c8
  405e74:	f9401800 	ldr	x0, [x0, #48]
  405e78:	91000401 	add	x1, x0, #0x1
  405e7c:	d0000480 	adrp	x0, 497000 <__gcov0.XXCOMM_E2E_CreateGeneralChn+0x18>
  405e80:	91232000 	add	x0, x0, #0x8c8
  405e84:	f9001801 	str	x1, [x0, #48]
  405e88:	f9401fa0 	ldr	x0, [x29, #56]
  405e8c:	94006abb 	bl	420978 <XXCOMM_E2E_ClientFreeDlink>
  405e90:	d0000480 	adrp	x0, 497000 <__gcov0.XXCOMM_E2E_CreateGeneralChn+0x18>
  405e94:	91232000 	add	x0, x0, #0x8c8
  405e98:	f9401c00 	ldr	x0, [x0, #56]
  405e9c:	91000401 	add	x1, x0, #0x1
  405ea0:	d0000480 	adrp	x0, 497000 <__gcov0.XXCOMM_E2E_CreateGeneralChn+0x18>
  405ea4:	91232000 	add	x0, x0, #0x8c8
  405ea8:	f9001c01 	str	x1, [x0, #56]
  405eac:	f9401fa0 	ldr	x0, [x29, #56]
  405eb0:	b9010c1f 	str	wzr, [x0, #268]
  405eb4:	f9401fa0 	ldr	x0, [x29, #56]
  405eb8:	52800021 	mov	w1, #0x1                   	// #1
  405ebc:	b9010801 	str	w1, [x0, #264]
  405ec0:	f9401fa0 	ldr	x0, [x29, #56]
  405ec4:	b9410800 	ldr	w0, [x0, #264]
  405ec8:	2a0003e1 	mov	w1, w0
  405ecc:	f9401fa0 	ldr	x0, [x29, #56]
  405ed0:	b9411800 	ldr	w0, [x0, #280]
  405ed4:	2a0003e2 	mov	w2, w0
  405ed8:	90000280 	adrp	x0, 455000 <_IO_stdin_used+0x2c0>
  405edc:	913d6000 	add	x0, x0, #0xf58
  405ee0:	d2800006 	mov	x6, #0x0                   	// #0
  405ee4:	aa0203e5 	mov	x5, x2
  405ee8:	aa0103e4 	mov	x4, x1
  405eec:	2f00e400 	movi	d0, #0x0
  405ef0:	aa0003e3 	mov	x3, x0
  405ef4:	d2800082 	mov	x2, #0x4                   	// #4
  405ef8:	d2800e01 	mov	x1, #0x70                  	// #112
  405efc:	f2b9dfa1 	movk	x1, #0xcefd, lsl #16
  405f00:	f2c4ef41 	movk	x1, #0x277a, lsl #32
  405f04:	f2e70b41 	movk	x1, #0x385a, lsl #48
  405f08:	52800060 	mov	w0, #0x3                   	// #3
  405f0c:	97ffedd3 	bl	401658 <LTR_Log>
  405f10:	d0000480 	adrp	x0, 497000 <__gcov0.XXCOMM_E2E_CreateGeneralChn+0x18>
  405f14:	91232000 	add	x0, x0, #0x8c8
  405f18:	f9402000 	ldr	x0, [x0, #64]
  405f1c:	91000401 	add	x1, x0, #0x1
  405f20:	d0000480 	adrp	x0, 497000 <__gcov0.XXCOMM_E2E_CreateGeneralChn+0x18>
  405f24:	91232000 	add	x0, x0, #0x8c8
  405f28:	f9002001 	str	x1, [x0, #64]
  405f2c:	f9401fa0 	ldr	x0, [x29, #56]
  405f30:	94006a09 	bl	420754 <XXCOMM_E2E_ClientAllocDlink>
  405f34:	b9004fa0 	str	w0, [x29, #76]
  405f38:	d0000480 	adrp	x0, 497000 <__gcov0.XXCOMM_E2E_CreateGeneralChn+0x18>
  405f3c:	91232000 	add	x0, x0, #0x8c8
  405f40:	f9402400 	ldr	x0, [x0, #72]
  405f44:	91000401 	add	x1, x0, #0x1
  405f48:	d0000480 	adrp	x0, 497000 <__gcov0.XXCOMM_E2E_CreateGeneralChn+0x18>
  405f4c:	91232000 	add	x0, x0, #0x8c8
  405f50:	f9002401 	str	x1, [x0, #72]
  405f54:	b9404fa0 	ldr	w0, [x29, #76]
  405f58:	7100001f 	cmp	w0, #0x0
  405f5c:	540008c1 	b.ne	406074 <XXCOMM_E2E_ClientDlinkNoticeRecv+0x3bc>  // b.any
  405f60:	d0000480 	adrp	x0, 497000 <__gcov0.XXCOMM_E2E_CreateGeneralChn+0x18>
  405f64:	91232000 	add	x0, x0, #0x8c8
  405f68:	f9402800 	ldr	x0, [x0, #80]
  405f6c:	91000401 	add	x1, x0, #0x1
  405f70:	d0000480 	adrp	x0, 497000 <__gcov0.XXCOMM_E2E_CreateGeneralChn+0x18>
  405f74:	91232000 	add	x0, x0, #0x8c8
  405f78:	f9002801 	str	x1, [x0, #80]
  405f7c:	f9401fa0 	ldr	x0, [x29, #56]
  405f80:	b9411800 	ldr	w0, [x0, #280]
  405f84:	7100041f 	cmp	w0, #0x1
  405f88:	54000761 	b.ne	406074 <XXCOMM_E2E_ClientDlinkNoticeRecv+0x3bc>  // b.any
  405f8c:	d0000480 	adrp	x0, 497000 <__gcov0.XXCOMM_E2E_CreateGeneralChn+0x18>
  405f90:	91232000 	add	x0, x0, #0x8c8
  405f94:	f9402c00 	ldr	x0, [x0, #88]
  405f98:	91000401 	add	x1, x0, #0x1
  405f9c:	d0000480 	adrp	x0, 497000 <__gcov0.XXCOMM_E2E_CreateGeneralChn+0x18>
  405fa0:	91232000 	add	x0, x0, #0x8c8
  405fa4:	f9002c01 	str	x1, [x0, #88]
  405fa8:	f9401fa0 	ldr	x0, [x29, #56]
  405fac:	52800081 	mov	w1, #0x4                   	// #4
  405fb0:	b9010801 	str	w1, [x0, #264]
  405fb4:	f9401fa0 	ldr	x0, [x29, #56]
  405fb8:	b9409400 	ldr	w0, [x0, #148]
  405fbc:	2a0003e1 	mov	w1, w0
  405fc0:	f9401fa0 	ldr	x0, [x29, #56]
  405fc4:	b940f400 	ldr	w0, [x0, #244]
  405fc8:	2a0003e2 	mov	w2, w0
  405fcc:	90000280 	adrp	x0, 455000 <_IO_stdin_used+0x2c0>
  405fd0:	913f0000 	add	x0, x0, #0xfc0
  405fd4:	d2800006 	mov	x6, #0x0                   	// #0
  405fd8:	aa0203e5 	mov	x5, x2
  405fdc:	aa0103e4 	mov	x4, x1
  405fe0:	2f00e400 	movi	d0, #0x0
  405fe4:	aa0003e3 	mov	x3, x0
  405fe8:	d2800082 	mov	x2, #0x4                   	// #4
  405fec:	d2800ec1 	mov	x1, #0x76                  	// #118
  405ff0:	f2b9dfa1 	movk	x1, #0xcefd, lsl #16
  405ff4:	f2c4ef41 	movk	x1, #0x277a, lsl #32
  405ff8:	f2e70b41 	movk	x1, #0x385a, lsl #48
  405ffc:	52800060 	mov	w0, #0x3                   	// #3
  406000:	97ffed96 	bl	401658 <LTR_Log>
  406004:	b0000480 	adrp	x0, 497000 <__gcov0.XXCOMM_E2E_CreateGeneralChn+0x18>
  406008:	91232000 	add	x0, x0, #0x8c8
  40600c:	f9403000 	ldr	x0, [x0, #96]
  406010:	91000401 	add	x1, x0, #0x1
  406014:	b0000480 	adrp	x0, 497000 <__gcov0.XXCOMM_E2E_CreateGeneralChn+0x18>
  406018:	91232000 	add	x0, x0, #0x8c8
  40601c:	f9003001 	str	x1, [x0, #96]
  406020:	f9401fa0 	ldr	x0, [x29, #56]
  406024:	91024005 	add	x5, x0, #0x90
  406028:	f9401fa0 	ldr	x0, [x29, #56]
  40602c:	b940f401 	ldr	w1, [x0, #244]
  406030:	f9401fa0 	ldr	x0, [x29, #56]
  406034:	b9404802 	ldr	w2, [x0, #72]
  406038:	f9401fa0 	ldr	x0, [x29, #56]
  40603c:	b940a800 	ldr	w0, [x0, #168]
  406040:	2a0003e4 	mov	w4, w0
  406044:	52800003 	mov	w3, #0x0                   	// #0
  406048:	aa0503e0 	mov	x0, x5
  40604c:	9400917b 	bl	42a638 <XXCOMM_ModifyDqp>
  406050:	b9004fa0 	str	w0, [x29, #76]
  406054:	b0000480 	adrp	x0, 497000 <__gcov0.XXCOMM_E2E_CreateGeneralChn+0x18>
  406058:	91232000 	add	x0, x0, #0x8c8
  40605c:	f9403400 	ldr	x0, [x0, #104]
  406060:	91000401 	add	x1, x0, #0x1
  406064:	b0000480 	adrp	x0, 497000 <__gcov0.XXCOMM_E2E_CreateGeneralChn+0x18>
  406068:	91232000 	add	x0, x0, #0x8c8
  40606c:	f9003401 	str	x1, [x0, #104]
  406070:	1400002c 	b	406120 <XXCOMM_E2E_ClientDlinkNoticeRecv+0x468>
  406074:	b9404fa0 	ldr	w0, [x29, #76]
  406078:	7100001f 	cmp	w0, #0x0
  40607c:	54000520 	b.eq	406120 <XXCOMM_E2E_ClientDlinkNoticeRecv+0x468>  // b.none
  406080:	b0000480 	adrp	x0, 497000 <__gcov0.XXCOMM_E2E_CreateGeneralChn+0x18>
  406084:	91232000 	add	x0, x0, #0x8c8
  406088:	f9403800 	ldr	x0, [x0, #112]
  40608c:	91000401 	add	x1, x0, #0x1
  406090:	b0000480 	adrp	x0, 497000 <__gcov0.XXCOMM_E2E_CreateGeneralChn+0x18>
  406094:	91232000 	add	x0, x0, #0x8c8
  406098:	f9003801 	str	x1, [x0, #112]
  40609c:	f94017a0 	ldr	x0, [x29, #40]
  4060a0:	52800021 	mov	w1, #0x1                   	// #1
  4060a4:	b9005001 	str	w1, [x0, #80]
  4060a8:	f9400fa0 	ldr	x0, [x29, #24]
  4060ac:	f9400400 	ldr	x0, [x0, #8]
  4060b0:	52800b01 	mov	w1, #0x58                  	// #88
  4060b4:	b9000001 	str	w1, [x0]
  4060b8:	f94017a0 	ldr	x0, [x29, #40]
  4060bc:	b9405000 	ldr	w0, [x0, #80]
  4060c0:	2a0003e1 	mov	w1, w0
  4060c4:	90000280 	adrp	x0, 456000 <_IO_stdin_used+0x12c0>
  4060c8:	91006000 	add	x0, x0, #0x18
  4060cc:	d2800006 	mov	x6, #0x0                   	// #0
  4060d0:	d2800005 	mov	x5, #0x0                   	// #0
  4060d4:	aa0103e4 	mov	x4, x1
  4060d8:	2f00e400 	movi	d0, #0x0
  4060dc:	aa0003e3 	mov	x3, x0
  4060e0:	d2800042 	mov	x2, #0x2                   	// #2
  4060e4:	d2800fa1 	mov	x1, #0x7d                  	// #125
  4060e8:	f2b9dfa1 	movk	x1, #0xcefd, lsl #16
  4060ec:	f2c4ef41 	movk	x1, #0x277a, lsl #32
  4060f0:	f2e70b41 	movk	x1, #0x385a, lsl #48
  4060f4:	52800060 	mov	w0, #0x3                   	// #3
  4060f8:	97ffed58 	bl	401658 <LTR_Log>
  4060fc:	b9404fa0 	ldr	w0, [x29, #76]
  406100:	b0000481 	adrp	x1, 497000 <__gcov0.XXCOMM_E2E_CreateGeneralChn+0x18>
  406104:	91232021 	add	x1, x1, #0x8c8
  406108:	f9403c21 	ldr	x1, [x1, #120]
  40610c:	91000422 	add	x2, x1, #0x1
  406110:	b0000481 	adrp	x1, 497000 <__gcov0.XXCOMM_E2E_CreateGeneralChn+0x18>
  406114:	91232021 	add	x1, x1, #0x8c8
  406118:	f9003c22 	str	x2, [x1, #120]
  40611c:	14000032 	b	4061e4 <XXCOMM_E2E_ClientDlinkNoticeRecv+0x52c>
  406120:	d5033fdf 	isb
  406124:	b0000480 	adrp	x0, 497000 <__gcov0.XXCOMM_E2E_CreateGeneralChn+0x18>
  406128:	91232000 	add	x0, x0, #0x8c8
  40612c:	f9404000 	ldr	x0, [x0, #128]
  406130:	91000401 	add	x1, x0, #0x1
  406134:	b0000480 	adrp	x0, 497000 <__gcov0.XXCOMM_E2E_CreateGeneralChn+0x18>
  406138:	91232000 	add	x0, x0, #0x8c8
  40613c:	f9004001 	str	x1, [x0, #128]
  406140:	f94017a2 	ldr	x2, [x29, #40]
  406144:	f9401fa0 	ldr	x0, [x29, #56]
  406148:	91016001 	add	x1, x0, #0x58
  40614c:	aa0203e0 	mov	x0, x2
  406150:	a9400c22 	ldp	x2, x3, [x1]
  406154:	a9000c02 	stp	x2, x3, [x0]
  406158:	a9410c22 	ldp	x2, x3, [x1, #16]
  40615c:	a9010c02 	stp	x2, x3, [x0, #16]
  406160:	a9420c22 	ldp	x2, x3, [x1, #32]
  406164:	a9020c02 	stp	x2, x3, [x0, #32]
  406168:	a9430c22 	ldp	x2, x3, [x1, #48]
  40616c:	a9030c02 	stp	x2, x3, [x0, #48]
  406170:	a9440821 	ldp	x1, x2, [x1, #64]
  406174:	a9040801 	stp	x1, x2, [x0, #64]
  406178:	f9400fa0 	ldr	x0, [x29, #24]
  40617c:	f9400400 	ldr	x0, [x0, #8]
  406180:	52800b01 	mov	w1, #0x58                  	// #88
  406184:	b9000001 	str	w1, [x0]
  406188:	f94017a0 	ldr	x0, [x29, #40]
  40618c:	b9404ba1 	ldr	w1, [x29, #72]
  406190:	b9005001 	str	w1, [x0, #80]
  406194:	f9401fa0 	ldr	x0, [x29, #56]
  406198:	97fffe35 	bl	405a6c <XXCOMM_E2E_ClientResetTrxCnt>
  40619c:	b0000480 	adrp	x0, 497000 <__gcov0.XXCOMM_E2E_CreateGeneralChn+0x18>
  4061a0:	91232000 	add	x0, x0, #0x8c8
  4061a4:	f9404400 	ldr	x0, [x0, #136]
  4061a8:	91000401 	add	x1, x0, #0x1
  4061ac:	b0000480 	adrp	x0, 497000 <__gcov0.XXCOMM_E2E_CreateGeneralChn+0x18>
  4061b0:	91232000 	add	x0, x0, #0x8c8
  4061b4:	f9004401 	str	x1, [x0, #136]
  4061b8:	f94013a1 	ldr	x1, [x29, #32]
  4061bc:	f9401fa0 	ldr	x0, [x29, #56]
  4061c0:	97fffe73 	bl	405b8c <XXCOMM_E2E_DlinkUpdateSessionStatus>
  4061c4:	b9404fa0 	ldr	w0, [x29, #76]
  4061c8:	b0000481 	adrp	x1, 497000 <__gcov0.XXCOMM_E2E_CreateGeneralChn+0x18>
  4061cc:	91232021 	add	x1, x1, #0x8c8
  4061d0:	f9404821 	ldr	x1, [x1, #144]
  4061d4:	91000422 	add	x2, x1, #0x1
  4061d8:	b0000481 	adrp	x1, 497000 <__gcov0.XXCOMM_E2E_CreateGeneralChn+0x18>
  4061dc:	91232021 	add	x1, x1, #0x8c8
  4061e0:	f9004822 	str	x2, [x1, #144]
  4061e4:	a8c57bfd 	ldp	x29, x30, [sp], #80
  4061e8:	d65f03c0 	ret

00000000004061ec <XXCOMM_E2E_SetRemoteStatusInSession>:
  4061ec:	d10043ff 	sub	sp, sp, #0x10
  4061f0:	f90007e0 	str	x0, [sp, #8]
  4061f4:	f90003e1 	str	x1, [sp]
  4061f8:	b0000480 	adrp	x0, 497000 <__gcov0.XXCOMM_E2E_CreateGeneralChn+0x18>
  4061fc:	91230000 	add	x0, x0, #0x8c0
  406200:	f9400000 	ldr	x0, [x0]
  406204:	91000401 	add	x1, x0, #0x1
  406208:	b0000480 	adrp	x0, 497000 <__gcov0.XXCOMM_E2E_CreateGeneralChn+0x18>
  40620c:	91230000 	add	x0, x0, #0x8c0
  406210:	f9000001 	str	x1, [x0]
  406214:	f94003e0 	ldr	x0, [sp]
  406218:	b9400001 	ldr	w1, [x0]
  40621c:	f94007e0 	ldr	x0, [sp, #8]
  406220:	b901a001 	str	w1, [x0, #416]
  406224:	f94003e0 	ldr	x0, [sp]
  406228:	b9400401 	ldr	w1, [x0, #4]
  40622c:	f94007e0 	ldr	x0, [sp, #8]
  406230:	b901a401 	str	w1, [x0, #420]
  406234:	d503201f 	nop
  406238:	910043ff 	add	sp, sp, #0x10
  40623c:	d65f03c0 	ret

0000000000406240 <XXCOMM_E2E_ClientModifyNoticeRecv>:
  406240:	a9bb7bfd 	stp	x29, x30, [sp, #-80]!
  406244:	910003fd 	mov	x29, sp
  406248:	f9000bf3 	str	x19, [sp, #16]
  40624c:	f90017a0 	str	x0, [x29, #40]
  406250:	b0000480 	adrp	x0, 497000 <__gcov0.XXCOMM_E2E_CreateGeneralChn+0x18>
  406254:	91218000 	add	x0, x0, #0x860
  406258:	f9400000 	ldr	x0, [x0]
  40625c:	91000401 	add	x1, x0, #0x1
  406260:	b0000480 	adrp	x0, 497000 <__gcov0.XXCOMM_E2E_CreateGeneralChn+0x18>
  406264:	91218000 	add	x0, x0, #0x860
  406268:	f9000001 	str	x1, [x0]
  40626c:	f90027bf 	str	xzr, [x29, #72]
  406270:	f90023bf 	str	xzr, [x29, #64]
  406274:	f94017a0 	ldr	x0, [x29, #40]
  406278:	f9400000 	ldr	x0, [x0]
  40627c:	f9001fa0 	str	x0, [x29, #56]
  406280:	f9401fa0 	ldr	x0, [x29, #56]
  406284:	b9401800 	ldr	w0, [x0, #24]
  406288:	940076c9 	bl	423dac <XXCOMM_DFX_GetClientSessionDfx>
  40628c:	f9001ba0 	str	x0, [x29, #48]
  406290:	b0000480 	adrp	x0, 497000 <__gcov0.XXCOMM_E2E_CreateGeneralChn+0x18>
  406294:	91218000 	add	x0, x0, #0x860
  406298:	f9400400 	ldr	x0, [x0, #8]
  40629c:	91000401 	add	x1, x0, #0x1
  4062a0:	b0000480 	adrp	x0, 497000 <__gcov0.XXCOMM_E2E_CreateGeneralChn+0x18>
  4062a4:	91218000 	add	x0, x0, #0x860
  4062a8:	f9000401 	str	x1, [x0, #8]
  4062ac:	9400476f 	bl	418068 <XXCOMM_E2E_GetSessionListInClient>
  4062b0:	f90027a0 	str	x0, [x29, #72]
  4062b4:	b0000480 	adrp	x0, 497000 <__gcov0.XXCOMM_E2E_CreateGeneralChn+0x18>
  4062b8:	91218000 	add	x0, x0, #0x860
  4062bc:	f9400800 	ldr	x0, [x0, #16]
  4062c0:	91000401 	add	x1, x0, #0x1
  4062c4:	b0000480 	adrp	x0, 497000 <__gcov0.XXCOMM_E2E_CreateGeneralChn+0x18>
  4062c8:	91218000 	add	x0, x0, #0x860
  4062cc:	f9000801 	str	x1, [x0, #16]
  4062d0:	f9401fa0 	ldr	x0, [x29, #56]
  4062d4:	b9401800 	ldr	w0, [x0, #24]
  4062d8:	2a0003e1 	mov	w1, w0
  4062dc:	d2803500 	mov	x0, #0x1a8                 	// #424
  4062e0:	9b007c20 	mul	x0, x1, x0
  4062e4:	f94027a1 	ldr	x1, [x29, #72]
  4062e8:	8b000020 	add	x0, x1, x0
  4062ec:	f90023a0 	str	x0, [x29, #64]
  4062f0:	f94023a0 	ldr	x0, [x29, #64]
  4062f4:	52800021 	mov	w1, #0x1                   	// #1
  4062f8:	b9010c01 	str	w1, [x0, #268]
  4062fc:	f94023a0 	ldr	x0, [x29, #64]
  406300:	b9410800 	ldr	w0, [x0, #264]
  406304:	7100101f 	cmp	w0, #0x4
  406308:	54000401 	b.ne	406388 <XXCOMM_E2E_ClientModifyNoticeRecv+0x148>  // b.any
  40630c:	b0000480 	adrp	x0, 497000 <__gcov0.XXCOMM_E2E_CreateGeneralChn+0x18>
  406310:	91218000 	add	x0, x0, #0x860
  406314:	f9400c00 	ldr	x0, [x0, #24]
  406318:	91000401 	add	x1, x0, #0x1
  40631c:	b0000480 	adrp	x0, 497000 <__gcov0.XXCOMM_E2E_CreateGeneralChn+0x18>
  406320:	91218000 	add	x0, x0, #0x860
  406324:	f9000c01 	str	x1, [x0, #24]
  406328:	f94023a0 	ldr	x0, [x29, #64]
  40632c:	528000a1 	mov	w1, #0x5                   	// #5
  406330:	b9010801 	str	w1, [x0, #264]
  406334:	f9401ba0 	ldr	x0, [x29, #48]
  406338:	f100001f 	cmp	x0, #0x0
  40633c:	54000260 	b.eq	406388 <XXCOMM_E2E_ClientModifyNoticeRecv+0x148>  // b.none
  406340:	b0000480 	adrp	x0, 497000 <__gcov0.XXCOMM_E2E_CreateGeneralChn+0x18>
  406344:	91218000 	add	x0, x0, #0x860
  406348:	f9401000 	ldr	x0, [x0, #32]
  40634c:	91000401 	add	x1, x0, #0x1
  406350:	b0000480 	adrp	x0, 497000 <__gcov0.XXCOMM_E2E_CreateGeneralChn+0x18>
  406354:	91218000 	add	x0, x0, #0x860
  406358:	f9001001 	str	x1, [x0, #32]
  40635c:	97ffed50 	bl	40189c <LTR_GetCurrentTsc>
  406360:	aa0003e1 	mov	x1, x0
  406364:	f9401ba0 	ldr	x0, [x29, #48]
  406368:	f9000801 	str	x1, [x0, #16]
  40636c:	b0000480 	adrp	x0, 497000 <__gcov0.XXCOMM_E2E_CreateGeneralChn+0x18>
  406370:	91218000 	add	x0, x0, #0x860
  406374:	f9401400 	ldr	x0, [x0, #40]
  406378:	91000401 	add	x1, x0, #0x1
  40637c:	b0000480 	adrp	x0, 497000 <__gcov0.XXCOMM_E2E_CreateGeneralChn+0x18>
  406380:	91218000 	add	x0, x0, #0x860
  406384:	f9001401 	str	x1, [x0, #40]
  406388:	f9401fa0 	ldr	x0, [x29, #56]
  40638c:	91008000 	add	x0, x0, #0x20
  406390:	aa0003e1 	mov	x1, x0
  406394:	f94023a0 	ldr	x0, [x29, #64]
  406398:	97ffff95 	bl	4061ec <XXCOMM_E2E_SetRemoteStatusInSession>
  40639c:	b0000480 	adrp	x0, 497000 <__gcov0.XXCOMM_E2E_CreateGeneralChn+0x18>
  4063a0:	91218000 	add	x0, x0, #0x860
  4063a4:	f9401800 	ldr	x0, [x0, #48]
  4063a8:	91000401 	add	x1, x0, #0x1
  4063ac:	b0000480 	adrp	x0, 497000 <__gcov0.XXCOMM_E2E_CreateGeneralChn+0x18>
  4063b0:	91218000 	add	x0, x0, #0x860
  4063b4:	f9001801 	str	x1, [x0, #48]
  4063b8:	f94023a0 	ldr	x0, [x29, #64]
  4063bc:	9100a000 	add	x0, x0, #0x28
  4063c0:	aa0003e3 	mov	x3, x0
  4063c4:	d2800082 	mov	x2, #0x4                   	// #4
  4063c8:	d28014c1 	mov	x1, #0xa6                  	// #166
  4063cc:	f2b9dfa1 	movk	x1, #0xcefd, lsl #16
  4063d0:	f2c4ef41 	movk	x1, #0x277a, lsl #32
  4063d4:	f2e70b41 	movk	x1, #0x385a, lsl #48
  4063d8:	52800060 	mov	w0, #0x3                   	// #3
  4063dc:	97ffecc8 	bl	4016fc <LTR_StrLog>
  4063e0:	b0000480 	adrp	x0, 497000 <__gcov0.XXCOMM_E2E_CreateGeneralChn+0x18>
  4063e4:	91218000 	add	x0, x0, #0x860
  4063e8:	f9401c00 	ldr	x0, [x0, #56]
  4063ec:	91000401 	add	x1, x0, #0x1
  4063f0:	b0000480 	adrp	x0, 497000 <__gcov0.XXCOMM_E2E_CreateGeneralChn+0x18>
  4063f4:	91218000 	add	x0, x0, #0x860
  4063f8:	f9001c01 	str	x1, [x0, #56]
  4063fc:	f94023a0 	ldr	x0, [x29, #64]
  406400:	b9405000 	ldr	w0, [x0, #80]
  406404:	2a0003e1 	mov	w1, w0
  406408:	f94023a0 	ldr	x0, [x29, #64]
  40640c:	b9410800 	ldr	w0, [x0, #264]
  406410:	2a0003e2 	mov	w2, w0
  406414:	90000280 	adrp	x0, 456000 <_IO_stdin_used+0x12c0>
  406418:	91012000 	add	x0, x0, #0x48
  40641c:	d2800006 	mov	x6, #0x0                   	// #0
  406420:	aa0203e5 	mov	x5, x2
  406424:	aa0103e4 	mov	x4, x1
  406428:	2f00e400 	movi	d0, #0x0
  40642c:	aa0003e3 	mov	x3, x0
  406430:	d2800082 	mov	x2, #0x4                   	// #4
  406434:	d2801501 	mov	x1, #0xa8                  	// #168
  406438:	f2b9dfa1 	movk	x1, #0xcefd, lsl #16
  40643c:	f2c4ef41 	movk	x1, #0x277a, lsl #32
  406440:	f2e70b41 	movk	x1, #0x385a, lsl #48
  406444:	52800060 	mov	w0, #0x3                   	// #3
  406448:	97ffec84 	bl	401658 <LTR_Log>
  40644c:	b0000480 	adrp	x0, 497000 <__gcov0.XXCOMM_E2E_CreateGeneralChn+0x18>
  406450:	91218000 	add	x0, x0, #0x860
  406454:	f9402000 	ldr	x0, [x0, #64]
  406458:	91000401 	add	x1, x0, #0x1
  40645c:	b0000480 	adrp	x0, 497000 <__gcov0.XXCOMM_E2E_CreateGeneralChn+0x18>
  406460:	91218000 	add	x0, x0, #0x860
  406464:	f9002001 	str	x1, [x0, #64]
  406468:	f94023a0 	ldr	x0, [x29, #64]
  40646c:	94008252 	bl	426db4 <XXCOMM_E2E_GetRemoteServerStatus>
  406470:	2a0003e2 	mov	w2, w0
  406474:	b0000480 	adrp	x0, 497000 <__gcov0.XXCOMM_E2E_CreateGeneralChn+0x18>
  406478:	91218000 	add	x0, x0, #0x860
  40647c:	f9402400 	ldr	x0, [x0, #72]
  406480:	91000401 	add	x1, x0, #0x1
  406484:	b0000480 	adrp	x0, 497000 <__gcov0.XXCOMM_E2E_CreateGeneralChn+0x18>
  406488:	91218000 	add	x0, x0, #0x860
  40648c:	f9002401 	str	x1, [x0, #72]
  406490:	2a0203f3 	mov	w19, w2
  406494:	f94023a0 	ldr	x0, [x29, #64]
  406498:	94008255 	bl	426dec <XXCOMM_E2E_GetRemoteClientStatus>
  40649c:	2a0003e2 	mov	w2, w0
  4064a0:	b0000480 	adrp	x0, 497000 <__gcov0.XXCOMM_E2E_CreateGeneralChn+0x18>
  4064a4:	91218000 	add	x0, x0, #0x860
  4064a8:	f9402800 	ldr	x0, [x0, #80]
  4064ac:	91000401 	add	x1, x0, #0x1
  4064b0:	b0000480 	adrp	x0, 497000 <__gcov0.XXCOMM_E2E_CreateGeneralChn+0x18>
  4064b4:	91218000 	add	x0, x0, #0x860
  4064b8:	f9002801 	str	x1, [x0, #80]
  4064bc:	2a0203e1 	mov	w1, w2
  4064c0:	90000280 	adrp	x0, 456000 <_IO_stdin_used+0x12c0>
  4064c4:	9102c000 	add	x0, x0, #0xb0
  4064c8:	d2800006 	mov	x6, #0x0                   	// #0
  4064cc:	aa0103e5 	mov	x5, x1
  4064d0:	aa1303e4 	mov	x4, x19
  4064d4:	2f00e400 	movi	d0, #0x0
  4064d8:	aa0003e3 	mov	x3, x0
  4064dc:	d2800082 	mov	x2, #0x4                   	// #4
  4064e0:	d2801541 	mov	x1, #0xaa                  	// #170
  4064e4:	f2b9dfa1 	movk	x1, #0xcefd, lsl #16
  4064e8:	f2c4ef41 	movk	x1, #0x277a, lsl #32
  4064ec:	f2e70b41 	movk	x1, #0x385a, lsl #48
  4064f0:	52800060 	mov	w0, #0x3                   	// #3
  4064f4:	97ffec59 	bl	401658 <LTR_Log>
  4064f8:	52800002 	mov	w2, #0x0                   	// #0
  4064fc:	b0000480 	adrp	x0, 497000 <__gcov0.XXCOMM_E2E_CreateGeneralChn+0x18>
  406500:	91218000 	add	x0, x0, #0x860
  406504:	f9402c00 	ldr	x0, [x0, #88]
  406508:	91000401 	add	x1, x0, #0x1
  40650c:	b0000480 	adrp	x0, 497000 <__gcov0.XXCOMM_E2E_CreateGeneralChn+0x18>
  406510:	91218000 	add	x0, x0, #0x860
  406514:	f9002c01 	str	x1, [x0, #88]
  406518:	2a0203e0 	mov	w0, w2
  40651c:	f9400bf3 	ldr	x19, [sp, #16]
  406520:	a8c57bfd 	ldp	x29, x30, [sp], #80
  406524:	d65f03c0 	ret

0000000000406528 <XXCOMM_E2E_ClientCloseNoticeRecv>:
  406528:	a9bb7bfd 	stp	x29, x30, [sp, #-80]!
  40652c:	910003fd 	mov	x29, sp
  406530:	a90153f3 	stp	x19, x20, [sp, #16]
  406534:	f90017a0 	str	x0, [x29, #40]
  406538:	b0000480 	adrp	x0, 497000 <__gcov0.XXCOMM_E2E_CreateGeneralChn+0x18>
  40653c:	911fe000 	add	x0, x0, #0x7f8
  406540:	f9400000 	ldr	x0, [x0]
  406544:	91000401 	add	x1, x0, #0x1
  406548:	b0000480 	adrp	x0, 497000 <__gcov0.XXCOMM_E2E_CreateGeneralChn+0x18>
  40654c:	911fe000 	add	x0, x0, #0x7f8
  406550:	f9000001 	str	x1, [x0]
  406554:	f90027bf 	str	xzr, [x29, #72]
  406558:	f90023bf 	str	xzr, [x29, #64]
  40655c:	f94017a0 	ldr	x0, [x29, #40]
  406560:	f9400000 	ldr	x0, [x0]
  406564:	f9001fa0 	str	x0, [x29, #56]
  406568:	f9401fa0 	ldr	x0, [x29, #56]
  40656c:	b9400800 	ldr	w0, [x0, #8]
  406570:	97fffcde 	bl	4058e8 <XXCOMM_E2E_IsSessionIdValid>
  406574:	7100001f 	cmp	w0, #0x0
  406578:	54000441 	b.ne	406600 <XXCOMM_E2E_ClientCloseNoticeRecv+0xd8>  // b.any
  40657c:	b0000480 	adrp	x0, 497000 <__gcov0.XXCOMM_E2E_CreateGeneralChn+0x18>
  406580:	911fe000 	add	x0, x0, #0x7f8
  406584:	f9400400 	ldr	x0, [x0, #8]
  406588:	91000401 	add	x1, x0, #0x1
  40658c:	b0000480 	adrp	x0, 497000 <__gcov0.XXCOMM_E2E_CreateGeneralChn+0x18>
  406590:	911fe000 	add	x0, x0, #0x7f8
  406594:	f9000401 	str	x1, [x0, #8]
  406598:	f9401fa0 	ldr	x0, [x29, #56]
  40659c:	b9400800 	ldr	w0, [x0, #8]
  4065a0:	2a0003e1 	mov	w1, w0
  4065a4:	90000280 	adrp	x0, 456000 <_IO_stdin_used+0x12c0>
  4065a8:	91042000 	add	x0, x0, #0x108
  4065ac:	d2800006 	mov	x6, #0x0                   	// #0
  4065b0:	d2800005 	mov	x5, #0x0                   	// #0
  4065b4:	aa0103e4 	mov	x4, x1
  4065b8:	2f00e400 	movi	d0, #0x0
  4065bc:	aa0003e3 	mov	x3, x0
  4065c0:	d2800042 	mov	x2, #0x2                   	// #2
  4065c4:	d28016e1 	mov	x1, #0xb7                  	// #183
  4065c8:	f2b9dfa1 	movk	x1, #0xcefd, lsl #16
  4065cc:	f2c4ef41 	movk	x1, #0x277a, lsl #32
  4065d0:	f2e70b41 	movk	x1, #0x385a, lsl #48
  4065d4:	52800060 	mov	w0, #0x3                   	// #3
  4065d8:	97ffec20 	bl	401658 <LTR_Log>
  4065dc:	52800002 	mov	w2, #0x0                   	// #0
  4065e0:	b0000480 	adrp	x0, 497000 <__gcov0.XXCOMM_E2E_CreateGeneralChn+0x18>
  4065e4:	911fe000 	add	x0, x0, #0x7f8
  4065e8:	f9400c00 	ldr	x0, [x0, #24]
  4065ec:	91000401 	add	x1, x0, #0x1
  4065f0:	b0000480 	adrp	x0, 497000 <__gcov0.XXCOMM_E2E_CreateGeneralChn+0x18>
  4065f4:	911fe000 	add	x0, x0, #0x7f8
  4065f8:	f9000c01 	str	x1, [x0, #24]
  4065fc:	140000a8 	b	40689c <XXCOMM_E2E_ClientCloseNoticeRecv+0x374>
  406600:	b0000480 	adrp	x0, 497000 <__gcov0.XXCOMM_E2E_CreateGeneralChn+0x18>
  406604:	911fe000 	add	x0, x0, #0x7f8
  406608:	f9400800 	ldr	x0, [x0, #16]
  40660c:	91000401 	add	x1, x0, #0x1
  406610:	b0000480 	adrp	x0, 497000 <__gcov0.XXCOMM_E2E_CreateGeneralChn+0x18>
  406614:	911fe000 	add	x0, x0, #0x7f8
  406618:	f9000801 	str	x1, [x0, #16]
  40661c:	94004693 	bl	418068 <XXCOMM_E2E_GetSessionListInClient>
  406620:	f90027a0 	str	x0, [x29, #72]
  406624:	b0000480 	adrp	x0, 497000 <__gcov0.XXCOMM_E2E_CreateGeneralChn+0x18>
  406628:	911fe000 	add	x0, x0, #0x7f8
  40662c:	f9401000 	ldr	x0, [x0, #32]
  406630:	91000401 	add	x1, x0, #0x1
  406634:	b0000480 	adrp	x0, 497000 <__gcov0.XXCOMM_E2E_CreateGeneralChn+0x18>
  406638:	911fe000 	add	x0, x0, #0x7f8
  40663c:	f9001001 	str	x1, [x0, #32]
  406640:	f9401fa0 	ldr	x0, [x29, #56]
  406644:	b9400800 	ldr	w0, [x0, #8]
  406648:	2a0003e1 	mov	w1, w0
  40664c:	d2803500 	mov	x0, #0x1a8                 	// #424
  406650:	9b007c20 	mul	x0, x1, x0
  406654:	f94027a1 	ldr	x1, [x29, #72]
  406658:	8b000020 	add	x0, x1, x0
  40665c:	f90023a0 	str	x0, [x29, #64]
  406660:	f9401fa0 	ldr	x0, [x29, #56]
  406664:	91008000 	add	x0, x0, #0x20
  406668:	aa0003e1 	mov	x1, x0
  40666c:	f94023a0 	ldr	x0, [x29, #64]
  406670:	97fffedf 	bl	4061ec <XXCOMM_E2E_SetRemoteStatusInSession>
  406674:	f94023a0 	ldr	x0, [x29, #64]
  406678:	b9410800 	ldr	w0, [x0, #264]
  40667c:	7100001f 	cmp	w0, #0x0
  406680:	54000180 	b.eq	4066b0 <XXCOMM_E2E_ClientCloseNoticeRecv+0x188>  // b.none
  406684:	b0000480 	adrp	x0, 497000 <__gcov0.XXCOMM_E2E_CreateGeneralChn+0x18>
  406688:	911fe000 	add	x0, x0, #0x7f8
  40668c:	f9401400 	ldr	x0, [x0, #40]
  406690:	91000401 	add	x1, x0, #0x1
  406694:	b0000480 	adrp	x0, 497000 <__gcov0.XXCOMM_E2E_CreateGeneralChn+0x18>
  406698:	911fe000 	add	x0, x0, #0x7f8
  40669c:	f9001401 	str	x1, [x0, #40]
  4066a0:	f94023a0 	ldr	x0, [x29, #64]
  4066a4:	b9410800 	ldr	w0, [x0, #264]
  4066a8:	7100181f 	cmp	w0, #0x6
  4066ac:	54000141 	b.ne	4066d4 <XXCOMM_E2E_ClientCloseNoticeRecv+0x1ac>  // b.any
  4066b0:	52800002 	mov	w2, #0x0                   	// #0
  4066b4:	b0000480 	adrp	x0, 497000 <__gcov0.XXCOMM_E2E_CreateGeneralChn+0x18>
  4066b8:	911fe000 	add	x0, x0, #0x7f8
  4066bc:	f9401c00 	ldr	x0, [x0, #56]
  4066c0:	91000401 	add	x1, x0, #0x1
  4066c4:	b0000480 	adrp	x0, 497000 <__gcov0.XXCOMM_E2E_CreateGeneralChn+0x18>
  4066c8:	911fe000 	add	x0, x0, #0x7f8
  4066cc:	f9001c01 	str	x1, [x0, #56]
  4066d0:	14000073 	b	40689c <XXCOMM_E2E_ClientCloseNoticeRecv+0x374>
  4066d4:	b0000480 	adrp	x0, 497000 <__gcov0.XXCOMM_E2E_CreateGeneralChn+0x18>
  4066d8:	911fe000 	add	x0, x0, #0x7f8
  4066dc:	f9401800 	ldr	x0, [x0, #48]
  4066e0:	91000401 	add	x1, x0, #0x1
  4066e4:	b0000480 	adrp	x0, 497000 <__gcov0.XXCOMM_E2E_CreateGeneralChn+0x18>
  4066e8:	911fe000 	add	x0, x0, #0x7f8
  4066ec:	f9001801 	str	x1, [x0, #48]
  4066f0:	f94023a0 	ldr	x0, [x29, #64]
  4066f4:	52800101 	mov	w1, #0x8                   	// #8
  4066f8:	b9010801 	str	w1, [x0, #264]
  4066fc:	f94023a0 	ldr	x0, [x29, #64]
  406700:	b9404800 	ldr	w0, [x0, #72]
  406704:	2a0003e1 	mov	w1, w0
  406708:	f94023a0 	ldr	x0, [x29, #64]
  40670c:	b9404c00 	ldr	w0, [x0, #76]
  406710:	2a0003e2 	mov	w2, w0
  406714:	f94023a0 	ldr	x0, [x29, #64]
  406718:	b9405000 	ldr	w0, [x0, #80]
  40671c:	2a0003e3 	mov	w3, w0
  406720:	90000280 	adrp	x0, 456000 <_IO_stdin_used+0x12c0>
  406724:	91056000 	add	x0, x0, #0x158
  406728:	aa0303e6 	mov	x6, x3
  40672c:	aa0203e5 	mov	x5, x2
  406730:	aa0103e4 	mov	x4, x1
  406734:	2f00e400 	movi	d0, #0x0
  406738:	aa0003e3 	mov	x3, x0
  40673c:	d2800082 	mov	x2, #0x4                   	// #4
  406740:	d28018a1 	mov	x1, #0xc5                  	// #197
  406744:	f2b9dfa1 	movk	x1, #0xcefd, lsl #16
  406748:	f2c4ef41 	movk	x1, #0x277a, lsl #32
  40674c:	f2e70b41 	movk	x1, #0x385a, lsl #48
  406750:	52800060 	mov	w0, #0x3                   	// #3
  406754:	97ffebc1 	bl	401658 <LTR_Log>
  406758:	b0000480 	adrp	x0, 497000 <__gcov0.XXCOMM_E2E_CreateGeneralChn+0x18>
  40675c:	911fe000 	add	x0, x0, #0x7f8
  406760:	f9402000 	ldr	x0, [x0, #64]
  406764:	91000401 	add	x1, x0, #0x1
  406768:	b0000480 	adrp	x0, 497000 <__gcov0.XXCOMM_E2E_CreateGeneralChn+0x18>
  40676c:	911fe000 	add	x0, x0, #0x7f8
  406770:	f9002001 	str	x1, [x0, #64]
  406774:	f94023a0 	ldr	x0, [x29, #64]
  406778:	b940a800 	ldr	w0, [x0, #168]
  40677c:	2a0003e1 	mov	w1, w0
  406780:	f94023a0 	ldr	x0, [x29, #64]
  406784:	b940ac00 	ldr	w0, [x0, #172]
  406788:	2a0003e2 	mov	w2, w0
  40678c:	90000280 	adrp	x0, 456000 <_IO_stdin_used+0x12c0>
  406790:	9106e000 	add	x0, x0, #0x1b8
  406794:	d2800006 	mov	x6, #0x0                   	// #0
  406798:	aa0203e5 	mov	x5, x2
  40679c:	aa0103e4 	mov	x4, x1
  4067a0:	2f00e400 	movi	d0, #0x0
  4067a4:	aa0003e3 	mov	x3, x0
  4067a8:	d2800082 	mov	x2, #0x4                   	// #4
  4067ac:	d28018e1 	mov	x1, #0xc7                  	// #199
  4067b0:	f2b9dfa1 	movk	x1, #0xcefd, lsl #16
  4067b4:	f2c4ef41 	movk	x1, #0x277a, lsl #32
  4067b8:	f2e70b41 	movk	x1, #0x385a, lsl #48
  4067bc:	52800060 	mov	w0, #0x3                   	// #3
  4067c0:	97ffeba6 	bl	401658 <LTR_Log>
  4067c4:	b0000480 	adrp	x0, 497000 <__gcov0.XXCOMM_E2E_CreateGeneralChn+0x18>
  4067c8:	911fe000 	add	x0, x0, #0x7f8
  4067cc:	f9402400 	ldr	x0, [x0, #72]
  4067d0:	91000401 	add	x1, x0, #0x1
  4067d4:	b0000480 	adrp	x0, 497000 <__gcov0.XXCOMM_E2E_CreateGeneralChn+0x18>
  4067d8:	911fe000 	add	x0, x0, #0x7f8
  4067dc:	f9002401 	str	x1, [x0, #72]
  4067e0:	f94023a0 	ldr	x0, [x29, #64]
  4067e4:	b9410800 	ldr	w0, [x0, #264]
  4067e8:	2a0003f3 	mov	w19, w0
  4067ec:	f94023a0 	ldr	x0, [x29, #64]
  4067f0:	94008171 	bl	426db4 <XXCOMM_E2E_GetRemoteServerStatus>
  4067f4:	2a0003e2 	mov	w2, w0
  4067f8:	b0000480 	adrp	x0, 497000 <__gcov0.XXCOMM_E2E_CreateGeneralChn+0x18>
  4067fc:	911fe000 	add	x0, x0, #0x7f8
  406800:	f9402800 	ldr	x0, [x0, #80]
  406804:	91000401 	add	x1, x0, #0x1
  406808:	b0000480 	adrp	x0, 497000 <__gcov0.XXCOMM_E2E_CreateGeneralChn+0x18>
  40680c:	911fe000 	add	x0, x0, #0x7f8
  406810:	f9002801 	str	x1, [x0, #80]
  406814:	2a0203f4 	mov	w20, w2
  406818:	f94023a0 	ldr	x0, [x29, #64]
  40681c:	94008174 	bl	426dec <XXCOMM_E2E_GetRemoteClientStatus>
  406820:	2a0003e2 	mov	w2, w0
  406824:	b0000480 	adrp	x0, 497000 <__gcov0.XXCOMM_E2E_CreateGeneralChn+0x18>
  406828:	911fe000 	add	x0, x0, #0x7f8
  40682c:	f9402c00 	ldr	x0, [x0, #88]
  406830:	91000401 	add	x1, x0, #0x1
  406834:	b0000480 	adrp	x0, 497000 <__gcov0.XXCOMM_E2E_CreateGeneralChn+0x18>
  406838:	911fe000 	add	x0, x0, #0x7f8
  40683c:	f9002c01 	str	x1, [x0, #88]
  406840:	2a0203e1 	mov	w1, w2
  406844:	90000280 	adrp	x0, 456000 <_IO_stdin_used+0x12c0>
  406848:	91084000 	add	x0, x0, #0x210
  40684c:	aa0103e6 	mov	x6, x1
  406850:	aa1403e5 	mov	x5, x20
  406854:	aa1303e4 	mov	x4, x19
  406858:	2f00e400 	movi	d0, #0x0
  40685c:	aa0003e3 	mov	x3, x0
  406860:	d2800082 	mov	x2, #0x4                   	// #4
  406864:	d2801921 	mov	x1, #0xc9                  	// #201
  406868:	f2b9dfa1 	movk	x1, #0xcefd, lsl #16
  40686c:	f2c4ef41 	movk	x1, #0x277a, lsl #32
  406870:	f2e70b41 	movk	x1, #0x385a, lsl #48
  406874:	52800060 	mov	w0, #0x3                   	// #3
  406878:	97ffeb78 	bl	401658 <LTR_Log>
  40687c:	52800002 	mov	w2, #0x0                   	// #0
  406880:	b0000480 	adrp	x0, 497000 <__gcov0.XXCOMM_E2E_CreateGeneralChn+0x18>
  406884:	911fe000 	add	x0, x0, #0x7f8
  406888:	f9403000 	ldr	x0, [x0, #96]
  40688c:	91000401 	add	x1, x0, #0x1
  406890:	b0000480 	adrp	x0, 497000 <__gcov0.XXCOMM_E2E_CreateGeneralChn+0x18>
  406894:	911fe000 	add	x0, x0, #0x7f8
  406898:	f9003001 	str	x1, [x0, #96]
  40689c:	2a0203e0 	mov	w0, w2
  4068a0:	a94153f3 	ldp	x19, x20, [sp, #16]
  4068a4:	a8c57bfd 	ldp	x29, x30, [sp], #80
  4068a8:	d65f03c0 	ret

00000000004068ac <XXCOMM_E2E_ClientGeneralRecvCallback>:
  4068ac:	a9bd7bfd 	stp	x29, x30, [sp, #-48]!
  4068b0:	910003fd 	mov	x29, sp
  4068b4:	f9000fa0 	str	x0, [x29, #24]
  4068b8:	f9000ba1 	str	x1, [x29, #16]
  4068bc:	f9400ba0 	ldr	x0, [x29, #16]
  4068c0:	b9401800 	ldr	w0, [x0, #24]
  4068c4:	7100201f 	cmp	w0, #0x8
  4068c8:	54000f48 	b.hi	406ab0 <XXCOMM_E2E_ClientGeneralRecvCallback+0x204>  // b.pmore
  4068cc:	f9400ba0 	ldr	x0, [x29, #16]
  4068d0:	b9401801 	ldr	w1, [x0, #24]
  4068d4:	f9400ba0 	ldr	x0, [x29, #16]
  4068d8:	b9401803 	ldr	w3, [x0, #24]
  4068dc:	d00003c0 	adrp	x0, 480000 <memcpy@GLIBC_2.17>
  4068e0:	911ac002 	add	x2, x0, #0x6b0
  4068e4:	2a0303e0 	mov	w0, w3
  4068e8:	d37cec00 	lsl	x0, x0, #4
  4068ec:	8b000040 	add	x0, x2, x0
  4068f0:	b9400000 	ldr	w0, [x0]
  4068f4:	6b00003f 	cmp	w1, w0
  4068f8:	54000580 	b.eq	4069a8 <XXCOMM_E2E_ClientGeneralRecvCallback+0xfc>  // b.none
  4068fc:	b0000480 	adrp	x0, 497000 <__gcov0.XXCOMM_E2E_CreateGeneralChn+0x18>
  406900:	911ee000 	add	x0, x0, #0x7b8
  406904:	f9400400 	ldr	x0, [x0, #8]
  406908:	91000401 	add	x1, x0, #0x1
  40690c:	b0000480 	adrp	x0, 497000 <__gcov0.XXCOMM_E2E_CreateGeneralChn+0x18>
  406910:	911ee000 	add	x0, x0, #0x7b8
  406914:	f9000401 	str	x1, [x0, #8]
  406918:	f9400ba0 	ldr	x0, [x29, #16]
  40691c:	b9401800 	ldr	w0, [x0, #24]
  406920:	2a0003e2 	mov	w2, w0
  406924:	f9400ba0 	ldr	x0, [x29, #16]
  406928:	b9401803 	ldr	w3, [x0, #24]
  40692c:	d00003c0 	adrp	x0, 480000 <memcpy@GLIBC_2.17>
  406930:	911ac001 	add	x1, x0, #0x6b0
  406934:	2a0303e0 	mov	w0, w3
  406938:	d37cec00 	lsl	x0, x0, #4
  40693c:	8b000020 	add	x0, x1, x0
  406940:	b9400000 	ldr	w0, [x0]
  406944:	2a0003e1 	mov	w1, w0
  406948:	90000280 	adrp	x0, 456000 <_IO_stdin_used+0x12c0>
  40694c:	9109e000 	add	x0, x0, #0x278
  406950:	d2800006 	mov	x6, #0x0                   	// #0
  406954:	aa0103e5 	mov	x5, x1
  406958:	aa0203e4 	mov	x4, x2
  40695c:	2f00e400 	movi	d0, #0x0
  406960:	aa0003e3 	mov	x3, x0
  406964:	d2800042 	mov	x2, #0x2                   	// #2
