
nsichneu：     文件格式 elf64-littleaarch64


Disassembly of section .init:

0000000000400498 <_init>:
  400498:	d503201f 	nop
  40049c:	a9bf7bfd 	stp	x29, x30, [sp, #-16]!
  4004a0:	910003fd 	mov	x29, sp
  4004a4:	94000028 	bl	400544 <call_weak_fn>
  4004a8:	a8c17bfd 	ldp	x29, x30, [sp], #16
  4004ac:	d65f03c0 	ret

Disassembly of section .plt:

00000000004004b0 <.plt>:
  4004b0:	a9bf7bf0 	stp	x16, x30, [sp, #-16]!
  4004b4:	f00000f0 	adrp	x16, 41f000 <__FRAME_END__+0x14134>
  4004b8:	f947fe11 	ldr	x17, [x16, #4088]
  4004bc:	913fe210 	add	x16, x16, #0xff8
  4004c0:	d61f0220 	br	x17
  4004c4:	d503201f 	nop
  4004c8:	d503201f 	nop
  4004cc:	d503201f 	nop

00000000004004d0 <__libc_start_main@plt>:
  4004d0:	90000110 	adrp	x16, 420000 <__libc_start_main@GLIBC_2.34>
  4004d4:	f9400211 	ldr	x17, [x16]
  4004d8:	91000210 	add	x16, x16, #0x0
  4004dc:	d61f0220 	br	x17

00000000004004e0 <__gmon_start__@plt>:
  4004e0:	90000110 	adrp	x16, 420000 <__libc_start_main@GLIBC_2.34>
  4004e4:	f9400611 	ldr	x17, [x16, #8]
  4004e8:	91002210 	add	x16, x16, #0x8
  4004ec:	d61f0220 	br	x17

00000000004004f0 <abort@plt>:
  4004f0:	90000110 	adrp	x16, 420000 <__libc_start_main@GLIBC_2.34>
  4004f4:	f9400a11 	ldr	x17, [x16, #16]
  4004f8:	91004210 	add	x16, x16, #0x10
  4004fc:	d61f0220 	br	x17

Disassembly of section .text:

0000000000400500 <_start>:
  400500:	d503201f 	nop
  400504:	d280001d 	mov	x29, #0x0                   	// #0
  400508:	d280001e 	mov	x30, #0x0                   	// #0
  40050c:	aa0003e5 	mov	x5, x0
  400510:	f94003e1 	ldr	x1, [sp]
  400514:	910023e2 	add	x2, sp, #0x8
  400518:	910003e6 	mov	x6, sp
  40051c:	90000000 	adrp	x0, 400000 <__abi_tag-0x278>
  400520:	9114d000 	add	x0, x0, #0x534
  400524:	d2800003 	mov	x3, #0x0                   	// #0
  400528:	d2800004 	mov	x4, #0x0                   	// #0
  40052c:	97ffffe9 	bl	4004d0 <__libc_start_main@plt>
  400530:	97fffff0 	bl	4004f0 <abort@plt>

0000000000400534 <__wrap_main>:
  400534:	d503201f 	nop
  400538:	14000033 	b	400604 <main>
  40053c:	d503201f 	nop

0000000000400540 <_dl_relocate_static_pie>:
  400540:	d65f03c0 	ret

0000000000400544 <call_weak_fn>:
  400544:	f00000e0 	adrp	x0, 41f000 <__FRAME_END__+0x14134>
  400548:	f947ec00 	ldr	x0, [x0, #4056]
  40054c:	b4000040 	cbz	x0, 400554 <call_weak_fn+0x10>
  400550:	17ffffe4 	b	4004e0 <__gmon_start__@plt>
  400554:	d65f03c0 	ret
  400558:	d503201f 	nop
  40055c:	d503201f 	nop

0000000000400560 <deregister_tm_clones>:
  400560:	90000100 	adrp	x0, 420000 <__libc_start_main@GLIBC_2.34>
  400564:	9100c000 	add	x0, x0, #0x30
  400568:	90000101 	adrp	x1, 420000 <__libc_start_main@GLIBC_2.34>
  40056c:	9100c021 	add	x1, x1, #0x30
  400570:	eb00003f 	cmp	x1, x0
  400574:	540000c0 	b.eq	40058c <deregister_tm_clones+0x2c>  // b.none
  400578:	f00000e1 	adrp	x1, 41f000 <__FRAME_END__+0x14134>
  40057c:	f947e821 	ldr	x1, [x1, #4048]
  400580:	b4000061 	cbz	x1, 40058c <deregister_tm_clones+0x2c>
  400584:	aa0103f0 	mov	x16, x1
  400588:	d61f0200 	br	x16
  40058c:	d65f03c0 	ret

0000000000400590 <register_tm_clones>:
  400590:	90000100 	adrp	x0, 420000 <__libc_start_main@GLIBC_2.34>
  400594:	9100c000 	add	x0, x0, #0x30
  400598:	90000101 	adrp	x1, 420000 <__libc_start_main@GLIBC_2.34>
  40059c:	9100c021 	add	x1, x1, #0x30
  4005a0:	cb000021 	sub	x1, x1, x0
  4005a4:	d37ffc22 	lsr	x2, x1, #63
  4005a8:	8b810c41 	add	x1, x2, x1, asr #3
  4005ac:	9341fc21 	asr	x1, x1, #1
  4005b0:	b40000c1 	cbz	x1, 4005c8 <register_tm_clones+0x38>
  4005b4:	f00000e2 	adrp	x2, 41f000 <__FRAME_END__+0x14134>
  4005b8:	f947f042 	ldr	x2, [x2, #4064]
  4005bc:	b4000062 	cbz	x2, 4005c8 <register_tm_clones+0x38>
  4005c0:	aa0203f0 	mov	x16, x2
  4005c4:	d61f0200 	br	x16
  4005c8:	d65f03c0 	ret
  4005cc:	d503201f 	nop

00000000004005d0 <__do_global_dtors_aux>:
  4005d0:	a9be7bfd 	stp	x29, x30, [sp, #-32]!
  4005d4:	910003fd 	mov	x29, sp
  4005d8:	f9000bf3 	str	x19, [sp, #16]
  4005dc:	90000113 	adrp	x19, 420000 <__libc_start_main@GLIBC_2.34>
  4005e0:	3940c260 	ldrb	w0, [x19, #48]
  4005e4:	35000080 	cbnz	w0, 4005f4 <__do_global_dtors_aux+0x24>
  4005e8:	97ffffde 	bl	400560 <deregister_tm_clones>
  4005ec:	52800020 	mov	w0, #0x1                   	// #1
  4005f0:	3900c260 	strb	w0, [x19, #48]
  4005f4:	f9400bf3 	ldr	x19, [sp, #16]
  4005f8:	a8c27bfd 	ldp	x29, x30, [sp], #32
  4005fc:	d65f03c0 	ret

0000000000400600 <frame_dummy>:
  400600:	17ffffe4 	b	400590 <register_tm_clones>

0000000000400604 <main>:
  400604:	d12f83ff 	sub	sp, sp, #0xbe0
  400608:	52800040 	mov	w0, #0x2                   	// #2
  40060c:	b90bdfe0 	str	w0, [sp, #3036]
  400610:	140029e0 	b	40ad90 <main+0xa78c>
  400614:	b94bdfe0 	ldr	w0, [sp, #3036]
  400618:	51000400 	sub	w0, w0, #0x1
  40061c:	b90bdfe0 	str	w0, [sp, #3036]
  400620:	90000100 	adrp	x0, 420000 <__libc_start_main@GLIBC_2.34>
  400624:	9100a000 	add	x0, x0, #0x28
  400628:	b9400000 	ldr	w0, [x0]
  40062c:	7100081f 	cmp	w0, #0x2
  400630:	540008cd 	b.le	400748 <main+0x144>
  400634:	90000100 	adrp	x0, 420000 <__libc_start_main@GLIBC_2.34>
  400638:	9101e000 	add	x0, x0, #0x78
  40063c:	b9400000 	ldr	w0, [x0]
  400640:	71000c1f 	cmp	w0, #0x3
  400644:	5400082c 	b.gt	400748 <main+0x144>
  400648:	90000100 	adrp	x0, 420000 <__libc_start_main@GLIBC_2.34>
  40064c:	9100e000 	add	x0, x0, #0x38
  400650:	f9400401 	ldr	x1, [x0, #8]
  400654:	90000100 	adrp	x0, 420000 <__libc_start_main@GLIBC_2.34>
  400658:	9100e000 	add	x0, x0, #0x38
  40065c:	f9400800 	ldr	x0, [x0, #16]
  400660:	eb00003f 	cmp	x1, x0
  400664:	54000721 	b.ne	400748 <main+0x144>  // b.any
  400668:	90000100 	adrp	x0, 420000 <__libc_start_main@GLIBC_2.34>
  40066c:	9100e000 	add	x0, x0, #0x38
  400670:	f9400000 	ldr	x0, [x0]
  400674:	f905ebe0 	str	x0, [sp, #3024]
  400678:	90000100 	adrp	x0, 420000 <__libc_start_main@GLIBC_2.34>
  40067c:	9100e000 	add	x0, x0, #0x38
  400680:	f9400400 	ldr	x0, [x0, #8]
  400684:	f905e7e0 	str	x0, [sp, #3016]
  400688:	f945ebe1 	ldr	x1, [sp, #3024]
  40068c:	f945e7e0 	ldr	x0, [sp, #3016]
  400690:	eb00003f 	cmp	x1, x0
  400694:	540005aa 	b.ge	400748 <main+0x144>  // b.tcont
  400698:	90000100 	adrp	x0, 420000 <__libc_start_main@GLIBC_2.34>
  40069c:	9100a000 	add	x0, x0, #0x28
  4006a0:	b9400000 	ldr	w0, [x0]
  4006a4:	51000c01 	sub	w1, w0, #0x3
  4006a8:	90000100 	adrp	x0, 420000 <__libc_start_main@GLIBC_2.34>
  4006ac:	9100a000 	add	x0, x0, #0x28
  4006b0:	b9000001 	str	w1, [x0]
  4006b4:	f945ebe1 	ldr	x1, [sp, #3024]
  4006b8:	f945e7e0 	ldr	x0, [sp, #3016]
  4006bc:	cb000020 	sub	x0, x1, x0
  4006c0:	f905e3e0 	str	x0, [sp, #3008]
  4006c4:	90000100 	adrp	x0, 420000 <__libc_start_main@GLIBC_2.34>
  4006c8:	9101e000 	add	x0, x0, #0x78
  4006cc:	b9400001 	ldr	w1, [x0]
  4006d0:	90000100 	adrp	x0, 420000 <__libc_start_main@GLIBC_2.34>
  4006d4:	91020000 	add	x0, x0, #0x80
  4006d8:	93407c21 	sxtw	x1, w1
  4006dc:	f945ebe2 	ldr	x2, [sp, #3024]
  4006e0:	f8217802 	str	x2, [x0, x1, lsl #3]
  4006e4:	90000100 	adrp	x0, 420000 <__libc_start_main@GLIBC_2.34>
  4006e8:	9101e000 	add	x0, x0, #0x78
  4006ec:	b9400000 	ldr	w0, [x0]
  4006f0:	11000401 	add	w1, w0, #0x1
  4006f4:	90000100 	adrp	x0, 420000 <__libc_start_main@GLIBC_2.34>
  4006f8:	91020000 	add	x0, x0, #0x80
  4006fc:	93407c21 	sxtw	x1, w1
  400700:	f945e7e2 	ldr	x2, [sp, #3016]
  400704:	f8217802 	str	x2, [x0, x1, lsl #3]
  400708:	90000100 	adrp	x0, 420000 <__libc_start_main@GLIBC_2.34>
  40070c:	9101e000 	add	x0, x0, #0x78
  400710:	b9400000 	ldr	w0, [x0]
  400714:	11000801 	add	w1, w0, #0x2
  400718:	90000100 	adrp	x0, 420000 <__libc_start_main@GLIBC_2.34>
  40071c:	91020000 	add	x0, x0, #0x80
  400720:	93407c21 	sxtw	x1, w1
  400724:	f945e3e2 	ldr	x2, [sp, #3008]
  400728:	f8217802 	str	x2, [x0, x1, lsl #3]
  40072c:	90000100 	adrp	x0, 420000 <__libc_start_main@GLIBC_2.34>
  400730:	9101e000 	add	x0, x0, #0x78
  400734:	b9400000 	ldr	w0, [x0]
  400738:	11000c01 	add	w1, w0, #0x3
  40073c:	90000100 	adrp	x0, 420000 <__libc_start_main@GLIBC_2.34>
  400740:	9101e000 	add	x0, x0, #0x78
  400744:	b9000001 	str	w1, [x0]
  400748:	90000100 	adrp	x0, 420000 <__libc_start_main@GLIBC_2.34>
  40074c:	9100a000 	add	x0, x0, #0x28
  400750:	b9400000 	ldr	w0, [x0]
  400754:	7100081f 	cmp	w0, #0x2
  400758:	540008cd 	b.le	400870 <main+0x26c>
  40075c:	90000100 	adrp	x0, 420000 <__libc_start_main@GLIBC_2.34>
  400760:	9101e000 	add	x0, x0, #0x78
  400764:	b9400000 	ldr	w0, [x0]
  400768:	71000c1f 	cmp	w0, #0x3
  40076c:	5400082c 	b.gt	400870 <main+0x26c>
  400770:	90000100 	adrp	x0, 420000 <__libc_start_main@GLIBC_2.34>
  400774:	9100e000 	add	x0, x0, #0x38
  400778:	f9400801 	ldr	x1, [x0, #16]
  40077c:	90000100 	adrp	x0, 420000 <__libc_start_main@GLIBC_2.34>
  400780:	9100e000 	add	x0, x0, #0x38
  400784:	f9400400 	ldr	x0, [x0, #8]
  400788:	eb00003f 	cmp	x1, x0
  40078c:	54000721 	b.ne	400870 <main+0x26c>  // b.any
  400790:	90000100 	adrp	x0, 420000 <__libc_start_main@GLIBC_2.34>
  400794:	9100e000 	add	x0, x0, #0x38
  400798:	f9400000 	ldr	x0, [x0]
  40079c:	f905dfe0 	str	x0, [sp, #3000]
  4007a0:	90000100 	adrp	x0, 420000 <__libc_start_main@GLIBC_2.34>
  4007a4:	9100e000 	add	x0, x0, #0x38
  4007a8:	f9400800 	ldr	x0, [x0, #16]
  4007ac:	f905dbe0 	str	x0, [sp, #2992]
  4007b0:	f945dfe1 	ldr	x1, [sp, #3000]
  4007b4:	f945dbe0 	ldr	x0, [sp, #2992]
  4007b8:	eb00003f 	cmp	x1, x0
  4007bc:	540005aa 	b.ge	400870 <main+0x26c>  // b.tcont
  4007c0:	90000100 	adrp	x0, 420000 <__libc_start_main@GLIBC_2.34>
  4007c4:	9100a000 	add	x0, x0, #0x28
  4007c8:	b9400000 	ldr	w0, [x0]
  4007cc:	51000c01 	sub	w1, w0, #0x3
  4007d0:	90000100 	adrp	x0, 420000 <__libc_start_main@GLIBC_2.34>
  4007d4:	9100a000 	add	x0, x0, #0x28
  4007d8:	b9000001 	str	w1, [x0]
  4007dc:	f945dfe1 	ldr	x1, [sp, #3000]
  4007e0:	f945dbe0 	ldr	x0, [sp, #2992]
  4007e4:	cb000020 	sub	x0, x1, x0
  4007e8:	f905d7e0 	str	x0, [sp, #2984]
  4007ec:	90000100 	adrp	x0, 420000 <__libc_start_main@GLIBC_2.34>
  4007f0:	9101e000 	add	x0, x0, #0x78
  4007f4:	b9400001 	ldr	w1, [x0]
  4007f8:	90000100 	adrp	x0, 420000 <__libc_start_main@GLIBC_2.34>
  4007fc:	91020000 	add	x0, x0, #0x80
  400800:	93407c21 	sxtw	x1, w1
  400804:	f945dfe2 	ldr	x2, [sp, #3000]
  400808:	f8217802 	str	x2, [x0, x1, lsl #3]
  40080c:	90000100 	adrp	x0, 420000 <__libc_start_main@GLIBC_2.34>
  400810:	9101e000 	add	x0, x0, #0x78
  400814:	b9400000 	ldr	w0, [x0]
  400818:	11000401 	add	w1, w0, #0x1
  40081c:	90000100 	adrp	x0, 420000 <__libc_start_main@GLIBC_2.34>
  400820:	91020000 	add	x0, x0, #0x80
  400824:	93407c21 	sxtw	x1, w1
  400828:	f945dbe2 	ldr	x2, [sp, #2992]
  40082c:	f8217802 	str	x2, [x0, x1, lsl #3]
  400830:	90000100 	adrp	x0, 420000 <__libc_start_main@GLIBC_2.34>
  400834:	9101e000 	add	x0, x0, #0x78
  400838:	b9400000 	ldr	w0, [x0]
  40083c:	11000801 	add	w1, w0, #0x2
  400840:	90000100 	adrp	x0, 420000 <__libc_start_main@GLIBC_2.34>
  400844:	91020000 	add	x0, x0, #0x80
  400848:	93407c21 	sxtw	x1, w1
  40084c:	f945d7e2 	ldr	x2, [sp, #2984]
  400850:	f8217802 	str	x2, [x0, x1, lsl #3]
  400854:	90000100 	adrp	x0, 420000 <__libc_start_main@GLIBC_2.34>
  400858:	9101e000 	add	x0, x0, #0x78
  40085c:	b9400000 	ldr	w0, [x0]
  400860:	11000c01 	add	w1, w0, #0x3
  400864:	90000100 	adrp	x0, 420000 <__libc_start_main@GLIBC_2.34>
  400868:	9101e000 	add	x0, x0, #0x78
  40086c:	b9000001 	str	w1, [x0]
  400870:	90000100 	adrp	x0, 420000 <__libc_start_main@GLIBC_2.34>
  400874:	9100a000 	add	x0, x0, #0x28
  400878:	b9400000 	ldr	w0, [x0]
  40087c:	7100081f 	cmp	w0, #0x2
  400880:	540008cd 	b.le	400998 <main+0x394>
  400884:	90000100 	adrp	x0, 420000 <__libc_start_main@GLIBC_2.34>
  400888:	9101e000 	add	x0, x0, #0x78
  40088c:	b9400000 	ldr	w0, [x0]
  400890:	71000c1f 	cmp	w0, #0x3
  400894:	5400082c 	b.gt	400998 <main+0x394>
  400898:	90000100 	adrp	x0, 420000 <__libc_start_main@GLIBC_2.34>
  40089c:	9100e000 	add	x0, x0, #0x38
  4008a0:	f9400001 	ldr	x1, [x0]
  4008a4:	90000100 	adrp	x0, 420000 <__libc_start_main@GLIBC_2.34>
  4008a8:	9100e000 	add	x0, x0, #0x38
  4008ac:	f9400800 	ldr	x0, [x0, #16]
  4008b0:	eb00003f 	cmp	x1, x0
  4008b4:	54000721 	b.ne	400998 <main+0x394>  // b.any
  4008b8:	90000100 	adrp	x0, 420000 <__libc_start_main@GLIBC_2.34>
  4008bc:	9100e000 	add	x0, x0, #0x38
  4008c0:	f9400400 	ldr	x0, [x0, #8]
  4008c4:	f905d3e0 	str	x0, [sp, #2976]
  4008c8:	90000100 	adrp	x0, 420000 <__libc_start_main@GLIBC_2.34>
  4008cc:	9100e000 	add	x0, x0, #0x38
  4008d0:	f9400000 	ldr	x0, [x0]
  4008d4:	f905cfe0 	str	x0, [sp, #2968]
  4008d8:	f945d3e1 	ldr	x1, [sp, #2976]
  4008dc:	f945cfe0 	ldr	x0, [sp, #2968]
  4008e0:	eb00003f 	cmp	x1, x0
  4008e4:	540005aa 	b.ge	400998 <main+0x394>  // b.tcont
  4008e8:	90000100 	adrp	x0, 420000 <__libc_start_main@GLIBC_2.34>
  4008ec:	9100a000 	add	x0, x0, #0x28
  4008f0:	b9400000 	ldr	w0, [x0]
  4008f4:	51000c01 	sub	w1, w0, #0x3
  4008f8:	90000100 	adrp	x0, 420000 <__libc_start_main@GLIBC_2.34>
  4008fc:	9100a000 	add	x0, x0, #0x28
  400900:	b9000001 	str	w1, [x0]
  400904:	f945d3e1 	ldr	x1, [sp, #2976]
  400908:	f945cfe0 	ldr	x0, [sp, #2968]
  40090c:	cb000020 	sub	x0, x1, x0
  400910:	f905cbe0 	str	x0, [sp, #2960]
  400914:	90000100 	adrp	x0, 420000 <__libc_start_main@GLIBC_2.34>
  400918:	9101e000 	add	x0, x0, #0x78
  40091c:	b9400001 	ldr	w1, [x0]
  400920:	90000100 	adrp	x0, 420000 <__libc_start_main@GLIBC_2.34>
  400924:	91020000 	add	x0, x0, #0x80
  400928:	93407c21 	sxtw	x1, w1
  40092c:	f945d3e2 	ldr	x2, [sp, #2976]
  400930:	f8217802 	str	x2, [x0, x1, lsl #3]
  400934:	90000100 	adrp	x0, 420000 <__libc_start_main@GLIBC_2.34>
  400938:	9101e000 	add	x0, x0, #0x78
  40093c:	b9400000 	ldr	w0, [x0]
  400940:	11000401 	add	w1, w0, #0x1
  400944:	90000100 	adrp	x0, 420000 <__libc_start_main@GLIBC_2.34>
  400948:	91020000 	add	x0, x0, #0x80
  40094c:	93407c21 	sxtw	x1, w1
  400950:	f945cfe2 	ldr	x2, [sp, #2968]
  400954:	f8217802 	str	x2, [x0, x1, lsl #3]
  400958:	90000100 	adrp	x0, 420000 <__libc_start_main@GLIBC_2.34>
  40095c:	9101e000 	add	x0, x0, #0x78
  400960:	b9400000 	ldr	w0, [x0]
  400964:	11000801 	add	w1, w0, #0x2
  400968:	90000100 	adrp	x0, 420000 <__libc_start_main@GLIBC_2.34>
  40096c:	91020000 	add	x0, x0, #0x80
  400970:	93407c21 	sxtw	x1, w1
  400974:	f945cbe2 	ldr	x2, [sp, #2960]
  400978:	f8217802 	str	x2, [x0, x1, lsl #3]
  40097c:	90000100 	adrp	x0, 420000 <__libc_start_main@GLIBC_2.34>
  400980:	9101e000 	add	x0, x0, #0x78
  400984:	b9400000 	ldr	w0, [x0]
  400988:	11000c01 	add	w1, w0, #0x3
  40098c:	90000100 	adrp	x0, 420000 <__libc_start_main@GLIBC_2.34>
  400990:	9101e000 	add	x0, x0, #0x78
  400994:	b9000001 	str	w1, [x0]
  400998:	90000100 	adrp	x0, 420000 <__libc_start_main@GLIBC_2.34>
  40099c:	9100a000 	add	x0, x0, #0x28
  4009a0:	b9400000 	ldr	w0, [x0]
  4009a4:	7100081f 	cmp	w0, #0x2
  4009a8:	540008cd 	b.le	400ac0 <main+0x4bc>
  4009ac:	90000100 	adrp	x0, 420000 <__libc_start_main@GLIBC_2.34>
  4009b0:	9101e000 	add	x0, x0, #0x78
  4009b4:	b9400000 	ldr	w0, [x0]
  4009b8:	71000c1f 	cmp	w0, #0x3
  4009bc:	5400082c 	b.gt	400ac0 <main+0x4bc>
  4009c0:	90000100 	adrp	x0, 420000 <__libc_start_main@GLIBC_2.34>
  4009c4:	9100e000 	add	x0, x0, #0x38
  4009c8:	f9400801 	ldr	x1, [x0, #16]
  4009cc:	90000100 	adrp	x0, 420000 <__libc_start_main@GLIBC_2.34>
  4009d0:	9100e000 	add	x0, x0, #0x38
  4009d4:	f9400000 	ldr	x0, [x0]
  4009d8:	eb00003f 	cmp	x1, x0
  4009dc:	54000721 	b.ne	400ac0 <main+0x4bc>  // b.any
  4009e0:	90000100 	adrp	x0, 420000 <__libc_start_main@GLIBC_2.34>
  4009e4:	9100e000 	add	x0, x0, #0x38
  4009e8:	f9400400 	ldr	x0, [x0, #8]
  4009ec:	f905c7e0 	str	x0, [sp, #2952]
  4009f0:	90000100 	adrp	x0, 420000 <__libc_start_main@GLIBC_2.34>
  4009f4:	9100e000 	add	x0, x0, #0x38
  4009f8:	f9400800 	ldr	x0, [x0, #16]
  4009fc:	f905c3e0 	str	x0, [sp, #2944]
  400a00:	f945c7e1 	ldr	x1, [sp, #2952]
  400a04:	f945c3e0 	ldr	x0, [sp, #2944]
  400a08:	eb00003f 	cmp	x1, x0
  400a0c:	540005aa 	b.ge	400ac0 <main+0x4bc>  // b.tcont
  400a10:	90000100 	adrp	x0, 420000 <__libc_start_main@GLIBC_2.34>
  400a14:	9100a000 	add	x0, x0, #0x28
  400a18:	b9400000 	ldr	w0, [x0]
  400a1c:	51000c01 	sub	w1, w0, #0x3
  400a20:	90000100 	adrp	x0, 420000 <__libc_start_main@GLIBC_2.34>
  400a24:	9100a000 	add	x0, x0, #0x28
  400a28:	b9000001 	str	w1, [x0]
  400a2c:	f945c7e1 	ldr	x1, [sp, #2952]
  400a30:	f945c3e0 	ldr	x0, [sp, #2944]
  400a34:	cb000020 	sub	x0, x1, x0
  400a38:	f905bfe0 	str	x0, [sp, #2936]
  400a3c:	90000100 	adrp	x0, 420000 <__libc_start_main@GLIBC_2.34>
  400a40:	9101e000 	add	x0, x0, #0x78
  400a44:	b9400001 	ldr	w1, [x0]
  400a48:	90000100 	adrp	x0, 420000 <__libc_start_main@GLIBC_2.34>
  400a4c:	91020000 	add	x0, x0, #0x80
  400a50:	93407c21 	sxtw	x1, w1
  400a54:	f945c7e2 	ldr	x2, [sp, #2952]
  400a58:	f8217802 	str	x2, [x0, x1, lsl #3]
  400a5c:	90000100 	adrp	x0, 420000 <__libc_start_main@GLIBC_2.34>
  400a60:	9101e000 	add	x0, x0, #0x78
  400a64:	b9400000 	ldr	w0, [x0]
  400a68:	11000401 	add	w1, w0, #0x1
  400a6c:	90000100 	adrp	x0, 420000 <__libc_start_main@GLIBC_2.34>
  400a70:	91020000 	add	x0, x0, #0x80
  400a74:	93407c21 	sxtw	x1, w1
  400a78:	f945c3e2 	ldr	x2, [sp, #2944]
  400a7c:	f8217802 	str	x2, [x0, x1, lsl #3]
  400a80:	90000100 	adrp	x0, 420000 <__libc_start_main@GLIBC_2.34>
  400a84:	9101e000 	add	x0, x0, #0x78
  400a88:	b9400000 	ldr	w0, [x0]
  400a8c:	11000801 	add	w1, w0, #0x2
  400a90:	90000100 	adrp	x0, 420000 <__libc_start_main@GLIBC_2.34>
  400a94:	91020000 	add	x0, x0, #0x80
  400a98:	93407c21 	sxtw	x1, w1
  400a9c:	f945bfe2 	ldr	x2, [sp, #2936]
  400aa0:	f8217802 	str	x2, [x0, x1, lsl #3]
  400aa4:	90000100 	adrp	x0, 420000 <__libc_start_main@GLIBC_2.34>
  400aa8:	9101e000 	add	x0, x0, #0x78
  400aac:	b9400000 	ldr	w0, [x0]
  400ab0:	11000c01 	add	w1, w0, #0x3
  400ab4:	90000100 	adrp	x0, 420000 <__libc_start_main@GLIBC_2.34>
  400ab8:	9101e000 	add	x0, x0, #0x78
  400abc:	b9000001 	str	w1, [x0]
  400ac0:	90000100 	adrp	x0, 420000 <__libc_start_main@GLIBC_2.34>
  400ac4:	9100a000 	add	x0, x0, #0x28
  400ac8:	b9400000 	ldr	w0, [x0]
  400acc:	7100081f 	cmp	w0, #0x2
  400ad0:	540008cd 	b.le	400be8 <main+0x5e4>
  400ad4:	90000100 	adrp	x0, 420000 <__libc_start_main@GLIBC_2.34>
  400ad8:	9101e000 	add	x0, x0, #0x78
  400adc:	b9400000 	ldr	w0, [x0]
  400ae0:	71000c1f 	cmp	w0, #0x3
  400ae4:	5400082c 	b.gt	400be8 <main+0x5e4>
  400ae8:	90000100 	adrp	x0, 420000 <__libc_start_main@GLIBC_2.34>
  400aec:	9100e000 	add	x0, x0, #0x38
  400af0:	f9400001 	ldr	x1, [x0]
  400af4:	90000100 	adrp	x0, 420000 <__libc_start_main@GLIBC_2.34>
  400af8:	9100e000 	add	x0, x0, #0x38
  400afc:	f9400400 	ldr	x0, [x0, #8]
  400b00:	eb00003f 	cmp	x1, x0
  400b04:	54000721 	b.ne	400be8 <main+0x5e4>  // b.any
  400b08:	90000100 	adrp	x0, 420000 <__libc_start_main@GLIBC_2.34>
  400b0c:	9100e000 	add	x0, x0, #0x38
  400b10:	f9400800 	ldr	x0, [x0, #16]
  400b14:	f905bbe0 	str	x0, [sp, #2928]
  400b18:	90000100 	adrp	x0, 420000 <__libc_start_main@GLIBC_2.34>
  400b1c:	9100e000 	add	x0, x0, #0x38
  400b20:	f9400000 	ldr	x0, [x0]
  400b24:	f905b7e0 	str	x0, [sp, #2920]
  400b28:	f945bbe1 	ldr	x1, [sp, #2928]
  400b2c:	f945b7e0 	ldr	x0, [sp, #2920]
  400b30:	eb00003f 	cmp	x1, x0
  400b34:	540005aa 	b.ge	400be8 <main+0x5e4>  // b.tcont
  400b38:	90000100 	adrp	x0, 420000 <__libc_start_main@GLIBC_2.34>
  400b3c:	9100a000 	add	x0, x0, #0x28
  400b40:	b9400000 	ldr	w0, [x0]
  400b44:	51000c01 	sub	w1, w0, #0x3
  400b48:	90000100 	adrp	x0, 420000 <__libc_start_main@GLIBC_2.34>
  400b4c:	9100a000 	add	x0, x0, #0x28
  400b50:	b9000001 	str	w1, [x0]
  400b54:	f945bbe1 	ldr	x1, [sp, #2928]
  400b58:	f945b7e0 	ldr	x0, [sp, #2920]
  400b5c:	cb000020 	sub	x0, x1, x0
  400b60:	f905b3e0 	str	x0, [sp, #2912]
  400b64:	90000100 	adrp	x0, 420000 <__libc_start_main@GLIBC_2.34>
  400b68:	9101e000 	add	x0, x0, #0x78
  400b6c:	b9400001 	ldr	w1, [x0]
  400b70:	90000100 	adrp	x0, 420000 <__libc_start_main@GLIBC_2.34>
  400b74:	91020000 	add	x0, x0, #0x80
  400b78:	93407c21 	sxtw	x1, w1
  400b7c:	f945bbe2 	ldr	x2, [sp, #2928]
  400b80:	f8217802 	str	x2, [x0, x1, lsl #3]
  400b84:	90000100 	adrp	x0, 420000 <__libc_start_main@GLIBC_2.34>
  400b88:	9101e000 	add	x0, x0, #0x78
  400b8c:	b9400000 	ldr	w0, [x0]
  400b90:	11000401 	add	w1, w0, #0x1
  400b94:	90000100 	adrp	x0, 420000 <__libc_start_main@GLIBC_2.34>
  400b98:	91020000 	add	x0, x0, #0x80
  400b9c:	93407c21 	sxtw	x1, w1
  400ba0:	f945b7e2 	ldr	x2, [sp, #2920]
  400ba4:	f8217802 	str	x2, [x0, x1, lsl #3]
  400ba8:	90000100 	adrp	x0, 420000 <__libc_start_main@GLIBC_2.34>
  400bac:	9101e000 	add	x0, x0, #0x78
  400bb0:	b9400000 	ldr	w0, [x0]
  400bb4:	11000801 	add	w1, w0, #0x2
  400bb8:	90000100 	adrp	x0, 420000 <__libc_start_main@GLIBC_2.34>
  400bbc:	91020000 	add	x0, x0, #0x80
  400bc0:	93407c21 	sxtw	x1, w1
  400bc4:	f945b3e2 	ldr	x2, [sp, #2912]
  400bc8:	f8217802 	str	x2, [x0, x1, lsl #3]
  400bcc:	90000100 	adrp	x0, 420000 <__libc_start_main@GLIBC_2.34>
  400bd0:	9101e000 	add	x0, x0, #0x78
  400bd4:	b9400000 	ldr	w0, [x0]
  400bd8:	11000c01 	add	w1, w0, #0x3
  400bdc:	90000100 	adrp	x0, 420000 <__libc_start_main@GLIBC_2.34>
  400be0:	9101e000 	add	x0, x0, #0x78
  400be4:	b9000001 	str	w1, [x0]
  400be8:	90000100 	adrp	x0, 420000 <__libc_start_main@GLIBC_2.34>
  400bec:	9100a000 	add	x0, x0, #0x28
  400bf0:	b9400000 	ldr	w0, [x0]
  400bf4:	7100081f 	cmp	w0, #0x2
  400bf8:	540008cd 	b.le	400d10 <main+0x70c>
  400bfc:	90000100 	adrp	x0, 420000 <__libc_start_main@GLIBC_2.34>
  400c00:	9101e000 	add	x0, x0, #0x78
  400c04:	b9400000 	ldr	w0, [x0]
  400c08:	71000c1f 	cmp	w0, #0x3
  400c0c:	5400082c 	b.gt	400d10 <main+0x70c>
  400c10:	90000100 	adrp	x0, 420000 <__libc_start_main@GLIBC_2.34>
  400c14:	9100e000 	add	x0, x0, #0x38
  400c18:	f9400401 	ldr	x1, [x0, #8]
  400c1c:	90000100 	adrp	x0, 420000 <__libc_start_main@GLIBC_2.34>
  400c20:	9100e000 	add	x0, x0, #0x38
  400c24:	f9400000 	ldr	x0, [x0]
  400c28:	eb00003f 	cmp	x1, x0
  400c2c:	54000721 	b.ne	400d10 <main+0x70c>  // b.any
  400c30:	90000100 	adrp	x0, 420000 <__libc_start_main@GLIBC_2.34>
  400c34:	9100e000 	add	x0, x0, #0x38
  400c38:	f9400800 	ldr	x0, [x0, #16]
  400c3c:	f905afe0 	str	x0, [sp, #2904]
  400c40:	90000100 	adrp	x0, 420000 <__libc_start_main@GLIBC_2.34>
  400c44:	9100e000 	add	x0, x0, #0x38
  400c48:	f9400400 	ldr	x0, [x0, #8]
  400c4c:	f905abe0 	str	x0, [sp, #2896]
  400c50:	f945afe1 	ldr	x1, [sp, #2904]
  400c54:	f945abe0 	ldr	x0, [sp, #2896]
  400c58:	eb00003f 	cmp	x1, x0
  400c5c:	540005aa 	b.ge	400d10 <main+0x70c>  // b.tcont
  400c60:	90000100 	adrp	x0, 420000 <__libc_start_main@GLIBC_2.34>
  400c64:	9100a000 	add	x0, x0, #0x28
  400c68:	b9400000 	ldr	w0, [x0]
  400c6c:	51000c01 	sub	w1, w0, #0x3
  400c70:	90000100 	adrp	x0, 420000 <__libc_start_main@GLIBC_2.34>
  400c74:	9100a000 	add	x0, x0, #0x28
  400c78:	b9000001 	str	w1, [x0]
  400c7c:	f945afe1 	ldr	x1, [sp, #2904]
  400c80:	f945abe0 	ldr	x0, [sp, #2896]
  400c84:	cb000020 	sub	x0, x1, x0
  400c88:	f905a7e0 	str	x0, [sp, #2888]
  400c8c:	90000100 	adrp	x0, 420000 <__libc_start_main@GLIBC_2.34>
  400c90:	9101e000 	add	x0, x0, #0x78
  400c94:	b9400001 	ldr	w1, [x0]
  400c98:	90000100 	adrp	x0, 420000 <__libc_start_main@GLIBC_2.34>
  400c9c:	91020000 	add	x0, x0, #0x80
  400ca0:	93407c21 	sxtw	x1, w1
  400ca4:	f945afe2 	ldr	x2, [sp, #2904]
  400ca8:	f8217802 	str	x2, [x0, x1, lsl #3]
  400cac:	90000100 	adrp	x0, 420000 <__libc_start_main@GLIBC_2.34>
  400cb0:	9101e000 	add	x0, x0, #0x78
  400cb4:	b9400000 	ldr	w0, [x0]
  400cb8:	11000401 	add	w1, w0, #0x1
  400cbc:	90000100 	adrp	x0, 420000 <__libc_start_main@GLIBC_2.34>
  400cc0:	91020000 	add	x0, x0, #0x80
  400cc4:	93407c21 	sxtw	x1, w1
  400cc8:	f945abe2 	ldr	x2, [sp, #2896]
  400ccc:	f8217802 	str	x2, [x0, x1, lsl #3]
  400cd0:	90000100 	adrp	x0, 420000 <__libc_start_main@GLIBC_2.34>
  400cd4:	9101e000 	add	x0, x0, #0x78
  400cd8:	b9400000 	ldr	w0, [x0]
  400cdc:	11000801 	add	w1, w0, #0x2
  400ce0:	90000100 	adrp	x0, 420000 <__libc_start_main@GLIBC_2.34>
  400ce4:	91020000 	add	x0, x0, #0x80
  400ce8:	93407c21 	sxtw	x1, w1
  400cec:	f945a7e2 	ldr	x2, [sp, #2888]
  400cf0:	f8217802 	str	x2, [x0, x1, lsl #3]
  400cf4:	90000100 	adrp	x0, 420000 <__libc_start_main@GLIBC_2.34>
  400cf8:	9101e000 	add	x0, x0, #0x78
  400cfc:	b9400000 	ldr	w0, [x0]
  400d00:	11000c01 	add	w1, w0, #0x3
  400d04:	90000100 	adrp	x0, 420000 <__libc_start_main@GLIBC_2.34>
  400d08:	9101e000 	add	x0, x0, #0x78
  400d0c:	b9000001 	str	w1, [x0]
  400d10:	90000100 	adrp	x0, 420000 <__libc_start_main@GLIBC_2.34>
  400d14:	9100b000 	add	x0, x0, #0x2c
  400d18:	b9400000 	ldr	w0, [x0]
  400d1c:	71000c1f 	cmp	w0, #0x3
  400d20:	540009cd 	b.le	400e58 <main+0x854>
  400d24:	90000100 	adrp	x0, 420000 <__libc_start_main@GLIBC_2.34>
  400d28:	9101e000 	add	x0, x0, #0x78
  400d2c:	b9400000 	ldr	w0, [x0]
  400d30:	71000c1f 	cmp	w0, #0x3
  400d34:	5400092c 	b.gt	400e58 <main+0x854>
  400d38:	90000100 	adrp	x0, 420000 <__libc_start_main@GLIBC_2.34>
  400d3c:	91014000 	add	x0, x0, #0x50
  400d40:	f9400401 	ldr	x1, [x0, #8]
  400d44:	90000100 	adrp	x0, 420000 <__libc_start_main@GLIBC_2.34>
  400d48:	91014000 	add	x0, x0, #0x50
  400d4c:	f9400800 	ldr	x0, [x0, #16]
  400d50:	eb00003f 	cmp	x1, x0
  400d54:	54000821 	b.ne	400e58 <main+0x854>  // b.any
  400d58:	90000100 	adrp	x0, 420000 <__libc_start_main@GLIBC_2.34>
  400d5c:	91014000 	add	x0, x0, #0x50
  400d60:	f9400401 	ldr	x1, [x0, #8]
  400d64:	90000100 	adrp	x0, 420000 <__libc_start_main@GLIBC_2.34>
  400d68:	91014000 	add	x0, x0, #0x50
  400d6c:	f9400c00 	ldr	x0, [x0, #24]
  400d70:	eb00003f 	cmp	x1, x0
  400d74:	54000721 	b.ne	400e58 <main+0x854>  // b.any
  400d78:	90000100 	adrp	x0, 420000 <__libc_start_main@GLIBC_2.34>
  400d7c:	91014000 	add	x0, x0, #0x50
  400d80:	f9400000 	ldr	x0, [x0]
  400d84:	f905a3e0 	str	x0, [sp, #2880]
  400d88:	90000100 	adrp	x0, 420000 <__libc_start_main@GLIBC_2.34>
  400d8c:	91014000 	add	x0, x0, #0x50
  400d90:	f9400400 	ldr	x0, [x0, #8]
  400d94:	f9059fe0 	str	x0, [sp, #2872]
  400d98:	f9459fe1 	ldr	x1, [sp, #2872]
  400d9c:	f945a3e0 	ldr	x0, [sp, #2880]
  400da0:	eb00003f 	cmp	x1, x0
  400da4:	540005ad 	b.le	400e58 <main+0x854>
  400da8:	90000100 	adrp	x0, 420000 <__libc_start_main@GLIBC_2.34>
  400dac:	9100b000 	add	x0, x0, #0x2c
  400db0:	b9400000 	ldr	w0, [x0]
  400db4:	51001001 	sub	w1, w0, #0x4
  400db8:	90000100 	adrp	x0, 420000 <__libc_start_main@GLIBC_2.34>
  400dbc:	9100b000 	add	x0, x0, #0x2c
  400dc0:	b9000001 	str	w1, [x0]
  400dc4:	f945a3e1 	ldr	x1, [sp, #2880]
  400dc8:	f9459fe0 	ldr	x0, [sp, #2872]
  400dcc:	8b000020 	add	x0, x1, x0
  400dd0:	f9059be0 	str	x0, [sp, #2864]
  400dd4:	90000100 	adrp	x0, 420000 <__libc_start_main@GLIBC_2.34>
  400dd8:	9101e000 	add	x0, x0, #0x78
  400ddc:	b9400001 	ldr	w1, [x0]
  400de0:	90000100 	adrp	x0, 420000 <__libc_start_main@GLIBC_2.34>
  400de4:	91020000 	add	x0, x0, #0x80
  400de8:	93407c21 	sxtw	x1, w1
  400dec:	f945a3e2 	ldr	x2, [sp, #2880]
  400df0:	f8217802 	str	x2, [x0, x1, lsl #3]
  400df4:	90000100 	adrp	x0, 420000 <__libc_start_main@GLIBC_2.34>
  400df8:	9101e000 	add	x0, x0, #0x78
  400dfc:	b9400000 	ldr	w0, [x0]
  400e00:	11000401 	add	w1, w0, #0x1
  400e04:	90000100 	adrp	x0, 420000 <__libc_start_main@GLIBC_2.34>
  400e08:	91020000 	add	x0, x0, #0x80
  400e0c:	93407c21 	sxtw	x1, w1
  400e10:	f9459fe2 	ldr	x2, [sp, #2872]
  400e14:	f8217802 	str	x2, [x0, x1, lsl #3]
  400e18:	90000100 	adrp	x0, 420000 <__libc_start_main@GLIBC_2.34>
  400e1c:	9101e000 	add	x0, x0, #0x78
  400e20:	b9400000 	ldr	w0, [x0]
  400e24:	11000801 	add	w1, w0, #0x2
  400e28:	90000100 	adrp	x0, 420000 <__libc_start_main@GLIBC_2.34>
  400e2c:	91020000 	add	x0, x0, #0x80
  400e30:	93407c21 	sxtw	x1, w1
  400e34:	f9459be2 	ldr	x2, [sp, #2864]
  400e38:	f8217802 	str	x2, [x0, x1, lsl #3]
  400e3c:	90000100 	adrp	x0, 420000 <__libc_start_main@GLIBC_2.34>
  400e40:	9101e000 	add	x0, x0, #0x78
  400e44:	b9400000 	ldr	w0, [x0]
  400e48:	11000c01 	add	w1, w0, #0x3
  400e4c:	90000100 	adrp	x0, 420000 <__libc_start_main@GLIBC_2.34>
  400e50:	9101e000 	add	x0, x0, #0x78
  400e54:	b9000001 	str	w1, [x0]
  400e58:	90000100 	adrp	x0, 420000 <__libc_start_main@GLIBC_2.34>
  400e5c:	9100b000 	add	x0, x0, #0x2c
  400e60:	b9400000 	ldr	w0, [x0]
  400e64:	71000c1f 	cmp	w0, #0x3
  400e68:	540009cd 	b.le	400fa0 <main+0x99c>
  400e6c:	90000100 	adrp	x0, 420000 <__libc_start_main@GLIBC_2.34>
  400e70:	9101e000 	add	x0, x0, #0x78
  400e74:	b9400000 	ldr	w0, [x0]
  400e78:	71000c1f 	cmp	w0, #0x3
  400e7c:	5400092c 	b.gt	400fa0 <main+0x99c>
  400e80:	90000100 	adrp	x0, 420000 <__libc_start_main@GLIBC_2.34>
  400e84:	91014000 	add	x0, x0, #0x50
  400e88:	f9400401 	ldr	x1, [x0, #8]
  400e8c:	90000100 	adrp	x0, 420000 <__libc_start_main@GLIBC_2.34>
  400e90:	91014000 	add	x0, x0, #0x50
  400e94:	f9400c00 	ldr	x0, [x0, #24]
  400e98:	eb00003f 	cmp	x1, x0
  400e9c:	54000821 	b.ne	400fa0 <main+0x99c>  // b.any
  400ea0:	90000100 	adrp	x0, 420000 <__libc_start_main@GLIBC_2.34>
  400ea4:	91014000 	add	x0, x0, #0x50
  400ea8:	f9400401 	ldr	x1, [x0, #8]
  400eac:	90000100 	adrp	x0, 420000 <__libc_start_main@GLIBC_2.34>
  400eb0:	91014000 	add	x0, x0, #0x50
  400eb4:	f9400800 	ldr	x0, [x0, #16]
  400eb8:	eb00003f 	cmp	x1, x0
  400ebc:	54000721 	b.ne	400fa0 <main+0x99c>  // b.any
  400ec0:	90000100 	adrp	x0, 420000 <__libc_start_main@GLIBC_2.34>
  400ec4:	91014000 	add	x0, x0, #0x50
  400ec8:	f9400000 	ldr	x0, [x0]
  400ecc:	f90597e0 	str	x0, [sp, #2856]
  400ed0:	90000100 	adrp	x0, 420000 <__libc_start_main@GLIBC_2.34>
  400ed4:	91014000 	add	x0, x0, #0x50
  400ed8:	f9400400 	ldr	x0, [x0, #8]
  400edc:	f90593e0 	str	x0, [sp, #2848]
  400ee0:	f94593e1 	ldr	x1, [sp, #2848]
  400ee4:	f94597e0 	ldr	x0, [sp, #2856]
  400ee8:	eb00003f 	cmp	x1, x0
  400eec:	540005ad 	b.le	400fa0 <main+0x99c>
  400ef0:	90000100 	adrp	x0, 420000 <__libc_start_main@GLIBC_2.34>
  400ef4:	9100b000 	add	x0, x0, #0x2c
  400ef8:	b9400000 	ldr	w0, [x0]
  400efc:	51001001 	sub	w1, w0, #0x4
  400f00:	90000100 	adrp	x0, 420000 <__libc_start_main@GLIBC_2.34>
  400f04:	9100b000 	add	x0, x0, #0x2c
  400f08:	b9000001 	str	w1, [x0]
  400f0c:	f94597e1 	ldr	x1, [sp, #2856]
  400f10:	f94593e0 	ldr	x0, [sp, #2848]
  400f14:	8b000020 	add	x0, x1, x0
  400f18:	f9058fe0 	str	x0, [sp, #2840]
  400f1c:	90000100 	adrp	x0, 420000 <__libc_start_main@GLIBC_2.34>
  400f20:	9101e000 	add	x0, x0, #0x78
  400f24:	b9400001 	ldr	w1, [x0]
  400f28:	90000100 	adrp	x0, 420000 <__libc_start_main@GLIBC_2.34>
  400f2c:	91020000 	add	x0, x0, #0x80
  400f30:	93407c21 	sxtw	x1, w1
  400f34:	f94597e2 	ldr	x2, [sp, #2856]
  400f38:	f8217802 	str	x2, [x0, x1, lsl #3]
  400f3c:	90000100 	adrp	x0, 420000 <__libc_start_main@GLIBC_2.34>
  400f40:	9101e000 	add	x0, x0, #0x78
  400f44:	b9400000 	ldr	w0, [x0]
  400f48:	11000401 	add	w1, w0, #0x1
  400f4c:	90000100 	adrp	x0, 420000 <__libc_start_main@GLIBC_2.34>
  400f50:	91020000 	add	x0, x0, #0x80
  400f54:	93407c21 	sxtw	x1, w1
  400f58:	f94593e2 	ldr	x2, [sp, #2848]
  400f5c:	f8217802 	str	x2, [x0, x1, lsl #3]
  400f60:	90000100 	adrp	x0, 420000 <__libc_start_main@GLIBC_2.34>
  400f64:	9101e000 	add	x0, x0, #0x78
  400f68:	b9400000 	ldr	w0, [x0]
  400f6c:	11000801 	add	w1, w0, #0x2
  400f70:	90000100 	adrp	x0, 420000 <__libc_start_main@GLIBC_2.34>
  400f74:	91020000 	add	x0, x0, #0x80
  400f78:	93407c21 	sxtw	x1, w1
  400f7c:	f9458fe2 	ldr	x2, [sp, #2840]
  400f80:	f8217802 	str	x2, [x0, x1, lsl #3]
  400f84:	90000100 	adrp	x0, 420000 <__libc_start_main@GLIBC_2.34>
  400f88:	9101e000 	add	x0, x0, #0x78
  400f8c:	b9400000 	ldr	w0, [x0]
  400f90:	11000c01 	add	w1, w0, #0x3
  400f94:	90000100 	adrp	x0, 420000 <__libc_start_main@GLIBC_2.34>
  400f98:	9101e000 	add	x0, x0, #0x78
  400f9c:	b9000001 	str	w1, [x0]
  400fa0:	90000100 	adrp	x0, 420000 <__libc_start_main@GLIBC_2.34>
  400fa4:	9100b000 	add	x0, x0, #0x2c
  400fa8:	b9400000 	ldr	w0, [x0]
  400fac:	71000c1f 	cmp	w0, #0x3
  400fb0:	540009cd 	b.le	4010e8 <main+0xae4>
  400fb4:	90000100 	adrp	x0, 420000 <__libc_start_main@GLIBC_2.34>
  400fb8:	9101e000 	add	x0, x0, #0x78
  400fbc:	b9400000 	ldr	w0, [x0]
  400fc0:	71000c1f 	cmp	w0, #0x3
  400fc4:	5400092c 	b.gt	4010e8 <main+0xae4>
  400fc8:	90000100 	adrp	x0, 420000 <__libc_start_main@GLIBC_2.34>
  400fcc:	91014000 	add	x0, x0, #0x50
  400fd0:	f9400801 	ldr	x1, [x0, #16]
  400fd4:	90000100 	adrp	x0, 420000 <__libc_start_main@GLIBC_2.34>
  400fd8:	91014000 	add	x0, x0, #0x50
  400fdc:	f9400400 	ldr	x0, [x0, #8]
  400fe0:	eb00003f 	cmp	x1, x0
  400fe4:	54000821 	b.ne	4010e8 <main+0xae4>  // b.any
  400fe8:	90000100 	adrp	x0, 420000 <__libc_start_main@GLIBC_2.34>
  400fec:	91014000 	add	x0, x0, #0x50
  400ff0:	f9400801 	ldr	x1, [x0, #16]
  400ff4:	90000100 	adrp	x0, 420000 <__libc_start_main@GLIBC_2.34>
  400ff8:	91014000 	add	x0, x0, #0x50
  400ffc:	f9400c00 	ldr	x0, [x0, #24]
  401000:	eb00003f 	cmp	x1, x0
  401004:	54000721 	b.ne	4010e8 <main+0xae4>  // b.any
  401008:	f00000e0 	adrp	x0, 420000 <__libc_start_main@GLIBC_2.34>
  40100c:	91014000 	add	x0, x0, #0x50
  401010:	f9400000 	ldr	x0, [x0]
  401014:	f9058be0 	str	x0, [sp, #2832]
  401018:	f00000e0 	adrp	x0, 420000 <__libc_start_main@GLIBC_2.34>
  40101c:	91014000 	add	x0, x0, #0x50
  401020:	f9400800 	ldr	x0, [x0, #16]
  401024:	f90587e0 	str	x0, [sp, #2824]
  401028:	f94587e1 	ldr	x1, [sp, #2824]
  40102c:	f9458be0 	ldr	x0, [sp, #2832]
  401030:	eb00003f 	cmp	x1, x0
  401034:	540005ad 	b.le	4010e8 <main+0xae4>
  401038:	f00000e0 	adrp	x0, 420000 <__libc_start_main@GLIBC_2.34>
  40103c:	9100b000 	add	x0, x0, #0x2c
  401040:	b9400000 	ldr	w0, [x0]
  401044:	51001001 	sub	w1, w0, #0x4
  401048:	f00000e0 	adrp	x0, 420000 <__libc_start_main@GLIBC_2.34>
  40104c:	9100b000 	add	x0, x0, #0x2c
  401050:	b9000001 	str	w1, [x0]
  401054:	f9458be1 	ldr	x1, [sp, #2832]
  401058:	f94587e0 	ldr	x0, [sp, #2824]
  40105c:	8b000020 	add	x0, x1, x0
  401060:	f90583e0 	str	x0, [sp, #2816]
  401064:	f00000e0 	adrp	x0, 420000 <__libc_start_main@GLIBC_2.34>
  401068:	9101e000 	add	x0, x0, #0x78
  40106c:	b9400001 	ldr	w1, [x0]
  401070:	f00000e0 	adrp	x0, 420000 <__libc_start_main@GLIBC_2.34>
  401074:	91020000 	add	x0, x0, #0x80
  401078:	93407c21 	sxtw	x1, w1
  40107c:	f9458be2 	ldr	x2, [sp, #2832]
  401080:	f8217802 	str	x2, [x0, x1, lsl #3]
  401084:	f00000e0 	adrp	x0, 420000 <__libc_start_main@GLIBC_2.34>
  401088:	9101e000 	add	x0, x0, #0x78
  40108c:	b9400000 	ldr	w0, [x0]
  401090:	11000401 	add	w1, w0, #0x1
  401094:	f00000e0 	adrp	x0, 420000 <__libc_start_main@GLIBC_2.34>
  401098:	91020000 	add	x0, x0, #0x80
  40109c:	93407c21 	sxtw	x1, w1
  4010a0:	f94587e2 	ldr	x2, [sp, #2824]
  4010a4:	f8217802 	str	x2, [x0, x1, lsl #3]
  4010a8:	f00000e0 	adrp	x0, 420000 <__libc_start_main@GLIBC_2.34>
  4010ac:	9101e000 	add	x0, x0, #0x78
  4010b0:	b9400000 	ldr	w0, [x0]
  4010b4:	11000801 	add	w1, w0, #0x2
  4010b8:	f00000e0 	adrp	x0, 420000 <__libc_start_main@GLIBC_2.34>
  4010bc:	91020000 	add	x0, x0, #0x80
  4010c0:	93407c21 	sxtw	x1, w1
  4010c4:	f94583e2 	ldr	x2, [sp, #2816]
  4010c8:	f8217802 	str	x2, [x0, x1, lsl #3]
  4010cc:	f00000e0 	adrp	x0, 420000 <__libc_start_main@GLIBC_2.34>
  4010d0:	9101e000 	add	x0, x0, #0x78
  4010d4:	b9400000 	ldr	w0, [x0]
  4010d8:	11000c01 	add	w1, w0, #0x3
  4010dc:	f00000e0 	adrp	x0, 420000 <__libc_start_main@GLIBC_2.34>
  4010e0:	9101e000 	add	x0, x0, #0x78
  4010e4:	b9000001 	str	w1, [x0]
  4010e8:	f00000e0 	adrp	x0, 420000 <__libc_start_main@GLIBC_2.34>
  4010ec:	9100b000 	add	x0, x0, #0x2c
  4010f0:	b9400000 	ldr	w0, [x0]
  4010f4:	71000c1f 	cmp	w0, #0x3
  4010f8:	540009cd 	b.le	401230 <main+0xc2c>
  4010fc:	f00000e0 	adrp	x0, 420000 <__libc_start_main@GLIBC_2.34>
  401100:	9101e000 	add	x0, x0, #0x78
  401104:	b9400000 	ldr	w0, [x0]
  401108:	71000c1f 	cmp	w0, #0x3
  40110c:	5400092c 	b.gt	401230 <main+0xc2c>
  401110:	f00000e0 	adrp	x0, 420000 <__libc_start_main@GLIBC_2.34>
  401114:	91014000 	add	x0, x0, #0x50
  401118:	f9400801 	ldr	x1, [x0, #16]
  40111c:	f00000e0 	adrp	x0, 420000 <__libc_start_main@GLIBC_2.34>
  401120:	91014000 	add	x0, x0, #0x50
  401124:	f9400c00 	ldr	x0, [x0, #24]
  401128:	eb00003f 	cmp	x1, x0
  40112c:	54000821 	b.ne	401230 <main+0xc2c>  // b.any
  401130:	f00000e0 	adrp	x0, 420000 <__libc_start_main@GLIBC_2.34>
  401134:	91014000 	add	x0, x0, #0x50
  401138:	f9400801 	ldr	x1, [x0, #16]
  40113c:	f00000e0 	adrp	x0, 420000 <__libc_start_main@GLIBC_2.34>
  401140:	91014000 	add	x0, x0, #0x50
  401144:	f9400400 	ldr	x0, [x0, #8]
  401148:	eb00003f 	cmp	x1, x0
  40114c:	54000721 	b.ne	401230 <main+0xc2c>  // b.any
  401150:	f00000e0 	adrp	x0, 420000 <__libc_start_main@GLIBC_2.34>
  401154:	91014000 	add	x0, x0, #0x50
  401158:	f9400000 	ldr	x0, [x0]
  40115c:	f9057fe0 	str	x0, [sp, #2808]
  401160:	f00000e0 	adrp	x0, 420000 <__libc_start_main@GLIBC_2.34>
  401164:	91014000 	add	x0, x0, #0x50
  401168:	f9400800 	ldr	x0, [x0, #16]
  40116c:	f9057be0 	str	x0, [sp, #2800]
  401170:	f9457be1 	ldr	x1, [sp, #2800]
  401174:	f9457fe0 	ldr	x0, [sp, #2808]
  401178:	eb00003f 	cmp	x1, x0
  40117c:	540005ad 	b.le	401230 <main+0xc2c>
  401180:	f00000e0 	adrp	x0, 420000 <__libc_start_main@GLIBC_2.34>
  401184:	9100b000 	add	x0, x0, #0x2c
  401188:	b9400000 	ldr	w0, [x0]
  40118c:	51001001 	sub	w1, w0, #0x4
  401190:	f00000e0 	adrp	x0, 420000 <__libc_start_main@GLIBC_2.34>
  401194:	9100b000 	add	x0, x0, #0x2c
  401198:	b9000001 	str	w1, [x0]
  40119c:	f9457fe1 	ldr	x1, [sp, #2808]
  4011a0:	f9457be0 	ldr	x0, [sp, #2800]
  4011a4:	8b000020 	add	x0, x1, x0
  4011a8:	f90577e0 	str	x0, [sp, #2792]
  4011ac:	f00000e0 	adrp	x0, 420000 <__libc_start_main@GLIBC_2.34>
  4011b0:	9101e000 	add	x0, x0, #0x78
  4011b4:	b9400001 	ldr	w1, [x0]
  4011b8:	f00000e0 	adrp	x0, 420000 <__libc_start_main@GLIBC_2.34>
  4011bc:	91020000 	add	x0, x0, #0x80
  4011c0:	93407c21 	sxtw	x1, w1
  4011c4:	f9457fe2 	ldr	x2, [sp, #2808]
  4011c8:	f8217802 	str	x2, [x0, x1, lsl #3]
  4011cc:	f00000e0 	adrp	x0, 420000 <__libc_start_main@GLIBC_2.34>
  4011d0:	9101e000 	add	x0, x0, #0x78
  4011d4:	b9400000 	ldr	w0, [x0]
  4011d8:	11000401 	add	w1, w0, #0x1
  4011dc:	f00000e0 	adrp	x0, 420000 <__libc_start_main@GLIBC_2.34>
  4011e0:	91020000 	add	x0, x0, #0x80
  4011e4:	93407c21 	sxtw	x1, w1
  4011e8:	f9457be2 	ldr	x2, [sp, #2800]
  4011ec:	f8217802 	str	x2, [x0, x1, lsl #3]
  4011f0:	f00000e0 	adrp	x0, 420000 <__libc_start_main@GLIBC_2.34>
  4011f4:	9101e000 	add	x0, x0, #0x78
  4011f8:	b9400000 	ldr	w0, [x0]
  4011fc:	11000801 	add	w1, w0, #0x2
  401200:	f00000e0 	adrp	x0, 420000 <__libc_start_main@GLIBC_2.34>
  401204:	91020000 	add	x0, x0, #0x80
  401208:	93407c21 	sxtw	x1, w1
  40120c:	f94577e2 	ldr	x2, [sp, #2792]
  401210:	f8217802 	str	x2, [x0, x1, lsl #3]
  401214:	f00000e0 	adrp	x0, 420000 <__libc_start_main@GLIBC_2.34>
  401218:	9101e000 	add	x0, x0, #0x78
  40121c:	b9400000 	ldr	w0, [x0]
  401220:	11000c01 	add	w1, w0, #0x3
  401224:	f00000e0 	adrp	x0, 420000 <__libc_start_main@GLIBC_2.34>
  401228:	9101e000 	add	x0, x0, #0x78
  40122c:	b9000001 	str	w1, [x0]
  401230:	f00000e0 	adrp	x0, 420000 <__libc_start_main@GLIBC_2.34>
  401234:	9100b000 	add	x0, x0, #0x2c
  401238:	b9400000 	ldr	w0, [x0]
  40123c:	71000c1f 	cmp	w0, #0x3
  401240:	540009cd 	b.le	401378 <main+0xd74>
  401244:	f00000e0 	adrp	x0, 420000 <__libc_start_main@GLIBC_2.34>
  401248:	9101e000 	add	x0, x0, #0x78
  40124c:	b9400000 	ldr	w0, [x0]
  401250:	71000c1f 	cmp	w0, #0x3
  401254:	5400092c 	b.gt	401378 <main+0xd74>
  401258:	f00000e0 	adrp	x0, 420000 <__libc_start_main@GLIBC_2.34>
  40125c:	91014000 	add	x0, x0, #0x50
  401260:	f9400c01 	ldr	x1, [x0, #24]
  401264:	f00000e0 	adrp	x0, 420000 <__libc_start_main@GLIBC_2.34>
  401268:	91014000 	add	x0, x0, #0x50
  40126c:	f9400400 	ldr	x0, [x0, #8]
  401270:	eb00003f 	cmp	x1, x0
  401274:	54000821 	b.ne	401378 <main+0xd74>  // b.any
  401278:	f00000e0 	adrp	x0, 420000 <__libc_start_main@GLIBC_2.34>
  40127c:	91014000 	add	x0, x0, #0x50
  401280:	f9400c01 	ldr	x1, [x0, #24]
  401284:	f00000e0 	adrp	x0, 420000 <__libc_start_main@GLIBC_2.34>
  401288:	91014000 	add	x0, x0, #0x50
  40128c:	f9400800 	ldr	x0, [x0, #16]
  401290:	eb00003f 	cmp	x1, x0
  401294:	54000721 	b.ne	401378 <main+0xd74>  // b.any
  401298:	f00000e0 	adrp	x0, 420000 <__libc_start_main@GLIBC_2.34>
  40129c:	91014000 	add	x0, x0, #0x50
  4012a0:	f9400000 	ldr	x0, [x0]
  4012a4:	f90573e0 	str	x0, [sp, #2784]
  4012a8:	f00000e0 	adrp	x0, 420000 <__libc_start_main@GLIBC_2.34>
  4012ac:	91014000 	add	x0, x0, #0x50
  4012b0:	f9400c00 	ldr	x0, [x0, #24]
  4012b4:	f9056fe0 	str	x0, [sp, #2776]
  4012b8:	f9456fe1 	ldr	x1, [sp, #2776]
  4012bc:	f94573e0 	ldr	x0, [sp, #2784]
  4012c0:	eb00003f 	cmp	x1, x0
  4012c4:	540005ad 	b.le	401378 <main+0xd74>
  4012c8:	f00000e0 	adrp	x0, 420000 <__libc_start_main@GLIBC_2.34>
  4012cc:	9100b000 	add	x0, x0, #0x2c
  4012d0:	b9400000 	ldr	w0, [x0]
  4012d4:	51001001 	sub	w1, w0, #0x4
  4012d8:	f00000e0 	adrp	x0, 420000 <__libc_start_main@GLIBC_2.34>
  4012dc:	9100b000 	add	x0, x0, #0x2c
  4012e0:	b9000001 	str	w1, [x0]
  4012e4:	f94573e1 	ldr	x1, [sp, #2784]
  4012e8:	f9456fe0 	ldr	x0, [sp, #2776]
  4012ec:	8b000020 	add	x0, x1, x0
  4012f0:	f9056be0 	str	x0, [sp, #2768]
  4012f4:	f00000e0 	adrp	x0, 420000 <__libc_start_main@GLIBC_2.34>
  4012f8:	9101e000 	add	x0, x0, #0x78
  4012fc:	b9400001 	ldr	w1, [x0]
  401300:	f00000e0 	adrp	x0, 420000 <__libc_start_main@GLIBC_2.34>
  401304:	91020000 	add	x0, x0, #0x80
  401308:	93407c21 	sxtw	x1, w1
  40130c:	f94573e2 	ldr	x2, [sp, #2784]
  401310:	f8217802 	str	x2, [x0, x1, lsl #3]
  401314:	f00000e0 	adrp	x0, 420000 <__libc_start_main@GLIBC_2.34>
  401318:	9101e000 	add	x0, x0, #0x78
  40131c:	b9400000 	ldr	w0, [x0]
  401320:	11000401 	add	w1, w0, #0x1
  401324:	f00000e0 	adrp	x0, 420000 <__libc_start_main@GLIBC_2.34>
  401328:	91020000 	add	x0, x0, #0x80
  40132c:	93407c21 	sxtw	x1, w1
  401330:	f9456fe2 	ldr	x2, [sp, #2776]
  401334:	f8217802 	str	x2, [x0, x1, lsl #3]
  401338:	f00000e0 	adrp	x0, 420000 <__libc_start_main@GLIBC_2.34>
  40133c:	9101e000 	add	x0, x0, #0x78
  401340:	b9400000 	ldr	w0, [x0]
  401344:	11000801 	add	w1, w0, #0x2
  401348:	f00000e0 	adrp	x0, 420000 <__libc_start_main@GLIBC_2.34>
  40134c:	91020000 	add	x0, x0, #0x80
  401350:	93407c21 	sxtw	x1, w1
  401354:	f9456be2 	ldr	x2, [sp, #2768]
  401358:	f8217802 	str	x2, [x0, x1, lsl #3]
  40135c:	f00000e0 	adrp	x0, 420000 <__libc_start_main@GLIBC_2.34>
  401360:	9101e000 	add	x0, x0, #0x78
  401364:	b9400000 	ldr	w0, [x0]
  401368:	11000c01 	add	w1, w0, #0x3
  40136c:	f00000e0 	adrp	x0, 420000 <__libc_start_main@GLIBC_2.34>
  401370:	9101e000 	add	x0, x0, #0x78
  401374:	b9000001 	str	w1, [x0]
  401378:	f00000e0 	adrp	x0, 420000 <__libc_start_main@GLIBC_2.34>
  40137c:	9100b000 	add	x0, x0, #0x2c
  401380:	b9400000 	ldr	w0, [x0]
  401384:	71000c1f 	cmp	w0, #0x3
  401388:	540009cd 	b.le	4014c0 <main+0xebc>
  40138c:	f00000e0 	adrp	x0, 420000 <__libc_start_main@GLIBC_2.34>
  401390:	9101e000 	add	x0, x0, #0x78
  401394:	b9400000 	ldr	w0, [x0]
  401398:	71000c1f 	cmp	w0, #0x3
  40139c:	5400092c 	b.gt	4014c0 <main+0xebc>
  4013a0:	f00000e0 	adrp	x0, 420000 <__libc_start_main@GLIBC_2.34>
  4013a4:	91014000 	add	x0, x0, #0x50
  4013a8:	f9400c01 	ldr	x1, [x0, #24]
  4013ac:	f00000e0 	adrp	x0, 420000 <__libc_start_main@GLIBC_2.34>
  4013b0:	91014000 	add	x0, x0, #0x50
  4013b4:	f9400800 	ldr	x0, [x0, #16]
  4013b8:	eb00003f 	cmp	x1, x0
  4013bc:	54000821 	b.ne	4014c0 <main+0xebc>  // b.any
  4013c0:	f00000e0 	adrp	x0, 420000 <__libc_start_main@GLIBC_2.34>
  4013c4:	91014000 	add	x0, x0, #0x50
  4013c8:	f9400c01 	ldr	x1, [x0, #24]
  4013cc:	f00000e0 	adrp	x0, 420000 <__libc_start_main@GLIBC_2.34>
  4013d0:	91014000 	add	x0, x0, #0x50
  4013d4:	f9400400 	ldr	x0, [x0, #8]
  4013d8:	eb00003f 	cmp	x1, x0
  4013dc:	54000721 	b.ne	4014c0 <main+0xebc>  // b.any
  4013e0:	f00000e0 	adrp	x0, 420000 <__libc_start_main@GLIBC_2.34>
  4013e4:	91014000 	add	x0, x0, #0x50
  4013e8:	f9400000 	ldr	x0, [x0]
  4013ec:	f90567e0 	str	x0, [sp, #2760]
  4013f0:	f00000e0 	adrp	x0, 420000 <__libc_start_main@GLIBC_2.34>
  4013f4:	91014000 	add	x0, x0, #0x50
  4013f8:	f9400c00 	ldr	x0, [x0, #24]
  4013fc:	f90563e0 	str	x0, [sp, #2752]
  401400:	f94563e1 	ldr	x1, [sp, #2752]
  401404:	f94567e0 	ldr	x0, [sp, #2760]
  401408:	eb00003f 	cmp	x1, x0
  40140c:	540005ad 	b.le	4014c0 <main+0xebc>
  401410:	f00000e0 	adrp	x0, 420000 <__libc_start_main@GLIBC_2.34>
  401414:	9100b000 	add	x0, x0, #0x2c
  401418:	b9400000 	ldr	w0, [x0]
  40141c:	51001001 	sub	w1, w0, #0x4
  401420:	f00000e0 	adrp	x0, 420000 <__libc_start_main@GLIBC_2.34>
  401424:	9100b000 	add	x0, x0, #0x2c
  401428:	b9000001 	str	w1, [x0]
  40142c:	f94567e1 	ldr	x1, [sp, #2760]
  401430:	f94563e0 	ldr	x0, [sp, #2752]
  401434:	8b000020 	add	x0, x1, x0
  401438:	f9055fe0 	str	x0, [sp, #2744]
  40143c:	f00000e0 	adrp	x0, 420000 <__libc_start_main@GLIBC_2.34>
  401440:	9101e000 	add	x0, x0, #0x78
  401444:	b9400001 	ldr	w1, [x0]
  401448:	f00000e0 	adrp	x0, 420000 <__libc_start_main@GLIBC_2.34>
  40144c:	91020000 	add	x0, x0, #0x80
  401450:	93407c21 	sxtw	x1, w1
  401454:	f94567e2 	ldr	x2, [sp, #2760]
  401458:	f8217802 	str	x2, [x0, x1, lsl #3]
  40145c:	f00000e0 	adrp	x0, 420000 <__libc_start_main@GLIBC_2.34>
  401460:	9101e000 	add	x0, x0, #0x78
  401464:	b9400000 	ldr	w0, [x0]
  401468:	11000401 	add	w1, w0, #0x1
  40146c:	f00000e0 	adrp	x0, 420000 <__libc_start_main@GLIBC_2.34>
  401470:	91020000 	add	x0, x0, #0x80
  401474:	93407c21 	sxtw	x1, w1
  401478:	f94563e2 	ldr	x2, [sp, #2752]
  40147c:	f8217802 	str	x2, [x0, x1, lsl #3]
  401480:	f00000e0 	adrp	x0, 420000 <__libc_start_main@GLIBC_2.34>
  401484:	9101e000 	add	x0, x0, #0x78
  401488:	b9400000 	ldr	w0, [x0]
  40148c:	11000801 	add	w1, w0, #0x2
  401490:	f00000e0 	adrp	x0, 420000 <__libc_start_main@GLIBC_2.34>
  401494:	91020000 	add	x0, x0, #0x80
  401498:	93407c21 	sxtw	x1, w1
  40149c:	f9455fe2 	ldr	x2, [sp, #2744]
  4014a0:	f8217802 	str	x2, [x0, x1, lsl #3]
  4014a4:	f00000e0 	adrp	x0, 420000 <__libc_start_main@GLIBC_2.34>
  4014a8:	9101e000 	add	x0, x0, #0x78
  4014ac:	b9400000 	ldr	w0, [x0]
  4014b0:	11000c01 	add	w1, w0, #0x3
  4014b4:	f00000e0 	adrp	x0, 420000 <__libc_start_main@GLIBC_2.34>
  4014b8:	9101e000 	add	x0, x0, #0x78
  4014bc:	b9000001 	str	w1, [x0]
  4014c0:	f00000e0 	adrp	x0, 420000 <__libc_start_main@GLIBC_2.34>
  4014c4:	9100b000 	add	x0, x0, #0x2c
  4014c8:	b9400000 	ldr	w0, [x0]
  4014cc:	71000c1f 	cmp	w0, #0x3
  4014d0:	540009cd 	b.le	401608 <main+0x1004>
  4014d4:	f00000e0 	adrp	x0, 420000 <__libc_start_main@GLIBC_2.34>
  4014d8:	9101e000 	add	x0, x0, #0x78
  4014dc:	b9400000 	ldr	w0, [x0]
  4014e0:	71000c1f 	cmp	w0, #0x3
  4014e4:	5400092c 	b.gt	401608 <main+0x1004>
  4014e8:	f00000e0 	adrp	x0, 420000 <__libc_start_main@GLIBC_2.34>
  4014ec:	91014000 	add	x0, x0, #0x50
  4014f0:	f9400001 	ldr	x1, [x0]
  4014f4:	f00000e0 	adrp	x0, 420000 <__libc_start_main@GLIBC_2.34>
  4014f8:	91014000 	add	x0, x0, #0x50
  4014fc:	f9400800 	ldr	x0, [x0, #16]
  401500:	eb00003f 	cmp	x1, x0
  401504:	54000821 	b.ne	401608 <main+0x1004>  // b.any
  401508:	f00000e0 	adrp	x0, 420000 <__libc_start_main@GLIBC_2.34>
  40150c:	91014000 	add	x0, x0, #0x50
  401510:	f9400001 	ldr	x1, [x0]
  401514:	f00000e0 	adrp	x0, 420000 <__libc_start_main@GLIBC_2.34>
  401518:	91014000 	add	x0, x0, #0x50
  40151c:	f9400c00 	ldr	x0, [x0, #24]
  401520:	eb00003f 	cmp	x1, x0
  401524:	54000721 	b.ne	401608 <main+0x1004>  // b.any
  401528:	f00000e0 	adrp	x0, 420000 <__libc_start_main@GLIBC_2.34>
  40152c:	91014000 	add	x0, x0, #0x50
  401530:	f9400400 	ldr	x0, [x0, #8]
  401534:	f9055be0 	str	x0, [sp, #2736]
  401538:	f00000e0 	adrp	x0, 420000 <__libc_start_main@GLIBC_2.34>
  40153c:	91014000 	add	x0, x0, #0x50
  401540:	f9400000 	ldr	x0, [x0]
  401544:	f90557e0 	str	x0, [sp, #2728]
  401548:	f94557e1 	ldr	x1, [sp, #2728]
  40154c:	f9455be0 	ldr	x0, [sp, #2736]
  401550:	eb00003f 	cmp	x1, x0
  401554:	540005ad 	b.le	401608 <main+0x1004>
  401558:	f00000e0 	adrp	x0, 420000 <__libc_start_main@GLIBC_2.34>
  40155c:	9100b000 	add	x0, x0, #0x2c
  401560:	b9400000 	ldr	w0, [x0]
  401564:	51001001 	sub	w1, w0, #0x4
  401568:	f00000e0 	adrp	x0, 420000 <__libc_start_main@GLIBC_2.34>
  40156c:	9100b000 	add	x0, x0, #0x2c
  401570:	b9000001 	str	w1, [x0]
  401574:	f9455be1 	ldr	x1, [sp, #2736]
  401578:	f94557e0 	ldr	x0, [sp, #2728]
  40157c:	8b000020 	add	x0, x1, x0
  401580:	f90553e0 	str	x0, [sp, #2720]
  401584:	f00000e0 	adrp	x0, 420000 <__libc_start_main@GLIBC_2.34>
  401588:	9101e000 	add	x0, x0, #0x78
  40158c:	b9400001 	ldr	w1, [x0]
  401590:	f00000e0 	adrp	x0, 420000 <__libc_start_main@GLIBC_2.34>
  401594:	91020000 	add	x0, x0, #0x80
  401598:	93407c21 	sxtw	x1, w1
  40159c:	f9455be2 	ldr	x2, [sp, #2736]
  4015a0:	f8217802 	str	x2, [x0, x1, lsl #3]
  4015a4:	f00000e0 	adrp	x0, 420000 <__libc_start_main@GLIBC_2.34>
  4015a8:	9101e000 	add	x0, x0, #0x78
  4015ac:	b9400000 	ldr	w0, [x0]
  4015b0:	11000401 	add	w1, w0, #0x1
  4015b4:	f00000e0 	adrp	x0, 420000 <__libc_start_main@GLIBC_2.34>
  4015b8:	91020000 	add	x0, x0, #0x80
  4015bc:	93407c21 	sxtw	x1, w1
  4015c0:	f94557e2 	ldr	x2, [sp, #2728]
  4015c4:	f8217802 	str	x2, [x0, x1, lsl #3]
  4015c8:	f00000e0 	adrp	x0, 420000 <__libc_start_main@GLIBC_2.34>
  4015cc:	9101e000 	add	x0, x0, #0x78
  4015d0:	b9400000 	ldr	w0, [x0]
  4015d4:	11000801 	add	w1, w0, #0x2
  4015d8:	f00000e0 	adrp	x0, 420000 <__libc_start_main@GLIBC_2.34>
  4015dc:	91020000 	add	x0, x0, #0x80
  4015e0:	93407c21 	sxtw	x1, w1
  4015e4:	f94553e2 	ldr	x2, [sp, #2720]
  4015e8:	f8217802 	str	x2, [x0, x1, lsl #3]
  4015ec:	f00000e0 	adrp	x0, 420000 <__libc_start_main@GLIBC_2.34>
  4015f0:	9101e000 	add	x0, x0, #0x78
  4015f4:	b9400000 	ldr	w0, [x0]
  4015f8:	11000c01 	add	w1, w0, #0x3
  4015fc:	f00000e0 	adrp	x0, 420000 <__libc_start_main@GLIBC_2.34>
  401600:	9101e000 	add	x0, x0, #0x78
  401604:	b9000001 	str	w1, [x0]
  401608:	f00000e0 	adrp	x0, 420000 <__libc_start_main@GLIBC_2.34>
  40160c:	9100b000 	add	x0, x0, #0x2c
  401610:	b9400000 	ldr	w0, [x0]
  401614:	71000c1f 	cmp	w0, #0x3
  401618:	540009cd 	b.le	401750 <main+0x114c>
  40161c:	f00000e0 	adrp	x0, 420000 <__libc_start_main@GLIBC_2.34>
  401620:	9101e000 	add	x0, x0, #0x78
  401624:	b9400000 	ldr	w0, [x0]
  401628:	71000c1f 	cmp	w0, #0x3
  40162c:	5400092c 	b.gt	401750 <main+0x114c>
  401630:	f00000e0 	adrp	x0, 420000 <__libc_start_main@GLIBC_2.34>
  401634:	91014000 	add	x0, x0, #0x50
  401638:	f9400001 	ldr	x1, [x0]
  40163c:	f00000e0 	adrp	x0, 420000 <__libc_start_main@GLIBC_2.34>
  401640:	91014000 	add	x0, x0, #0x50
  401644:	f9400c00 	ldr	x0, [x0, #24]
  401648:	eb00003f 	cmp	x1, x0
  40164c:	54000821 	b.ne	401750 <main+0x114c>  // b.any
  401650:	f00000e0 	adrp	x0, 420000 <__libc_start_main@GLIBC_2.34>
  401654:	91014000 	add	x0, x0, #0x50
  401658:	f9400001 	ldr	x1, [x0]
  40165c:	f00000e0 	adrp	x0, 420000 <__libc_start_main@GLIBC_2.34>
  401660:	91014000 	add	x0, x0, #0x50
  401664:	f9400800 	ldr	x0, [x0, #16]
  401668:	eb00003f 	cmp	x1, x0
  40166c:	54000721 	b.ne	401750 <main+0x114c>  // b.any
  401670:	f00000e0 	adrp	x0, 420000 <__libc_start_main@GLIBC_2.34>
  401674:	91014000 	add	x0, x0, #0x50
  401678:	f9400400 	ldr	x0, [x0, #8]
  40167c:	f9054fe0 	str	x0, [sp, #2712]
  401680:	f00000e0 	adrp	x0, 420000 <__libc_start_main@GLIBC_2.34>
  401684:	91014000 	add	x0, x0, #0x50
  401688:	f9400000 	ldr	x0, [x0]
  40168c:	f9054be0 	str	x0, [sp, #2704]
  401690:	f9454be1 	ldr	x1, [sp, #2704]
  401694:	f9454fe0 	ldr	x0, [sp, #2712]
  401698:	eb00003f 	cmp	x1, x0
  40169c:	540005ad 	b.le	401750 <main+0x114c>
  4016a0:	f00000e0 	adrp	x0, 420000 <__libc_start_main@GLIBC_2.34>
  4016a4:	9100b000 	add	x0, x0, #0x2c
  4016a8:	b9400000 	ldr	w0, [x0]
  4016ac:	51001001 	sub	w1, w0, #0x4
  4016b0:	f00000e0 	adrp	x0, 420000 <__libc_start_main@GLIBC_2.34>
  4016b4:	9100b000 	add	x0, x0, #0x2c
  4016b8:	b9000001 	str	w1, [x0]
  4016bc:	f9454fe1 	ldr	x1, [sp, #2712]
  4016c0:	f9454be0 	ldr	x0, [sp, #2704]
  4016c4:	8b000020 	add	x0, x1, x0
  4016c8:	f90547e0 	str	x0, [sp, #2696]
  4016cc:	f00000e0 	adrp	x0, 420000 <__libc_start_main@GLIBC_2.34>
  4016d0:	9101e000 	add	x0, x0, #0x78
  4016d4:	b9400001 	ldr	w1, [x0]
  4016d8:	f00000e0 	adrp	x0, 420000 <__libc_start_main@GLIBC_2.34>
  4016dc:	91020000 	add	x0, x0, #0x80
  4016e0:	93407c21 	sxtw	x1, w1
  4016e4:	f9454fe2 	ldr	x2, [sp, #2712]
  4016e8:	f8217802 	str	x2, [x0, x1, lsl #3]
  4016ec:	f00000e0 	adrp	x0, 420000 <__libc_start_main@GLIBC_2.34>
  4016f0:	9101e000 	add	x0, x0, #0x78
  4016f4:	b9400000 	ldr	w0, [x0]
  4016f8:	11000401 	add	w1, w0, #0x1
  4016fc:	f00000e0 	adrp	x0, 420000 <__libc_start_main@GLIBC_2.34>
  401700:	91020000 	add	x0, x0, #0x80
  401704:	93407c21 	sxtw	x1, w1
  401708:	f9454be2 	ldr	x2, [sp, #2704]
  40170c:	f8217802 	str	x2, [x0, x1, lsl #3]
  401710:	f00000e0 	adrp	x0, 420000 <__libc_start_main@GLIBC_2.34>
  401714:	9101e000 	add	x0, x0, #0x78
  401718:	b9400000 	ldr	w0, [x0]
  40171c:	11000801 	add	w1, w0, #0x2
  401720:	f00000e0 	adrp	x0, 420000 <__libc_start_main@GLIBC_2.34>
  401724:	91020000 	add	x0, x0, #0x80
  401728:	93407c21 	sxtw	x1, w1
  40172c:	f94547e2 	ldr	x2, [sp, #2696]
  401730:	f8217802 	str	x2, [x0, x1, lsl #3]
  401734:	f00000e0 	adrp	x0, 420000 <__libc_start_main@GLIBC_2.34>
  401738:	9101e000 	add	x0, x0, #0x78
  40173c:	b9400000 	ldr	w0, [x0]
  401740:	11000c01 	add	w1, w0, #0x3
  401744:	f00000e0 	adrp	x0, 420000 <__libc_start_main@GLIBC_2.34>
  401748:	9101e000 	add	x0, x0, #0x78
  40174c:	b9000001 	str	w1, [x0]
  401750:	f00000e0 	adrp	x0, 420000 <__libc_start_main@GLIBC_2.34>
  401754:	9100b000 	add	x0, x0, #0x2c
  401758:	b9400000 	ldr	w0, [x0]
  40175c:	71000c1f 	cmp	w0, #0x3
  401760:	540009cd 	b.le	401898 <main+0x1294>
  401764:	f00000e0 	adrp	x0, 420000 <__libc_start_main@GLIBC_2.34>
  401768:	9101e000 	add	x0, x0, #0x78
  40176c:	b9400000 	ldr	w0, [x0]
  401770:	71000c1f 	cmp	w0, #0x3
  401774:	5400092c 	b.gt	401898 <main+0x1294>
  401778:	f00000e0 	adrp	x0, 420000 <__libc_start_main@GLIBC_2.34>
  40177c:	91014000 	add	x0, x0, #0x50
  401780:	f9400801 	ldr	x1, [x0, #16]
  401784:	f00000e0 	adrp	x0, 420000 <__libc_start_main@GLIBC_2.34>
  401788:	91014000 	add	x0, x0, #0x50
  40178c:	f9400000 	ldr	x0, [x0]
  401790:	eb00003f 	cmp	x1, x0
  401794:	54000821 	b.ne	401898 <main+0x1294>  // b.any
  401798:	f00000e0 	adrp	x0, 420000 <__libc_start_main@GLIBC_2.34>
  40179c:	91014000 	add	x0, x0, #0x50
  4017a0:	f9400801 	ldr	x1, [x0, #16]
  4017a4:	f00000e0 	adrp	x0, 420000 <__libc_start_main@GLIBC_2.34>
  4017a8:	91014000 	add	x0, x0, #0x50
  4017ac:	f9400c00 	ldr	x0, [x0, #24]
  4017b0:	eb00003f 	cmp	x1, x0
  4017b4:	54000721 	b.ne	401898 <main+0x1294>  // b.any
  4017b8:	f00000e0 	adrp	x0, 420000 <__libc_start_main@GLIBC_2.34>
  4017bc:	91014000 	add	x0, x0, #0x50
  4017c0:	f9400400 	ldr	x0, [x0, #8]
  4017c4:	f90543e0 	str	x0, [sp, #2688]
  4017c8:	f00000e0 	adrp	x0, 420000 <__libc_start_main@GLIBC_2.34>
  4017cc:	91014000 	add	x0, x0, #0x50
  4017d0:	f9400800 	ldr	x0, [x0, #16]
  4017d4:	f9053fe0 	str	x0, [sp, #2680]
  4017d8:	f9453fe1 	ldr	x1, [sp, #2680]
  4017dc:	f94543e0 	ldr	x0, [sp, #2688]
  4017e0:	eb00003f 	cmp	x1, x0
  4017e4:	540005ad 	b.le	401898 <main+0x1294>
  4017e8:	f00000e0 	adrp	x0, 420000 <__libc_start_main@GLIBC_2.34>
  4017ec:	9100b000 	add	x0, x0, #0x2c
  4017f0:	b9400000 	ldr	w0, [x0]
  4017f4:	51001001 	sub	w1, w0, #0x4
  4017f8:	f00000e0 	adrp	x0, 420000 <__libc_start_main@GLIBC_2.34>
  4017fc:	9100b000 	add	x0, x0, #0x2c
  401800:	b9000001 	str	w1, [x0]
  401804:	f94543e1 	ldr	x1, [sp, #2688]
  401808:	f9453fe0 	ldr	x0, [sp, #2680]
  40180c:	8b000020 	add	x0, x1, x0
  401810:	f9053be0 	str	x0, [sp, #2672]
  401814:	f00000e0 	adrp	x0, 420000 <__libc_start_main@GLIBC_2.34>
  401818:	9101e000 	add	x0, x0, #0x78
  40181c:	b9400001 	ldr	w1, [x0]
  401820:	f00000e0 	adrp	x0, 420000 <__libc_start_main@GLIBC_2.34>
  401824:	91020000 	add	x0, x0, #0x80
  401828:	93407c21 	sxtw	x1, w1
  40182c:	f94543e2 	ldr	x2, [sp, #2688]
  401830:	f8217802 	str	x2, [x0, x1, lsl #3]
  401834:	f00000e0 	adrp	x0, 420000 <__libc_start_main@GLIBC_2.34>
  401838:	9101e000 	add	x0, x0, #0x78
  40183c:	b9400000 	ldr	w0, [x0]
  401840:	11000401 	add	w1, w0, #0x1
  401844:	f00000e0 	adrp	x0, 420000 <__libc_start_main@GLIBC_2.34>
  401848:	91020000 	add	x0, x0, #0x80
  40184c:	93407c21 	sxtw	x1, w1
  401850:	f9453fe2 	ldr	x2, [sp, #2680]
  401854:	f8217802 	str	x2, [x0, x1, lsl #3]
  401858:	f00000e0 	adrp	x0, 420000 <__libc_start_main@GLIBC_2.34>
  40185c:	9101e000 	add	x0, x0, #0x78
  401860:	b9400000 	ldr	w0, [x0]
  401864:	11000801 	add	w1, w0, #0x2
  401868:	f00000e0 	adrp	x0, 420000 <__libc_start_main@GLIBC_2.34>
  40186c:	91020000 	add	x0, x0, #0x80
  401870:	93407c21 	sxtw	x1, w1
  401874:	f9453be2 	ldr	x2, [sp, #2672]
  401878:	f8217802 	str	x2, [x0, x1, lsl #3]
  40187c:	f00000e0 	adrp	x0, 420000 <__libc_start_main@GLIBC_2.34>
  401880:	9101e000 	add	x0, x0, #0x78
  401884:	b9400000 	ldr	w0, [x0]
  401888:	11000c01 	add	w1, w0, #0x3
  40188c:	f00000e0 	adrp	x0, 420000 <__libc_start_main@GLIBC_2.34>
  401890:	9101e000 	add	x0, x0, #0x78
  401894:	b9000001 	str	w1, [x0]
  401898:	f00000e0 	adrp	x0, 420000 <__libc_start_main@GLIBC_2.34>
  40189c:	9100b000 	add	x0, x0, #0x2c
  4018a0:	b9400000 	ldr	w0, [x0]
  4018a4:	71000c1f 	cmp	w0, #0x3
  4018a8:	540009cd 	b.le	4019e0 <main+0x13dc>
  4018ac:	f00000e0 	adrp	x0, 420000 <__libc_start_main@GLIBC_2.34>
  4018b0:	9101e000 	add	x0, x0, #0x78
  4018b4:	b9400000 	ldr	w0, [x0]
  4018b8:	71000c1f 	cmp	w0, #0x3
  4018bc:	5400092c 	b.gt	4019e0 <main+0x13dc>
  4018c0:	f00000e0 	adrp	x0, 420000 <__libc_start_main@GLIBC_2.34>
  4018c4:	91014000 	add	x0, x0, #0x50
  4018c8:	f9400801 	ldr	x1, [x0, #16]
  4018cc:	f00000e0 	adrp	x0, 420000 <__libc_start_main@GLIBC_2.34>
  4018d0:	91014000 	add	x0, x0, #0x50
  4018d4:	f9400c00 	ldr	x0, [x0, #24]
  4018d8:	eb00003f 	cmp	x1, x0
  4018dc:	54000821 	b.ne	4019e0 <main+0x13dc>  // b.any
  4018e0:	f00000e0 	adrp	x0, 420000 <__libc_start_main@GLIBC_2.34>
  4018e4:	91014000 	add	x0, x0, #0x50
  4018e8:	f9400801 	ldr	x1, [x0, #16]
  4018ec:	f00000e0 	adrp	x0, 420000 <__libc_start_main@GLIBC_2.34>
  4018f0:	91014000 	add	x0, x0, #0x50
  4018f4:	f9400000 	ldr	x0, [x0]
  4018f8:	eb00003f 	cmp	x1, x0
  4018fc:	54000721 	b.ne	4019e0 <main+0x13dc>  // b.any
  401900:	f00000e0 	adrp	x0, 420000 <__libc_start_main@GLIBC_2.34>
  401904:	91014000 	add	x0, x0, #0x50
  401908:	f9400400 	ldr	x0, [x0, #8]
  40190c:	f90537e0 	str	x0, [sp, #2664]
  401910:	f00000e0 	adrp	x0, 420000 <__libc_start_main@GLIBC_2.34>
  401914:	91014000 	add	x0, x0, #0x50
  401918:	f9400800 	ldr	x0, [x0, #16]
  40191c:	f90533e0 	str	x0, [sp, #2656]
  401920:	f94533e1 	ldr	x1, [sp, #2656]
  401924:	f94537e0 	ldr	x0, [sp, #2664]
  401928:	eb00003f 	cmp	x1, x0
  40192c:	540005ad 	b.le	4019e0 <main+0x13dc>
  401930:	f00000e0 	adrp	x0, 420000 <__libc_start_main@GLIBC_2.34>
  401934:	9100b000 	add	x0, x0, #0x2c
  401938:	b9400000 	ldr	w0, [x0]
  40193c:	51001001 	sub	w1, w0, #0x4
  401940:	f00000e0 	adrp	x0, 420000 <__libc_start_main@GLIBC_2.34>
  401944:	9100b000 	add	x0, x0, #0x2c
  401948:	b9000001 	str	w1, [x0]
  40194c:	f94537e1 	ldr	x1, [sp, #2664]
  401950:	f94533e0 	ldr	x0, [sp, #2656]
  401954:	8b000020 	add	x0, x1, x0
  401958:	f9052fe0 	str	x0, [sp, #2648]
  40195c:	f00000e0 	adrp	x0, 420000 <__libc_start_main@GLIBC_2.34>
  401960:	9101e000 	add	x0, x0, #0x78
  401964:	b9400001 	ldr	w1, [x0]
  401968:	f00000e0 	adrp	x0, 420000 <__libc_start_main@GLIBC_2.34>
  40196c:	91020000 	add	x0, x0, #0x80
  401970:	93407c21 	sxtw	x1, w1
  401974:	f94537e2 	ldr	x2, [sp, #2664]
  401978:	f8217802 	str	x2, [x0, x1, lsl #3]
  40197c:	f00000e0 	adrp	x0, 420000 <__libc_start_main@GLIBC_2.34>
  401980:	9101e000 	add	x0, x0, #0x78
  401984:	b9400000 	ldr	w0, [x0]
  401988:	11000401 	add	w1, w0, #0x1
  40198c:	f00000e0 	adrp	x0, 420000 <__libc_start_main@GLIBC_2.34>
  401990:	91020000 	add	x0, x0, #0x80
  401994:	93407c21 	sxtw	x1, w1
  401998:	f94533e2 	ldr	x2, [sp, #2656]
  40199c:	f8217802 	str	x2, [x0, x1, lsl #3]
  4019a0:	f00000e0 	adrp	x0, 420000 <__libc_start_main@GLIBC_2.34>
  4019a4:	9101e000 	add	x0, x0, #0x78
  4019a8:	b9400000 	ldr	w0, [x0]
  4019ac:	11000801 	add	w1, w0, #0x2
  4019b0:	f00000e0 	adrp	x0, 420000 <__libc_start_main@GLIBC_2.34>
  4019b4:	91020000 	add	x0, x0, #0x80
  4019b8:	93407c21 	sxtw	x1, w1
  4019bc:	f9452fe2 	ldr	x2, [sp, #2648]
  4019c0:	f8217802 	str	x2, [x0, x1, lsl #3]
  4019c4:	f00000e0 	adrp	x0, 420000 <__libc_start_main@GLIBC_2.34>
  4019c8:	9101e000 	add	x0, x0, #0x78
  4019cc:	b9400000 	ldr	w0, [x0]
  4019d0:	11000c01 	add	w1, w0, #0x3
  4019d4:	f00000e0 	adrp	x0, 420000 <__libc_start_main@GLIBC_2.34>
  4019d8:	9101e000 	add	x0, x0, #0x78
  4019dc:	b9000001 	str	w1, [x0]
  4019e0:	f00000e0 	adrp	x0, 420000 <__libc_start_main@GLIBC_2.34>
  4019e4:	9100b000 	add	x0, x0, #0x2c
  4019e8:	b9400000 	ldr	w0, [x0]
  4019ec:	71000c1f 	cmp	w0, #0x3
  4019f0:	540009cd 	b.le	401b28 <main+0x1524>
  4019f4:	f00000e0 	adrp	x0, 420000 <__libc_start_main@GLIBC_2.34>
  4019f8:	9101e000 	add	x0, x0, #0x78
  4019fc:	b9400000 	ldr	w0, [x0]
  401a00:	71000c1f 	cmp	w0, #0x3
  401a04:	5400092c 	b.gt	401b28 <main+0x1524>
  401a08:	f00000e0 	adrp	x0, 420000 <__libc_start_main@GLIBC_2.34>
  401a0c:	91014000 	add	x0, x0, #0x50
  401a10:	f9400c01 	ldr	x1, [x0, #24]
  401a14:	f00000e0 	adrp	x0, 420000 <__libc_start_main@GLIBC_2.34>
  401a18:	91014000 	add	x0, x0, #0x50
  401a1c:	f9400000 	ldr	x0, [x0]
  401a20:	eb00003f 	cmp	x1, x0
  401a24:	54000821 	b.ne	401b28 <main+0x1524>  // b.any
  401a28:	f00000e0 	adrp	x0, 420000 <__libc_start_main@GLIBC_2.34>
  401a2c:	91014000 	add	x0, x0, #0x50
  401a30:	f9400c01 	ldr	x1, [x0, #24]
  401a34:	f00000e0 	adrp	x0, 420000 <__libc_start_main@GLIBC_2.34>
  401a38:	91014000 	add	x0, x0, #0x50
  401a3c:	f9400800 	ldr	x0, [x0, #16]
  401a40:	eb00003f 	cmp	x1, x0
  401a44:	54000721 	b.ne	401b28 <main+0x1524>  // b.any
  401a48:	f00000e0 	adrp	x0, 420000 <__libc_start_main@GLIBC_2.34>
  401a4c:	91014000 	add	x0, x0, #0x50
  401a50:	f9400400 	ldr	x0, [x0, #8]
  401a54:	f9052be0 	str	x0, [sp, #2640]
  401a58:	f00000e0 	adrp	x0, 420000 <__libc_start_main@GLIBC_2.34>
  401a5c:	91014000 	add	x0, x0, #0x50
  401a60:	f9400c00 	ldr	x0, [x0, #24]
  401a64:	f90527e0 	str	x0, [sp, #2632]
  401a68:	f94527e1 	ldr	x1, [sp, #2632]
  401a6c:	f9452be0 	ldr	x0, [sp, #2640]
  401a70:	eb00003f 	cmp	x1, x0
  401a74:	540005ad 	b.le	401b28 <main+0x1524>
  401a78:	f00000e0 	adrp	x0, 420000 <__libc_start_main@GLIBC_2.34>
  401a7c:	9100b000 	add	x0, x0, #0x2c
  401a80:	b9400000 	ldr	w0, [x0]
  401a84:	51001001 	sub	w1, w0, #0x4
  401a88:	f00000e0 	adrp	x0, 420000 <__libc_start_main@GLIBC_2.34>
  401a8c:	9100b000 	add	x0, x0, #0x2c
  401a90:	b9000001 	str	w1, [x0]
  401a94:	f9452be1 	ldr	x1, [sp, #2640]
  401a98:	f94527e0 	ldr	x0, [sp, #2632]
  401a9c:	8b000020 	add	x0, x1, x0
  401aa0:	f90523e0 	str	x0, [sp, #2624]
  401aa4:	f00000e0 	adrp	x0, 420000 <__libc_start_main@GLIBC_2.34>
  401aa8:	9101e000 	add	x0, x0, #0x78
  401aac:	b9400001 	ldr	w1, [x0]
  401ab0:	f00000e0 	adrp	x0, 420000 <__libc_start_main@GLIBC_2.34>
  401ab4:	91020000 	add	x0, x0, #0x80
  401ab8:	93407c21 	sxtw	x1, w1
  401abc:	f9452be2 	ldr	x2, [sp, #2640]
  401ac0:	f8217802 	str	x2, [x0, x1, lsl #3]
  401ac4:	f00000e0 	adrp	x0, 420000 <__libc_start_main@GLIBC_2.34>
  401ac8:	9101e000 	add	x0, x0, #0x78
  401acc:	b9400000 	ldr	w0, [x0]
  401ad0:	11000401 	add	w1, w0, #0x1
  401ad4:	f00000e0 	adrp	x0, 420000 <__libc_start_main@GLIBC_2.34>
  401ad8:	91020000 	add	x0, x0, #0x80
  401adc:	93407c21 	sxtw	x1, w1
  401ae0:	f94527e2 	ldr	x2, [sp, #2632]
  401ae4:	f8217802 	str	x2, [x0, x1, lsl #3]
  401ae8:	f00000e0 	adrp	x0, 420000 <__libc_start_main@GLIBC_2.34>
  401aec:	9101e000 	add	x0, x0, #0x78
  401af0:	b9400000 	ldr	w0, [x0]
  401af4:	11000801 	add	w1, w0, #0x2
  401af8:	f00000e0 	adrp	x0, 420000 <__libc_start_main@GLIBC_2.34>
  401afc:	91020000 	add	x0, x0, #0x80
  401b00:	93407c21 	sxtw	x1, w1
  401b04:	f94523e2 	ldr	x2, [sp, #2624]
  401b08:	f8217802 	str	x2, [x0, x1, lsl #3]
  401b0c:	f00000e0 	adrp	x0, 420000 <__libc_start_main@GLIBC_2.34>
  401b10:	9101e000 	add	x0, x0, #0x78
  401b14:	b9400000 	ldr	w0, [x0]
  401b18:	11000c01 	add	w1, w0, #0x3
  401b1c:	f00000e0 	adrp	x0, 420000 <__libc_start_main@GLIBC_2.34>
  401b20:	9101e000 	add	x0, x0, #0x78
  401b24:	b9000001 	str	w1, [x0]
  401b28:	f00000e0 	adrp	x0, 420000 <__libc_start_main@GLIBC_2.34>
  401b2c:	9100b000 	add	x0, x0, #0x2c
  401b30:	b9400000 	ldr	w0, [x0]
  401b34:	71000c1f 	cmp	w0, #0x3
  401b38:	540009cd 	b.le	401c70 <main+0x166c>
  401b3c:	f00000e0 	adrp	x0, 420000 <__libc_start_main@GLIBC_2.34>
  401b40:	9101e000 	add	x0, x0, #0x78
  401b44:	b9400000 	ldr	w0, [x0]
  401b48:	71000c1f 	cmp	w0, #0x3
  401b4c:	5400092c 	b.gt	401c70 <main+0x166c>
  401b50:	f00000e0 	adrp	x0, 420000 <__libc_start_main@GLIBC_2.34>
  401b54:	91014000 	add	x0, x0, #0x50
  401b58:	f9400c01 	ldr	x1, [x0, #24]
  401b5c:	f00000e0 	adrp	x0, 420000 <__libc_start_main@GLIBC_2.34>
  401b60:	91014000 	add	x0, x0, #0x50
  401b64:	f9400800 	ldr	x0, [x0, #16]
  401b68:	eb00003f 	cmp	x1, x0
  401b6c:	54000821 	b.ne	401c70 <main+0x166c>  // b.any
  401b70:	f00000e0 	adrp	x0, 420000 <__libc_start_main@GLIBC_2.34>
  401b74:	91014000 	add	x0, x0, #0x50
  401b78:	f9400c01 	ldr	x1, [x0, #24]
  401b7c:	f00000e0 	adrp	x0, 420000 <__libc_start_main@GLIBC_2.34>
  401b80:	91014000 	add	x0, x0, #0x50
  401b84:	f9400000 	ldr	x0, [x0]
  401b88:	eb00003f 	cmp	x1, x0
  401b8c:	54000721 	b.ne	401c70 <main+0x166c>  // b.any
  401b90:	f00000e0 	adrp	x0, 420000 <__libc_start_main@GLIBC_2.34>
  401b94:	91014000 	add	x0, x0, #0x50
  401b98:	f9400400 	ldr	x0, [x0, #8]
  401b9c:	f9051fe0 	str	x0, [sp, #2616]
  401ba0:	f00000e0 	adrp	x0, 420000 <__libc_start_main@GLIBC_2.34>
  401ba4:	91014000 	add	x0, x0, #0x50
  401ba8:	f9400c00 	ldr	x0, [x0, #24]
  401bac:	f9051be0 	str	x0, [sp, #2608]
  401bb0:	f9451be1 	ldr	x1, [sp, #2608]
  401bb4:	f9451fe0 	ldr	x0, [sp, #2616]
  401bb8:	eb00003f 	cmp	x1, x0
  401bbc:	540005ad 	b.le	401c70 <main+0x166c>
  401bc0:	f00000e0 	adrp	x0, 420000 <__libc_start_main@GLIBC_2.34>
  401bc4:	9100b000 	add	x0, x0, #0x2c
  401bc8:	b9400000 	ldr	w0, [x0]
  401bcc:	51001001 	sub	w1, w0, #0x4
  401bd0:	f00000e0 	adrp	x0, 420000 <__libc_start_main@GLIBC_2.34>
  401bd4:	9100b000 	add	x0, x0, #0x2c
  401bd8:	b9000001 	str	w1, [x0]
  401bdc:	f9451fe1 	ldr	x1, [sp, #2616]
  401be0:	f9451be0 	ldr	x0, [sp, #2608]
  401be4:	8b000020 	add	x0, x1, x0
  401be8:	f90517e0 	str	x0, [sp, #2600]
  401bec:	f00000e0 	adrp	x0, 420000 <__libc_start_main@GLIBC_2.34>
  401bf0:	9101e000 	add	x0, x0, #0x78
  401bf4:	b9400001 	ldr	w1, [x0]
  401bf8:	f00000e0 	adrp	x0, 420000 <__libc_start_main@GLIBC_2.34>
  401bfc:	91020000 	add	x0, x0, #0x80
  401c00:	93407c21 	sxtw	x1, w1
  401c04:	f9451fe2 	ldr	x2, [sp, #2616]
  401c08:	f8217802 	str	x2, [x0, x1, lsl #3]
  401c0c:	f00000e0 	adrp	x0, 420000 <__libc_start_main@GLIBC_2.34>
  401c10:	9101e000 	add	x0, x0, #0x78
  401c14:	b9400000 	ldr	w0, [x0]
  401c18:	11000401 	add	w1, w0, #0x1
  401c1c:	f00000e0 	adrp	x0, 420000 <__libc_start_main@GLIBC_2.34>
  401c20:	91020000 	add	x0, x0, #0x80
  401c24:	93407c21 	sxtw	x1, w1
  401c28:	f9451be2 	ldr	x2, [sp, #2608]
  401c2c:	f8217802 	str	x2, [x0, x1, lsl #3]
  401c30:	f00000e0 	adrp	x0, 420000 <__libc_start_main@GLIBC_2.34>
  401c34:	9101e000 	add	x0, x0, #0x78
  401c38:	b9400000 	ldr	w0, [x0]
  401c3c:	11000801 	add	w1, w0, #0x2
  401c40:	f00000e0 	adrp	x0, 420000 <__libc_start_main@GLIBC_2.34>
  401c44:	91020000 	add	x0, x0, #0x80
  401c48:	93407c21 	sxtw	x1, w1
  401c4c:	f94517e2 	ldr	x2, [sp, #2600]
  401c50:	f8217802 	str	x2, [x0, x1, lsl #3]
  401c54:	f00000e0 	adrp	x0, 420000 <__libc_start_main@GLIBC_2.34>
  401c58:	9101e000 	add	x0, x0, #0x78
  401c5c:	b9400000 	ldr	w0, [x0]
  401c60:	11000c01 	add	w1, w0, #0x3
  401c64:	f00000e0 	adrp	x0, 420000 <__libc_start_main@GLIBC_2.34>
  401c68:	9101e000 	add	x0, x0, #0x78
  401c6c:	b9000001 	str	w1, [x0]
  401c70:	f00000e0 	adrp	x0, 420000 <__libc_start_main@GLIBC_2.34>
  401c74:	9100b000 	add	x0, x0, #0x2c
  401c78:	b9400000 	ldr	w0, [x0]
  401c7c:	71000c1f 	cmp	w0, #0x3
  401c80:	540009cd 	b.le	401db8 <main+0x17b4>
  401c84:	f00000e0 	adrp	x0, 420000 <__libc_start_main@GLIBC_2.34>
  401c88:	9101e000 	add	x0, x0, #0x78
  401c8c:	b9400000 	ldr	w0, [x0]
  401c90:	71000c1f 	cmp	w0, #0x3
  401c94:	5400092c 	b.gt	401db8 <main+0x17b4>
  401c98:	f00000e0 	adrp	x0, 420000 <__libc_start_main@GLIBC_2.34>
  401c9c:	91014000 	add	x0, x0, #0x50
  401ca0:	f9400001 	ldr	x1, [x0]
  401ca4:	f00000e0 	adrp	x0, 420000 <__libc_start_main@GLIBC_2.34>
  401ca8:	91014000 	add	x0, x0, #0x50
  401cac:	f9400400 	ldr	x0, [x0, #8]
  401cb0:	eb00003f 	cmp	x1, x0
  401cb4:	54000821 	b.ne	401db8 <main+0x17b4>  // b.any
  401cb8:	f00000e0 	adrp	x0, 420000 <__libc_start_main@GLIBC_2.34>
  401cbc:	91014000 	add	x0, x0, #0x50
  401cc0:	f9400001 	ldr	x1, [x0]
  401cc4:	f00000e0 	adrp	x0, 420000 <__libc_start_main@GLIBC_2.34>
  401cc8:	91014000 	add	x0, x0, #0x50
  401ccc:	f9400c00 	ldr	x0, [x0, #24]
  401cd0:	eb00003f 	cmp	x1, x0
  401cd4:	54000721 	b.ne	401db8 <main+0x17b4>  // b.any
  401cd8:	f00000e0 	adrp	x0, 420000 <__libc_start_main@GLIBC_2.34>
  401cdc:	91014000 	add	x0, x0, #0x50
  401ce0:	f9400800 	ldr	x0, [x0, #16]
  401ce4:	f90513e0 	str	x0, [sp, #2592]
  401ce8:	f00000e0 	adrp	x0, 420000 <__libc_start_main@GLIBC_2.34>
  401cec:	91014000 	add	x0, x0, #0x50
  401cf0:	f9400000 	ldr	x0, [x0]
  401cf4:	f9050fe0 	str	x0, [sp, #2584]
  401cf8:	f9450fe1 	ldr	x1, [sp, #2584]
  401cfc:	f94513e0 	ldr	x0, [sp, #2592]
  401d00:	eb00003f 	cmp	x1, x0
  401d04:	540005ad 	b.le	401db8 <main+0x17b4>
  401d08:	f00000e0 	adrp	x0, 420000 <__libc_start_main@GLIBC_2.34>
  401d0c:	9100b000 	add	x0, x0, #0x2c
  401d10:	b9400000 	ldr	w0, [x0]
  401d14:	51001001 	sub	w1, w0, #0x4
  401d18:	f00000e0 	adrp	x0, 420000 <__libc_start_main@GLIBC_2.34>
  401d1c:	9100b000 	add	x0, x0, #0x2c
  401d20:	b9000001 	str	w1, [x0]
  401d24:	f94513e1 	ldr	x1, [sp, #2592]
  401d28:	f9450fe0 	ldr	x0, [sp, #2584]
  401d2c:	8b000020 	add	x0, x1, x0
  401d30:	f9050be0 	str	x0, [sp, #2576]
  401d34:	f00000e0 	adrp	x0, 420000 <__libc_start_main@GLIBC_2.34>
  401d38:	9101e000 	add	x0, x0, #0x78
  401d3c:	b9400001 	ldr	w1, [x0]
  401d40:	f00000e0 	adrp	x0, 420000 <__libc_start_main@GLIBC_2.34>
  401d44:	91020000 	add	x0, x0, #0x80
  401d48:	93407c21 	sxtw	x1, w1
  401d4c:	f94513e2 	ldr	x2, [sp, #2592]
  401d50:	f8217802 	str	x2, [x0, x1, lsl #3]
  401d54:	f00000e0 	adrp	x0, 420000 <__libc_start_main@GLIBC_2.34>
  401d58:	9101e000 	add	x0, x0, #0x78
  401d5c:	b9400000 	ldr	w0, [x0]
  401d60:	11000401 	add	w1, w0, #0x1
  401d64:	f00000e0 	adrp	x0, 420000 <__libc_start_main@GLIBC_2.34>
  401d68:	91020000 	add	x0, x0, #0x80
  401d6c:	93407c21 	sxtw	x1, w1
  401d70:	f9450fe2 	ldr	x2, [sp, #2584]
  401d74:	f8217802 	str	x2, [x0, x1, lsl #3]
  401d78:	f00000e0 	adrp	x0, 420000 <__libc_start_main@GLIBC_2.34>
  401d7c:	9101e000 	add	x0, x0, #0x78
  401d80:	b9400000 	ldr	w0, [x0]
  401d84:	11000801 	add	w1, w0, #0x2
  401d88:	f00000e0 	adrp	x0, 420000 <__libc_start_main@GLIBC_2.34>
  401d8c:	91020000 	add	x0, x0, #0x80
  401d90:	93407c21 	sxtw	x1, w1
  401d94:	f9450be2 	ldr	x2, [sp, #2576]
  401d98:	f8217802 	str	x2, [x0, x1, lsl #3]
  401d9c:	f00000e0 	adrp	x0, 420000 <__libc_start_main@GLIBC_2.34>
  401da0:	9101e000 	add	x0, x0, #0x78
  401da4:	b9400000 	ldr	w0, [x0]
  401da8:	11000c01 	add	w1, w0, #0x3
  401dac:	f00000e0 	adrp	x0, 420000 <__libc_start_main@GLIBC_2.34>
  401db0:	9101e000 	add	x0, x0, #0x78
  401db4:	b9000001 	str	w1, [x0]
  401db8:	f00000e0 	adrp	x0, 420000 <__libc_start_main@GLIBC_2.34>
  401dbc:	9100b000 	add	x0, x0, #0x2c
  401dc0:	b9400000 	ldr	w0, [x0]
  401dc4:	71000c1f 	cmp	w0, #0x3
  401dc8:	540009cd 	b.le	401f00 <main+0x18fc>
  401dcc:	f00000e0 	adrp	x0, 420000 <__libc_start_main@GLIBC_2.34>
  401dd0:	9101e000 	add	x0, x0, #0x78
  401dd4:	b9400000 	ldr	w0, [x0]
  401dd8:	71000c1f 	cmp	w0, #0x3
  401ddc:	5400092c 	b.gt	401f00 <main+0x18fc>
  401de0:	f00000e0 	adrp	x0, 420000 <__libc_start_main@GLIBC_2.34>
  401de4:	91014000 	add	x0, x0, #0x50
  401de8:	f9400001 	ldr	x1, [x0]
  401dec:	f00000e0 	adrp	x0, 420000 <__libc_start_main@GLIBC_2.34>
  401df0:	91014000 	add	x0, x0, #0x50
  401df4:	f9400c00 	ldr	x0, [x0, #24]
  401df8:	eb00003f 	cmp	x1, x0
  401dfc:	54000821 	b.ne	401f00 <main+0x18fc>  // b.any
  401e00:	f00000e0 	adrp	x0, 420000 <__libc_start_main@GLIBC_2.34>
  401e04:	91014000 	add	x0, x0, #0x50
  401e08:	f9400001 	ldr	x1, [x0]
  401e0c:	f00000e0 	adrp	x0, 420000 <__libc_start_main@GLIBC_2.34>
  401e10:	91014000 	add	x0, x0, #0x50
  401e14:	f9400400 	ldr	x0, [x0, #8]
  401e18:	eb00003f 	cmp	x1, x0
  401e1c:	54000721 	b.ne	401f00 <main+0x18fc>  // b.any
  401e20:	f00000e0 	adrp	x0, 420000 <__libc_start_main@GLIBC_2.34>
  401e24:	91014000 	add	x0, x0, #0x50
  401e28:	f9400800 	ldr	x0, [x0, #16]
  401e2c:	f90507e0 	str	x0, [sp, #2568]
  401e30:	f00000e0 	adrp	x0, 420000 <__libc_start_main@GLIBC_2.34>
  401e34:	91014000 	add	x0, x0, #0x50
  401e38:	f9400000 	ldr	x0, [x0]
  401e3c:	f90503e0 	str	x0, [sp, #2560]
  401e40:	f94503e1 	ldr	x1, [sp, #2560]
  401e44:	f94507e0 	ldr	x0, [sp, #2568]
  401e48:	eb00003f 	cmp	x1, x0
  401e4c:	540005ad 	b.le	401f00 <main+0x18fc>
  401e50:	f00000e0 	adrp	x0, 420000 <__libc_start_main@GLIBC_2.34>
  401e54:	9100b000 	add	x0, x0, #0x2c
  401e58:	b9400000 	ldr	w0, [x0]
  401e5c:	51001001 	sub	w1, w0, #0x4
  401e60:	f00000e0 	adrp	x0, 420000 <__libc_start_main@GLIBC_2.34>
  401e64:	9100b000 	add	x0, x0, #0x2c
  401e68:	b9000001 	str	w1, [x0]
  401e6c:	f94507e1 	ldr	x1, [sp, #2568]
  401e70:	f94503e0 	ldr	x0, [sp, #2560]
  401e74:	8b000020 	add	x0, x1, x0
  401e78:	f904ffe0 	str	x0, [sp, #2552]
  401e7c:	f00000e0 	adrp	x0, 420000 <__libc_start_main@GLIBC_2.34>
  401e80:	9101e000 	add	x0, x0, #0x78
  401e84:	b9400001 	ldr	w1, [x0]
  401e88:	f00000e0 	adrp	x0, 420000 <__libc_start_main@GLIBC_2.34>
  401e8c:	91020000 	add	x0, x0, #0x80
  401e90:	93407c21 	sxtw	x1, w1
  401e94:	f94507e2 	ldr	x2, [sp, #2568]
  401e98:	f8217802 	str	x2, [x0, x1, lsl #3]
  401e9c:	f00000e0 	adrp	x0, 420000 <__libc_start_main@GLIBC_2.34>
  401ea0:	9101e000 	add	x0, x0, #0x78
  401ea4:	b9400000 	ldr	w0, [x0]
  401ea8:	11000401 	add	w1, w0, #0x1
  401eac:	f00000e0 	adrp	x0, 420000 <__libc_start_main@GLIBC_2.34>
  401eb0:	91020000 	add	x0, x0, #0x80
  401eb4:	93407c21 	sxtw	x1, w1
  401eb8:	f94503e2 	ldr	x2, [sp, #2560]
  401ebc:	f8217802 	str	x2, [x0, x1, lsl #3]
  401ec0:	f00000e0 	adrp	x0, 420000 <__libc_start_main@GLIBC_2.34>
  401ec4:	9101e000 	add	x0, x0, #0x78
  401ec8:	b9400000 	ldr	w0, [x0]
  401ecc:	11000801 	add	w1, w0, #0x2
  401ed0:	f00000e0 	adrp	x0, 420000 <__libc_start_main@GLIBC_2.34>
  401ed4:	91020000 	add	x0, x0, #0x80
  401ed8:	93407c21 	sxtw	x1, w1
  401edc:	f944ffe2 	ldr	x2, [sp, #2552]
  401ee0:	f8217802 	str	x2, [x0, x1, lsl #3]
  401ee4:	f00000e0 	adrp	x0, 420000 <__libc_start_main@GLIBC_2.34>
  401ee8:	9101e000 	add	x0, x0, #0x78
  401eec:	b9400000 	ldr	w0, [x0]
  401ef0:	11000c01 	add	w1, w0, #0x3
  401ef4:	f00000e0 	adrp	x0, 420000 <__libc_start_main@GLIBC_2.34>
  401ef8:	9101e000 	add	x0, x0, #0x78
  401efc:	b9000001 	str	w1, [x0]
  401f00:	f00000e0 	adrp	x0, 420000 <__libc_start_main@GLIBC_2.34>
  401f04:	9100b000 	add	x0, x0, #0x2c
  401f08:	b9400000 	ldr	w0, [x0]
  401f0c:	71000c1f 	cmp	w0, #0x3
  401f10:	540009cd 	b.le	402048 <main+0x1a44>
  401f14:	f00000e0 	adrp	x0, 420000 <__libc_start_main@GLIBC_2.34>
  401f18:	9101e000 	add	x0, x0, #0x78
  401f1c:	b9400000 	ldr	w0, [x0]
  401f20:	71000c1f 	cmp	w0, #0x3
  401f24:	5400092c 	b.gt	402048 <main+0x1a44>
  401f28:	f00000e0 	adrp	x0, 420000 <__libc_start_main@GLIBC_2.34>
  401f2c:	91014000 	add	x0, x0, #0x50
  401f30:	f9400401 	ldr	x1, [x0, #8]
  401f34:	f00000e0 	adrp	x0, 420000 <__libc_start_main@GLIBC_2.34>
  401f38:	91014000 	add	x0, x0, #0x50
  401f3c:	f9400000 	ldr	x0, [x0]
  401f40:	eb00003f 	cmp	x1, x0
  401f44:	54000821 	b.ne	402048 <main+0x1a44>  // b.any
  401f48:	f00000e0 	adrp	x0, 420000 <__libc_start_main@GLIBC_2.34>
  401f4c:	91014000 	add	x0, x0, #0x50
  401f50:	f9400401 	ldr	x1, [x0, #8]
  401f54:	f00000e0 	adrp	x0, 420000 <__libc_start_main@GLIBC_2.34>
  401f58:	91014000 	add	x0, x0, #0x50
  401f5c:	f9400c00 	ldr	x0, [x0, #24]
  401f60:	eb00003f 	cmp	x1, x0
  401f64:	54000721 	b.ne	402048 <main+0x1a44>  // b.any
  401f68:	f00000e0 	adrp	x0, 420000 <__libc_start_main@GLIBC_2.34>
  401f6c:	91014000 	add	x0, x0, #0x50
  401f70:	f9400800 	ldr	x0, [x0, #16]
  401f74:	f904fbe0 	str	x0, [sp, #2544]
  401f78:	f00000e0 	adrp	x0, 420000 <__libc_start_main@GLIBC_2.34>
  401f7c:	91014000 	add	x0, x0, #0x50
  401f80:	f9400400 	ldr	x0, [x0, #8]
  401f84:	f904f7e0 	str	x0, [sp, #2536]
  401f88:	f944f7e1 	ldr	x1, [sp, #2536]
  401f8c:	f944fbe0 	ldr	x0, [sp, #2544]
  401f90:	eb00003f 	cmp	x1, x0
  401f94:	540005ad 	b.le	402048 <main+0x1a44>
  401f98:	f00000e0 	adrp	x0, 420000 <__libc_start_main@GLIBC_2.34>
  401f9c:	9100b000 	add	x0, x0, #0x2c
  401fa0:	b9400000 	ldr	w0, [x0]
  401fa4:	51001001 	sub	w1, w0, #0x4
  401fa8:	f00000e0 	adrp	x0, 420000 <__libc_start_main@GLIBC_2.34>
  401fac:	9100b000 	add	x0, x0, #0x2c
  401fb0:	b9000001 	str	w1, [x0]
  401fb4:	f944fbe1 	ldr	x1, [sp, #2544]
  401fb8:	f944f7e0 	ldr	x0, [sp, #2536]
  401fbc:	8b000020 	add	x0, x1, x0
  401fc0:	f904f3e0 	str	x0, [sp, #2528]
  401fc4:	f00000e0 	adrp	x0, 420000 <__libc_start_main@GLIBC_2.34>
  401fc8:	9101e000 	add	x0, x0, #0x78
  401fcc:	b9400001 	ldr	w1, [x0]
  401fd0:	f00000e0 	adrp	x0, 420000 <__libc_start_main@GLIBC_2.34>
  401fd4:	91020000 	add	x0, x0, #0x80
  401fd8:	93407c21 	sxtw	x1, w1
  401fdc:	f944fbe2 	ldr	x2, [sp, #2544]
  401fe0:	f8217802 	str	x2, [x0, x1, lsl #3]
  401fe4:	f00000e0 	adrp	x0, 420000 <__libc_start_main@GLIBC_2.34>
  401fe8:	9101e000 	add	x0, x0, #0x78
  401fec:	b9400000 	ldr	w0, [x0]
  401ff0:	11000401 	add	w1, w0, #0x1
  401ff4:	f00000e0 	adrp	x0, 420000 <__libc_start_main@GLIBC_2.34>
  401ff8:	91020000 	add	x0, x0, #0x80
  401ffc:	93407c21 	sxtw	x1, w1
  402000:	f944f7e2 	ldr	x2, [sp, #2536]
  402004:	f8217802 	str	x2, [x0, x1, lsl #3]
  402008:	d00000e0 	adrp	x0, 420000 <__libc_start_main@GLIBC_2.34>
  40200c:	9101e000 	add	x0, x0, #0x78
  402010:	b9400000 	ldr	w0, [x0]
  402014:	11000801 	add	w1, w0, #0x2
  402018:	d00000e0 	adrp	x0, 420000 <__libc_start_main@GLIBC_2.34>
  40201c:	91020000 	add	x0, x0, #0x80
  402020:	93407c21 	sxtw	x1, w1
  402024:	f944f3e2 	ldr	x2, [sp, #2528]
  402028:	f8217802 	str	x2, [x0, x1, lsl #3]
  40202c:	d00000e0 	adrp	x0, 420000 <__libc_start_main@GLIBC_2.34>
  402030:	9101e000 	add	x0, x0, #0x78
  402034:	b9400000 	ldr	w0, [x0]
  402038:	11000c01 	add	w1, w0, #0x3
  40203c:	d00000e0 	adrp	x0, 420000 <__libc_start_main@GLIBC_2.34>
  402040:	9101e000 	add	x0, x0, #0x78
  402044:	b9000001 	str	w1, [x0]
  402048:	d00000e0 	adrp	x0, 420000 <__libc_start_main@GLIBC_2.34>
  40204c:	9100b000 	add	x0, x0, #0x2c
  402050:	b9400000 	ldr	w0, [x0]
  402054:	71000c1f 	cmp	w0, #0x3
  402058:	540009cd 	b.le	402190 <main+0x1b8c>
  40205c:	d00000e0 	adrp	x0, 420000 <__libc_start_main@GLIBC_2.34>
  402060:	9101e000 	add	x0, x0, #0x78
  402064:	b9400000 	ldr	w0, [x0]
  402068:	71000c1f 	cmp	w0, #0x3
  40206c:	5400092c 	b.gt	402190 <main+0x1b8c>
  402070:	d00000e0 	adrp	x0, 420000 <__libc_start_main@GLIBC_2.34>
  402074:	91014000 	add	x0, x0, #0x50
  402078:	f9400401 	ldr	x1, [x0, #8]
  40207c:	d00000e0 	adrp	x0, 420000 <__libc_start_main@GLIBC_2.34>
  402080:	91014000 	add	x0, x0, #0x50
  402084:	f9400c00 	ldr	x0, [x0, #24]
  402088:	eb00003f 	cmp	x1, x0
  40208c:	54000821 	b.ne	402190 <main+0x1b8c>  // b.any
  402090:	d00000e0 	adrp	x0, 420000 <__libc_start_main@GLIBC_2.34>
  402094:	91014000 	add	x0, x0, #0x50
  402098:	f9400401 	ldr	x1, [x0, #8]
  40209c:	d00000e0 	adrp	x0, 420000 <__libc_start_main@GLIBC_2.34>
  4020a0:	91014000 	add	x0, x0, #0x50
  4020a4:	f9400000 	ldr	x0, [x0]
  4020a8:	eb00003f 	cmp	x1, x0
  4020ac:	54000721 	b.ne	402190 <main+0x1b8c>  // b.any
  4020b0:	d00000e0 	adrp	x0, 420000 <__libc_start_main@GLIBC_2.34>
  4020b4:	91014000 	add	x0, x0, #0x50
  4020b8:	f9400800 	ldr	x0, [x0, #16]
  4020bc:	f904efe0 	str	x0, [sp, #2520]
  4020c0:	d00000e0 	adrp	x0, 420000 <__libc_start_main@GLIBC_2.34>
  4020c4:	91014000 	add	x0, x0, #0x50
  4020c8:	f9400400 	ldr	x0, [x0, #8]
  4020cc:	f904ebe0 	str	x0, [sp, #2512]
  4020d0:	f944ebe1 	ldr	x1, [sp, #2512]
  4020d4:	f944efe0 	ldr	x0, [sp, #2520]
  4020d8:	eb00003f 	cmp	x1, x0
  4020dc:	540005ad 	b.le	402190 <main+0x1b8c>
  4020e0:	d00000e0 	adrp	x0, 420000 <__libc_start_main@GLIBC_2.34>
  4020e4:	9100b000 	add	x0, x0, #0x2c
  4020e8:	b9400000 	ldr	w0, [x0]
  4020ec:	51001001 	sub	w1, w0, #0x4
  4020f0:	d00000e0 	adrp	x0, 420000 <__libc_start_main@GLIBC_2.34>
  4020f4:	9100b000 	add	x0, x0, #0x2c
  4020f8:	b9000001 	str	w1, [x0]
  4020fc:	f944efe1 	ldr	x1, [sp, #2520]
  402100:	f944ebe0 	ldr	x0, [sp, #2512]
  402104:	8b000020 	add	x0, x1, x0
  402108:	f904e7e0 	str	x0, [sp, #2504]
  40210c:	d00000e0 	adrp	x0, 420000 <__libc_start_main@GLIBC_2.34>
  402110:	9101e000 	add	x0, x0, #0x78
  402114:	b9400001 	ldr	w1, [x0]
  402118:	d00000e0 	adrp	x0, 420000 <__libc_start_main@GLIBC_2.34>
  40211c:	91020000 	add	x0, x0, #0x80
  402120:	93407c21 	sxtw	x1, w1
  402124:	f944efe2 	ldr	x2, [sp, #2520]
  402128:	f8217802 	str	x2, [x0, x1, lsl #3]
  40212c:	d00000e0 	adrp	x0, 420000 <__libc_start_main@GLIBC_2.34>
  402130:	9101e000 	add	x0, x0, #0x78
  402134:	b9400000 	ldr	w0, [x0]
  402138:	11000401 	add	w1, w0, #0x1
  40213c:	d00000e0 	adrp	x0, 420000 <__libc_start_main@GLIBC_2.34>
  402140:	91020000 	add	x0, x0, #0x80
  402144:	93407c21 	sxtw	x1, w1
  402148:	f944ebe2 	ldr	x2, [sp, #2512]
  40214c:	f8217802 	str	x2, [x0, x1, lsl #3]
  402150:	d00000e0 	adrp	x0, 420000 <__libc_start_main@GLIBC_2.34>
  402154:	9101e000 	add	x0, x0, #0x78
  402158:	b9400000 	ldr	w0, [x0]
  40215c:	11000801 	add	w1, w0, #0x2
  402160:	d00000e0 	adrp	x0, 420000 <__libc_start_main@GLIBC_2.34>
  402164:	91020000 	add	x0, x0, #0x80
  402168:	93407c21 	sxtw	x1, w1
  40216c:	f944e7e2 	ldr	x2, [sp, #2504]
  402170:	f8217802 	str	x2, [x0, x1, lsl #3]
  402174:	d00000e0 	adrp	x0, 420000 <__libc_start_main@GLIBC_2.34>
  402178:	9101e000 	add	x0, x0, #0x78
  40217c:	b9400000 	ldr	w0, [x0]
  402180:	11000c01 	add	w1, w0, #0x3
  402184:	d00000e0 	adrp	x0, 420000 <__libc_start_main@GLIBC_2.34>
  402188:	9101e000 	add	x0, x0, #0x78
  40218c:	b9000001 	str	w1, [x0]
  402190:	d00000e0 	adrp	x0, 420000 <__libc_start_main@GLIBC_2.34>
  402194:	9100b000 	add	x0, x0, #0x2c
  402198:	b9400000 	ldr	w0, [x0]
  40219c:	71000c1f 	cmp	w0, #0x3
  4021a0:	540009cd 	b.le	4022d8 <main+0x1cd4>
  4021a4:	d00000e0 	adrp	x0, 420000 <__libc_start_main@GLIBC_2.34>
  4021a8:	9101e000 	add	x0, x0, #0x78
  4021ac:	b9400000 	ldr	w0, [x0]
  4021b0:	71000c1f 	cmp	w0, #0x3
  4021b4:	5400092c 	b.gt	4022d8 <main+0x1cd4>
  4021b8:	d00000e0 	adrp	x0, 420000 <__libc_start_main@GLIBC_2.34>
  4021bc:	91014000 	add	x0, x0, #0x50
  4021c0:	f9400c01 	ldr	x1, [x0, #24]
  4021c4:	d00000e0 	adrp	x0, 420000 <__libc_start_main@GLIBC_2.34>
  4021c8:	91014000 	add	x0, x0, #0x50
  4021cc:	f9400000 	ldr	x0, [x0]
  4021d0:	eb00003f 	cmp	x1, x0
  4021d4:	54000821 	b.ne	4022d8 <main+0x1cd4>  // b.any
  4021d8:	d00000e0 	adrp	x0, 420000 <__libc_start_main@GLIBC_2.34>
  4021dc:	91014000 	add	x0, x0, #0x50
  4021e0:	f9400c01 	ldr	x1, [x0, #24]
  4021e4:	d00000e0 	adrp	x0, 420000 <__libc_start_main@GLIBC_2.34>
  4021e8:	91014000 	add	x0, x0, #0x50
  4021ec:	f9400400 	ldr	x0, [x0, #8]
  4021f0:	eb00003f 	cmp	x1, x0
  4021f4:	54000721 	b.ne	4022d8 <main+0x1cd4>  // b.any
  4021f8:	d00000e0 	adrp	x0, 420000 <__libc_start_main@GLIBC_2.34>
  4021fc:	91014000 	add	x0, x0, #0x50
  402200:	f9400800 	ldr	x0, [x0, #16]
  402204:	f904e3e0 	str	x0, [sp, #2496]
  402208:	d00000e0 	adrp	x0, 420000 <__libc_start_main@GLIBC_2.34>
  40220c:	91014000 	add	x0, x0, #0x50
  402210:	f9400c00 	ldr	x0, [x0, #24]
  402214:	f904dfe0 	str	x0, [sp, #2488]
  402218:	f944dfe1 	ldr	x1, [sp, #2488]
  40221c:	f944e3e0 	ldr	x0, [sp, #2496]
  402220:	eb00003f 	cmp	x1, x0
  402224:	540005ad 	b.le	4022d8 <main+0x1cd4>
  402228:	d00000e0 	adrp	x0, 420000 <__libc_start_main@GLIBC_2.34>
  40222c:	9100b000 	add	x0, x0, #0x2c
  402230:	b9400000 	ldr	w0, [x0]
  402234:	51001001 	sub	w1, w0, #0x4
  402238:	d00000e0 	adrp	x0, 420000 <__libc_start_main@GLIBC_2.34>
  40223c:	9100b000 	add	x0, x0, #0x2c
  402240:	b9000001 	str	w1, [x0]
  402244:	f944e3e1 	ldr	x1, [sp, #2496]
  402248:	f944dfe0 	ldr	x0, [sp, #2488]
  40224c:	8b000020 	add	x0, x1, x0
  402250:	f904dbe0 	str	x0, [sp, #2480]
  402254:	d00000e0 	adrp	x0, 420000 <__libc_start_main@GLIBC_2.34>
  402258:	9101e000 	add	x0, x0, #0x78
  40225c:	b9400001 	ldr	w1, [x0]
  402260:	d00000e0 	adrp	x0, 420000 <__libc_start_main@GLIBC_2.34>
  402264:	91020000 	add	x0, x0, #0x80
  402268:	93407c21 	sxtw	x1, w1
  40226c:	f944e3e2 	ldr	x2, [sp, #2496]
  402270:	f8217802 	str	x2, [x0, x1, lsl #3]
  402274:	d00000e0 	adrp	x0, 420000 <__libc_start_main@GLIBC_2.34>
  402278:	9101e000 	add	x0, x0, #0x78
  40227c:	b9400000 	ldr	w0, [x0]
  402280:	11000401 	add	w1, w0, #0x1
  402284:	d00000e0 	adrp	x0, 420000 <__libc_start_main@GLIBC_2.34>
  402288:	91020000 	add	x0, x0, #0x80
  40228c:	93407c21 	sxtw	x1, w1
  402290:	f944dfe2 	ldr	x2, [sp, #2488]
  402294:	f8217802 	str	x2, [x0, x1, lsl #3]
  402298:	d00000e0 	adrp	x0, 420000 <__libc_start_main@GLIBC_2.34>
  40229c:	9101e000 	add	x0, x0, #0x78
  4022a0:	b9400000 	ldr	w0, [x0]
  4022a4:	11000801 	add	w1, w0, #0x2
  4022a8:	d00000e0 	adrp	x0, 420000 <__libc_start_main@GLIBC_2.34>
  4022ac:	91020000 	add	x0, x0, #0x80
  4022b0:	93407c21 	sxtw	x1, w1
  4022b4:	f944dbe2 	ldr	x2, [sp, #2480]
  4022b8:	f8217802 	str	x2, [x0, x1, lsl #3]
  4022bc:	d00000e0 	adrp	x0, 420000 <__libc_start_main@GLIBC_2.34>
  4022c0:	9101e000 	add	x0, x0, #0x78
  4022c4:	b9400000 	ldr	w0, [x0]
  4022c8:	11000c01 	add	w1, w0, #0x3
  4022cc:	d00000e0 	adrp	x0, 420000 <__libc_start_main@GLIBC_2.34>
  4022d0:	9101e000 	add	x0, x0, #0x78
  4022d4:	b9000001 	str	w1, [x0]
  4022d8:	d00000e0 	adrp	x0, 420000 <__libc_start_main@GLIBC_2.34>
  4022dc:	9100b000 	add	x0, x0, #0x2c
  4022e0:	b9400000 	ldr	w0, [x0]
  4022e4:	71000c1f 	cmp	w0, #0x3
  4022e8:	540009cd 	b.le	402420 <main+0x1e1c>
  4022ec:	d00000e0 	adrp	x0, 420000 <__libc_start_main@GLIBC_2.34>
  4022f0:	9101e000 	add	x0, x0, #0x78
  4022f4:	b9400000 	ldr	w0, [x0]
  4022f8:	71000c1f 	cmp	w0, #0x3
  4022fc:	5400092c 	b.gt	402420 <main+0x1e1c>
  402300:	d00000e0 	adrp	x0, 420000 <__libc_start_main@GLIBC_2.34>
  402304:	91014000 	add	x0, x0, #0x50
  402308:	f9400c01 	ldr	x1, [x0, #24]
  40230c:	d00000e0 	adrp	x0, 420000 <__libc_start_main@GLIBC_2.34>
  402310:	91014000 	add	x0, x0, #0x50
  402314:	f9400400 	ldr	x0, [x0, #8]
  402318:	eb00003f 	cmp	x1, x0
  40231c:	54000821 	b.ne	402420 <main+0x1e1c>  // b.any
  402320:	d00000e0 	adrp	x0, 420000 <__libc_start_main@GLIBC_2.34>
  402324:	91014000 	add	x0, x0, #0x50
  402328:	f9400c01 	ldr	x1, [x0, #24]
  40232c:	d00000e0 	adrp	x0, 420000 <__libc_start_main@GLIBC_2.34>
  402330:	91014000 	add	x0, x0, #0x50
  402334:	f9400000 	ldr	x0, [x0]
  402338:	eb00003f 	cmp	x1, x0
  40233c:	54000721 	b.ne	402420 <main+0x1e1c>  // b.any
  402340:	d00000e0 	adrp	x0, 420000 <__libc_start_main@GLIBC_2.34>
  402344:	91014000 	add	x0, x0, #0x50
  402348:	f9400800 	ldr	x0, [x0, #16]
  40234c:	f904d7e0 	str	x0, [sp, #2472]
  402350:	d00000e0 	adrp	x0, 420000 <__libc_start_main@GLIBC_2.34>
  402354:	91014000 	add	x0, x0, #0x50
  402358:	f9400c00 	ldr	x0, [x0, #24]
  40235c:	f904d3e0 	str	x0, [sp, #2464]
  402360:	f944d3e1 	ldr	x1, [sp, #2464]
  402364:	f944d7e0 	ldr	x0, [sp, #2472]
  402368:	eb00003f 	cmp	x1, x0
  40236c:	540005ad 	b.le	402420 <main+0x1e1c>
  402370:	d00000e0 	adrp	x0, 420000 <__libc_start_main@GLIBC_2.34>
  402374:	9100b000 	add	x0, x0, #0x2c
  402378:	b9400000 	ldr	w0, [x0]
  40237c:	51001001 	sub	w1, w0, #0x4
  402380:	d00000e0 	adrp	x0, 420000 <__libc_start_main@GLIBC_2.34>
  402384:	9100b000 	add	x0, x0, #0x2c
  402388:	b9000001 	str	w1, [x0]
  40238c:	f944d7e1 	ldr	x1, [sp, #2472]
  402390:	f944d3e0 	ldr	x0, [sp, #2464]
  402394:	8b000020 	add	x0, x1, x0
  402398:	f904cfe0 	str	x0, [sp, #2456]
  40239c:	d00000e0 	adrp	x0, 420000 <__libc_start_main@GLIBC_2.34>
  4023a0:	9101e000 	add	x0, x0, #0x78
  4023a4:	b9400001 	ldr	w1, [x0]
  4023a8:	d00000e0 	adrp	x0, 420000 <__libc_start_main@GLIBC_2.34>
  4023ac:	91020000 	add	x0, x0, #0x80
  4023b0:	93407c21 	sxtw	x1, w1
  4023b4:	f944d7e2 	ldr	x2, [sp, #2472]
  4023b8:	f8217802 	str	x2, [x0, x1, lsl #3]
  4023bc:	d00000e0 	adrp	x0, 420000 <__libc_start_main@GLIBC_2.34>
  4023c0:	9101e000 	add	x0, x0, #0x78
  4023c4:	b9400000 	ldr	w0, [x0]
  4023c8:	11000401 	add	w1, w0, #0x1
  4023cc:	d00000e0 	adrp	x0, 420000 <__libc_start_main@GLIBC_2.34>
  4023d0:	91020000 	add	x0, x0, #0x80
  4023d4:	93407c21 	sxtw	x1, w1
  4023d8:	f944d3e2 	ldr	x2, [sp, #2464]
  4023dc:	f8217802 	str	x2, [x0, x1, lsl #3]
  4023e0:	d00000e0 	adrp	x0, 420000 <__libc_start_main@GLIBC_2.34>
  4023e4:	9101e000 	add	x0, x0, #0x78
  4023e8:	b9400000 	ldr	w0, [x0]
  4023ec:	11000801 	add	w1, w0, #0x2
  4023f0:	d00000e0 	adrp	x0, 420000 <__libc_start_main@GLIBC_2.34>
  4023f4:	91020000 	add	x0, x0, #0x80
  4023f8:	93407c21 	sxtw	x1, w1
  4023fc:	f944cfe2 	ldr	x2, [sp, #2456]
  402400:	f8217802 	str	x2, [x0, x1, lsl #3]
  402404:	d00000e0 	adrp	x0, 420000 <__libc_start_main@GLIBC_2.34>
  402408:	9101e000 	add	x0, x0, #0x78
  40240c:	b9400000 	ldr	w0, [x0]
  402410:	11000c01 	add	w1, w0, #0x3
  402414:	d00000e0 	adrp	x0, 420000 <__libc_start_main@GLIBC_2.34>
  402418:	9101e000 	add	x0, x0, #0x78
  40241c:	b9000001 	str	w1, [x0]
  402420:	d00000e0 	adrp	x0, 420000 <__libc_start_main@GLIBC_2.34>
  402424:	9100b000 	add	x0, x0, #0x2c
  402428:	b9400000 	ldr	w0, [x0]
  40242c:	71000c1f 	cmp	w0, #0x3
  402430:	540009cd 	b.le	402568 <main+0x1f64>
  402434:	d00000e0 	adrp	x0, 420000 <__libc_start_main@GLIBC_2.34>
  402438:	9101e000 	add	x0, x0, #0x78
  40243c:	b9400000 	ldr	w0, [x0]
  402440:	71000c1f 	cmp	w0, #0x3
  402444:	5400092c 	b.gt	402568 <main+0x1f64>
  402448:	d00000e0 	adrp	x0, 420000 <__libc_start_main@GLIBC_2.34>
  40244c:	91014000 	add	x0, x0, #0x50
  402450:	f9400001 	ldr	x1, [x0]
  402454:	d00000e0 	adrp	x0, 420000 <__libc_start_main@GLIBC_2.34>
  402458:	91014000 	add	x0, x0, #0x50
  40245c:	f9400400 	ldr	x0, [x0, #8]
  402460:	eb00003f 	cmp	x1, x0
  402464:	54000821 	b.ne	402568 <main+0x1f64>  // b.any
  402468:	d00000e0 	adrp	x0, 420000 <__libc_start_main@GLIBC_2.34>
  40246c:	91014000 	add	x0, x0, #0x50
  402470:	f9400001 	ldr	x1, [x0]
  402474:	d00000e0 	adrp	x0, 420000 <__libc_start_main@GLIBC_2.34>
  402478:	91014000 	add	x0, x0, #0x50
  40247c:	f9400800 	ldr	x0, [x0, #16]
  402480:	eb00003f 	cmp	x1, x0
  402484:	54000721 	b.ne	402568 <main+0x1f64>  // b.any
  402488:	d00000e0 	adrp	x0, 420000 <__libc_start_main@GLIBC_2.34>
  40248c:	91014000 	add	x0, x0, #0x50
  402490:	f9400c00 	ldr	x0, [x0, #24]
  402494:	f904cbe0 	str	x0, [sp, #2448]
  402498:	d00000e0 	adrp	x0, 420000 <__libc_start_main@GLIBC_2.34>
  40249c:	91014000 	add	x0, x0, #0x50
  4024a0:	f9400000 	ldr	x0, [x0]
  4024a4:	f904c7e0 	str	x0, [sp, #2440]
  4024a8:	f944c7e1 	ldr	x1, [sp, #2440]
  4024ac:	f944cbe0 	ldr	x0, [sp, #2448]
  4024b0:	eb00003f 	cmp	x1, x0
  4024b4:	540005ad 	b.le	402568 <main+0x1f64>
  4024b8:	d00000e0 	adrp	x0, 420000 <__libc_start_main@GLIBC_2.34>
  4024bc:	9100b000 	add	x0, x0, #0x2c
  4024c0:	b9400000 	ldr	w0, [x0]
  4024c4:	51001001 	sub	w1, w0, #0x4
  4024c8:	d00000e0 	adrp	x0, 420000 <__libc_start_main@GLIBC_2.34>
  4024cc:	9100b000 	add	x0, x0, #0x2c
  4024d0:	b9000001 	str	w1, [x0]
  4024d4:	f944cbe1 	ldr	x1, [sp, #2448]
  4024d8:	f944c7e0 	ldr	x0, [sp, #2440]
  4024dc:	8b000020 	add	x0, x1, x0
  4024e0:	f904c3e0 	str	x0, [sp, #2432]
  4024e4:	d00000e0 	adrp	x0, 420000 <__libc_start_main@GLIBC_2.34>
  4024e8:	9101e000 	add	x0, x0, #0x78
  4024ec:	b9400001 	ldr	w1, [x0]
  4024f0:	d00000e0 	adrp	x0, 420000 <__libc_start_main@GLIBC_2.34>
  4024f4:	91020000 	add	x0, x0, #0x80
  4024f8:	93407c21 	sxtw	x1, w1
  4024fc:	f944cbe2 	ldr	x2, [sp, #2448]
  402500:	f8217802 	str	x2, [x0, x1, lsl #3]
  402504:	d00000e0 	adrp	x0, 420000 <__libc_start_main@GLIBC_2.34>
  402508:	9101e000 	add	x0, x0, #0x78
  40250c:	b9400000 	ldr	w0, [x0]
  402510:	11000401 	add	w1, w0, #0x1
  402514:	d00000e0 	adrp	x0, 420000 <__libc_start_main@GLIBC_2.34>
  402518:	91020000 	add	x0, x0, #0x80
  40251c:	93407c21 	sxtw	x1, w1
  402520:	f944c7e2 	ldr	x2, [sp, #2440]
  402524:	f8217802 	str	x2, [x0, x1, lsl #3]
  402528:	d00000e0 	adrp	x0, 420000 <__libc_start_main@GLIBC_2.34>
  40252c:	9101e000 	add	x0, x0, #0x78
  402530:	b9400000 	ldr	w0, [x0]
  402534:	11000801 	add	w1, w0, #0x2
  402538:	d00000e0 	adrp	x0, 420000 <__libc_start_main@GLIBC_2.34>
  40253c:	91020000 	add	x0, x0, #0x80
  402540:	93407c21 	sxtw	x1, w1
  402544:	f944c3e2 	ldr	x2, [sp, #2432]
  402548:	f8217802 	str	x2, [x0, x1, lsl #3]
  40254c:	d00000e0 	adrp	x0, 420000 <__libc_start_main@GLIBC_2.34>
  402550:	9101e000 	add	x0, x0, #0x78
  402554:	b9400000 	ldr	w0, [x0]
  402558:	11000c01 	add	w1, w0, #0x3
  40255c:	d00000e0 	adrp	x0, 420000 <__libc_start_main@GLIBC_2.34>
  402560:	9101e000 	add	x0, x0, #0x78
  402564:	b9000001 	str	w1, [x0]
  402568:	d00000e0 	adrp	x0, 420000 <__libc_start_main@GLIBC_2.34>
  40256c:	9100b000 	add	x0, x0, #0x2c
  402570:	b9400000 	ldr	w0, [x0]
  402574:	71000c1f 	cmp	w0, #0x3
  402578:	540009cd 	b.le	4026b0 <main+0x20ac>
  40257c:	d00000e0 	adrp	x0, 420000 <__libc_start_main@GLIBC_2.34>
  402580:	9101e000 	add	x0, x0, #0x78
  402584:	b9400000 	ldr	w0, [x0]
  402588:	71000c1f 	cmp	w0, #0x3
  40258c:	5400092c 	b.gt	4026b0 <main+0x20ac>
  402590:	d00000e0 	adrp	x0, 420000 <__libc_start_main@GLIBC_2.34>
  402594:	91014000 	add	x0, x0, #0x50
  402598:	f9400001 	ldr	x1, [x0]
  40259c:	d00000e0 	adrp	x0, 420000 <__libc_start_main@GLIBC_2.34>
  4025a0:	91014000 	add	x0, x0, #0x50
  4025a4:	f9400800 	ldr	x0, [x0, #16]
  4025a8:	eb00003f 	cmp	x1, x0
  4025ac:	54000821 	b.ne	4026b0 <main+0x20ac>  // b.any
  4025b0:	d00000e0 	adrp	x0, 420000 <__libc_start_main@GLIBC_2.34>
  4025b4:	91014000 	add	x0, x0, #0x50
  4025b8:	f9400001 	ldr	x1, [x0]
  4025bc:	d00000e0 	adrp	x0, 420000 <__libc_start_main@GLIBC_2.34>
  4025c0:	91014000 	add	x0, x0, #0x50
  4025c4:	f9400400 	ldr	x0, [x0, #8]
  4025c8:	eb00003f 	cmp	x1, x0
  4025cc:	54000721 	b.ne	4026b0 <main+0x20ac>  // b.any
  4025d0:	d00000e0 	adrp	x0, 420000 <__libc_start_main@GLIBC_2.34>
  4025d4:	91014000 	add	x0, x0, #0x50
  4025d8:	f9400c00 	ldr	x0, [x0, #24]
  4025dc:	f904bfe0 	str	x0, [sp, #2424]
  4025e0:	d00000e0 	adrp	x0, 420000 <__libc_start_main@GLIBC_2.34>
  4025e4:	91014000 	add	x0, x0, #0x50
  4025e8:	f9400000 	ldr	x0, [x0]
  4025ec:	f904bbe0 	str	x0, [sp, #2416]
  4025f0:	f944bbe1 	ldr	x1, [sp, #2416]
  4025f4:	f944bfe0 	ldr	x0, [sp, #2424]
  4025f8:	eb00003f 	cmp	x1, x0
  4025fc:	540005ad 	b.le	4026b0 <main+0x20ac>
  402600:	d00000e0 	adrp	x0, 420000 <__libc_start_main@GLIBC_2.34>
  402604:	9100b000 	add	x0, x0, #0x2c
  402608:	b9400000 	ldr	w0, [x0]
  40260c:	51001001 	sub	w1, w0, #0x4
  402610:	d00000e0 	adrp	x0, 420000 <__libc_start_main@GLIBC_2.34>
  402614:	9100b000 	add	x0, x0, #0x2c
  402618:	b9000001 	str	w1, [x0]
  40261c:	f944bfe1 	ldr	x1, [sp, #2424]
  402620:	f944bbe0 	ldr	x0, [sp, #2416]
  402624:	8b000020 	add	x0, x1, x0
  402628:	f904b7e0 	str	x0, [sp, #2408]
  40262c:	d00000e0 	adrp	x0, 420000 <__libc_start_main@GLIBC_2.34>
  402630:	9101e000 	add	x0, x0, #0x78
  402634:	b9400001 	ldr	w1, [x0]
  402638:	d00000e0 	adrp	x0, 420000 <__libc_start_main@GLIBC_2.34>
  40263c:	91020000 	add	x0, x0, #0x80
  402640:	93407c21 	sxtw	x1, w1
  402644:	f944bfe2 	ldr	x2, [sp, #2424]
  402648:	f8217802 	str	x2, [x0, x1, lsl #3]
  40264c:	d00000e0 	adrp	x0, 420000 <__libc_start_main@GLIBC_2.34>
  402650:	9101e000 	add	x0, x0, #0x78
  402654:	b9400000 	ldr	w0, [x0]
  402658:	11000401 	add	w1, w0, #0x1
  40265c:	d00000e0 	adrp	x0, 420000 <__libc_start_main@GLIBC_2.34>
  402660:	91020000 	add	x0, x0, #0x80
  402664:	93407c21 	sxtw	x1, w1
  402668:	f944bbe2 	ldr	x2, [sp, #2416]
  40266c:	f8217802 	str	x2, [x0, x1, lsl #3]
  402670:	d00000e0 	adrp	x0, 420000 <__libc_start_main@GLIBC_2.34>
  402674:	9101e000 	add	x0, x0, #0x78
  402678:	b9400000 	ldr	w0, [x0]
  40267c:	11000801 	add	w1, w0, #0x2
  402680:	d00000e0 	adrp	x0, 420000 <__libc_start_main@GLIBC_2.34>
  402684:	91020000 	add	x0, x0, #0x80
  402688:	93407c21 	sxtw	x1, w1
  40268c:	f944b7e2 	ldr	x2, [sp, #2408]
  402690:	f8217802 	str	x2, [x0, x1, lsl #3]
  402694:	d00000e0 	adrp	x0, 420000 <__libc_start_main@GLIBC_2.34>
  402698:	9101e000 	add	x0, x0, #0x78
  40269c:	b9400000 	ldr	w0, [x0]
  4026a0:	11000c01 	add	w1, w0, #0x3
  4026a4:	d00000e0 	adrp	x0, 420000 <__libc_start_main@GLIBC_2.34>
  4026a8:	9101e000 	add	x0, x0, #0x78
  4026ac:	b9000001 	str	w1, [x0]
  4026b0:	d00000e0 	adrp	x0, 420000 <__libc_start_main@GLIBC_2.34>
  4026b4:	9100b000 	add	x0, x0, #0x2c
  4026b8:	b9400000 	ldr	w0, [x0]
  4026bc:	71000c1f 	cmp	w0, #0x3
  4026c0:	540009cd 	b.le	4027f8 <main+0x21f4>
  4026c4:	d00000e0 	adrp	x0, 420000 <__libc_start_main@GLIBC_2.34>
  4026c8:	9101e000 	add	x0, x0, #0x78
  4026cc:	b9400000 	ldr	w0, [x0]
  4026d0:	71000c1f 	cmp	w0, #0x3
  4026d4:	5400092c 	b.gt	4027f8 <main+0x21f4>
  4026d8:	d00000e0 	adrp	x0, 420000 <__libc_start_main@GLIBC_2.34>
  4026dc:	91014000 	add	x0, x0, #0x50
  4026e0:	f9400401 	ldr	x1, [x0, #8]
  4026e4:	d00000e0 	adrp	x0, 420000 <__libc_start_main@GLIBC_2.34>
  4026e8:	91014000 	add	x0, x0, #0x50
  4026ec:	f9400000 	ldr	x0, [x0]
  4026f0:	eb00003f 	cmp	x1, x0
  4026f4:	54000821 	b.ne	4027f8 <main+0x21f4>  // b.any
  4026f8:	d00000e0 	adrp	x0, 420000 <__libc_start_main@GLIBC_2.34>
  4026fc:	91014000 	add	x0, x0, #0x50
  402700:	f9400401 	ldr	x1, [x0, #8]
  402704:	d00000e0 	adrp	x0, 420000 <__libc_start_main@GLIBC_2.34>
  402708:	91014000 	add	x0, x0, #0x50
  40270c:	f9400800 	ldr	x0, [x0, #16]
  402710:	eb00003f 	cmp	x1, x0
  402714:	54000721 	b.ne	4027f8 <main+0x21f4>  // b.any
  402718:	d00000e0 	adrp	x0, 420000 <__libc_start_main@GLIBC_2.34>
  40271c:	91014000 	add	x0, x0, #0x50
  402720:	f9400c00 	ldr	x0, [x0, #24]
  402724:	f904b3e0 	str	x0, [sp, #2400]
  402728:	d00000e0 	adrp	x0, 420000 <__libc_start_main@GLIBC_2.34>
  40272c:	91014000 	add	x0, x0, #0x50
  402730:	f9400400 	ldr	x0, [x0, #8]
  402734:	f904afe0 	str	x0, [sp, #2392]
  402738:	f944afe1 	ldr	x1, [sp, #2392]
  40273c:	f944b3e0 	ldr	x0, [sp, #2400]
  402740:	eb00003f 	cmp	x1, x0
  402744:	540005ad 	b.le	4027f8 <main+0x21f4>
  402748:	d00000e0 	adrp	x0, 420000 <__libc_start_main@GLIBC_2.34>
  40274c:	9100b000 	add	x0, x0, #0x2c
  402750:	b9400000 	ldr	w0, [x0]
  402754:	51001001 	sub	w1, w0, #0x4
  402758:	d00000e0 	adrp	x0, 420000 <__libc_start_main@GLIBC_2.34>
  40275c:	9100b000 	add	x0, x0, #0x2c
  402760:	b9000001 	str	w1, [x0]
  402764:	f944b3e1 	ldr	x1, [sp, #2400]
  402768:	f944afe0 	ldr	x0, [sp, #2392]
  40276c:	8b000020 	add	x0, x1, x0
  402770:	f904abe0 	str	x0, [sp, #2384]
  402774:	d00000e0 	adrp	x0, 420000 <__libc_start_main@GLIBC_2.34>
  402778:	9101e000 	add	x0, x0, #0x78
  40277c:	b9400001 	ldr	w1, [x0]
  402780:	d00000e0 	adrp	x0, 420000 <__libc_start_main@GLIBC_2.34>
  402784:	91020000 	add	x0, x0, #0x80
  402788:	93407c21 	sxtw	x1, w1
  40278c:	f944b3e2 	ldr	x2, [sp, #2400]
  402790:	f8217802 	str	x2, [x0, x1, lsl #3]
  402794:	d00000e0 	adrp	x0, 420000 <__libc_start_main@GLIBC_2.34>
  402798:	9101e000 	add	x0, x0, #0x78
  40279c:	b9400000 	ldr	w0, [x0]
  4027a0:	11000401 	add	w1, w0, #0x1
  4027a4:	d00000e0 	adrp	x0, 420000 <__libc_start_main@GLIBC_2.34>
  4027a8:	91020000 	add	x0, x0, #0x80
  4027ac:	93407c21 	sxtw	x1, w1
  4027b0:	f944afe2 	ldr	x2, [sp, #2392]
  4027b4:	f8217802 	str	x2, [x0, x1, lsl #3]
  4027b8:	d00000e0 	adrp	x0, 420000 <__libc_start_main@GLIBC_2.34>
  4027bc:	9101e000 	add	x0, x0, #0x78
  4027c0:	b9400000 	ldr	w0, [x0]
  4027c4:	11000801 	add	w1, w0, #0x2
  4027c8:	d00000e0 	adrp	x0, 420000 <__libc_start_main@GLIBC_2.34>
  4027cc:	91020000 	add	x0, x0, #0x80
  4027d0:	93407c21 	sxtw	x1, w1
  4027d4:	f944abe2 	ldr	x2, [sp, #2384]
  4027d8:	f8217802 	str	x2, [x0, x1, lsl #3]
  4027dc:	d00000e0 	adrp	x0, 420000 <__libc_start_main@GLIBC_2.34>
  4027e0:	9101e000 	add	x0, x0, #0x78
  4027e4:	b9400000 	ldr	w0, [x0]
  4027e8:	11000c01 	add	w1, w0, #0x3
  4027ec:	d00000e0 	adrp	x0, 420000 <__libc_start_main@GLIBC_2.34>
  4027f0:	9101e000 	add	x0, x0, #0x78
  4027f4:	b9000001 	str	w1, [x0]
  4027f8:	d00000e0 	adrp	x0, 420000 <__libc_start_main@GLIBC_2.34>
  4027fc:	9100b000 	add	x0, x0, #0x2c
  402800:	b9400000 	ldr	w0, [x0]
  402804:	71000c1f 	cmp	w0, #0x3
  402808:	540009cd 	b.le	402940 <main+0x233c>
  40280c:	d00000e0 	adrp	x0, 420000 <__libc_start_main@GLIBC_2.34>
  402810:	9101e000 	add	x0, x0, #0x78
  402814:	b9400000 	ldr	w0, [x0]
  402818:	71000c1f 	cmp	w0, #0x3
  40281c:	5400092c 	b.gt	402940 <main+0x233c>
  402820:	d00000e0 	adrp	x0, 420000 <__libc_start_main@GLIBC_2.34>
  402824:	91014000 	add	x0, x0, #0x50
  402828:	f9400401 	ldr	x1, [x0, #8]
  40282c:	d00000e0 	adrp	x0, 420000 <__libc_start_main@GLIBC_2.34>
  402830:	91014000 	add	x0, x0, #0x50
  402834:	f9400800 	ldr	x0, [x0, #16]
  402838:	eb00003f 	cmp	x1, x0
  40283c:	54000821 	b.ne	402940 <main+0x233c>  // b.any
  402840:	d00000e0 	adrp	x0, 420000 <__libc_start_main@GLIBC_2.34>
  402844:	91014000 	add	x0, x0, #0x50
  402848:	f9400401 	ldr	x1, [x0, #8]
  40284c:	d00000e0 	adrp	x0, 420000 <__libc_start_main@GLIBC_2.34>
  402850:	91014000 	add	x0, x0, #0x50
  402854:	f9400000 	ldr	x0, [x0]
  402858:	eb00003f 	cmp	x1, x0
  40285c:	54000721 	b.ne	402940 <main+0x233c>  // b.any
  402860:	d00000e0 	adrp	x0, 420000 <__libc_start_main@GLIBC_2.34>
  402864:	91014000 	add	x0, x0, #0x50
  402868:	f9400c00 	ldr	x0, [x0, #24]
  40286c:	f904a7e0 	str	x0, [sp, #2376]
  402870:	d00000e0 	adrp	x0, 420000 <__libc_start_main@GLIBC_2.34>
  402874:	91014000 	add	x0, x0, #0x50
  402878:	f9400400 	ldr	x0, [x0, #8]
  40287c:	f904a3e0 	str	x0, [sp, #2368]
  402880:	f944a3e1 	ldr	x1, [sp, #2368]
  402884:	f944a7e0 	ldr	x0, [sp, #2376]
  402888:	eb00003f 	cmp	x1, x0
  40288c:	540005ad 	b.le	402940 <main+0x233c>
  402890:	d00000e0 	adrp	x0, 420000 <__libc_start_main@GLIBC_2.34>
  402894:	9100b000 	add	x0, x0, #0x2c
  402898:	b9400000 	ldr	w0, [x0]
  40289c:	51001001 	sub	w1, w0, #0x4
  4028a0:	d00000e0 	adrp	x0, 420000 <__libc_start_main@GLIBC_2.34>
  4028a4:	9100b000 	add	x0, x0, #0x2c
  4028a8:	b9000001 	str	w1, [x0]
  4028ac:	f944a7e1 	ldr	x1, [sp, #2376]
  4028b0:	f944a3e0 	ldr	x0, [sp, #2368]
  4028b4:	8b000020 	add	x0, x1, x0
  4028b8:	f9049fe0 	str	x0, [sp, #2360]
  4028bc:	d00000e0 	adrp	x0, 420000 <__libc_start_main@GLIBC_2.34>
  4028c0:	9101e000 	add	x0, x0, #0x78
  4028c4:	b9400001 	ldr	w1, [x0]
  4028c8:	d00000e0 	adrp	x0, 420000 <__libc_start_main@GLIBC_2.34>
  4028cc:	91020000 	add	x0, x0, #0x80
  4028d0:	93407c21 	sxtw	x1, w1
  4028d4:	f944a7e2 	ldr	x2, [sp, #2376]
  4028d8:	f8217802 	str	x2, [x0, x1, lsl #3]
  4028dc:	d00000e0 	adrp	x0, 420000 <__libc_start_main@GLIBC_2.34>
  4028e0:	9101e000 	add	x0, x0, #0x78
  4028e4:	b9400000 	ldr	w0, [x0]
  4028e8:	11000401 	add	w1, w0, #0x1
  4028ec:	d00000e0 	adrp	x0, 420000 <__libc_start_main@GLIBC_2.34>
  4028f0:	91020000 	add	x0, x0, #0x80
  4028f4:	93407c21 	sxtw	x1, w1
  4028f8:	f944a3e2 	ldr	x2, [sp, #2368]
  4028fc:	f8217802 	str	x2, [x0, x1, lsl #3]
  402900:	d00000e0 	adrp	x0, 420000 <__libc_start_main@GLIBC_2.34>
  402904:	9101e000 	add	x0, x0, #0x78
  402908:	b9400000 	ldr	w0, [x0]
  40290c:	11000801 	add	w1, w0, #0x2
  402910:	d00000e0 	adrp	x0, 420000 <__libc_start_main@GLIBC_2.34>
  402914:	91020000 	add	x0, x0, #0x80
  402918:	93407c21 	sxtw	x1, w1
  40291c:	f9449fe2 	ldr	x2, [sp, #2360]
  402920:	f8217802 	str	x2, [x0, x1, lsl #3]
  402924:	d00000e0 	adrp	x0, 420000 <__libc_start_main@GLIBC_2.34>
  402928:	9101e000 	add	x0, x0, #0x78
  40292c:	b9400000 	ldr	w0, [x0]
  402930:	11000c01 	add	w1, w0, #0x3
  402934:	d00000e0 	adrp	x0, 420000 <__libc_start_main@GLIBC_2.34>
  402938:	9101e000 	add	x0, x0, #0x78
  40293c:	b9000001 	str	w1, [x0]
  402940:	d00000e0 	adrp	x0, 420000 <__libc_start_main@GLIBC_2.34>
  402944:	9100b000 	add	x0, x0, #0x2c
  402948:	b9400000 	ldr	w0, [x0]
  40294c:	71000c1f 	cmp	w0, #0x3
  402950:	540009cd 	b.le	402a88 <main+0x2484>
  402954:	d00000e0 	adrp	x0, 420000 <__libc_start_main@GLIBC_2.34>
  402958:	9101e000 	add	x0, x0, #0x78
  40295c:	b9400000 	ldr	w0, [x0]
  402960:	71000c1f 	cmp	w0, #0x3
  402964:	5400092c 	b.gt	402a88 <main+0x2484>
  402968:	d00000e0 	adrp	x0, 420000 <__libc_start_main@GLIBC_2.34>
  40296c:	91014000 	add	x0, x0, #0x50
  402970:	f9400801 	ldr	x1, [x0, #16]
  402974:	d00000e0 	adrp	x0, 420000 <__libc_start_main@GLIBC_2.34>
  402978:	91014000 	add	x0, x0, #0x50
  40297c:	f9400000 	ldr	x0, [x0]
  402980:	eb00003f 	cmp	x1, x0
  402984:	54000821 	b.ne	402a88 <main+0x2484>  // b.any
  402988:	d00000e0 	adrp	x0, 420000 <__libc_start_main@GLIBC_2.34>
  40298c:	91014000 	add	x0, x0, #0x50
  402990:	f9400801 	ldr	x1, [x0, #16]
  402994:	d00000e0 	adrp	x0, 420000 <__libc_start_main@GLIBC_2.34>
  402998:	91014000 	add	x0, x0, #0x50
  40299c:	f9400400 	ldr	x0, [x0, #8]
  4029a0:	eb00003f 	cmp	x1, x0
  4029a4:	54000721 	b.ne	402a88 <main+0x2484>  // b.any
  4029a8:	d00000e0 	adrp	x0, 420000 <__libc_start_main@GLIBC_2.34>
  4029ac:	91014000 	add	x0, x0, #0x50
  4029b0:	f9400c00 	ldr	x0, [x0, #24]
  4029b4:	f9049be0 	str	x0, [sp, #2352]
  4029b8:	d00000e0 	adrp	x0, 420000 <__libc_start_main@GLIBC_2.34>
  4029bc:	91014000 	add	x0, x0, #0x50
  4029c0:	f9400800 	ldr	x0, [x0, #16]
  4029c4:	f90497e0 	str	x0, [sp, #2344]
  4029c8:	f94497e1 	ldr	x1, [sp, #2344]
  4029cc:	f9449be0 	ldr	x0, [sp, #2352]
  4029d0:	eb00003f 	cmp	x1, x0
  4029d4:	540005ad 	b.le	402a88 <main+0x2484>
  4029d8:	d00000e0 	adrp	x0, 420000 <__libc_start_main@GLIBC_2.34>
  4029dc:	9100b000 	add	x0, x0, #0x2c
  4029e0:	b9400000 	ldr	w0, [x0]
  4029e4:	51001001 	sub	w1, w0, #0x4
  4029e8:	d00000e0 	adrp	x0, 420000 <__libc_start_main@GLIBC_2.34>
  4029ec:	9100b000 	add	x0, x0, #0x2c
  4029f0:	b9000001 	str	w1, [x0]
  4029f4:	f9449be1 	ldr	x1, [sp, #2352]
  4029f8:	f94497e0 	ldr	x0, [sp, #2344]
  4029fc:	8b000020 	add	x0, x1, x0
  402a00:	f90493e0 	str	x0, [sp, #2336]
  402a04:	d00000e0 	adrp	x0, 420000 <__libc_start_main@GLIBC_2.34>
  402a08:	9101e000 	add	x0, x0, #0x78
  402a0c:	b9400001 	ldr	w1, [x0]
  402a10:	d00000e0 	adrp	x0, 420000 <__libc_start_main@GLIBC_2.34>
  402a14:	91020000 	add	x0, x0, #0x80
  402a18:	93407c21 	sxtw	x1, w1
  402a1c:	f9449be2 	ldr	x2, [sp, #2352]
  402a20:	f8217802 	str	x2, [x0, x1, lsl #3]
  402a24:	d00000e0 	adrp	x0, 420000 <__libc_start_main@GLIBC_2.34>
  402a28:	9101e000 	add	x0, x0, #0x78
  402a2c:	b9400000 	ldr	w0, [x0]
  402a30:	11000401 	add	w1, w0, #0x1
  402a34:	d00000e0 	adrp	x0, 420000 <__libc_start_main@GLIBC_2.34>
  402a38:	91020000 	add	x0, x0, #0x80
  402a3c:	93407c21 	sxtw	x1, w1
  402a40:	f94497e2 	ldr	x2, [sp, #2344]
  402a44:	f8217802 	str	x2, [x0, x1, lsl #3]
  402a48:	d00000e0 	adrp	x0, 420000 <__libc_start_main@GLIBC_2.34>
  402a4c:	9101e000 	add	x0, x0, #0x78
  402a50:	b9400000 	ldr	w0, [x0]
  402a54:	11000801 	add	w1, w0, #0x2
  402a58:	d00000e0 	adrp	x0, 420000 <__libc_start_main@GLIBC_2.34>
  402a5c:	91020000 	add	x0, x0, #0x80
  402a60:	93407c21 	sxtw	x1, w1
  402a64:	f94493e2 	ldr	x2, [sp, #2336]
  402a68:	f8217802 	str	x2, [x0, x1, lsl #3]
  402a6c:	d00000e0 	adrp	x0, 420000 <__libc_start_main@GLIBC_2.34>
  402a70:	9101e000 	add	x0, x0, #0x78
  402a74:	b9400000 	ldr	w0, [x0]
  402a78:	11000c01 	add	w1, w0, #0x3
  402a7c:	d00000e0 	adrp	x0, 420000 <__libc_start_main@GLIBC_2.34>
  402a80:	9101e000 	add	x0, x0, #0x78
  402a84:	b9000001 	str	w1, [x0]
  402a88:	d00000e0 	adrp	x0, 420000 <__libc_start_main@GLIBC_2.34>
  402a8c:	9100b000 	add	x0, x0, #0x2c
  402a90:	b9400000 	ldr	w0, [x0]
  402a94:	71000c1f 	cmp	w0, #0x3
  402a98:	540009cd 	b.le	402bd0 <main+0x25cc>
  402a9c:	d00000e0 	adrp	x0, 420000 <__libc_start_main@GLIBC_2.34>
  402aa0:	9101e000 	add	x0, x0, #0x78
  402aa4:	b9400000 	ldr	w0, [x0]
  402aa8:	71000c1f 	cmp	w0, #0x3
  402aac:	5400092c 	b.gt	402bd0 <main+0x25cc>
  402ab0:	d00000e0 	adrp	x0, 420000 <__libc_start_main@GLIBC_2.34>
  402ab4:	91014000 	add	x0, x0, #0x50
  402ab8:	f9400801 	ldr	x1, [x0, #16]
  402abc:	d00000e0 	adrp	x0, 420000 <__libc_start_main@GLIBC_2.34>
  402ac0:	91014000 	add	x0, x0, #0x50
  402ac4:	f9400400 	ldr	x0, [x0, #8]
  402ac8:	eb00003f 	cmp	x1, x0
  402acc:	54000821 	b.ne	402bd0 <main+0x25cc>  // b.any
  402ad0:	d00000e0 	adrp	x0, 420000 <__libc_start_main@GLIBC_2.34>
  402ad4:	91014000 	add	x0, x0, #0x50
  402ad8:	f9400801 	ldr	x1, [x0, #16]
  402adc:	d00000e0 	adrp	x0, 420000 <__libc_start_main@GLIBC_2.34>
  402ae0:	91014000 	add	x0, x0, #0x50
  402ae4:	f9400000 	ldr	x0, [x0]
  402ae8:	eb00003f 	cmp	x1, x0
  402aec:	54000721 	b.ne	402bd0 <main+0x25cc>  // b.any
  402af0:	d00000e0 	adrp	x0, 420000 <__libc_start_main@GLIBC_2.34>
  402af4:	91014000 	add	x0, x0, #0x50
  402af8:	f9400c00 	ldr	x0, [x0, #24]
  402afc:	f9048fe0 	str	x0, [sp, #2328]
  402b00:	d00000e0 	adrp	x0, 420000 <__libc_start_main@GLIBC_2.34>
  402b04:	91014000 	add	x0, x0, #0x50
  402b08:	f9400800 	ldr	x0, [x0, #16]
  402b0c:	f9048be0 	str	x0, [sp, #2320]
  402b10:	f9448be1 	ldr	x1, [sp, #2320]
  402b14:	f9448fe0 	ldr	x0, [sp, #2328]
  402b18:	eb00003f 	cmp	x1, x0
  402b1c:	540005ad 	b.le	402bd0 <main+0x25cc>
  402b20:	d00000e0 	adrp	x0, 420000 <__libc_start_main@GLIBC_2.34>
  402b24:	9100b000 	add	x0, x0, #0x2c
  402b28:	b9400000 	ldr	w0, [x0]
  402b2c:	51001001 	sub	w1, w0, #0x4
  402b30:	d00000e0 	adrp	x0, 420000 <__libc_start_main@GLIBC_2.34>
  402b34:	9100b000 	add	x0, x0, #0x2c
  402b38:	b9000001 	str	w1, [x0]
  402b3c:	f9448fe1 	ldr	x1, [sp, #2328]
  402b40:	f9448be0 	ldr	x0, [sp, #2320]
  402b44:	8b000020 	add	x0, x1, x0
  402b48:	f90487e0 	str	x0, [sp, #2312]
  402b4c:	d00000e0 	adrp	x0, 420000 <__libc_start_main@GLIBC_2.34>
  402b50:	9101e000 	add	x0, x0, #0x78
  402b54:	b9400001 	ldr	w1, [x0]
  402b58:	d00000e0 	adrp	x0, 420000 <__libc_start_main@GLIBC_2.34>
  402b5c:	91020000 	add	x0, x0, #0x80
  402b60:	93407c21 	sxtw	x1, w1
  402b64:	f9448fe2 	ldr	x2, [sp, #2328]
  402b68:	f8217802 	str	x2, [x0, x1, lsl #3]
  402b6c:	d00000e0 	adrp	x0, 420000 <__libc_start_main@GLIBC_2.34>
  402b70:	9101e000 	add	x0, x0, #0x78
  402b74:	b9400000 	ldr	w0, [x0]
  402b78:	11000401 	add	w1, w0, #0x1
  402b7c:	d00000e0 	adrp	x0, 420000 <__libc_start_main@GLIBC_2.34>
  402b80:	91020000 	add	x0, x0, #0x80
  402b84:	93407c21 	sxtw	x1, w1
  402b88:	f9448be2 	ldr	x2, [sp, #2320]
  402b8c:	f8217802 	str	x2, [x0, x1, lsl #3]
  402b90:	d00000e0 	adrp	x0, 420000 <__libc_start_main@GLIBC_2.34>
  402b94:	9101e000 	add	x0, x0, #0x78
  402b98:	b9400000 	ldr	w0, [x0]
  402b9c:	11000801 	add	w1, w0, #0x2
  402ba0:	d00000e0 	adrp	x0, 420000 <__libc_start_main@GLIBC_2.34>
  402ba4:	91020000 	add	x0, x0, #0x80
  402ba8:	93407c21 	sxtw	x1, w1
  402bac:	f94487e2 	ldr	x2, [sp, #2312]
  402bb0:	f8217802 	str	x2, [x0, x1, lsl #3]
  402bb4:	d00000e0 	adrp	x0, 420000 <__libc_start_main@GLIBC_2.34>
  402bb8:	9101e000 	add	x0, x0, #0x78
  402bbc:	b9400000 	ldr	w0, [x0]
  402bc0:	11000c01 	add	w1, w0, #0x3
  402bc4:	d00000e0 	adrp	x0, 420000 <__libc_start_main@GLIBC_2.34>
  402bc8:	9101e000 	add	x0, x0, #0x78
  402bcc:	b9000001 	str	w1, [x0]
  402bd0:	d00000e0 	adrp	x0, 420000 <__libc_start_main@GLIBC_2.34>
  402bd4:	9100b000 	add	x0, x0, #0x2c
  402bd8:	b9400000 	ldr	w0, [x0]
  402bdc:	7100101f 	cmp	w0, #0x4
  402be0:	54000a8d 	b.le	402d30 <main+0x272c>
  402be4:	d00000e0 	adrp	x0, 420000 <__libc_start_main@GLIBC_2.34>
  402be8:	9101e000 	add	x0, x0, #0x78
  402bec:	b9400000 	ldr	w0, [x0]
  402bf0:	71000c1f 	cmp	w0, #0x3
  402bf4:	540009ec 	b.gt	402d30 <main+0x272c>
  402bf8:	d00000e0 	adrp	x0, 420000 <__libc_start_main@GLIBC_2.34>
  402bfc:	91014000 	add	x0, x0, #0x50
  402c00:	f9400401 	ldr	x1, [x0, #8]
  402c04:	d00000e0 	adrp	x0, 420000 <__libc_start_main@GLIBC_2.34>
  402c08:	91014000 	add	x0, x0, #0x50
  402c0c:	f9400800 	ldr	x0, [x0, #16]
  402c10:	eb00003f 	cmp	x1, x0
  402c14:	540008e1 	b.ne	402d30 <main+0x272c>  // b.any
  402c18:	d00000e0 	adrp	x0, 420000 <__libc_start_main@GLIBC_2.34>
  402c1c:	91014000 	add	x0, x0, #0x50
  402c20:	f9400401 	ldr	x1, [x0, #8]
  402c24:	d00000e0 	adrp	x0, 420000 <__libc_start_main@GLIBC_2.34>
  402c28:	91014000 	add	x0, x0, #0x50
  402c2c:	f9401000 	ldr	x0, [x0, #32]
  402c30:	eb00003f 	cmp	x1, x0
  402c34:	540007e1 	b.ne	402d30 <main+0x272c>  // b.any
  402c38:	d00000e0 	adrp	x0, 420000 <__libc_start_main@GLIBC_2.34>
  402c3c:	91014000 	add	x0, x0, #0x50
  402c40:	f9400000 	ldr	x0, [x0]
  402c44:	f90483e0 	str	x0, [sp, #2304]
  402c48:	d00000e0 	adrp	x0, 420000 <__libc_start_main@GLIBC_2.34>
  402c4c:	91014000 	add	x0, x0, #0x50
  402c50:	f9400400 	ldr	x0, [x0, #8]
  402c54:	f9047fe0 	str	x0, [sp, #2296]
  402c58:	f9447fe1 	ldr	x1, [sp, #2296]
  402c5c:	f94483e0 	ldr	x0, [sp, #2304]
  402c60:	eb00003f 	cmp	x1, x0
  402c64:	5400066d 	b.le	402d30 <main+0x272c>
  402c68:	d00000e0 	adrp	x0, 420000 <__libc_start_main@GLIBC_2.34>
  402c6c:	91014000 	add	x0, x0, #0x50
  402c70:	f9400c01 	ldr	x1, [x0, #24]
  402c74:	d00000e0 	adrp	x0, 420000 <__libc_start_main@GLIBC_2.34>
  402c78:	91014000 	add	x0, x0, #0x50
  402c7c:	f9000001 	str	x1, [x0]
  402c80:	d00000e0 	adrp	x0, 420000 <__libc_start_main@GLIBC_2.34>
  402c84:	9100b000 	add	x0, x0, #0x2c
  402c88:	b9400000 	ldr	w0, [x0]
  402c8c:	51001001 	sub	w1, w0, #0x4
  402c90:	d00000e0 	adrp	x0, 420000 <__libc_start_main@GLIBC_2.34>
  402c94:	9100b000 	add	x0, x0, #0x2c
  402c98:	b9000001 	str	w1, [x0]
  402c9c:	f94483e1 	ldr	x1, [sp, #2304]
  402ca0:	f9447fe0 	ldr	x0, [sp, #2296]
  402ca4:	8b000020 	add	x0, x1, x0
  402ca8:	f9047be0 	str	x0, [sp, #2288]
  402cac:	d00000e0 	adrp	x0, 420000 <__libc_start_main@GLIBC_2.34>
  402cb0:	9101e000 	add	x0, x0, #0x78
  402cb4:	b9400001 	ldr	w1, [x0]
  402cb8:	d00000e0 	adrp	x0, 420000 <__libc_start_main@GLIBC_2.34>
  402cbc:	91020000 	add	x0, x0, #0x80
  402cc0:	93407c21 	sxtw	x1, w1
  402cc4:	f94483e2 	ldr	x2, [sp, #2304]
  402cc8:	f8217802 	str	x2, [x0, x1, lsl #3]
  402ccc:	d00000e0 	adrp	x0, 420000 <__libc_start_main@GLIBC_2.34>
  402cd0:	9101e000 	add	x0, x0, #0x78
  402cd4:	b9400000 	ldr	w0, [x0]
  402cd8:	11000401 	add	w1, w0, #0x1
  402cdc:	d00000e0 	adrp	x0, 420000 <__libc_start_main@GLIBC_2.34>
  402ce0:	91020000 	add	x0, x0, #0x80
  402ce4:	93407c21 	sxtw	x1, w1
  402ce8:	f9447fe2 	ldr	x2, [sp, #2296]
  402cec:	f8217802 	str	x2, [x0, x1, lsl #3]
  402cf0:	d00000e0 	adrp	x0, 420000 <__libc_start_main@GLIBC_2.34>
  402cf4:	9101e000 	add	x0, x0, #0x78
  402cf8:	b9400000 	ldr	w0, [x0]
  402cfc:	11000801 	add	w1, w0, #0x2
  402d00:	d00000e0 	adrp	x0, 420000 <__libc_start_main@GLIBC_2.34>
  402d04:	91020000 	add	x0, x0, #0x80
  402d08:	93407c21 	sxtw	x1, w1
  402d0c:	f9447be2 	ldr	x2, [sp, #2288]
  402d10:	f8217802 	str	x2, [x0, x1, lsl #3]
  402d14:	d00000e0 	adrp	x0, 420000 <__libc_start_main@GLIBC_2.34>
  402d18:	9101e000 	add	x0, x0, #0x78
  402d1c:	b9400000 	ldr	w0, [x0]
  402d20:	11000c01 	add	w1, w0, #0x3
  402d24:	d00000e0 	adrp	x0, 420000 <__libc_start_main@GLIBC_2.34>
  402d28:	9101e000 	add	x0, x0, #0x78
  402d2c:	b9000001 	str	w1, [x0]
  402d30:	d00000e0 	adrp	x0, 420000 <__libc_start_main@GLIBC_2.34>
  402d34:	9100b000 	add	x0, x0, #0x2c
  402d38:	b9400000 	ldr	w0, [x0]
  402d3c:	7100101f 	cmp	w0, #0x4
  402d40:	54000a8d 	b.le	402e90 <main+0x288c>
  402d44:	d00000e0 	adrp	x0, 420000 <__libc_start_main@GLIBC_2.34>
  402d48:	9101e000 	add	x0, x0, #0x78
  402d4c:	b9400000 	ldr	w0, [x0]
  402d50:	71000c1f 	cmp	w0, #0x3
  402d54:	540009ec 	b.gt	402e90 <main+0x288c>
  402d58:	d00000e0 	adrp	x0, 420000 <__libc_start_main@GLIBC_2.34>
  402d5c:	91014000 	add	x0, x0, #0x50
  402d60:	f9400401 	ldr	x1, [x0, #8]
  402d64:	d00000e0 	adrp	x0, 420000 <__libc_start_main@GLIBC_2.34>
  402d68:	91014000 	add	x0, x0, #0x50
  402d6c:	f9400c00 	ldr	x0, [x0, #24]
  402d70:	eb00003f 	cmp	x1, x0
  402d74:	540008e1 	b.ne	402e90 <main+0x288c>  // b.any
  402d78:	d00000e0 	adrp	x0, 420000 <__libc_start_main@GLIBC_2.34>
  402d7c:	91014000 	add	x0, x0, #0x50
  402d80:	f9400401 	ldr	x1, [x0, #8]
  402d84:	d00000e0 	adrp	x0, 420000 <__libc_start_main@GLIBC_2.34>
  402d88:	91014000 	add	x0, x0, #0x50
  402d8c:	f9401000 	ldr	x0, [x0, #32]
  402d90:	eb00003f 	cmp	x1, x0
  402d94:	540007e1 	b.ne	402e90 <main+0x288c>  // b.any
  402d98:	d00000e0 	adrp	x0, 420000 <__libc_start_main@GLIBC_2.34>
  402d9c:	91014000 	add	x0, x0, #0x50
  402da0:	f9400000 	ldr	x0, [x0]
  402da4:	f90477e0 	str	x0, [sp, #2280]
  402da8:	d00000e0 	adrp	x0, 420000 <__libc_start_main@GLIBC_2.34>
  402dac:	91014000 	add	x0, x0, #0x50
  402db0:	f9400400 	ldr	x0, [x0, #8]
  402db4:	f90473e0 	str	x0, [sp, #2272]
  402db8:	f94473e1 	ldr	x1, [sp, #2272]
  402dbc:	f94477e0 	ldr	x0, [sp, #2280]
  402dc0:	eb00003f 	cmp	x1, x0
  402dc4:	5400066d 	b.le	402e90 <main+0x288c>
  402dc8:	d00000e0 	adrp	x0, 420000 <__libc_start_main@GLIBC_2.34>
  402dcc:	91014000 	add	x0, x0, #0x50
  402dd0:	f9400801 	ldr	x1, [x0, #16]
  402dd4:	d00000e0 	adrp	x0, 420000 <__libc_start_main@GLIBC_2.34>
  402dd8:	91014000 	add	x0, x0, #0x50
  402ddc:	f9000001 	str	x1, [x0]
  402de0:	d00000e0 	adrp	x0, 420000 <__libc_start_main@GLIBC_2.34>
  402de4:	9100b000 	add	x0, x0, #0x2c
  402de8:	b9400000 	ldr	w0, [x0]
  402dec:	51001001 	sub	w1, w0, #0x4
  402df0:	d00000e0 	adrp	x0, 420000 <__libc_start_main@GLIBC_2.34>
  402df4:	9100b000 	add	x0, x0, #0x2c
  402df8:	b9000001 	str	w1, [x0]
  402dfc:	f94477e1 	ldr	x1, [sp, #2280]
  402e00:	f94473e0 	ldr	x0, [sp, #2272]
  402e04:	8b000020 	add	x0, x1, x0
  402e08:	f9046fe0 	str	x0, [sp, #2264]
  402e0c:	d00000e0 	adrp	x0, 420000 <__libc_start_main@GLIBC_2.34>
  402e10:	9101e000 	add	x0, x0, #0x78
  402e14:	b9400001 	ldr	w1, [x0]
  402e18:	d00000e0 	adrp	x0, 420000 <__libc_start_main@GLIBC_2.34>
  402e1c:	91020000 	add	x0, x0, #0x80
  402e20:	93407c21 	sxtw	x1, w1
  402e24:	f94477e2 	ldr	x2, [sp, #2280]
  402e28:	f8217802 	str	x2, [x0, x1, lsl #3]
  402e2c:	d00000e0 	adrp	x0, 420000 <__libc_start_main@GLIBC_2.34>
  402e30:	9101e000 	add	x0, x0, #0x78
  402e34:	b9400000 	ldr	w0, [x0]
  402e38:	11000401 	add	w1, w0, #0x1
  402e3c:	d00000e0 	adrp	x0, 420000 <__libc_start_main@GLIBC_2.34>
  402e40:	91020000 	add	x0, x0, #0x80
  402e44:	93407c21 	sxtw	x1, w1
  402e48:	f94473e2 	ldr	x2, [sp, #2272]
  402e4c:	f8217802 	str	x2, [x0, x1, lsl #3]
  402e50:	d00000e0 	adrp	x0, 420000 <__libc_start_main@GLIBC_2.34>
  402e54:	9101e000 	add	x0, x0, #0x78
  402e58:	b9400000 	ldr	w0, [x0]
  402e5c:	11000801 	add	w1, w0, #0x2
  402e60:	d00000e0 	adrp	x0, 420000 <__libc_start_main@GLIBC_2.34>
  402e64:	91020000 	add	x0, x0, #0x80
  402e68:	93407c21 	sxtw	x1, w1
  402e6c:	f9446fe2 	ldr	x2, [sp, #2264]
  402e70:	f8217802 	str	x2, [x0, x1, lsl #3]
  402e74:	d00000e0 	adrp	x0, 420000 <__libc_start_main@GLIBC_2.34>
  402e78:	9101e000 	add	x0, x0, #0x78
  402e7c:	b9400000 	ldr	w0, [x0]
  402e80:	11000c01 	add	w1, w0, #0x3
  402e84:	d00000e0 	adrp	x0, 420000 <__libc_start_main@GLIBC_2.34>
  402e88:	9101e000 	add	x0, x0, #0x78
  402e8c:	b9000001 	str	w1, [x0]
  402e90:	d00000e0 	adrp	x0, 420000 <__libc_start_main@GLIBC_2.34>
  402e94:	9100b000 	add	x0, x0, #0x2c
  402e98:	b9400000 	ldr	w0, [x0]
  402e9c:	7100101f 	cmp	w0, #0x4
  402ea0:	54000a8d 	b.le	402ff0 <main+0x29ec>
  402ea4:	d00000e0 	adrp	x0, 420000 <__libc_start_main@GLIBC_2.34>
  402ea8:	9101e000 	add	x0, x0, #0x78
  402eac:	b9400000 	ldr	w0, [x0]
  402eb0:	71000c1f 	cmp	w0, #0x3
  402eb4:	540009ec 	b.gt	402ff0 <main+0x29ec>
  402eb8:	d00000e0 	adrp	x0, 420000 <__libc_start_main@GLIBC_2.34>
  402ebc:	91014000 	add	x0, x0, #0x50
  402ec0:	f9400401 	ldr	x1, [x0, #8]
  402ec4:	d00000e0 	adrp	x0, 420000 <__libc_start_main@GLIBC_2.34>
  402ec8:	91014000 	add	x0, x0, #0x50
  402ecc:	f9401000 	ldr	x0, [x0, #32]
  402ed0:	eb00003f 	cmp	x1, x0
  402ed4:	540008e1 	b.ne	402ff0 <main+0x29ec>  // b.any
  402ed8:	d00000e0 	adrp	x0, 420000 <__libc_start_main@GLIBC_2.34>
  402edc:	91014000 	add	x0, x0, #0x50
  402ee0:	f9400401 	ldr	x1, [x0, #8]
  402ee4:	d00000e0 	adrp	x0, 420000 <__libc_start_main@GLIBC_2.34>
  402ee8:	91014000 	add	x0, x0, #0x50
  402eec:	f9400800 	ldr	x0, [x0, #16]
  402ef0:	eb00003f 	cmp	x1, x0
  402ef4:	540007e1 	b.ne	402ff0 <main+0x29ec>  // b.any
  402ef8:	d00000e0 	adrp	x0, 420000 <__libc_start_main@GLIBC_2.34>
  402efc:	91014000 	add	x0, x0, #0x50
  402f00:	f9400000 	ldr	x0, [x0]
  402f04:	f9046be0 	str	x0, [sp, #2256]
  402f08:	d00000e0 	adrp	x0, 420000 <__libc_start_main@GLIBC_2.34>
  402f0c:	91014000 	add	x0, x0, #0x50
  402f10:	f9400400 	ldr	x0, [x0, #8]
  402f14:	f90467e0 	str	x0, [sp, #2248]
  402f18:	f94467e1 	ldr	x1, [sp, #2248]
  402f1c:	f9446be0 	ldr	x0, [sp, #2256]
  402f20:	eb00003f 	cmp	x1, x0
  402f24:	5400066d 	b.le	402ff0 <main+0x29ec>
  402f28:	d00000e0 	adrp	x0, 420000 <__libc_start_main@GLIBC_2.34>
  402f2c:	91014000 	add	x0, x0, #0x50
  402f30:	f9400c01 	ldr	x1, [x0, #24]
  402f34:	d00000e0 	adrp	x0, 420000 <__libc_start_main@GLIBC_2.34>
  402f38:	91014000 	add	x0, x0, #0x50
  402f3c:	f9000001 	str	x1, [x0]
  402f40:	d00000e0 	adrp	x0, 420000 <__libc_start_main@GLIBC_2.34>
  402f44:	9100b000 	add	x0, x0, #0x2c
  402f48:	b9400000 	ldr	w0, [x0]
  402f4c:	51001001 	sub	w1, w0, #0x4
  402f50:	d00000e0 	adrp	x0, 420000 <__libc_start_main@GLIBC_2.34>
  402f54:	9100b000 	add	x0, x0, #0x2c
  402f58:	b9000001 	str	w1, [x0]
  402f5c:	f9446be1 	ldr	x1, [sp, #2256]
  402f60:	f94467e0 	ldr	x0, [sp, #2248]
  402f64:	8b000020 	add	x0, x1, x0
  402f68:	f90463e0 	str	x0, [sp, #2240]
  402f6c:	d00000e0 	adrp	x0, 420000 <__libc_start_main@GLIBC_2.34>
  402f70:	9101e000 	add	x0, x0, #0x78
  402f74:	b9400001 	ldr	w1, [x0]
  402f78:	d00000e0 	adrp	x0, 420000 <__libc_start_main@GLIBC_2.34>
  402f7c:	91020000 	add	x0, x0, #0x80
  402f80:	93407c21 	sxtw	x1, w1
  402f84:	f9446be2 	ldr	x2, [sp, #2256]
  402f88:	f8217802 	str	x2, [x0, x1, lsl #3]
  402f8c:	d00000e0 	adrp	x0, 420000 <__libc_start_main@GLIBC_2.34>
  402f90:	9101e000 	add	x0, x0, #0x78
  402f94:	b9400000 	ldr	w0, [x0]
  402f98:	11000401 	add	w1, w0, #0x1
  402f9c:	d00000e0 	adrp	x0, 420000 <__libc_start_main@GLIBC_2.34>
  402fa0:	91020000 	add	x0, x0, #0x80
  402fa4:	93407c21 	sxtw	x1, w1
  402fa8:	f94467e2 	ldr	x2, [sp, #2248]
  402fac:	f8217802 	str	x2, [x0, x1, lsl #3]
  402fb0:	d00000e0 	adrp	x0, 420000 <__libc_start_main@GLIBC_2.34>
  402fb4:	9101e000 	add	x0, x0, #0x78
  402fb8:	b9400000 	ldr	w0, [x0]
  402fbc:	11000801 	add	w1, w0, #0x2
  402fc0:	d00000e0 	adrp	x0, 420000 <__libc_start_main@GLIBC_2.34>
  402fc4:	91020000 	add	x0, x0, #0x80
  402fc8:	93407c21 	sxtw	x1, w1
  402fcc:	f94463e2 	ldr	x2, [sp, #2240]
  402fd0:	f8217802 	str	x2, [x0, x1, lsl #3]
  402fd4:	d00000e0 	adrp	x0, 420000 <__libc_start_main@GLIBC_2.34>
  402fd8:	9101e000 	add	x0, x0, #0x78
  402fdc:	b9400000 	ldr	w0, [x0]
  402fe0:	11000c01 	add	w1, w0, #0x3
  402fe4:	d00000e0 	adrp	x0, 420000 <__libc_start_main@GLIBC_2.34>
  402fe8:	9101e000 	add	x0, x0, #0x78
  402fec:	b9000001 	str	w1, [x0]
  402ff0:	d00000e0 	adrp	x0, 420000 <__libc_start_main@GLIBC_2.34>
  402ff4:	9100b000 	add	x0, x0, #0x2c
  402ff8:	b9400000 	ldr	w0, [x0]
  402ffc:	7100101f 	cmp	w0, #0x4
  403000:	54000a8d 	b.le	403150 <main+0x2b4c>
  403004:	b00000e0 	adrp	x0, 420000 <__libc_start_main@GLIBC_2.34>
  403008:	9101e000 	add	x0, x0, #0x78
  40300c:	b9400000 	ldr	w0, [x0]
  403010:	71000c1f 	cmp	w0, #0x3
  403014:	540009ec 	b.gt	403150 <main+0x2b4c>
  403018:	b00000e0 	adrp	x0, 420000 <__libc_start_main@GLIBC_2.34>
  40301c:	91014000 	add	x0, x0, #0x50
  403020:	f9400401 	ldr	x1, [x0, #8]
  403024:	b00000e0 	adrp	x0, 420000 <__libc_start_main@GLIBC_2.34>
  403028:	91014000 	add	x0, x0, #0x50
  40302c:	f9401000 	ldr	x0, [x0, #32]
  403030:	eb00003f 	cmp	x1, x0
  403034:	540008e1 	b.ne	403150 <main+0x2b4c>  // b.any
  403038:	b00000e0 	adrp	x0, 420000 <__libc_start_main@GLIBC_2.34>
  40303c:	91014000 	add	x0, x0, #0x50
  403040:	f9400401 	ldr	x1, [x0, #8]
  403044:	b00000e0 	adrp	x0, 420000 <__libc_start_main@GLIBC_2.34>
  403048:	91014000 	add	x0, x0, #0x50
  40304c:	f9400c00 	ldr	x0, [x0, #24]
  403050:	eb00003f 	cmp	x1, x0
  403054:	540007e1 	b.ne	403150 <main+0x2b4c>  // b.any
  403058:	b00000e0 	adrp	x0, 420000 <__libc_start_main@GLIBC_2.34>
  40305c:	91014000 	add	x0, x0, #0x50
  403060:	f9400000 	ldr	x0, [x0]
  403064:	f9045fe0 	str	x0, [sp, #2232]
  403068:	b00000e0 	adrp	x0, 420000 <__libc_start_main@GLIBC_2.34>
  40306c:	91014000 	add	x0, x0, #0x50
  403070:	f9400400 	ldr	x0, [x0, #8]
  403074:	f9045be0 	str	x0, [sp, #2224]
  403078:	f9445be1 	ldr	x1, [sp, #2224]
  40307c:	f9445fe0 	ldr	x0, [sp, #2232]
  403080:	eb00003f 	cmp	x1, x0
  403084:	5400066d 	b.le	403150 <main+0x2b4c>
  403088:	b00000e0 	adrp	x0, 420000 <__libc_start_main@GLIBC_2.34>
  40308c:	91014000 	add	x0, x0, #0x50
  403090:	f9400801 	ldr	x1, [x0, #16]
  403094:	b00000e0 	adrp	x0, 420000 <__libc_start_main@GLIBC_2.34>
  403098:	91014000 	add	x0, x0, #0x50
  40309c:	f9000001 	str	x1, [x0]
  4030a0:	b00000e0 	adrp	x0, 420000 <__libc_start_main@GLIBC_2.34>
  4030a4:	9100b000 	add	x0, x0, #0x2c
  4030a8:	b9400000 	ldr	w0, [x0]
  4030ac:	51001001 	sub	w1, w0, #0x4
  4030b0:	b00000e0 	adrp	x0, 420000 <__libc_start_main@GLIBC_2.34>
  4030b4:	9100b000 	add	x0, x0, #0x2c
  4030b8:	b9000001 	str	w1, [x0]
  4030bc:	f9445fe1 	ldr	x1, [sp, #2232]
  4030c0:	f9445be0 	ldr	x0, [sp, #2224]
  4030c4:	8b000020 	add	x0, x1, x0
  4030c8:	f90457e0 	str	x0, [sp, #2216]
  4030cc:	b00000e0 	adrp	x0, 420000 <__libc_start_main@GLIBC_2.34>
  4030d0:	9101e000 	add	x0, x0, #0x78
  4030d4:	b9400001 	ldr	w1, [x0]
  4030d8:	b00000e0 	adrp	x0, 420000 <__libc_start_main@GLIBC_2.34>
  4030dc:	91020000 	add	x0, x0, #0x80
  4030e0:	93407c21 	sxtw	x1, w1
  4030e4:	f9445fe2 	ldr	x2, [sp, #2232]
  4030e8:	f8217802 	str	x2, [x0, x1, lsl #3]
  4030ec:	b00000e0 	adrp	x0, 420000 <__libc_start_main@GLIBC_2.34>
  4030f0:	9101e000 	add	x0, x0, #0x78
  4030f4:	b9400000 	ldr	w0, [x0]
  4030f8:	11000401 	add	w1, w0, #0x1
  4030fc:	b00000e0 	adrp	x0, 420000 <__libc_start_main@GLIBC_2.34>
  403100:	91020000 	add	x0, x0, #0x80
  403104:	93407c21 	sxtw	x1, w1
  403108:	f9445be2 	ldr	x2, [sp, #2224]
  40310c:	f8217802 	str	x2, [x0, x1, lsl #3]
  403110:	b00000e0 	adrp	x0, 420000 <__libc_start_main@GLIBC_2.34>
  403114:	9101e000 	add	x0, x0, #0x78
  403118:	b9400000 	ldr	w0, [x0]
  40311c:	11000801 	add	w1, w0, #0x2
  403120:	b00000e0 	adrp	x0, 420000 <__libc_start_main@GLIBC_2.34>
  403124:	91020000 	add	x0, x0, #0x80
  403128:	93407c21 	sxtw	x1, w1
  40312c:	f94457e2 	ldr	x2, [sp, #2216]
  403130:	f8217802 	str	x2, [x0, x1, lsl #3]
  403134:	b00000e0 	adrp	x0, 420000 <__libc_start_main@GLIBC_2.34>
  403138:	9101e000 	add	x0, x0, #0x78
  40313c:	b9400000 	ldr	w0, [x0]
  403140:	11000c01 	add	w1, w0, #0x3
  403144:	b00000e0 	adrp	x0, 420000 <__libc_start_main@GLIBC_2.34>
  403148:	9101e000 	add	x0, x0, #0x78
  40314c:	b9000001 	str	w1, [x0]
  403150:	b00000e0 	adrp	x0, 420000 <__libc_start_main@GLIBC_2.34>
  403154:	9100b000 	add	x0, x0, #0x2c
  403158:	b9400000 	ldr	w0, [x0]
  40315c:	7100101f 	cmp	w0, #0x4
  403160:	54000a8d 	b.le	4032b0 <main+0x2cac>
  403164:	b00000e0 	adrp	x0, 420000 <__libc_start_main@GLIBC_2.34>
  403168:	9101e000 	add	x0, x0, #0x78
  40316c:	b9400000 	ldr	w0, [x0]
  403170:	71000c1f 	cmp	w0, #0x3
  403174:	540009ec 	b.gt	4032b0 <main+0x2cac>
  403178:	b00000e0 	adrp	x0, 420000 <__libc_start_main@GLIBC_2.34>
  40317c:	91014000 	add	x0, x0, #0x50
  403180:	f9400801 	ldr	x1, [x0, #16]
  403184:	b00000e0 	adrp	x0, 420000 <__libc_start_main@GLIBC_2.34>
  403188:	91014000 	add	x0, x0, #0x50
  40318c:	f9400400 	ldr	x0, [x0, #8]
  403190:	eb00003f 	cmp	x1, x0
  403194:	540008e1 	b.ne	4032b0 <main+0x2cac>  // b.any
  403198:	b00000e0 	adrp	x0, 420000 <__libc_start_main@GLIBC_2.34>
  40319c:	91014000 	add	x0, x0, #0x50
  4031a0:	f9400801 	ldr	x1, [x0, #16]
  4031a4:	b00000e0 	adrp	x0, 420000 <__libc_start_main@GLIBC_2.34>
  4031a8:	91014000 	add	x0, x0, #0x50
  4031ac:	f9401000 	ldr	x0, [x0, #32]
  4031b0:	eb00003f 	cmp	x1, x0
  4031b4:	540007e1 	b.ne	4032b0 <main+0x2cac>  // b.any
  4031b8:	b00000e0 	adrp	x0, 420000 <__libc_start_main@GLIBC_2.34>
  4031bc:	91014000 	add	x0, x0, #0x50
  4031c0:	f9400000 	ldr	x0, [x0]
  4031c4:	f90453e0 	str	x0, [sp, #2208]
  4031c8:	b00000e0 	adrp	x0, 420000 <__libc_start_main@GLIBC_2.34>
  4031cc:	91014000 	add	x0, x0, #0x50
  4031d0:	f9400800 	ldr	x0, [x0, #16]
  4031d4:	f9044fe0 	str	x0, [sp, #2200]
  4031d8:	f9444fe1 	ldr	x1, [sp, #2200]
  4031dc:	f94453e0 	ldr	x0, [sp, #2208]
  4031e0:	eb00003f 	cmp	x1, x0
  4031e4:	5400066d 	b.le	4032b0 <main+0x2cac>
  4031e8:	b00000e0 	adrp	x0, 420000 <__libc_start_main@GLIBC_2.34>
  4031ec:	91014000 	add	x0, x0, #0x50
  4031f0:	f9400c01 	ldr	x1, [x0, #24]
  4031f4:	b00000e0 	adrp	x0, 420000 <__libc_start_main@GLIBC_2.34>
  4031f8:	91014000 	add	x0, x0, #0x50
  4031fc:	f9000001 	str	x1, [x0]
  403200:	b00000e0 	adrp	x0, 420000 <__libc_start_main@GLIBC_2.34>
  403204:	9100b000 	add	x0, x0, #0x2c
  403208:	b9400000 	ldr	w0, [x0]
  40320c:	51001001 	sub	w1, w0, #0x4
  403210:	b00000e0 	adrp	x0, 420000 <__libc_start_main@GLIBC_2.34>
  403214:	9100b000 	add	x0, x0, #0x2c
  403218:	b9000001 	str	w1, [x0]
  40321c:	f94453e1 	ldr	x1, [sp, #2208]
  403220:	f9444fe0 	ldr	x0, [sp, #2200]
  403224:	8b000020 	add	x0, x1, x0
  403228:	f9044be0 	str	x0, [sp, #2192]
  40322c:	b00000e0 	adrp	x0, 420000 <__libc_start_main@GLIBC_2.34>
  403230:	9101e000 	add	x0, x0, #0x78
  403234:	b9400001 	ldr	w1, [x0]
  403238:	b00000e0 	adrp	x0, 420000 <__libc_start_main@GLIBC_2.34>
  40323c:	91020000 	add	x0, x0, #0x80
  403240:	93407c21 	sxtw	x1, w1
  403244:	f94453e2 	ldr	x2, [sp, #2208]
  403248:	f8217802 	str	x2, [x0, x1, lsl #3]
  40324c:	b00000e0 	adrp	x0, 420000 <__libc_start_main@GLIBC_2.34>
  403250:	9101e000 	add	x0, x0, #0x78
  403254:	b9400000 	ldr	w0, [x0]
  403258:	11000401 	add	w1, w0, #0x1
  40325c:	b00000e0 	adrp	x0, 420000 <__libc_start_main@GLIBC_2.34>
  403260:	91020000 	add	x0, x0, #0x80
  403264:	93407c21 	sxtw	x1, w1
  403268:	f9444fe2 	ldr	x2, [sp, #2200]
  40326c:	f8217802 	str	x2, [x0, x1, lsl #3]
  403270:	b00000e0 	adrp	x0, 420000 <__libc_start_main@GLIBC_2.34>
  403274:	9101e000 	add	x0, x0, #0x78
  403278:	b9400000 	ldr	w0, [x0]
  40327c:	11000801 	add	w1, w0, #0x2
  403280:	b00000e0 	adrp	x0, 420000 <__libc_start_main@GLIBC_2.34>
  403284:	91020000 	add	x0, x0, #0x80
  403288:	93407c21 	sxtw	x1, w1
  40328c:	f9444be2 	ldr	x2, [sp, #2192]
  403290:	f8217802 	str	x2, [x0, x1, lsl #3]
  403294:	b00000e0 	adrp	x0, 420000 <__libc_start_main@GLIBC_2.34>
  403298:	9101e000 	add	x0, x0, #0x78
  40329c:	b9400000 	ldr	w0, [x0]
  4032a0:	11000c01 	add	w1, w0, #0x3
  4032a4:	b00000e0 	adrp	x0, 420000 <__libc_start_main@GLIBC_2.34>
  4032a8:	9101e000 	add	x0, x0, #0x78
  4032ac:	b9000001 	str	w1, [x0]
  4032b0:	b00000e0 	adrp	x0, 420000 <__libc_start_main@GLIBC_2.34>
  4032b4:	9100b000 	add	x0, x0, #0x2c
  4032b8:	b9400000 	ldr	w0, [x0]
  4032bc:	7100101f 	cmp	w0, #0x4
  4032c0:	54000a8d 	b.le	403410 <main+0x2e0c>
  4032c4:	b00000e0 	adrp	x0, 420000 <__libc_start_main@GLIBC_2.34>
  4032c8:	9101e000 	add	x0, x0, #0x78
  4032cc:	b9400000 	ldr	w0, [x0]
  4032d0:	71000c1f 	cmp	w0, #0x3
  4032d4:	540009ec 	b.gt	403410 <main+0x2e0c>
  4032d8:	b00000e0 	adrp	x0, 420000 <__libc_start_main@GLIBC_2.34>
  4032dc:	91014000 	add	x0, x0, #0x50
  4032e0:	f9400801 	ldr	x1, [x0, #16]
  4032e4:	b00000e0 	adrp	x0, 420000 <__libc_start_main@GLIBC_2.34>
  4032e8:	91014000 	add	x0, x0, #0x50
  4032ec:	f9400c00 	ldr	x0, [x0, #24]
  4032f0:	eb00003f 	cmp	x1, x0
  4032f4:	540008e1 	b.ne	403410 <main+0x2e0c>  // b.any
  4032f8:	b00000e0 	adrp	x0, 420000 <__libc_start_main@GLIBC_2.34>
  4032fc:	91014000 	add	x0, x0, #0x50
  403300:	f9400801 	ldr	x1, [x0, #16]
  403304:	b00000e0 	adrp	x0, 420000 <__libc_start_main@GLIBC_2.34>
  403308:	91014000 	add	x0, x0, #0x50
  40330c:	f9401000 	ldr	x0, [x0, #32]
  403310:	eb00003f 	cmp	x1, x0
  403314:	540007e1 	b.ne	403410 <main+0x2e0c>  // b.any
  403318:	b00000e0 	adrp	x0, 420000 <__libc_start_main@GLIBC_2.34>
  40331c:	91014000 	add	x0, x0, #0x50
  403320:	f9400000 	ldr	x0, [x0]
  403324:	f90447e0 	str	x0, [sp, #2184]
  403328:	b00000e0 	adrp	x0, 420000 <__libc_start_main@GLIBC_2.34>
  40332c:	91014000 	add	x0, x0, #0x50
  403330:	f9400800 	ldr	x0, [x0, #16]
  403334:	f90443e0 	str	x0, [sp, #2176]
  403338:	f94443e1 	ldr	x1, [sp, #2176]
  40333c:	f94447e0 	ldr	x0, [sp, #2184]
  403340:	eb00003f 	cmp	x1, x0
  403344:	5400066d 	b.le	403410 <main+0x2e0c>
  403348:	b00000e0 	adrp	x0, 420000 <__libc_start_main@GLIBC_2.34>
  40334c:	91014000 	add	x0, x0, #0x50
  403350:	f9400401 	ldr	x1, [x0, #8]
  403354:	b00000e0 	adrp	x0, 420000 <__libc_start_main@GLIBC_2.34>
  403358:	91014000 	add	x0, x0, #0x50
  40335c:	f9000001 	str	x1, [x0]
  403360:	b00000e0 	adrp	x0, 420000 <__libc_start_main@GLIBC_2.34>
  403364:	9100b000 	add	x0, x0, #0x2c
  403368:	b9400000 	ldr	w0, [x0]
  40336c:	51001001 	sub	w1, w0, #0x4
  403370:	b00000e0 	adrp	x0, 420000 <__libc_start_main@GLIBC_2.34>
  403374:	9100b000 	add	x0, x0, #0x2c
  403378:	b9000001 	str	w1, [x0]
  40337c:	f94447e1 	ldr	x1, [sp, #2184]
  403380:	f94443e0 	ldr	x0, [sp, #2176]
  403384:	8b000020 	add	x0, x1, x0
  403388:	f9043fe0 	str	x0, [sp, #2168]
  40338c:	b00000e0 	adrp	x0, 420000 <__libc_start_main@GLIBC_2.34>
  403390:	9101e000 	add	x0, x0, #0x78
  403394:	b9400001 	ldr	w1, [x0]
  403398:	b00000e0 	adrp	x0, 420000 <__libc_start_main@GLIBC_2.34>
  40339c:	91020000 	add	x0, x0, #0x80
  4033a0:	93407c21 	sxtw	x1, w1
  4033a4:	f94447e2 	ldr	x2, [sp, #2184]
  4033a8:	f8217802 	str	x2, [x0, x1, lsl #3]
  4033ac:	b00000e0 	adrp	x0, 420000 <__libc_start_main@GLIBC_2.34>
  4033b0:	9101e000 	add	x0, x0, #0x78
  4033b4:	b9400000 	ldr	w0, [x0]
  4033b8:	11000401 	add	w1, w0, #0x1
  4033bc:	b00000e0 	adrp	x0, 420000 <__libc_start_main@GLIBC_2.34>
  4033c0:	91020000 	add	x0, x0, #0x80
  4033c4:	93407c21 	sxtw	x1, w1
  4033c8:	f94443e2 	ldr	x2, [sp, #2176]
  4033cc:	f8217802 	str	x2, [x0, x1, lsl #3]
  4033d0:	b00000e0 	adrp	x0, 420000 <__libc_start_main@GLIBC_2.34>
  4033d4:	9101e000 	add	x0, x0, #0x78
  4033d8:	b9400000 	ldr	w0, [x0]
  4033dc:	11000801 	add	w1, w0, #0x2
  4033e0:	b00000e0 	adrp	x0, 420000 <__libc_start_main@GLIBC_2.34>
  4033e4:	91020000 	add	x0, x0, #0x80
  4033e8:	93407c21 	sxtw	x1, w1
  4033ec:	f9443fe2 	ldr	x2, [sp, #2168]
  4033f0:	f8217802 	str	x2, [x0, x1, lsl #3]
  4033f4:	b00000e0 	adrp	x0, 420000 <__libc_start_main@GLIBC_2.34>
  4033f8:	9101e000 	add	x0, x0, #0x78
  4033fc:	b9400000 	ldr	w0, [x0]
  403400:	11000c01 	add	w1, w0, #0x3
  403404:	b00000e0 	adrp	x0, 420000 <__libc_start_main@GLIBC_2.34>
  403408:	9101e000 	add	x0, x0, #0x78
  40340c:	b9000001 	str	w1, [x0]
  403410:	b00000e0 	adrp	x0, 420000 <__libc_start_main@GLIBC_2.34>
  403414:	9100b000 	add	x0, x0, #0x2c
  403418:	b9400000 	ldr	w0, [x0]
  40341c:	7100101f 	cmp	w0, #0x4
  403420:	54000a8d 	b.le	403570 <main+0x2f6c>
  403424:	b00000e0 	adrp	x0, 420000 <__libc_start_main@GLIBC_2.34>
  403428:	9101e000 	add	x0, x0, #0x78
  40342c:	b9400000 	ldr	w0, [x0]
  403430:	71000c1f 	cmp	w0, #0x3
  403434:	540009ec 	b.gt	403570 <main+0x2f6c>
  403438:	b00000e0 	adrp	x0, 420000 <__libc_start_main@GLIBC_2.34>
  40343c:	91014000 	add	x0, x0, #0x50
  403440:	f9400801 	ldr	x1, [x0, #16]
  403444:	b00000e0 	adrp	x0, 420000 <__libc_start_main@GLIBC_2.34>
  403448:	91014000 	add	x0, x0, #0x50
  40344c:	f9401000 	ldr	x0, [x0, #32]
  403450:	eb00003f 	cmp	x1, x0
  403454:	540008e1 	b.ne	403570 <main+0x2f6c>  // b.any
  403458:	b00000e0 	adrp	x0, 420000 <__libc_start_main@GLIBC_2.34>
  40345c:	91014000 	add	x0, x0, #0x50
  403460:	f9400801 	ldr	x1, [x0, #16]
  403464:	b00000e0 	adrp	x0, 420000 <__libc_start_main@GLIBC_2.34>
  403468:	91014000 	add	x0, x0, #0x50
  40346c:	f9400400 	ldr	x0, [x0, #8]
  403470:	eb00003f 	cmp	x1, x0
  403474:	540007e1 	b.ne	403570 <main+0x2f6c>  // b.any
  403478:	b00000e0 	adrp	x0, 420000 <__libc_start_main@GLIBC_2.34>
  40347c:	91014000 	add	x0, x0, #0x50
  403480:	f9400000 	ldr	x0, [x0]
  403484:	f9043be0 	str	x0, [sp, #2160]
  403488:	b00000e0 	adrp	x0, 420000 <__libc_start_main@GLIBC_2.34>
  40348c:	91014000 	add	x0, x0, #0x50
  403490:	f9400800 	ldr	x0, [x0, #16]
  403494:	f90437e0 	str	x0, [sp, #2152]
  403498:	f94437e1 	ldr	x1, [sp, #2152]
  40349c:	f9443be0 	ldr	x0, [sp, #2160]
  4034a0:	eb00003f 	cmp	x1, x0
  4034a4:	5400066d 	b.le	403570 <main+0x2f6c>
  4034a8:	b00000e0 	adrp	x0, 420000 <__libc_start_main@GLIBC_2.34>
  4034ac:	91014000 	add	x0, x0, #0x50
  4034b0:	f9400c01 	ldr	x1, [x0, #24]
  4034b4:	b00000e0 	adrp	x0, 420000 <__libc_start_main@GLIBC_2.34>
  4034b8:	91014000 	add	x0, x0, #0x50
  4034bc:	f9000001 	str	x1, [x0]
  4034c0:	b00000e0 	adrp	x0, 420000 <__libc_start_main@GLIBC_2.34>
  4034c4:	9100b000 	add	x0, x0, #0x2c
  4034c8:	b9400000 	ldr	w0, [x0]
  4034cc:	51001001 	sub	w1, w0, #0x4
  4034d0:	b00000e0 	adrp	x0, 420000 <__libc_start_main@GLIBC_2.34>
  4034d4:	9100b000 	add	x0, x0, #0x2c
  4034d8:	b9000001 	str	w1, [x0]
  4034dc:	f9443be1 	ldr	x1, [sp, #2160]
  4034e0:	f94437e0 	ldr	x0, [sp, #2152]
  4034e4:	8b000020 	add	x0, x1, x0
  4034e8:	f90433e0 	str	x0, [sp, #2144]
  4034ec:	b00000e0 	adrp	x0, 420000 <__libc_start_main@GLIBC_2.34>
  4034f0:	9101e000 	add	x0, x0, #0x78
  4034f4:	b9400001 	ldr	w1, [x0]
  4034f8:	b00000e0 	adrp	x0, 420000 <__libc_start_main@GLIBC_2.34>
  4034fc:	91020000 	add	x0, x0, #0x80
  403500:	93407c21 	sxtw	x1, w1
  403504:	f9443be2 	ldr	x2, [sp, #2160]
  403508:	f8217802 	str	x2, [x0, x1, lsl #3]
  40350c:	b00000e0 	adrp	x0, 420000 <__libc_start_main@GLIBC_2.34>
  403510:	9101e000 	add	x0, x0, #0x78
  403514:	b9400000 	ldr	w0, [x0]
  403518:	11000401 	add	w1, w0, #0x1
  40351c:	b00000e0 	adrp	x0, 420000 <__libc_start_main@GLIBC_2.34>
  403520:	91020000 	add	x0, x0, #0x80
  403524:	93407c21 	sxtw	x1, w1
  403528:	f94437e2 	ldr	x2, [sp, #2152]
  40352c:	f8217802 	str	x2, [x0, x1, lsl #3]
  403530:	b00000e0 	adrp	x0, 420000 <__libc_start_main@GLIBC_2.34>
  403534:	9101e000 	add	x0, x0, #0x78
  403538:	b9400000 	ldr	w0, [x0]
  40353c:	11000801 	add	w1, w0, #0x2
  403540:	b00000e0 	adrp	x0, 420000 <__libc_start_main@GLIBC_2.34>
  403544:	91020000 	add	x0, x0, #0x80
  403548:	93407c21 	sxtw	x1, w1
  40354c:	f94433e2 	ldr	x2, [sp, #2144]
  403550:	f8217802 	str	x2, [x0, x1, lsl #3]
  403554:	b00000e0 	adrp	x0, 420000 <__libc_start_main@GLIBC_2.34>
  403558:	9101e000 	add	x0, x0, #0x78
  40355c:	b9400000 	ldr	w0, [x0]
  403560:	11000c01 	add	w1, w0, #0x3
  403564:	b00000e0 	adrp	x0, 420000 <__libc_start_main@GLIBC_2.34>
  403568:	9101e000 	add	x0, x0, #0x78
  40356c:	b9000001 	str	w1, [x0]
  403570:	b00000e0 	adrp	x0, 420000 <__libc_start_main@GLIBC_2.34>
  403574:	9100b000 	add	x0, x0, #0x2c
  403578:	b9400000 	ldr	w0, [x0]
  40357c:	7100101f 	cmp	w0, #0x4
  403580:	54000a8d 	b.le	4036d0 <main+0x30cc>
  403584:	b00000e0 	adrp	x0, 420000 <__libc_start_main@GLIBC_2.34>
  403588:	9101e000 	add	x0, x0, #0x78
  40358c:	b9400000 	ldr	w0, [x0]
  403590:	71000c1f 	cmp	w0, #0x3
  403594:	540009ec 	b.gt	4036d0 <main+0x30cc>
  403598:	b00000e0 	adrp	x0, 420000 <__libc_start_main@GLIBC_2.34>
  40359c:	91014000 	add	x0, x0, #0x50
  4035a0:	f9400801 	ldr	x1, [x0, #16]
  4035a4:	b00000e0 	adrp	x0, 420000 <__libc_start_main@GLIBC_2.34>
  4035a8:	91014000 	add	x0, x0, #0x50
  4035ac:	f9401000 	ldr	x0, [x0, #32]
  4035b0:	eb00003f 	cmp	x1, x0
  4035b4:	540008e1 	b.ne	4036d0 <main+0x30cc>  // b.any
  4035b8:	b00000e0 	adrp	x0, 420000 <__libc_start_main@GLIBC_2.34>
  4035bc:	91014000 	add	x0, x0, #0x50
  4035c0:	f9400801 	ldr	x1, [x0, #16]
  4035c4:	b00000e0 	adrp	x0, 420000 <__libc_start_main@GLIBC_2.34>
  4035c8:	91014000 	add	x0, x0, #0x50
  4035cc:	f9400c00 	ldr	x0, [x0, #24]
  4035d0:	eb00003f 	cmp	x1, x0
  4035d4:	540007e1 	b.ne	4036d0 <main+0x30cc>  // b.any
  4035d8:	b00000e0 	adrp	x0, 420000 <__libc_start_main@GLIBC_2.34>
  4035dc:	91014000 	add	x0, x0, #0x50
  4035e0:	f9400000 	ldr	x0, [x0]
  4035e4:	f9042fe0 	str	x0, [sp, #2136]
  4035e8:	b00000e0 	adrp	x0, 420000 <__libc_start_main@GLIBC_2.34>
  4035ec:	91014000 	add	x0, x0, #0x50
  4035f0:	f9400800 	ldr	x0, [x0, #16]
  4035f4:	f9042be0 	str	x0, [sp, #2128]
  4035f8:	f9442be1 	ldr	x1, [sp, #2128]
  4035fc:	f9442fe0 	ldr	x0, [sp, #2136]
  403600:	eb00003f 	cmp	x1, x0
  403604:	5400066d 	b.le	4036d0 <main+0x30cc>
  403608:	b00000e0 	adrp	x0, 420000 <__libc_start_main@GLIBC_2.34>
  40360c:	91014000 	add	x0, x0, #0x50
  403610:	f9400401 	ldr	x1, [x0, #8]
  403614:	b00000e0 	adrp	x0, 420000 <__libc_start_main@GLIBC_2.34>
  403618:	91014000 	add	x0, x0, #0x50
  40361c:	f9000001 	str	x1, [x0]
  403620:	b00000e0 	adrp	x0, 420000 <__libc_start_main@GLIBC_2.34>
  403624:	9100b000 	add	x0, x0, #0x2c
  403628:	b9400000 	ldr	w0, [x0]
  40362c:	51001001 	sub	w1, w0, #0x4
  403630:	b00000e0 	adrp	x0, 420000 <__libc_start_main@GLIBC_2.34>
  403634:	9100b000 	add	x0, x0, #0x2c
  403638:	b9000001 	str	w1, [x0]
  40363c:	f9442fe1 	ldr	x1, [sp, #2136]
  403640:	f9442be0 	ldr	x0, [sp, #2128]
  403644:	8b000020 	add	x0, x1, x0
  403648:	f90427e0 	str	x0, [sp, #2120]
  40364c:	b00000e0 	adrp	x0, 420000 <__libc_start_main@GLIBC_2.34>
  403650:	9101e000 	add	x0, x0, #0x78
  403654:	b9400001 	ldr	w1, [x0]
  403658:	b00000e0 	adrp	x0, 420000 <__libc_start_main@GLIBC_2.34>
  40365c:	91020000 	add	x0, x0, #0x80
  403660:	93407c21 	sxtw	x1, w1
  403664:	f9442fe2 	ldr	x2, [sp, #2136]
  403668:	f8217802 	str	x2, [x0, x1, lsl #3]
  40366c:	b00000e0 	adrp	x0, 420000 <__libc_start_main@GLIBC_2.34>
  403670:	9101e000 	add	x0, x0, #0x78
  403674:	b9400000 	ldr	w0, [x0]
  403678:	11000401 	add	w1, w0, #0x1
  40367c:	b00000e0 	adrp	x0, 420000 <__libc_start_main@GLIBC_2.34>
  403680:	91020000 	add	x0, x0, #0x80
  403684:	93407c21 	sxtw	x1, w1
  403688:	f9442be2 	ldr	x2, [sp, #2128]
  40368c:	f8217802 	str	x2, [x0, x1, lsl #3]
  403690:	b00000e0 	adrp	x0, 420000 <__libc_start_main@GLIBC_2.34>
  403694:	9101e000 	add	x0, x0, #0x78
  403698:	b9400000 	ldr	w0, [x0]
  40369c:	11000801 	add	w1, w0, #0x2
  4036a0:	b00000e0 	adrp	x0, 420000 <__libc_start_main@GLIBC_2.34>
  4036a4:	91020000 	add	x0, x0, #0x80
  4036a8:	93407c21 	sxtw	x1, w1
  4036ac:	f94427e2 	ldr	x2, [sp, #2120]
  4036b0:	f8217802 	str	x2, [x0, x1, lsl #3]
  4036b4:	b00000e0 	adrp	x0, 420000 <__libc_start_main@GLIBC_2.34>
  4036b8:	9101e000 	add	x0, x0, #0x78
  4036bc:	b9400000 	ldr	w0, [x0]
  4036c0:	11000c01 	add	w1, w0, #0x3
  4036c4:	b00000e0 	adrp	x0, 420000 <__libc_start_main@GLIBC_2.34>
  4036c8:	9101e000 	add	x0, x0, #0x78
  4036cc:	b9000001 	str	w1, [x0]
  4036d0:	b00000e0 	adrp	x0, 420000 <__libc_start_main@GLIBC_2.34>
  4036d4:	9100b000 	add	x0, x0, #0x2c
  4036d8:	b9400000 	ldr	w0, [x0]
  4036dc:	7100101f 	cmp	w0, #0x4
  4036e0:	54000a8d 	b.le	403830 <main+0x322c>
  4036e4:	b00000e0 	adrp	x0, 420000 <__libc_start_main@GLIBC_2.34>
  4036e8:	9101e000 	add	x0, x0, #0x78
  4036ec:	b9400000 	ldr	w0, [x0]
  4036f0:	71000c1f 	cmp	w0, #0x3
  4036f4:	540009ec 	b.gt	403830 <main+0x322c>
  4036f8:	b00000e0 	adrp	x0, 420000 <__libc_start_main@GLIBC_2.34>
  4036fc:	91014000 	add	x0, x0, #0x50
  403700:	f9400c01 	ldr	x1, [x0, #24]
  403704:	b00000e0 	adrp	x0, 420000 <__libc_start_main@GLIBC_2.34>
  403708:	91014000 	add	x0, x0, #0x50
  40370c:	f9400400 	ldr	x0, [x0, #8]
  403710:	eb00003f 	cmp	x1, x0
  403714:	540008e1 	b.ne	403830 <main+0x322c>  // b.any
  403718:	b00000e0 	adrp	x0, 420000 <__libc_start_main@GLIBC_2.34>
  40371c:	91014000 	add	x0, x0, #0x50
  403720:	f9400c01 	ldr	x1, [x0, #24]
  403724:	b00000e0 	adrp	x0, 420000 <__libc_start_main@GLIBC_2.34>
  403728:	91014000 	add	x0, x0, #0x50
  40372c:	f9401000 	ldr	x0, [x0, #32]
  403730:	eb00003f 	cmp	x1, x0
  403734:	540007e1 	b.ne	403830 <main+0x322c>  // b.any
  403738:	b00000e0 	adrp	x0, 420000 <__libc_start_main@GLIBC_2.34>
  40373c:	91014000 	add	x0, x0, #0x50
  403740:	f9400000 	ldr	x0, [x0]
  403744:	f90423e0 	str	x0, [sp, #2112]
  403748:	b00000e0 	adrp	x0, 420000 <__libc_start_main@GLIBC_2.34>
  40374c:	91014000 	add	x0, x0, #0x50
  403750:	f9400c00 	ldr	x0, [x0, #24]
  403754:	f9041fe0 	str	x0, [sp, #2104]
  403758:	f9441fe1 	ldr	x1, [sp, #2104]
  40375c:	f94423e0 	ldr	x0, [sp, #2112]
  403760:	eb00003f 	cmp	x1, x0
  403764:	5400066d 	b.le	403830 <main+0x322c>
  403768:	b00000e0 	adrp	x0, 420000 <__libc_start_main@GLIBC_2.34>
  40376c:	91014000 	add	x0, x0, #0x50
  403770:	f9400801 	ldr	x1, [x0, #16]
  403774:	b00000e0 	adrp	x0, 420000 <__libc_start_main@GLIBC_2.34>
  403778:	91014000 	add	x0, x0, #0x50
  40377c:	f9000001 	str	x1, [x0]
  403780:	b00000e0 	adrp	x0, 420000 <__libc_start_main@GLIBC_2.34>
  403784:	9100b000 	add	x0, x0, #0x2c
  403788:	b9400000 	ldr	w0, [x0]
  40378c:	51001001 	sub	w1, w0, #0x4
  403790:	b00000e0 	adrp	x0, 420000 <__libc_start_main@GLIBC_2.34>
  403794:	9100b000 	add	x0, x0, #0x2c
  403798:	b9000001 	str	w1, [x0]
  40379c:	f94423e1 	ldr	x1, [sp, #2112]
  4037a0:	f9441fe0 	ldr	x0, [sp, #2104]
  4037a4:	8b000020 	add	x0, x1, x0
  4037a8:	f9041be0 	str	x0, [sp, #2096]
  4037ac:	b00000e0 	adrp	x0, 420000 <__libc_start_main@GLIBC_2.34>
  4037b0:	9101e000 	add	x0, x0, #0x78
  4037b4:	b9400001 	ldr	w1, [x0]
  4037b8:	b00000e0 	adrp	x0, 420000 <__libc_start_main@GLIBC_2.34>
  4037bc:	91020000 	add	x0, x0, #0x80
  4037c0:	93407c21 	sxtw	x1, w1
  4037c4:	f94423e2 	ldr	x2, [sp, #2112]
  4037c8:	f8217802 	str	x2, [x0, x1, lsl #3]
  4037cc:	b00000e0 	adrp	x0, 420000 <__libc_start_main@GLIBC_2.34>
  4037d0:	9101e000 	add	x0, x0, #0x78
  4037d4:	b9400000 	ldr	w0, [x0]
  4037d8:	11000401 	add	w1, w0, #0x1
  4037dc:	b00000e0 	adrp	x0, 420000 <__libc_start_main@GLIBC_2.34>
  4037e0:	91020000 	add	x0, x0, #0x80
  4037e4:	93407c21 	sxtw	x1, w1
  4037e8:	f9441fe2 	ldr	x2, [sp, #2104]
  4037ec:	f8217802 	str	x2, [x0, x1, lsl #3]
  4037f0:	b00000e0 	adrp	x0, 420000 <__libc_start_main@GLIBC_2.34>
  4037f4:	9101e000 	add	x0, x0, #0x78
  4037f8:	b9400000 	ldr	w0, [x0]
  4037fc:	11000801 	add	w1, w0, #0x2
  403800:	b00000e0 	adrp	x0, 420000 <__libc_start_main@GLIBC_2.34>
  403804:	91020000 	add	x0, x0, #0x80
  403808:	93407c21 	sxtw	x1, w1
  40380c:	f9441be2 	ldr	x2, [sp, #2096]
  403810:	f8217802 	str	x2, [x0, x1, lsl #3]
  403814:	b00000e0 	adrp	x0, 420000 <__libc_start_main@GLIBC_2.34>
  403818:	9101e000 	add	x0, x0, #0x78
  40381c:	b9400000 	ldr	w0, [x0]
  403820:	11000c01 	add	w1, w0, #0x3
  403824:	b00000e0 	adrp	x0, 420000 <__libc_start_main@GLIBC_2.34>
  403828:	9101e000 	add	x0, x0, #0x78
  40382c:	b9000001 	str	w1, [x0]
  403830:	b00000e0 	adrp	x0, 420000 <__libc_start_main@GLIBC_2.34>
  403834:	9100b000 	add	x0, x0, #0x2c
  403838:	b9400000 	ldr	w0, [x0]
  40383c:	7100101f 	cmp	w0, #0x4
  403840:	54000a8d 	b.le	403990 <main+0x338c>
  403844:	b00000e0 	adrp	x0, 420000 <__libc_start_main@GLIBC_2.34>
  403848:	9101e000 	add	x0, x0, #0x78
  40384c:	b9400000 	ldr	w0, [x0]
  403850:	71000c1f 	cmp	w0, #0x3
  403854:	540009ec 	b.gt	403990 <main+0x338c>
  403858:	b00000e0 	adrp	x0, 420000 <__libc_start_main@GLIBC_2.34>
  40385c:	91014000 	add	x0, x0, #0x50
  403860:	f9400c01 	ldr	x1, [x0, #24]
  403864:	b00000e0 	adrp	x0, 420000 <__libc_start_main@GLIBC_2.34>
  403868:	91014000 	add	x0, x0, #0x50
  40386c:	f9400800 	ldr	x0, [x0, #16]
  403870:	eb00003f 	cmp	x1, x0
  403874:	540008e1 	b.ne	403990 <main+0x338c>  // b.any
  403878:	b00000e0 	adrp	x0, 420000 <__libc_start_main@GLIBC_2.34>
  40387c:	91014000 	add	x0, x0, #0x50
  403880:	f9400c01 	ldr	x1, [x0, #24]
  403884:	b00000e0 	adrp	x0, 420000 <__libc_start_main@GLIBC_2.34>
  403888:	91014000 	add	x0, x0, #0x50
  40388c:	f9401000 	ldr	x0, [x0, #32]
  403890:	eb00003f 	cmp	x1, x0
  403894:	540007e1 	b.ne	403990 <main+0x338c>  // b.any
  403898:	b00000e0 	adrp	x0, 420000 <__libc_start_main@GLIBC_2.34>
  40389c:	91014000 	add	x0, x0, #0x50
  4038a0:	f9400000 	ldr	x0, [x0]
  4038a4:	f90417e0 	str	x0, [sp, #2088]
  4038a8:	b00000e0 	adrp	x0, 420000 <__libc_start_main@GLIBC_2.34>
  4038ac:	91014000 	add	x0, x0, #0x50
  4038b0:	f9400c00 	ldr	x0, [x0, #24]
  4038b4:	f90413e0 	str	x0, [sp, #2080]
  4038b8:	f94413e1 	ldr	x1, [sp, #2080]
  4038bc:	f94417e0 	ldr	x0, [sp, #2088]
  4038c0:	eb00003f 	cmp	x1, x0
  4038c4:	5400066d 	b.le	403990 <main+0x338c>
  4038c8:	b00000e0 	adrp	x0, 420000 <__libc_start_main@GLIBC_2.34>
  4038cc:	91014000 	add	x0, x0, #0x50
  4038d0:	f9400401 	ldr	x1, [x0, #8]
  4038d4:	b00000e0 	adrp	x0, 420000 <__libc_start_main@GLIBC_2.34>
  4038d8:	91014000 	add	x0, x0, #0x50
  4038dc:	f9000001 	str	x1, [x0]
  4038e0:	b00000e0 	adrp	x0, 420000 <__libc_start_main@GLIBC_2.34>
  4038e4:	9100b000 	add	x0, x0, #0x2c
  4038e8:	b9400000 	ldr	w0, [x0]
  4038ec:	51001001 	sub	w1, w0, #0x4
  4038f0:	b00000e0 	adrp	x0, 420000 <__libc_start_main@GLIBC_2.34>
  4038f4:	9100b000 	add	x0, x0, #0x2c
  4038f8:	b9000001 	str	w1, [x0]
  4038fc:	f94417e1 	ldr	x1, [sp, #2088]
  403900:	f94413e0 	ldr	x0, [sp, #2080]
  403904:	8b000020 	add	x0, x1, x0
  403908:	f9040fe0 	str	x0, [sp, #2072]
  40390c:	b00000e0 	adrp	x0, 420000 <__libc_start_main@GLIBC_2.34>
  403910:	9101e000 	add	x0, x0, #0x78
  403914:	b9400001 	ldr	w1, [x0]
  403918:	b00000e0 	adrp	x0, 420000 <__libc_start_main@GLIBC_2.34>
  40391c:	91020000 	add	x0, x0, #0x80
  403920:	93407c21 	sxtw	x1, w1
  403924:	f94417e2 	ldr	x2, [sp, #2088]
  403928:	f8217802 	str	x2, [x0, x1, lsl #3]
  40392c:	b00000e0 	adrp	x0, 420000 <__libc_start_main@GLIBC_2.34>
  403930:	9101e000 	add	x0, x0, #0x78
  403934:	b9400000 	ldr	w0, [x0]
  403938:	11000401 	add	w1, w0, #0x1
  40393c:	b00000e0 	adrp	x0, 420000 <__libc_start_main@GLIBC_2.34>
  403940:	91020000 	add	x0, x0, #0x80
  403944:	93407c21 	sxtw	x1, w1
  403948:	f94413e2 	ldr	x2, [sp, #2080]
  40394c:	f8217802 	str	x2, [x0, x1, lsl #3]
  403950:	b00000e0 	adrp	x0, 420000 <__libc_start_main@GLIBC_2.34>
  403954:	9101e000 	add	x0, x0, #0x78
  403958:	b9400000 	ldr	w0, [x0]
  40395c:	11000801 	add	w1, w0, #0x2
  403960:	b00000e0 	adrp	x0, 420000 <__libc_start_main@GLIBC_2.34>
  403964:	91020000 	add	x0, x0, #0x80
  403968:	93407c21 	sxtw	x1, w1
  40396c:	f9440fe2 	ldr	x2, [sp, #2072]
  403970:	f8217802 	str	x2, [x0, x1, lsl #3]
  403974:	b00000e0 	adrp	x0, 420000 <__libc_start_main@GLIBC_2.34>
  403978:	9101e000 	add	x0, x0, #0x78
  40397c:	b9400000 	ldr	w0, [x0]
  403980:	11000c01 	add	w1, w0, #0x3
  403984:	b00000e0 	adrp	x0, 420000 <__libc_start_main@GLIBC_2.34>
  403988:	9101e000 	add	x0, x0, #0x78
  40398c:	b9000001 	str	w1, [x0]
  403990:	b00000e0 	adrp	x0, 420000 <__libc_start_main@GLIBC_2.34>
  403994:	9100b000 	add	x0, x0, #0x2c
  403998:	b9400000 	ldr	w0, [x0]
  40399c:	7100101f 	cmp	w0, #0x4
  4039a0:	54000a8d 	b.le	403af0 <main+0x34ec>
  4039a4:	b00000e0 	adrp	x0, 420000 <__libc_start_main@GLIBC_2.34>
  4039a8:	9101e000 	add	x0, x0, #0x78
  4039ac:	b9400000 	ldr	w0, [x0]
  4039b0:	71000c1f 	cmp	w0, #0x3
  4039b4:	540009ec 	b.gt	403af0 <main+0x34ec>
  4039b8:	b00000e0 	adrp	x0, 420000 <__libc_start_main@GLIBC_2.34>
  4039bc:	91014000 	add	x0, x0, #0x50
  4039c0:	f9400c01 	ldr	x1, [x0, #24]
  4039c4:	b00000e0 	adrp	x0, 420000 <__libc_start_main@GLIBC_2.34>
  4039c8:	91014000 	add	x0, x0, #0x50
  4039cc:	f9401000 	ldr	x0, [x0, #32]
  4039d0:	eb00003f 	cmp	x1, x0
  4039d4:	540008e1 	b.ne	403af0 <main+0x34ec>  // b.any
  4039d8:	b00000e0 	adrp	x0, 420000 <__libc_start_main@GLIBC_2.34>
  4039dc:	91014000 	add	x0, x0, #0x50
  4039e0:	f9400c01 	ldr	x1, [x0, #24]
  4039e4:	b00000e0 	adrp	x0, 420000 <__libc_start_main@GLIBC_2.34>
  4039e8:	91014000 	add	x0, x0, #0x50
  4039ec:	f9400400 	ldr	x0, [x0, #8]
  4039f0:	eb00003f 	cmp	x1, x0
  4039f4:	540007e1 	b.ne	403af0 <main+0x34ec>  // b.any
  4039f8:	b00000e0 	adrp	x0, 420000 <__libc_start_main@GLIBC_2.34>
  4039fc:	91014000 	add	x0, x0, #0x50
  403a00:	f9400000 	ldr	x0, [x0]
  403a04:	f9040be0 	str	x0, [sp, #2064]
  403a08:	b00000e0 	adrp	x0, 420000 <__libc_start_main@GLIBC_2.34>
  403a0c:	91014000 	add	x0, x0, #0x50
  403a10:	f9400c00 	ldr	x0, [x0, #24]
  403a14:	f90407e0 	str	x0, [sp, #2056]
  403a18:	f94407e1 	ldr	x1, [sp, #2056]
  403a1c:	f9440be0 	ldr	x0, [sp, #2064]
  403a20:	eb00003f 	cmp	x1, x0
  403a24:	5400066d 	b.le	403af0 <main+0x34ec>
  403a28:	b00000e0 	adrp	x0, 420000 <__libc_start_main@GLIBC_2.34>
  403a2c:	91014000 	add	x0, x0, #0x50
  403a30:	f9400801 	ldr	x1, [x0, #16]
  403a34:	b00000e0 	adrp	x0, 420000 <__libc_start_main@GLIBC_2.34>
  403a38:	91014000 	add	x0, x0, #0x50
  403a3c:	f9000001 	str	x1, [x0]
  403a40:	b00000e0 	adrp	x0, 420000 <__libc_start_main@GLIBC_2.34>
  403a44:	9100b000 	add	x0, x0, #0x2c
  403a48:	b9400000 	ldr	w0, [x0]
  403a4c:	51001001 	sub	w1, w0, #0x4
  403a50:	b00000e0 	adrp	x0, 420000 <__libc_start_main@GLIBC_2.34>
  403a54:	9100b000 	add	x0, x0, #0x2c
  403a58:	b9000001 	str	w1, [x0]
  403a5c:	f9440be1 	ldr	x1, [sp, #2064]
  403a60:	f94407e0 	ldr	x0, [sp, #2056]
  403a64:	8b000020 	add	x0, x1, x0
  403a68:	f90403e0 	str	x0, [sp, #2048]
  403a6c:	b00000e0 	adrp	x0, 420000 <__libc_start_main@GLIBC_2.34>
  403a70:	9101e000 	add	x0, x0, #0x78
  403a74:	b9400001 	ldr	w1, [x0]
  403a78:	b00000e0 	adrp	x0, 420000 <__libc_start_main@GLIBC_2.34>
  403a7c:	91020000 	add	x0, x0, #0x80
  403a80:	93407c21 	sxtw	x1, w1
  403a84:	f9440be2 	ldr	x2, [sp, #2064]
  403a88:	f8217802 	str	x2, [x0, x1, lsl #3]
  403a8c:	b00000e0 	adrp	x0, 420000 <__libc_start_main@GLIBC_2.34>
  403a90:	9101e000 	add	x0, x0, #0x78
  403a94:	b9400000 	ldr	w0, [x0]
  403a98:	11000401 	add	w1, w0, #0x1
  403a9c:	b00000e0 	adrp	x0, 420000 <__libc_start_main@GLIBC_2.34>
  403aa0:	91020000 	add	x0, x0, #0x80
  403aa4:	93407c21 	sxtw	x1, w1
  403aa8:	f94407e2 	ldr	x2, [sp, #2056]
  403aac:	f8217802 	str	x2, [x0, x1, lsl #3]
  403ab0:	b00000e0 	adrp	x0, 420000 <__libc_start_main@GLIBC_2.34>
  403ab4:	9101e000 	add	x0, x0, #0x78
  403ab8:	b9400000 	ldr	w0, [x0]
  403abc:	11000801 	add	w1, w0, #0x2
  403ac0:	b00000e0 	adrp	x0, 420000 <__libc_start_main@GLIBC_2.34>
  403ac4:	91020000 	add	x0, x0, #0x80
  403ac8:	93407c21 	sxtw	x1, w1
  403acc:	f94403e2 	ldr	x2, [sp, #2048]
  403ad0:	f8217802 	str	x2, [x0, x1, lsl #3]
  403ad4:	b00000e0 	adrp	x0, 420000 <__libc_start_main@GLIBC_2.34>
  403ad8:	9101e000 	add	x0, x0, #0x78
  403adc:	b9400000 	ldr	w0, [x0]
  403ae0:	11000c01 	add	w1, w0, #0x3
  403ae4:	b00000e0 	adrp	x0, 420000 <__libc_start_main@GLIBC_2.34>
  403ae8:	9101e000 	add	x0, x0, #0x78
  403aec:	b9000001 	str	w1, [x0]
  403af0:	b00000e0 	adrp	x0, 420000 <__libc_start_main@GLIBC_2.34>
  403af4:	9100b000 	add	x0, x0, #0x2c
  403af8:	b9400000 	ldr	w0, [x0]
  403afc:	7100101f 	cmp	w0, #0x4
  403b00:	54000a8d 	b.le	403c50 <main+0x364c>
  403b04:	b00000e0 	adrp	x0, 420000 <__libc_start_main@GLIBC_2.34>
  403b08:	9101e000 	add	x0, x0, #0x78
  403b0c:	b9400000 	ldr	w0, [x0]
  403b10:	71000c1f 	cmp	w0, #0x3
  403b14:	540009ec 	b.gt	403c50 <main+0x364c>
  403b18:	b00000e0 	adrp	x0, 420000 <__libc_start_main@GLIBC_2.34>
  403b1c:	91014000 	add	x0, x0, #0x50
  403b20:	f9400c01 	ldr	x1, [x0, #24]
  403b24:	b00000e0 	adrp	x0, 420000 <__libc_start_main@GLIBC_2.34>
  403b28:	91014000 	add	x0, x0, #0x50
  403b2c:	f9401000 	ldr	x0, [x0, #32]
  403b30:	eb00003f 	cmp	x1, x0
  403b34:	540008e1 	b.ne	403c50 <main+0x364c>  // b.any
  403b38:	b00000e0 	adrp	x0, 420000 <__libc_start_main@GLIBC_2.34>
  403b3c:	91014000 	add	x0, x0, #0x50
  403b40:	f9400c01 	ldr	x1, [x0, #24]
  403b44:	b00000e0 	adrp	x0, 420000 <__libc_start_main@GLIBC_2.34>
  403b48:	91014000 	add	x0, x0, #0x50
  403b4c:	f9400800 	ldr	x0, [x0, #16]
  403b50:	eb00003f 	cmp	x1, x0
  403b54:	540007e1 	b.ne	403c50 <main+0x364c>  // b.any
  403b58:	b00000e0 	adrp	x0, 420000 <__libc_start_main@GLIBC_2.34>
  403b5c:	91014000 	add	x0, x0, #0x50
  403b60:	f9400000 	ldr	x0, [x0]
  403b64:	f903ffe0 	str	x0, [sp, #2040]
  403b68:	b00000e0 	adrp	x0, 420000 <__libc_start_main@GLIBC_2.34>
  403b6c:	91014000 	add	x0, x0, #0x50
  403b70:	f9400c00 	ldr	x0, [x0, #24]
  403b74:	f903fbe0 	str	x0, [sp, #2032]
  403b78:	f943fbe1 	ldr	x1, [sp, #2032]
  403b7c:	f943ffe0 	ldr	x0, [sp, #2040]
  403b80:	eb00003f 	cmp	x1, x0
  403b84:	5400066d 	b.le	403c50 <main+0x364c>
  403b88:	b00000e0 	adrp	x0, 420000 <__libc_start_main@GLIBC_2.34>
  403b8c:	91014000 	add	x0, x0, #0x50
  403b90:	f9400401 	ldr	x1, [x0, #8]
  403b94:	b00000e0 	adrp	x0, 420000 <__libc_start_main@GLIBC_2.34>
  403b98:	91014000 	add	x0, x0, #0x50
  403b9c:	f9000001 	str	x1, [x0]
  403ba0:	b00000e0 	adrp	x0, 420000 <__libc_start_main@GLIBC_2.34>
  403ba4:	9100b000 	add	x0, x0, #0x2c
  403ba8:	b9400000 	ldr	w0, [x0]
  403bac:	51001001 	sub	w1, w0, #0x4
  403bb0:	b00000e0 	adrp	x0, 420000 <__libc_start_main@GLIBC_2.34>
  403bb4:	9100b000 	add	x0, x0, #0x2c
  403bb8:	b9000001 	str	w1, [x0]
  403bbc:	f943ffe1 	ldr	x1, [sp, #2040]
  403bc0:	f943fbe0 	ldr	x0, [sp, #2032]
  403bc4:	8b000020 	add	x0, x1, x0
  403bc8:	f903f7e0 	str	x0, [sp, #2024]
  403bcc:	b00000e0 	adrp	x0, 420000 <__libc_start_main@GLIBC_2.34>
  403bd0:	9101e000 	add	x0, x0, #0x78
  403bd4:	b9400001 	ldr	w1, [x0]
  403bd8:	b00000e0 	adrp	x0, 420000 <__libc_start_main@GLIBC_2.34>
  403bdc:	91020000 	add	x0, x0, #0x80
  403be0:	93407c21 	sxtw	x1, w1
  403be4:	f943ffe2 	ldr	x2, [sp, #2040]
  403be8:	f8217802 	str	x2, [x0, x1, lsl #3]
  403bec:	b00000e0 	adrp	x0, 420000 <__libc_start_main@GLIBC_2.34>
  403bf0:	9101e000 	add	x0, x0, #0x78
  403bf4:	b9400000 	ldr	w0, [x0]
  403bf8:	11000401 	add	w1, w0, #0x1
  403bfc:	b00000e0 	adrp	x0, 420000 <__libc_start_main@GLIBC_2.34>
  403c00:	91020000 	add	x0, x0, #0x80
  403c04:	93407c21 	sxtw	x1, w1
  403c08:	f943fbe2 	ldr	x2, [sp, #2032]
  403c0c:	f8217802 	str	x2, [x0, x1, lsl #3]
  403c10:	b00000e0 	adrp	x0, 420000 <__libc_start_main@GLIBC_2.34>
  403c14:	9101e000 	add	x0, x0, #0x78
  403c18:	b9400000 	ldr	w0, [x0]
  403c1c:	11000801 	add	w1, w0, #0x2
  403c20:	b00000e0 	adrp	x0, 420000 <__libc_start_main@GLIBC_2.34>
  403c24:	91020000 	add	x0, x0, #0x80
  403c28:	93407c21 	sxtw	x1, w1
  403c2c:	f943f7e2 	ldr	x2, [sp, #2024]
  403c30:	f8217802 	str	x2, [x0, x1, lsl #3]
  403c34:	b00000e0 	adrp	x0, 420000 <__libc_start_main@GLIBC_2.34>
  403c38:	9101e000 	add	x0, x0, #0x78
  403c3c:	b9400000 	ldr	w0, [x0]
  403c40:	11000c01 	add	w1, w0, #0x3
  403c44:	b00000e0 	adrp	x0, 420000 <__libc_start_main@GLIBC_2.34>
  403c48:	9101e000 	add	x0, x0, #0x78
  403c4c:	b9000001 	str	w1, [x0]
  403c50:	b00000e0 	adrp	x0, 420000 <__libc_start_main@GLIBC_2.34>
  403c54:	9100b000 	add	x0, x0, #0x2c
  403c58:	b9400000 	ldr	w0, [x0]
  403c5c:	7100101f 	cmp	w0, #0x4
  403c60:	54000a8d 	b.le	403db0 <main+0x37ac>
  403c64:	b00000e0 	adrp	x0, 420000 <__libc_start_main@GLIBC_2.34>
  403c68:	9101e000 	add	x0, x0, #0x78
  403c6c:	b9400000 	ldr	w0, [x0]
  403c70:	71000c1f 	cmp	w0, #0x3
  403c74:	540009ec 	b.gt	403db0 <main+0x37ac>
  403c78:	b00000e0 	adrp	x0, 420000 <__libc_start_main@GLIBC_2.34>
  403c7c:	91014000 	add	x0, x0, #0x50
  403c80:	f9401001 	ldr	x1, [x0, #32]
  403c84:	b00000e0 	adrp	x0, 420000 <__libc_start_main@GLIBC_2.34>
  403c88:	91014000 	add	x0, x0, #0x50
  403c8c:	f9400400 	ldr	x0, [x0, #8]
  403c90:	eb00003f 	cmp	x1, x0
  403c94:	540008e1 	b.ne	403db0 <main+0x37ac>  // b.any
  403c98:	b00000e0 	adrp	x0, 420000 <__libc_start_main@GLIBC_2.34>
  403c9c:	91014000 	add	x0, x0, #0x50
  403ca0:	f9401001 	ldr	x1, [x0, #32]
  403ca4:	b00000e0 	adrp	x0, 420000 <__libc_start_main@GLIBC_2.34>
  403ca8:	91014000 	add	x0, x0, #0x50
  403cac:	f9400800 	ldr	x0, [x0, #16]
  403cb0:	eb00003f 	cmp	x1, x0
  403cb4:	540007e1 	b.ne	403db0 <main+0x37ac>  // b.any
  403cb8:	b00000e0 	adrp	x0, 420000 <__libc_start_main@GLIBC_2.34>
  403cbc:	91014000 	add	x0, x0, #0x50
  403cc0:	f9400000 	ldr	x0, [x0]
  403cc4:	f903f3e0 	str	x0, [sp, #2016]
  403cc8:	b00000e0 	adrp	x0, 420000 <__libc_start_main@GLIBC_2.34>
  403ccc:	91014000 	add	x0, x0, #0x50
  403cd0:	f9401000 	ldr	x0, [x0, #32]
  403cd4:	f903efe0 	str	x0, [sp, #2008]
  403cd8:	f943efe1 	ldr	x1, [sp, #2008]
  403cdc:	f943f3e0 	ldr	x0, [sp, #2016]
  403ce0:	eb00003f 	cmp	x1, x0
  403ce4:	5400066d 	b.le	403db0 <main+0x37ac>
  403ce8:	b00000e0 	adrp	x0, 420000 <__libc_start_main@GLIBC_2.34>
  403cec:	91014000 	add	x0, x0, #0x50
  403cf0:	f9400c01 	ldr	x1, [x0, #24]
  403cf4:	b00000e0 	adrp	x0, 420000 <__libc_start_main@GLIBC_2.34>
  403cf8:	91014000 	add	x0, x0, #0x50
  403cfc:	f9000001 	str	x1, [x0]
  403d00:	b00000e0 	adrp	x0, 420000 <__libc_start_main@GLIBC_2.34>
  403d04:	9100b000 	add	x0, x0, #0x2c
  403d08:	b9400000 	ldr	w0, [x0]
  403d0c:	51001001 	sub	w1, w0, #0x4
  403d10:	b00000e0 	adrp	x0, 420000 <__libc_start_main@GLIBC_2.34>
  403d14:	9100b000 	add	x0, x0, #0x2c
  403d18:	b9000001 	str	w1, [x0]
  403d1c:	f943f3e1 	ldr	x1, [sp, #2016]
  403d20:	f943efe0 	ldr	x0, [sp, #2008]
  403d24:	8b000020 	add	x0, x1, x0
  403d28:	f903ebe0 	str	x0, [sp, #2000]
  403d2c:	b00000e0 	adrp	x0, 420000 <__libc_start_main@GLIBC_2.34>
  403d30:	9101e000 	add	x0, x0, #0x78
  403d34:	b9400001 	ldr	w1, [x0]
  403d38:	b00000e0 	adrp	x0, 420000 <__libc_start_main@GLIBC_2.34>
  403d3c:	91020000 	add	x0, x0, #0x80
  403d40:	93407c21 	sxtw	x1, w1
  403d44:	f943f3e2 	ldr	x2, [sp, #2016]
  403d48:	f8217802 	str	x2, [x0, x1, lsl #3]
  403d4c:	b00000e0 	adrp	x0, 420000 <__libc_start_main@GLIBC_2.34>
  403d50:	9101e000 	add	x0, x0, #0x78
  403d54:	b9400000 	ldr	w0, [x0]
  403d58:	11000401 	add	w1, w0, #0x1
  403d5c:	b00000e0 	adrp	x0, 420000 <__libc_start_main@GLIBC_2.34>
  403d60:	91020000 	add	x0, x0, #0x80
  403d64:	93407c21 	sxtw	x1, w1
  403d68:	f943efe2 	ldr	x2, [sp, #2008]
  403d6c:	f8217802 	str	x2, [x0, x1, lsl #3]
  403d70:	b00000e0 	adrp	x0, 420000 <__libc_start_main@GLIBC_2.34>
  403d74:	9101e000 	add	x0, x0, #0x78
  403d78:	b9400000 	ldr	w0, [x0]
  403d7c:	11000801 	add	w1, w0, #0x2
  403d80:	b00000e0 	adrp	x0, 420000 <__libc_start_main@GLIBC_2.34>
  403d84:	91020000 	add	x0, x0, #0x80
  403d88:	93407c21 	sxtw	x1, w1
  403d8c:	f943ebe2 	ldr	x2, [sp, #2000]
  403d90:	f8217802 	str	x2, [x0, x1, lsl #3]
  403d94:	b00000e0 	adrp	x0, 420000 <__libc_start_main@GLIBC_2.34>
  403d98:	9101e000 	add	x0, x0, #0x78
  403d9c:	b9400000 	ldr	w0, [x0]
  403da0:	11000c01 	add	w1, w0, #0x3
  403da4:	b00000e0 	adrp	x0, 420000 <__libc_start_main@GLIBC_2.34>
  403da8:	9101e000 	add	x0, x0, #0x78
  403dac:	b9000001 	str	w1, [x0]
  403db0:	b00000e0 	adrp	x0, 420000 <__libc_start_main@GLIBC_2.34>
  403db4:	9100b000 	add	x0, x0, #0x2c
  403db8:	b9400000 	ldr	w0, [x0]
  403dbc:	7100101f 	cmp	w0, #0x4
  403dc0:	54000a8d 	b.le	403f10 <main+0x390c>
  403dc4:	b00000e0 	adrp	x0, 420000 <__libc_start_main@GLIBC_2.34>
  403dc8:	9101e000 	add	x0, x0, #0x78
  403dcc:	b9400000 	ldr	w0, [x0]
  403dd0:	71000c1f 	cmp	w0, #0x3
  403dd4:	540009ec 	b.gt	403f10 <main+0x390c>
  403dd8:	b00000e0 	adrp	x0, 420000 <__libc_start_main@GLIBC_2.34>
  403ddc:	91014000 	add	x0, x0, #0x50
  403de0:	f9401001 	ldr	x1, [x0, #32]
  403de4:	b00000e0 	adrp	x0, 420000 <__libc_start_main@GLIBC_2.34>
  403de8:	91014000 	add	x0, x0, #0x50
  403dec:	f9400400 	ldr	x0, [x0, #8]
  403df0:	eb00003f 	cmp	x1, x0
  403df4:	540008e1 	b.ne	403f10 <main+0x390c>  // b.any
  403df8:	b00000e0 	adrp	x0, 420000 <__libc_start_main@GLIBC_2.34>
  403dfc:	91014000 	add	x0, x0, #0x50
  403e00:	f9401001 	ldr	x1, [x0, #32]
  403e04:	b00000e0 	adrp	x0, 420000 <__libc_start_main@GLIBC_2.34>
  403e08:	91014000 	add	x0, x0, #0x50
  403e0c:	f9400c00 	ldr	x0, [x0, #24]
  403e10:	eb00003f 	cmp	x1, x0
  403e14:	540007e1 	b.ne	403f10 <main+0x390c>  // b.any
  403e18:	b00000e0 	adrp	x0, 420000 <__libc_start_main@GLIBC_2.34>
  403e1c:	91014000 	add	x0, x0, #0x50
  403e20:	f9400000 	ldr	x0, [x0]
  403e24:	f903e7e0 	str	x0, [sp, #1992]
  403e28:	b00000e0 	adrp	x0, 420000 <__libc_start_main@GLIBC_2.34>
  403e2c:	91014000 	add	x0, x0, #0x50
  403e30:	f9401000 	ldr	x0, [x0, #32]
  403e34:	f903e3e0 	str	x0, [sp, #1984]
  403e38:	f943e3e1 	ldr	x1, [sp, #1984]
  403e3c:	f943e7e0 	ldr	x0, [sp, #1992]
  403e40:	eb00003f 	cmp	x1, x0
  403e44:	5400066d 	b.le	403f10 <main+0x390c>
  403e48:	b00000e0 	adrp	x0, 420000 <__libc_start_main@GLIBC_2.34>
  403e4c:	91014000 	add	x0, x0, #0x50
  403e50:	f9400801 	ldr	x1, [x0, #16]
  403e54:	b00000e0 	adrp	x0, 420000 <__libc_start_main@GLIBC_2.34>
  403e58:	91014000 	add	x0, x0, #0x50
  403e5c:	f9000001 	str	x1, [x0]
  403e60:	b00000e0 	adrp	x0, 420000 <__libc_start_main@GLIBC_2.34>
  403e64:	9100b000 	add	x0, x0, #0x2c
  403e68:	b9400000 	ldr	w0, [x0]
  403e6c:	51001001 	sub	w1, w0, #0x4
  403e70:	b00000e0 	adrp	x0, 420000 <__libc_start_main@GLIBC_2.34>
  403e74:	9100b000 	add	x0, x0, #0x2c
  403e78:	b9000001 	str	w1, [x0]
  403e7c:	f943e7e1 	ldr	x1, [sp, #1992]
  403e80:	f943e3e0 	ldr	x0, [sp, #1984]
  403e84:	8b000020 	add	x0, x1, x0
  403e88:	f903dfe0 	str	x0, [sp, #1976]
  403e8c:	b00000e0 	adrp	x0, 420000 <__libc_start_main@GLIBC_2.34>
  403e90:	9101e000 	add	x0, x0, #0x78
  403e94:	b9400001 	ldr	w1, [x0]
  403e98:	b00000e0 	adrp	x0, 420000 <__libc_start_main@GLIBC_2.34>
  403e9c:	91020000 	add	x0, x0, #0x80
  403ea0:	93407c21 	sxtw	x1, w1
  403ea4:	f943e7e2 	ldr	x2, [sp, #1992]
  403ea8:	f8217802 	str	x2, [x0, x1, lsl #3]
  403eac:	b00000e0 	adrp	x0, 420000 <__libc_start_main@GLIBC_2.34>
  403eb0:	9101e000 	add	x0, x0, #0x78
  403eb4:	b9400000 	ldr	w0, [x0]
  403eb8:	11000401 	add	w1, w0, #0x1
  403ebc:	b00000e0 	adrp	x0, 420000 <__libc_start_main@GLIBC_2.34>
  403ec0:	91020000 	add	x0, x0, #0x80
  403ec4:	93407c21 	sxtw	x1, w1
  403ec8:	f943e3e2 	ldr	x2, [sp, #1984]
  403ecc:	f8217802 	str	x2, [x0, x1, lsl #3]
  403ed0:	b00000e0 	adrp	x0, 420000 <__libc_start_main@GLIBC_2.34>
  403ed4:	9101e000 	add	x0, x0, #0x78
  403ed8:	b9400000 	ldr	w0, [x0]
  403edc:	11000801 	add	w1, w0, #0x2
  403ee0:	b00000e0 	adrp	x0, 420000 <__libc_start_main@GLIBC_2.34>
  403ee4:	91020000 	add	x0, x0, #0x80
  403ee8:	93407c21 	sxtw	x1, w1
  403eec:	f943dfe2 	ldr	x2, [sp, #1976]
  403ef0:	f8217802 	str	x2, [x0, x1, lsl #3]
  403ef4:	b00000e0 	adrp	x0, 420000 <__libc_start_main@GLIBC_2.34>
  403ef8:	9101e000 	add	x0, x0, #0x78
  403efc:	b9400000 	ldr	w0, [x0]
  403f00:	11000c01 	add	w1, w0, #0x3
  403f04:	b00000e0 	adrp	x0, 420000 <__libc_start_main@GLIBC_2.34>
  403f08:	9101e000 	add	x0, x0, #0x78
  403f0c:	b9000001 	str	w1, [x0]
  403f10:	b00000e0 	adrp	x0, 420000 <__libc_start_main@GLIBC_2.34>
  403f14:	9100b000 	add	x0, x0, #0x2c
  403f18:	b9400000 	ldr	w0, [x0]
  403f1c:	7100101f 	cmp	w0, #0x4
  403f20:	54000a8d 	b.le	404070 <main+0x3a6c>
  403f24:	b00000e0 	adrp	x0, 420000 <__libc_start_main@GLIBC_2.34>
  403f28:	9101e000 	add	x0, x0, #0x78
  403f2c:	b9400000 	ldr	w0, [x0]
  403f30:	71000c1f 	cmp	w0, #0x3
  403f34:	540009ec 	b.gt	404070 <main+0x3a6c>
  403f38:	b00000e0 	adrp	x0, 420000 <__libc_start_main@GLIBC_2.34>
  403f3c:	91014000 	add	x0, x0, #0x50
  403f40:	f9401001 	ldr	x1, [x0, #32]
  403f44:	b00000e0 	adrp	x0, 420000 <__libc_start_main@GLIBC_2.34>
  403f48:	91014000 	add	x0, x0, #0x50
  403f4c:	f9400800 	ldr	x0, [x0, #16]
  403f50:	eb00003f 	cmp	x1, x0
  403f54:	540008e1 	b.ne	404070 <main+0x3a6c>  // b.any
  403f58:	b00000e0 	adrp	x0, 420000 <__libc_start_main@GLIBC_2.34>
  403f5c:	91014000 	add	x0, x0, #0x50
  403f60:	f9401001 	ldr	x1, [x0, #32]
  403f64:	b00000e0 	adrp	x0, 420000 <__libc_start_main@GLIBC_2.34>
  403f68:	91014000 	add	x0, x0, #0x50
  403f6c:	f9400400 	ldr	x0, [x0, #8]
  403f70:	eb00003f 	cmp	x1, x0
  403f74:	540007e1 	b.ne	404070 <main+0x3a6c>  // b.any
  403f78:	b00000e0 	adrp	x0, 420000 <__libc_start_main@GLIBC_2.34>
  403f7c:	91014000 	add	x0, x0, #0x50
  403f80:	f9400000 	ldr	x0, [x0]
  403f84:	f903dbe0 	str	x0, [sp, #1968]
  403f88:	b00000e0 	adrp	x0, 420000 <__libc_start_main@GLIBC_2.34>
  403f8c:	91014000 	add	x0, x0, #0x50
  403f90:	f9401000 	ldr	x0, [x0, #32]
  403f94:	f903d7e0 	str	x0, [sp, #1960]
  403f98:	f943d7e1 	ldr	x1, [sp, #1960]
  403f9c:	f943dbe0 	ldr	x0, [sp, #1968]
  403fa0:	eb00003f 	cmp	x1, x0
  403fa4:	5400066d 	b.le	404070 <main+0x3a6c>
  403fa8:	b00000e0 	adrp	x0, 420000 <__libc_start_main@GLIBC_2.34>
  403fac:	91014000 	add	x0, x0, #0x50
  403fb0:	f9400c01 	ldr	x1, [x0, #24]
  403fb4:	b00000e0 	adrp	x0, 420000 <__libc_start_main@GLIBC_2.34>
  403fb8:	91014000 	add	x0, x0, #0x50
  403fbc:	f9000001 	str	x1, [x0]
  403fc0:	b00000e0 	adrp	x0, 420000 <__libc_start_main@GLIBC_2.34>
  403fc4:	9100b000 	add	x0, x0, #0x2c
  403fc8:	b9400000 	ldr	w0, [x0]
  403fcc:	51001001 	sub	w1, w0, #0x4
  403fd0:	b00000e0 	adrp	x0, 420000 <__libc_start_main@GLIBC_2.34>
  403fd4:	9100b000 	add	x0, x0, #0x2c
  403fd8:	b9000001 	str	w1, [x0]
  403fdc:	f943dbe1 	ldr	x1, [sp, #1968]
  403fe0:	f943d7e0 	ldr	x0, [sp, #1960]
  403fe4:	8b000020 	add	x0, x1, x0
  403fe8:	f903d3e0 	str	x0, [sp, #1952]
  403fec:	b00000e0 	adrp	x0, 420000 <__libc_start_main@GLIBC_2.34>
  403ff0:	9101e000 	add	x0, x0, #0x78
  403ff4:	b9400001 	ldr	w1, [x0]
  403ff8:	b00000e0 	adrp	x0, 420000 <__libc_start_main@GLIBC_2.34>
  403ffc:	91020000 	add	x0, x0, #0x80
  404000:	93407c21 	sxtw	x1, w1
  404004:	f943dbe2 	ldr	x2, [sp, #1968]
  404008:	f8217802 	str	x2, [x0, x1, lsl #3]
  40400c:	900000e0 	adrp	x0, 420000 <__libc_start_main@GLIBC_2.34>
  404010:	9101e000 	add	x0, x0, #0x78
  404014:	b9400000 	ldr	w0, [x0]
  404018:	11000401 	add	w1, w0, #0x1
  40401c:	900000e0 	adrp	x0, 420000 <__libc_start_main@GLIBC_2.34>
  404020:	91020000 	add	x0, x0, #0x80
  404024:	93407c21 	sxtw	x1, w1
  404028:	f943d7e2 	ldr	x2, [sp, #1960]
  40402c:	f8217802 	str	x2, [x0, x1, lsl #3]
  404030:	900000e0 	adrp	x0, 420000 <__libc_start_main@GLIBC_2.34>
  404034:	9101e000 	add	x0, x0, #0x78
  404038:	b9400000 	ldr	w0, [x0]
  40403c:	11000801 	add	w1, w0, #0x2
  404040:	900000e0 	adrp	x0, 420000 <__libc_start_main@GLIBC_2.34>
  404044:	91020000 	add	x0, x0, #0x80
  404048:	93407c21 	sxtw	x1, w1
  40404c:	f943d3e2 	ldr	x2, [sp, #1952]
  404050:	f8217802 	str	x2, [x0, x1, lsl #3]
  404054:	900000e0 	adrp	x0, 420000 <__libc_start_main@GLIBC_2.34>
  404058:	9101e000 	add	x0, x0, #0x78
  40405c:	b9400000 	ldr	w0, [x0]
  404060:	11000c01 	add	w1, w0, #0x3
  404064:	900000e0 	adrp	x0, 420000 <__libc_start_main@GLIBC_2.34>
  404068:	9101e000 	add	x0, x0, #0x78
  40406c:	b9000001 	str	w1, [x0]
  404070:	900000e0 	adrp	x0, 420000 <__libc_start_main@GLIBC_2.34>
  404074:	9100b000 	add	x0, x0, #0x2c
  404078:	b9400000 	ldr	w0, [x0]
  40407c:	7100101f 	cmp	w0, #0x4
  404080:	54000a8d 	b.le	4041d0 <main+0x3bcc>
  404084:	900000e0 	adrp	x0, 420000 <__libc_start_main@GLIBC_2.34>
  404088:	9101e000 	add	x0, x0, #0x78
  40408c:	b9400000 	ldr	w0, [x0]
  404090:	71000c1f 	cmp	w0, #0x3
  404094:	540009ec 	b.gt	4041d0 <main+0x3bcc>
  404098:	900000e0 	adrp	x0, 420000 <__libc_start_main@GLIBC_2.34>
  40409c:	91014000 	add	x0, x0, #0x50
  4040a0:	f9401001 	ldr	x1, [x0, #32]
  4040a4:	900000e0 	adrp	x0, 420000 <__libc_start_main@GLIBC_2.34>
  4040a8:	91014000 	add	x0, x0, #0x50
  4040ac:	f9400800 	ldr	x0, [x0, #16]
  4040b0:	eb00003f 	cmp	x1, x0
  4040b4:	540008e1 	b.ne	4041d0 <main+0x3bcc>  // b.any
  4040b8:	900000e0 	adrp	x0, 420000 <__libc_start_main@GLIBC_2.34>
  4040bc:	91014000 	add	x0, x0, #0x50
  4040c0:	f9401001 	ldr	x1, [x0, #32]
  4040c4:	900000e0 	adrp	x0, 420000 <__libc_start_main@GLIBC_2.34>
  4040c8:	91014000 	add	x0, x0, #0x50
  4040cc:	f9400c00 	ldr	x0, [x0, #24]
  4040d0:	eb00003f 	cmp	x1, x0
  4040d4:	540007e1 	b.ne	4041d0 <main+0x3bcc>  // b.any
  4040d8:	900000e0 	adrp	x0, 420000 <__libc_start_main@GLIBC_2.34>
  4040dc:	91014000 	add	x0, x0, #0x50
  4040e0:	f9400000 	ldr	x0, [x0]
  4040e4:	f903cfe0 	str	x0, [sp, #1944]
  4040e8:	900000e0 	adrp	x0, 420000 <__libc_start_main@GLIBC_2.34>
  4040ec:	91014000 	add	x0, x0, #0x50
  4040f0:	f9401000 	ldr	x0, [x0, #32]
  4040f4:	f903cbe0 	str	x0, [sp, #1936]
  4040f8:	f943cbe1 	ldr	x1, [sp, #1936]
  4040fc:	f943cfe0 	ldr	x0, [sp, #1944]
  404100:	eb00003f 	cmp	x1, x0
  404104:	5400066d 	b.le	4041d0 <main+0x3bcc>
  404108:	900000e0 	adrp	x0, 420000 <__libc_start_main@GLIBC_2.34>
  40410c:	91014000 	add	x0, x0, #0x50
  404110:	f9400401 	ldr	x1, [x0, #8]
  404114:	900000e0 	adrp	x0, 420000 <__libc_start_main@GLIBC_2.34>
  404118:	91014000 	add	x0, x0, #0x50
  40411c:	f9000001 	str	x1, [x0]
  404120:	900000e0 	adrp	x0, 420000 <__libc_start_main@GLIBC_2.34>
  404124:	9100b000 	add	x0, x0, #0x2c
  404128:	b9400000 	ldr	w0, [x0]
  40412c:	51001001 	sub	w1, w0, #0x4
  404130:	900000e0 	adrp	x0, 420000 <__libc_start_main@GLIBC_2.34>
  404134:	9100b000 	add	x0, x0, #0x2c
  404138:	b9000001 	str	w1, [x0]
  40413c:	f943cfe1 	ldr	x1, [sp, #1944]
  404140:	f943cbe0 	ldr	x0, [sp, #1936]
  404144:	8b000020 	add	x0, x1, x0
  404148:	f903c7e0 	str	x0, [sp, #1928]
  40414c:	900000e0 	adrp	x0, 420000 <__libc_start_main@GLIBC_2.34>
  404150:	9101e000 	add	x0, x0, #0x78
  404154:	b9400001 	ldr	w1, [x0]
  404158:	900000e0 	adrp	x0, 420000 <__libc_start_main@GLIBC_2.34>
  40415c:	91020000 	add	x0, x0, #0x80
  404160:	93407c21 	sxtw	x1, w1
  404164:	f943cfe2 	ldr	x2, [sp, #1944]
  404168:	f8217802 	str	x2, [x0, x1, lsl #3]
  40416c:	900000e0 	adrp	x0, 420000 <__libc_start_main@GLIBC_2.34>
  404170:	9101e000 	add	x0, x0, #0x78
  404174:	b9400000 	ldr	w0, [x0]
  404178:	11000401 	add	w1, w0, #0x1
  40417c:	900000e0 	adrp	x0, 420000 <__libc_start_main@GLIBC_2.34>
  404180:	91020000 	add	x0, x0, #0x80
  404184:	93407c21 	sxtw	x1, w1
  404188:	f943cbe2 	ldr	x2, [sp, #1936]
  40418c:	f8217802 	str	x2, [x0, x1, lsl #3]
  404190:	900000e0 	adrp	x0, 420000 <__libc_start_main@GLIBC_2.34>
  404194:	9101e000 	add	x0, x0, #0x78
  404198:	b9400000 	ldr	w0, [x0]
  40419c:	11000801 	add	w1, w0, #0x2
  4041a0:	900000e0 	adrp	x0, 420000 <__libc_start_main@GLIBC_2.34>
  4041a4:	91020000 	add	x0, x0, #0x80
  4041a8:	93407c21 	sxtw	x1, w1
  4041ac:	f943c7e2 	ldr	x2, [sp, #1928]
  4041b0:	f8217802 	str	x2, [x0, x1, lsl #3]
  4041b4:	900000e0 	adrp	x0, 420000 <__libc_start_main@GLIBC_2.34>
  4041b8:	9101e000 	add	x0, x0, #0x78
  4041bc:	b9400000 	ldr	w0, [x0]
  4041c0:	11000c01 	add	w1, w0, #0x3
  4041c4:	900000e0 	adrp	x0, 420000 <__libc_start_main@GLIBC_2.34>
  4041c8:	9101e000 	add	x0, x0, #0x78
  4041cc:	b9000001 	str	w1, [x0]
  4041d0:	900000e0 	adrp	x0, 420000 <__libc_start_main@GLIBC_2.34>
  4041d4:	9100b000 	add	x0, x0, #0x2c
  4041d8:	b9400000 	ldr	w0, [x0]
  4041dc:	7100101f 	cmp	w0, #0x4
  4041e0:	54000a8d 	b.le	404330 <main+0x3d2c>
  4041e4:	900000e0 	adrp	x0, 420000 <__libc_start_main@GLIBC_2.34>
  4041e8:	9101e000 	add	x0, x0, #0x78
  4041ec:	b9400000 	ldr	w0, [x0]
  4041f0:	71000c1f 	cmp	w0, #0x3
  4041f4:	540009ec 	b.gt	404330 <main+0x3d2c>
  4041f8:	900000e0 	adrp	x0, 420000 <__libc_start_main@GLIBC_2.34>
  4041fc:	91014000 	add	x0, x0, #0x50
  404200:	f9401001 	ldr	x1, [x0, #32]
  404204:	900000e0 	adrp	x0, 420000 <__libc_start_main@GLIBC_2.34>
  404208:	91014000 	add	x0, x0, #0x50
  40420c:	f9400c00 	ldr	x0, [x0, #24]
  404210:	eb00003f 	cmp	x1, x0
  404214:	540008e1 	b.ne	404330 <main+0x3d2c>  // b.any
  404218:	900000e0 	adrp	x0, 420000 <__libc_start_main@GLIBC_2.34>
  40421c:	91014000 	add	x0, x0, #0x50
  404220:	f9401001 	ldr	x1, [x0, #32]
  404224:	900000e0 	adrp	x0, 420000 <__libc_start_main@GLIBC_2.34>
  404228:	91014000 	add	x0, x0, #0x50
  40422c:	f9400400 	ldr	x0, [x0, #8]
  404230:	eb00003f 	cmp	x1, x0
  404234:	540007e1 	b.ne	404330 <main+0x3d2c>  // b.any
  404238:	900000e0 	adrp	x0, 420000 <__libc_start_main@GLIBC_2.34>
  40423c:	91014000 	add	x0, x0, #0x50
  404240:	f9400000 	ldr	x0, [x0]
  404244:	f903c3e0 	str	x0, [sp, #1920]
  404248:	900000e0 	adrp	x0, 420000 <__libc_start_main@GLIBC_2.34>
  40424c:	91014000 	add	x0, x0, #0x50
  404250:	f9401000 	ldr	x0, [x0, #32]
  404254:	f903bfe0 	str	x0, [sp, #1912]
  404258:	f943bfe1 	ldr	x1, [sp, #1912]
  40425c:	f943c3e0 	ldr	x0, [sp, #1920]
  404260:	eb00003f 	cmp	x1, x0
  404264:	5400066d 	b.le	404330 <main+0x3d2c>
  404268:	900000e0 	adrp	x0, 420000 <__libc_start_main@GLIBC_2.34>
  40426c:	91014000 	add	x0, x0, #0x50
  404270:	f9400801 	ldr	x1, [x0, #16]
  404274:	900000e0 	adrp	x0, 420000 <__libc_start_main@GLIBC_2.34>
  404278:	91014000 	add	x0, x0, #0x50
  40427c:	f9000001 	str	x1, [x0]
  404280:	900000e0 	adrp	x0, 420000 <__libc_start_main@GLIBC_2.34>
  404284:	9100b000 	add	x0, x0, #0x2c
  404288:	b9400000 	ldr	w0, [x0]
  40428c:	51001001 	sub	w1, w0, #0x4
  404290:	900000e0 	adrp	x0, 420000 <__libc_start_main@GLIBC_2.34>
  404294:	9100b000 	add	x0, x0, #0x2c
  404298:	b9000001 	str	w1, [x0]
  40429c:	f943c3e1 	ldr	x1, [sp, #1920]
  4042a0:	f943bfe0 	ldr	x0, [sp, #1912]
  4042a4:	8b000020 	add	x0, x1, x0
  4042a8:	f903bbe0 	str	x0, [sp, #1904]
  4042ac:	900000e0 	adrp	x0, 420000 <__libc_start_main@GLIBC_2.34>
  4042b0:	9101e000 	add	x0, x0, #0x78
  4042b4:	b9400001 	ldr	w1, [x0]
  4042b8:	900000e0 	adrp	x0, 420000 <__libc_start_main@GLIBC_2.34>
  4042bc:	91020000 	add	x0, x0, #0x80
  4042c0:	93407c21 	sxtw	x1, w1
  4042c4:	f943c3e2 	ldr	x2, [sp, #1920]
  4042c8:	f8217802 	str	x2, [x0, x1, lsl #3]
  4042cc:	900000e0 	adrp	x0, 420000 <__libc_start_main@GLIBC_2.34>
  4042d0:	9101e000 	add	x0, x0, #0x78
  4042d4:	b9400000 	ldr	w0, [x0]
  4042d8:	11000401 	add	w1, w0, #0x1
  4042dc:	900000e0 	adrp	x0, 420000 <__libc_start_main@GLIBC_2.34>
  4042e0:	91020000 	add	x0, x0, #0x80
  4042e4:	93407c21 	sxtw	x1, w1
  4042e8:	f943bfe2 	ldr	x2, [sp, #1912]
  4042ec:	f8217802 	str	x2, [x0, x1, lsl #3]
  4042f0:	900000e0 	adrp	x0, 420000 <__libc_start_main@GLIBC_2.34>
  4042f4:	9101e000 	add	x0, x0, #0x78
  4042f8:	b9400000 	ldr	w0, [x0]
  4042fc:	11000801 	add	w1, w0, #0x2
  404300:	900000e0 	adrp	x0, 420000 <__libc_start_main@GLIBC_2.34>
  404304:	91020000 	add	x0, x0, #0x80
  404308:	93407c21 	sxtw	x1, w1
  40430c:	f943bbe2 	ldr	x2, [sp, #1904]
  404310:	f8217802 	str	x2, [x0, x1, lsl #3]
  404314:	900000e0 	adrp	x0, 420000 <__libc_start_main@GLIBC_2.34>
  404318:	9101e000 	add	x0, x0, #0x78
  40431c:	b9400000 	ldr	w0, [x0]
  404320:	11000c01 	add	w1, w0, #0x3
  404324:	900000e0 	adrp	x0, 420000 <__libc_start_main@GLIBC_2.34>
  404328:	9101e000 	add	x0, x0, #0x78
  40432c:	b9000001 	str	w1, [x0]
  404330:	900000e0 	adrp	x0, 420000 <__libc_start_main@GLIBC_2.34>
  404334:	9100b000 	add	x0, x0, #0x2c
  404338:	b9400000 	ldr	w0, [x0]
  40433c:	7100101f 	cmp	w0, #0x4
  404340:	54000a8d 	b.le	404490 <main+0x3e8c>
  404344:	900000e0 	adrp	x0, 420000 <__libc_start_main@GLIBC_2.34>
  404348:	9101e000 	add	x0, x0, #0x78
  40434c:	b9400000 	ldr	w0, [x0]
  404350:	71000c1f 	cmp	w0, #0x3
  404354:	540009ec 	b.gt	404490 <main+0x3e8c>
  404358:	900000e0 	adrp	x0, 420000 <__libc_start_main@GLIBC_2.34>
  40435c:	91014000 	add	x0, x0, #0x50
  404360:	f9401001 	ldr	x1, [x0, #32]
  404364:	900000e0 	adrp	x0, 420000 <__libc_start_main@GLIBC_2.34>
  404368:	91014000 	add	x0, x0, #0x50
  40436c:	f9400c00 	ldr	x0, [x0, #24]
  404370:	eb00003f 	cmp	x1, x0
  404374:	540008e1 	b.ne	404490 <main+0x3e8c>  // b.any
  404378:	900000e0 	adrp	x0, 420000 <__libc_start_main@GLIBC_2.34>
  40437c:	91014000 	add	x0, x0, #0x50
  404380:	f9401001 	ldr	x1, [x0, #32]
  404384:	900000e0 	adrp	x0, 420000 <__libc_start_main@GLIBC_2.34>
  404388:	91014000 	add	x0, x0, #0x50
  40438c:	f9400800 	ldr	x0, [x0, #16]
  404390:	eb00003f 	cmp	x1, x0
  404394:	540007e1 	b.ne	404490 <main+0x3e8c>  // b.any
  404398:	900000e0 	adrp	x0, 420000 <__libc_start_main@GLIBC_2.34>
  40439c:	91014000 	add	x0, x0, #0x50
  4043a0:	f9400000 	ldr	x0, [x0]
  4043a4:	f903b7e0 	str	x0, [sp, #1896]
  4043a8:	900000e0 	adrp	x0, 420000 <__libc_start_main@GLIBC_2.34>
  4043ac:	91014000 	add	x0, x0, #0x50
  4043b0:	f9401000 	ldr	x0, [x0, #32]
  4043b4:	f903b3e0 	str	x0, [sp, #1888]
  4043b8:	f943b3e1 	ldr	x1, [sp, #1888]
  4043bc:	f943b7e0 	ldr	x0, [sp, #1896]
  4043c0:	eb00003f 	cmp	x1, x0
  4043c4:	5400066d 	b.le	404490 <main+0x3e8c>
  4043c8:	900000e0 	adrp	x0, 420000 <__libc_start_main@GLIBC_2.34>
  4043cc:	91014000 	add	x0, x0, #0x50
  4043d0:	f9400401 	ldr	x1, [x0, #8]
  4043d4:	900000e0 	adrp	x0, 420000 <__libc_start_main@GLIBC_2.34>
  4043d8:	91014000 	add	x0, x0, #0x50
  4043dc:	f9000001 	str	x1, [x0]
  4043e0:	900000e0 	adrp	x0, 420000 <__libc_start_main@GLIBC_2.34>
  4043e4:	9100b000 	add	x0, x0, #0x2c
  4043e8:	b9400000 	ldr	w0, [x0]
  4043ec:	51001001 	sub	w1, w0, #0x4
  4043f0:	900000e0 	adrp	x0, 420000 <__libc_start_main@GLIBC_2.34>
  4043f4:	9100b000 	add	x0, x0, #0x2c
  4043f8:	b9000001 	str	w1, [x0]
  4043fc:	f943b7e1 	ldr	x1, [sp, #1896]
  404400:	f943b3e0 	ldr	x0, [sp, #1888]
  404404:	8b000020 	add	x0, x1, x0
  404408:	f903afe0 	str	x0, [sp, #1880]
  40440c:	900000e0 	adrp	x0, 420000 <__libc_start_main@GLIBC_2.34>
  404410:	9101e000 	add	x0, x0, #0x78
  404414:	b9400001 	ldr	w1, [x0]
  404418:	900000e0 	adrp	x0, 420000 <__libc_start_main@GLIBC_2.34>
  40441c:	91020000 	add	x0, x0, #0x80
  404420:	93407c21 	sxtw	x1, w1
  404424:	f943b7e2 	ldr	x2, [sp, #1896]
  404428:	f8217802 	str	x2, [x0, x1, lsl #3]
  40442c:	900000e0 	adrp	x0, 420000 <__libc_start_main@GLIBC_2.34>
  404430:	9101e000 	add	x0, x0, #0x78
  404434:	b9400000 	ldr	w0, [x0]
  404438:	11000401 	add	w1, w0, #0x1
  40443c:	900000e0 	adrp	x0, 420000 <__libc_start_main@GLIBC_2.34>
  404440:	91020000 	add	x0, x0, #0x80
  404444:	93407c21 	sxtw	x1, w1
  404448:	f943b3e2 	ldr	x2, [sp, #1888]
  40444c:	f8217802 	str	x2, [x0, x1, lsl #3]
  404450:	900000e0 	adrp	x0, 420000 <__libc_start_main@GLIBC_2.34>
  404454:	9101e000 	add	x0, x0, #0x78
  404458:	b9400000 	ldr	w0, [x0]
  40445c:	11000801 	add	w1, w0, #0x2
  404460:	900000e0 	adrp	x0, 420000 <__libc_start_main@GLIBC_2.34>
  404464:	91020000 	add	x0, x0, #0x80
  404468:	93407c21 	sxtw	x1, w1
  40446c:	f943afe2 	ldr	x2, [sp, #1880]
  404470:	f8217802 	str	x2, [x0, x1, lsl #3]
  404474:	900000e0 	adrp	x0, 420000 <__libc_start_main@GLIBC_2.34>
  404478:	9101e000 	add	x0, x0, #0x78
  40447c:	b9400000 	ldr	w0, [x0]
  404480:	11000c01 	add	w1, w0, #0x3
  404484:	900000e0 	adrp	x0, 420000 <__libc_start_main@GLIBC_2.34>
  404488:	9101e000 	add	x0, x0, #0x78
  40448c:	b9000001 	str	w1, [x0]
  404490:	900000e0 	adrp	x0, 420000 <__libc_start_main@GLIBC_2.34>
  404494:	9100b000 	add	x0, x0, #0x2c
  404498:	b9400000 	ldr	w0, [x0]
  40449c:	7100101f 	cmp	w0, #0x4
  4044a0:	54000a8d 	b.le	4045f0 <main+0x3fec>
  4044a4:	900000e0 	adrp	x0, 420000 <__libc_start_main@GLIBC_2.34>
  4044a8:	9101e000 	add	x0, x0, #0x78
  4044ac:	b9400000 	ldr	w0, [x0]
  4044b0:	71000c1f 	cmp	w0, #0x3
  4044b4:	540009ec 	b.gt	4045f0 <main+0x3fec>
  4044b8:	900000e0 	adrp	x0, 420000 <__libc_start_main@GLIBC_2.34>
  4044bc:	91014000 	add	x0, x0, #0x50
  4044c0:	f9400001 	ldr	x1, [x0]
  4044c4:	900000e0 	adrp	x0, 420000 <__libc_start_main@GLIBC_2.34>
  4044c8:	91014000 	add	x0, x0, #0x50
  4044cc:	f9400800 	ldr	x0, [x0, #16]
  4044d0:	eb00003f 	cmp	x1, x0
  4044d4:	540008e1 	b.ne	4045f0 <main+0x3fec>  // b.any
  4044d8:	900000e0 	adrp	x0, 420000 <__libc_start_main@GLIBC_2.34>
  4044dc:	91014000 	add	x0, x0, #0x50
  4044e0:	f9400001 	ldr	x1, [x0]
  4044e4:	900000e0 	adrp	x0, 420000 <__libc_start_main@GLIBC_2.34>
  4044e8:	91014000 	add	x0, x0, #0x50
  4044ec:	f9401000 	ldr	x0, [x0, #32]
  4044f0:	eb00003f 	cmp	x1, x0
  4044f4:	540007e1 	b.ne	4045f0 <main+0x3fec>  // b.any
  4044f8:	900000e0 	adrp	x0, 420000 <__libc_start_main@GLIBC_2.34>
  4044fc:	91014000 	add	x0, x0, #0x50
  404500:	f9400400 	ldr	x0, [x0, #8]
  404504:	f903abe0 	str	x0, [sp, #1872]
  404508:	900000e0 	adrp	x0, 420000 <__libc_start_main@GLIBC_2.34>
  40450c:	91014000 	add	x0, x0, #0x50
  404510:	f9400000 	ldr	x0, [x0]
  404514:	f903a7e0 	str	x0, [sp, #1864]
  404518:	f943a7e1 	ldr	x1, [sp, #1864]
  40451c:	f943abe0 	ldr	x0, [sp, #1872]
  404520:	eb00003f 	cmp	x1, x0
  404524:	5400066d 	b.le	4045f0 <main+0x3fec>
  404528:	900000e0 	adrp	x0, 420000 <__libc_start_main@GLIBC_2.34>
  40452c:	91014000 	add	x0, x0, #0x50
  404530:	f9400c01 	ldr	x1, [x0, #24]
  404534:	900000e0 	adrp	x0, 420000 <__libc_start_main@GLIBC_2.34>
  404538:	91014000 	add	x0, x0, #0x50
  40453c:	f9000001 	str	x1, [x0]
  404540:	900000e0 	adrp	x0, 420000 <__libc_start_main@GLIBC_2.34>
  404544:	9100b000 	add	x0, x0, #0x2c
  404548:	b9400000 	ldr	w0, [x0]
  40454c:	51001001 	sub	w1, w0, #0x4
  404550:	900000e0 	adrp	x0, 420000 <__libc_start_main@GLIBC_2.34>
  404554:	9100b000 	add	x0, x0, #0x2c
  404558:	b9000001 	str	w1, [x0]
  40455c:	f943abe1 	ldr	x1, [sp, #1872]
  404560:	f943a7e0 	ldr	x0, [sp, #1864]
  404564:	8b000020 	add	x0, x1, x0
  404568:	f903a3e0 	str	x0, [sp, #1856]
  40456c:	900000e0 	adrp	x0, 420000 <__libc_start_main@GLIBC_2.34>
  404570:	9101e000 	add	x0, x0, #0x78
  404574:	b9400001 	ldr	w1, [x0]
  404578:	900000e0 	adrp	x0, 420000 <__libc_start_main@GLIBC_2.34>
  40457c:	91020000 	add	x0, x0, #0x80
  404580:	93407c21 	sxtw	x1, w1
  404584:	f943abe2 	ldr	x2, [sp, #1872]
  404588:	f8217802 	str	x2, [x0, x1, lsl #3]
  40458c:	900000e0 	adrp	x0, 420000 <__libc_start_main@GLIBC_2.34>
  404590:	9101e000 	add	x0, x0, #0x78
  404594:	b9400000 	ldr	w0, [x0]
  404598:	11000401 	add	w1, w0, #0x1
  40459c:	900000e0 	adrp	x0, 420000 <__libc_start_main@GLIBC_2.34>
  4045a0:	91020000 	add	x0, x0, #0x80
  4045a4:	93407c21 	sxtw	x1, w1
  4045a8:	f943a7e2 	ldr	x2, [sp, #1864]
  4045ac:	f8217802 	str	x2, [x0, x1, lsl #3]
  4045b0:	900000e0 	adrp	x0, 420000 <__libc_start_main@GLIBC_2.34>
  4045b4:	9101e000 	add	x0, x0, #0x78
  4045b8:	b9400000 	ldr	w0, [x0]
  4045bc:	11000801 	add	w1, w0, #0x2
  4045c0:	900000e0 	adrp	x0, 420000 <__libc_start_main@GLIBC_2.34>
  4045c4:	91020000 	add	x0, x0, #0x80
  4045c8:	93407c21 	sxtw	x1, w1
  4045cc:	f943a3e2 	ldr	x2, [sp, #1856]
  4045d0:	f8217802 	str	x2, [x0, x1, lsl #3]
  4045d4:	900000e0 	adrp	x0, 420000 <__libc_start_main@GLIBC_2.34>
  4045d8:	9101e000 	add	x0, x0, #0x78
  4045dc:	b9400000 	ldr	w0, [x0]
  4045e0:	11000c01 	add	w1, w0, #0x3
  4045e4:	900000e0 	adrp	x0, 420000 <__libc_start_main@GLIBC_2.34>
  4045e8:	9101e000 	add	x0, x0, #0x78
  4045ec:	b9000001 	str	w1, [x0]
  4045f0:	900000e0 	adrp	x0, 420000 <__libc_start_main@GLIBC_2.34>
  4045f4:	9100b000 	add	x0, x0, #0x2c
  4045f8:	b9400000 	ldr	w0, [x0]
  4045fc:	7100101f 	cmp	w0, #0x4
  404600:	54000a8d 	b.le	404750 <main+0x414c>
  404604:	900000e0 	adrp	x0, 420000 <__libc_start_main@GLIBC_2.34>
  404608:	9101e000 	add	x0, x0, #0x78
  40460c:	b9400000 	ldr	w0, [x0]
  404610:	71000c1f 	cmp	w0, #0x3
  404614:	540009ec 	b.gt	404750 <main+0x414c>
  404618:	900000e0 	adrp	x0, 420000 <__libc_start_main@GLIBC_2.34>
  40461c:	91014000 	add	x0, x0, #0x50
  404620:	f9400001 	ldr	x1, [x0]
  404624:	900000e0 	adrp	x0, 420000 <__libc_start_main@GLIBC_2.34>
  404628:	91014000 	add	x0, x0, #0x50
  40462c:	f9400c00 	ldr	x0, [x0, #24]
  404630:	eb00003f 	cmp	x1, x0
  404634:	540008e1 	b.ne	404750 <main+0x414c>  // b.any
  404638:	900000e0 	adrp	x0, 420000 <__libc_start_main@GLIBC_2.34>
  40463c:	91014000 	add	x0, x0, #0x50
  404640:	f9400001 	ldr	x1, [x0]
  404644:	900000e0 	adrp	x0, 420000 <__libc_start_main@GLIBC_2.34>
  404648:	91014000 	add	x0, x0, #0x50
  40464c:	f9401000 	ldr	x0, [x0, #32]
  404650:	eb00003f 	cmp	x1, x0
  404654:	540007e1 	b.ne	404750 <main+0x414c>  // b.any
  404658:	900000e0 	adrp	x0, 420000 <__libc_start_main@GLIBC_2.34>
  40465c:	91014000 	add	x0, x0, #0x50
  404660:	f9400400 	ldr	x0, [x0, #8]
  404664:	f9039fe0 	str	x0, [sp, #1848]
  404668:	900000e0 	adrp	x0, 420000 <__libc_start_main@GLIBC_2.34>
  40466c:	91014000 	add	x0, x0, #0x50
  404670:	f9400000 	ldr	x0, [x0]
  404674:	f9039be0 	str	x0, [sp, #1840]
  404678:	f9439be1 	ldr	x1, [sp, #1840]
  40467c:	f9439fe0 	ldr	x0, [sp, #1848]
  404680:	eb00003f 	cmp	x1, x0
  404684:	5400066d 	b.le	404750 <main+0x414c>
  404688:	900000e0 	adrp	x0, 420000 <__libc_start_main@GLIBC_2.34>
  40468c:	91014000 	add	x0, x0, #0x50
  404690:	f9400801 	ldr	x1, [x0, #16]
  404694:	900000e0 	adrp	x0, 420000 <__libc_start_main@GLIBC_2.34>
  404698:	91014000 	add	x0, x0, #0x50
  40469c:	f9000001 	str	x1, [x0]
  4046a0:	900000e0 	adrp	x0, 420000 <__libc_start_main@GLIBC_2.34>
  4046a4:	9100b000 	add	x0, x0, #0x2c
  4046a8:	b9400000 	ldr	w0, [x0]
  4046ac:	51001001 	sub	w1, w0, #0x4
  4046b0:	900000e0 	adrp	x0, 420000 <__libc_start_main@GLIBC_2.34>
  4046b4:	9100b000 	add	x0, x0, #0x2c
  4046b8:	b9000001 	str	w1, [x0]
  4046bc:	f9439fe1 	ldr	x1, [sp, #1848]
  4046c0:	f9439be0 	ldr	x0, [sp, #1840]
  4046c4:	8b000020 	add	x0, x1, x0
  4046c8:	f90397e0 	str	x0, [sp, #1832]
  4046cc:	900000e0 	adrp	x0, 420000 <__libc_start_main@GLIBC_2.34>
  4046d0:	9101e000 	add	x0, x0, #0x78
  4046d4:	b9400001 	ldr	w1, [x0]
  4046d8:	900000e0 	adrp	x0, 420000 <__libc_start_main@GLIBC_2.34>
  4046dc:	91020000 	add	x0, x0, #0x80
  4046e0:	93407c21 	sxtw	x1, w1
  4046e4:	f9439fe2 	ldr	x2, [sp, #1848]
  4046e8:	f8217802 	str	x2, [x0, x1, lsl #3]
  4046ec:	900000e0 	adrp	x0, 420000 <__libc_start_main@GLIBC_2.34>
  4046f0:	9101e000 	add	x0, x0, #0x78
  4046f4:	b9400000 	ldr	w0, [x0]
  4046f8:	11000401 	add	w1, w0, #0x1
  4046fc:	900000e0 	adrp	x0, 420000 <__libc_start_main@GLIBC_2.34>
  404700:	91020000 	add	x0, x0, #0x80
  404704:	93407c21 	sxtw	x1, w1
  404708:	f9439be2 	ldr	x2, [sp, #1840]
  40470c:	f8217802 	str	x2, [x0, x1, lsl #3]
  404710:	900000e0 	adrp	x0, 420000 <__libc_start_main@GLIBC_2.34>
  404714:	9101e000 	add	x0, x0, #0x78
  404718:	b9400000 	ldr	w0, [x0]
  40471c:	11000801 	add	w1, w0, #0x2
  404720:	900000e0 	adrp	x0, 420000 <__libc_start_main@GLIBC_2.34>
  404724:	91020000 	add	x0, x0, #0x80
  404728:	93407c21 	sxtw	x1, w1
  40472c:	f94397e2 	ldr	x2, [sp, #1832]
  404730:	f8217802 	str	x2, [x0, x1, lsl #3]
  404734:	900000e0 	adrp	x0, 420000 <__libc_start_main@GLIBC_2.34>
  404738:	9101e000 	add	x0, x0, #0x78
  40473c:	b9400000 	ldr	w0, [x0]
  404740:	11000c01 	add	w1, w0, #0x3
  404744:	900000e0 	adrp	x0, 420000 <__libc_start_main@GLIBC_2.34>
  404748:	9101e000 	add	x0, x0, #0x78
  40474c:	b9000001 	str	w1, [x0]
  404750:	900000e0 	adrp	x0, 420000 <__libc_start_main@GLIBC_2.34>
  404754:	9100b000 	add	x0, x0, #0x2c
  404758:	b9400000 	ldr	w0, [x0]
  40475c:	7100101f 	cmp	w0, #0x4
  404760:	54000a8d 	b.le	4048b0 <main+0x42ac>
  404764:	900000e0 	adrp	x0, 420000 <__libc_start_main@GLIBC_2.34>
  404768:	9101e000 	add	x0, x0, #0x78
  40476c:	b9400000 	ldr	w0, [x0]
  404770:	71000c1f 	cmp	w0, #0x3
  404774:	540009ec 	b.gt	4048b0 <main+0x42ac>
  404778:	900000e0 	adrp	x0, 420000 <__libc_start_main@GLIBC_2.34>
  40477c:	91014000 	add	x0, x0, #0x50
  404780:	f9400001 	ldr	x1, [x0]
  404784:	900000e0 	adrp	x0, 420000 <__libc_start_main@GLIBC_2.34>
  404788:	91014000 	add	x0, x0, #0x50
  40478c:	f9401000 	ldr	x0, [x0, #32]
  404790:	eb00003f 	cmp	x1, x0
  404794:	540008e1 	b.ne	4048b0 <main+0x42ac>  // b.any
  404798:	900000e0 	adrp	x0, 420000 <__libc_start_main@GLIBC_2.34>
  40479c:	91014000 	add	x0, x0, #0x50
  4047a0:	f9400001 	ldr	x1, [x0]
  4047a4:	900000e0 	adrp	x0, 420000 <__libc_start_main@GLIBC_2.34>
  4047a8:	91014000 	add	x0, x0, #0x50
  4047ac:	f9400800 	ldr	x0, [x0, #16]
  4047b0:	eb00003f 	cmp	x1, x0
  4047b4:	540007e1 	b.ne	4048b0 <main+0x42ac>  // b.any
  4047b8:	900000e0 	adrp	x0, 420000 <__libc_start_main@GLIBC_2.34>
  4047bc:	91014000 	add	x0, x0, #0x50
  4047c0:	f9400400 	ldr	x0, [x0, #8]
  4047c4:	f90393e0 	str	x0, [sp, #1824]
  4047c8:	900000e0 	adrp	x0, 420000 <__libc_start_main@GLIBC_2.34>
  4047cc:	91014000 	add	x0, x0, #0x50
  4047d0:	f9400000 	ldr	x0, [x0]
  4047d4:	f9038fe0 	str	x0, [sp, #1816]
  4047d8:	f9438fe1 	ldr	x1, [sp, #1816]
  4047dc:	f94393e0 	ldr	x0, [sp, #1824]
  4047e0:	eb00003f 	cmp	x1, x0
  4047e4:	5400066d 	b.le	4048b0 <main+0x42ac>
  4047e8:	900000e0 	adrp	x0, 420000 <__libc_start_main@GLIBC_2.34>
  4047ec:	91014000 	add	x0, x0, #0x50
  4047f0:	f9400c01 	ldr	x1, [x0, #24]
  4047f4:	900000e0 	adrp	x0, 420000 <__libc_start_main@GLIBC_2.34>
  4047f8:	91014000 	add	x0, x0, #0x50
  4047fc:	f9000001 	str	x1, [x0]
  404800:	900000e0 	adrp	x0, 420000 <__libc_start_main@GLIBC_2.34>
  404804:	9100b000 	add	x0, x0, #0x2c
  404808:	b9400000 	ldr	w0, [x0]
  40480c:	51001001 	sub	w1, w0, #0x4
  404810:	900000e0 	adrp	x0, 420000 <__libc_start_main@GLIBC_2.34>
  404814:	9100b000 	add	x0, x0, #0x2c
  404818:	b9000001 	str	w1, [x0]
  40481c:	f94393e1 	ldr	x1, [sp, #1824]
  404820:	f9438fe0 	ldr	x0, [sp, #1816]
  404824:	8b000020 	add	x0, x1, x0
  404828:	f9038be0 	str	x0, [sp, #1808]
  40482c:	900000e0 	adrp	x0, 420000 <__libc_start_main@GLIBC_2.34>
  404830:	9101e000 	add	x0, x0, #0x78
  404834:	b9400001 	ldr	w1, [x0]
  404838:	900000e0 	adrp	x0, 420000 <__libc_start_main@GLIBC_2.34>
  40483c:	91020000 	add	x0, x0, #0x80
  404840:	93407c21 	sxtw	x1, w1
  404844:	f94393e2 	ldr	x2, [sp, #1824]
  404848:	f8217802 	str	x2, [x0, x1, lsl #3]
  40484c:	900000e0 	adrp	x0, 420000 <__libc_start_main@GLIBC_2.34>
  404850:	9101e000 	add	x0, x0, #0x78
  404854:	b9400000 	ldr	w0, [x0]
  404858:	11000401 	add	w1, w0, #0x1
  40485c:	900000e0 	adrp	x0, 420000 <__libc_start_main@GLIBC_2.34>
  404860:	91020000 	add	x0, x0, #0x80
  404864:	93407c21 	sxtw	x1, w1
  404868:	f9438fe2 	ldr	x2, [sp, #1816]
  40486c:	f8217802 	str	x2, [x0, x1, lsl #3]
  404870:	900000e0 	adrp	x0, 420000 <__libc_start_main@GLIBC_2.34>
  404874:	9101e000 	add	x0, x0, #0x78
  404878:	b9400000 	ldr	w0, [x0]
  40487c:	11000801 	add	w1, w0, #0x2
  404880:	900000e0 	adrp	x0, 420000 <__libc_start_main@GLIBC_2.34>
  404884:	91020000 	add	x0, x0, #0x80
  404888:	93407c21 	sxtw	x1, w1
  40488c:	f9438be2 	ldr	x2, [sp, #1808]
  404890:	f8217802 	str	x2, [x0, x1, lsl #3]
  404894:	900000e0 	adrp	x0, 420000 <__libc_start_main@GLIBC_2.34>
  404898:	9101e000 	add	x0, x0, #0x78
  40489c:	b9400000 	ldr	w0, [x0]
  4048a0:	11000c01 	add	w1, w0, #0x3
  4048a4:	900000e0 	adrp	x0, 420000 <__libc_start_main@GLIBC_2.34>
  4048a8:	9101e000 	add	x0, x0, #0x78
  4048ac:	b9000001 	str	w1, [x0]
  4048b0:	900000e0 	adrp	x0, 420000 <__libc_start_main@GLIBC_2.34>
  4048b4:	9100b000 	add	x0, x0, #0x2c
  4048b8:	b9400000 	ldr	w0, [x0]
  4048bc:	7100101f 	cmp	w0, #0x4
  4048c0:	54000a8d 	b.le	404a10 <main+0x440c>
  4048c4:	900000e0 	adrp	x0, 420000 <__libc_start_main@GLIBC_2.34>
  4048c8:	9101e000 	add	x0, x0, #0x78
  4048cc:	b9400000 	ldr	w0, [x0]
  4048d0:	71000c1f 	cmp	w0, #0x3
  4048d4:	540009ec 	b.gt	404a10 <main+0x440c>
  4048d8:	900000e0 	adrp	x0, 420000 <__libc_start_main@GLIBC_2.34>
  4048dc:	91014000 	add	x0, x0, #0x50
  4048e0:	f9400001 	ldr	x1, [x0]
  4048e4:	900000e0 	adrp	x0, 420000 <__libc_start_main@GLIBC_2.34>
  4048e8:	91014000 	add	x0, x0, #0x50
  4048ec:	f9401000 	ldr	x0, [x0, #32]
  4048f0:	eb00003f 	cmp	x1, x0
  4048f4:	540008e1 	b.ne	404a10 <main+0x440c>  // b.any
  4048f8:	900000e0 	adrp	x0, 420000 <__libc_start_main@GLIBC_2.34>
  4048fc:	91014000 	add	x0, x0, #0x50
  404900:	f9400001 	ldr	x1, [x0]
  404904:	900000e0 	adrp	x0, 420000 <__libc_start_main@GLIBC_2.34>
  404908:	91014000 	add	x0, x0, #0x50
  40490c:	f9400c00 	ldr	x0, [x0, #24]
  404910:	eb00003f 	cmp	x1, x0
  404914:	540007e1 	b.ne	404a10 <main+0x440c>  // b.any
  404918:	900000e0 	adrp	x0, 420000 <__libc_start_main@GLIBC_2.34>
  40491c:	91014000 	add	x0, x0, #0x50
  404920:	f9400400 	ldr	x0, [x0, #8]
  404924:	f90387e0 	str	x0, [sp, #1800]
  404928:	900000e0 	adrp	x0, 420000 <__libc_start_main@GLIBC_2.34>
  40492c:	91014000 	add	x0, x0, #0x50
  404930:	f9400000 	ldr	x0, [x0]
  404934:	f90383e0 	str	x0, [sp, #1792]
  404938:	f94383e1 	ldr	x1, [sp, #1792]
  40493c:	f94387e0 	ldr	x0, [sp, #1800]
  404940:	eb00003f 	cmp	x1, x0
  404944:	5400066d 	b.le	404a10 <main+0x440c>
  404948:	900000e0 	adrp	x0, 420000 <__libc_start_main@GLIBC_2.34>
  40494c:	91014000 	add	x0, x0, #0x50
  404950:	f9400801 	ldr	x1, [x0, #16]
  404954:	900000e0 	adrp	x0, 420000 <__libc_start_main@GLIBC_2.34>
  404958:	91014000 	add	x0, x0, #0x50
  40495c:	f9000001 	str	x1, [x0]
  404960:	900000e0 	adrp	x0, 420000 <__libc_start_main@GLIBC_2.34>
  404964:	9100b000 	add	x0, x0, #0x2c
  404968:	b9400000 	ldr	w0, [x0]
  40496c:	51001001 	sub	w1, w0, #0x4
  404970:	900000e0 	adrp	x0, 420000 <__libc_start_main@GLIBC_2.34>
  404974:	9100b000 	add	x0, x0, #0x2c
  404978:	b9000001 	str	w1, [x0]
  40497c:	f94387e1 	ldr	x1, [sp, #1800]
  404980:	f94383e0 	ldr	x0, [sp, #1792]
  404984:	8b000020 	add	x0, x1, x0
  404988:	f9037fe0 	str	x0, [sp, #1784]
  40498c:	900000e0 	adrp	x0, 420000 <__libc_start_main@GLIBC_2.34>
  404990:	9101e000 	add	x0, x0, #0x78
  404994:	b9400001 	ldr	w1, [x0]
  404998:	900000e0 	adrp	x0, 420000 <__libc_start_main@GLIBC_2.34>
  40499c:	91020000 	add	x0, x0, #0x80
  4049a0:	93407c21 	sxtw	x1, w1
  4049a4:	f94387e2 	ldr	x2, [sp, #1800]
  4049a8:	f8217802 	str	x2, [x0, x1, lsl #3]
  4049ac:	900000e0 	adrp	x0, 420000 <__libc_start_main@GLIBC_2.34>
  4049b0:	9101e000 	add	x0, x0, #0x78
  4049b4:	b9400000 	ldr	w0, [x0]
  4049b8:	11000401 	add	w1, w0, #0x1
  4049bc:	900000e0 	adrp	x0, 420000 <__libc_start_main@GLIBC_2.34>
  4049c0:	91020000 	add	x0, x0, #0x80
  4049c4:	93407c21 	sxtw	x1, w1
  4049c8:	f94383e2 	ldr	x2, [sp, #1792]
  4049cc:	f8217802 	str	x2, [x0, x1, lsl #3]
  4049d0:	900000e0 	adrp	x0, 420000 <__libc_start_main@GLIBC_2.34>
  4049d4:	9101e000 	add	x0, x0, #0x78
  4049d8:	b9400000 	ldr	w0, [x0]
  4049dc:	11000801 	add	w1, w0, #0x2
  4049e0:	900000e0 	adrp	x0, 420000 <__libc_start_main@GLIBC_2.34>
  4049e4:	91020000 	add	x0, x0, #0x80
  4049e8:	93407c21 	sxtw	x1, w1
  4049ec:	f9437fe2 	ldr	x2, [sp, #1784]
  4049f0:	f8217802 	str	x2, [x0, x1, lsl #3]
  4049f4:	900000e0 	adrp	x0, 420000 <__libc_start_main@GLIBC_2.34>
  4049f8:	9101e000 	add	x0, x0, #0x78
  4049fc:	b9400000 	ldr	w0, [x0]
  404a00:	11000c01 	add	w1, w0, #0x3
  404a04:	900000e0 	adrp	x0, 420000 <__libc_start_main@GLIBC_2.34>
  404a08:	9101e000 	add	x0, x0, #0x78
  404a0c:	b9000001 	str	w1, [x0]
  404a10:	900000e0 	adrp	x0, 420000 <__libc_start_main@GLIBC_2.34>
  404a14:	9100b000 	add	x0, x0, #0x2c
  404a18:	b9400000 	ldr	w0, [x0]
  404a1c:	7100101f 	cmp	w0, #0x4
  404a20:	54000a8d 	b.le	404b70 <main+0x456c>
  404a24:	900000e0 	adrp	x0, 420000 <__libc_start_main@GLIBC_2.34>
  404a28:	9101e000 	add	x0, x0, #0x78
  404a2c:	b9400000 	ldr	w0, [x0]
  404a30:	71000c1f 	cmp	w0, #0x3
  404a34:	540009ec 	b.gt	404b70 <main+0x456c>
  404a38:	900000e0 	adrp	x0, 420000 <__libc_start_main@GLIBC_2.34>
  404a3c:	91014000 	add	x0, x0, #0x50
  404a40:	f9400801 	ldr	x1, [x0, #16]
  404a44:	900000e0 	adrp	x0, 420000 <__libc_start_main@GLIBC_2.34>
  404a48:	91014000 	add	x0, x0, #0x50
  404a4c:	f9400000 	ldr	x0, [x0]
  404a50:	eb00003f 	cmp	x1, x0
  404a54:	540008e1 	b.ne	404b70 <main+0x456c>  // b.any
  404a58:	900000e0 	adrp	x0, 420000 <__libc_start_main@GLIBC_2.34>
  404a5c:	91014000 	add	x0, x0, #0x50
  404a60:	f9400801 	ldr	x1, [x0, #16]
  404a64:	900000e0 	adrp	x0, 420000 <__libc_start_main@GLIBC_2.34>
  404a68:	91014000 	add	x0, x0, #0x50
  404a6c:	f9401000 	ldr	x0, [x0, #32]
  404a70:	eb00003f 	cmp	x1, x0
  404a74:	540007e1 	b.ne	404b70 <main+0x456c>  // b.any
  404a78:	900000e0 	adrp	x0, 420000 <__libc_start_main@GLIBC_2.34>
  404a7c:	91014000 	add	x0, x0, #0x50
  404a80:	f9400400 	ldr	x0, [x0, #8]
  404a84:	f9037be0 	str	x0, [sp, #1776]
  404a88:	900000e0 	adrp	x0, 420000 <__libc_start_main@GLIBC_2.34>
  404a8c:	91014000 	add	x0, x0, #0x50
  404a90:	f9400800 	ldr	x0, [x0, #16]
  404a94:	f90377e0 	str	x0, [sp, #1768]
  404a98:	f94377e1 	ldr	x1, [sp, #1768]
  404a9c:	f9437be0 	ldr	x0, [sp, #1776]
  404aa0:	eb00003f 	cmp	x1, x0
  404aa4:	5400066d 	b.le	404b70 <main+0x456c>
  404aa8:	900000e0 	adrp	x0, 420000 <__libc_start_main@GLIBC_2.34>
  404aac:	91014000 	add	x0, x0, #0x50
  404ab0:	f9400c01 	ldr	x1, [x0, #24]
  404ab4:	900000e0 	adrp	x0, 420000 <__libc_start_main@GLIBC_2.34>
  404ab8:	91014000 	add	x0, x0, #0x50
  404abc:	f9000001 	str	x1, [x0]
  404ac0:	900000e0 	adrp	x0, 420000 <__libc_start_main@GLIBC_2.34>
  404ac4:	9100b000 	add	x0, x0, #0x2c
  404ac8:	b9400000 	ldr	w0, [x0]
  404acc:	51001001 	sub	w1, w0, #0x4
  404ad0:	900000e0 	adrp	x0, 420000 <__libc_start_main@GLIBC_2.34>
  404ad4:	9100b000 	add	x0, x0, #0x2c
  404ad8:	b9000001 	str	w1, [x0]
  404adc:	f9437be1 	ldr	x1, [sp, #1776]
  404ae0:	f94377e0 	ldr	x0, [sp, #1768]
  404ae4:	8b000020 	add	x0, x1, x0
  404ae8:	f90373e0 	str	x0, [sp, #1760]
  404aec:	900000e0 	adrp	x0, 420000 <__libc_start_main@GLIBC_2.34>
  404af0:	9101e000 	add	x0, x0, #0x78
  404af4:	b9400001 	ldr	w1, [x0]
  404af8:	900000e0 	adrp	x0, 420000 <__libc_start_main@GLIBC_2.34>
  404afc:	91020000 	add	x0, x0, #0x80
  404b00:	93407c21 	sxtw	x1, w1
  404b04:	f9437be2 	ldr	x2, [sp, #1776]
  404b08:	f8217802 	str	x2, [x0, x1, lsl #3]
  404b0c:	900000e0 	adrp	x0, 420000 <__libc_start_main@GLIBC_2.34>
  404b10:	9101e000 	add	x0, x0, #0x78
  404b14:	b9400000 	ldr	w0, [x0]
  404b18:	11000401 	add	w1, w0, #0x1
  404b1c:	900000e0 	adrp	x0, 420000 <__libc_start_main@GLIBC_2.34>
  404b20:	91020000 	add	x0, x0, #0x80
  404b24:	93407c21 	sxtw	x1, w1
  404b28:	f94377e2 	ldr	x2, [sp, #1768]
  404b2c:	f8217802 	str	x2, [x0, x1, lsl #3]
  404b30:	900000e0 	adrp	x0, 420000 <__libc_start_main@GLIBC_2.34>
  404b34:	9101e000 	add	x0, x0, #0x78
  404b38:	b9400000 	ldr	w0, [x0]
  404b3c:	11000801 	add	w1, w0, #0x2
  404b40:	900000e0 	adrp	x0, 420000 <__libc_start_main@GLIBC_2.34>
  404b44:	91020000 	add	x0, x0, #0x80
  404b48:	93407c21 	sxtw	x1, w1
  404b4c:	f94373e2 	ldr	x2, [sp, #1760]
  404b50:	f8217802 	str	x2, [x0, x1, lsl #3]
  404b54:	900000e0 	adrp	x0, 420000 <__libc_start_main@GLIBC_2.34>
  404b58:	9101e000 	add	x0, x0, #0x78
  404b5c:	b9400000 	ldr	w0, [x0]
  404b60:	11000c01 	add	w1, w0, #0x3
  404b64:	900000e0 	adrp	x0, 420000 <__libc_start_main@GLIBC_2.34>
  404b68:	9101e000 	add	x0, x0, #0x78
  404b6c:	b9000001 	str	w1, [x0]
  404b70:	900000e0 	adrp	x0, 420000 <__libc_start_main@GLIBC_2.34>
  404b74:	9100b000 	add	x0, x0, #0x2c
  404b78:	b9400000 	ldr	w0, [x0]
  404b7c:	7100101f 	cmp	w0, #0x4
  404b80:	540009cd 	b.le	404cb8 <main+0x46b4>
  404b84:	900000e0 	adrp	x0, 420000 <__libc_start_main@GLIBC_2.34>
  404b88:	9101e000 	add	x0, x0, #0x78
  404b8c:	b9400000 	ldr	w0, [x0]
  404b90:	71000c1f 	cmp	w0, #0x3
  404b94:	5400092c 	b.gt	404cb8 <main+0x46b4>
  404b98:	900000e0 	adrp	x0, 420000 <__libc_start_main@GLIBC_2.34>
  404b9c:	91014000 	add	x0, x0, #0x50
  404ba0:	f9400801 	ldr	x1, [x0, #16]
  404ba4:	900000e0 	adrp	x0, 420000 <__libc_start_main@GLIBC_2.34>
  404ba8:	91014000 	add	x0, x0, #0x50
  404bac:	f9400c00 	ldr	x0, [x0, #24]
  404bb0:	eb00003f 	cmp	x1, x0
  404bb4:	54000821 	b.ne	404cb8 <main+0x46b4>  // b.any
  404bb8:	900000e0 	adrp	x0, 420000 <__libc_start_main@GLIBC_2.34>
  404bbc:	91014000 	add	x0, x0, #0x50
  404bc0:	f9400801 	ldr	x1, [x0, #16]
  404bc4:	900000e0 	adrp	x0, 420000 <__libc_start_main@GLIBC_2.34>
  404bc8:	91014000 	add	x0, x0, #0x50
  404bcc:	f9401000 	ldr	x0, [x0, #32]
  404bd0:	eb00003f 	cmp	x1, x0
  404bd4:	54000721 	b.ne	404cb8 <main+0x46b4>  // b.any
  404bd8:	900000e0 	adrp	x0, 420000 <__libc_start_main@GLIBC_2.34>
  404bdc:	91014000 	add	x0, x0, #0x50
  404be0:	f9400400 	ldr	x0, [x0, #8]
  404be4:	f9036fe0 	str	x0, [sp, #1752]
  404be8:	900000e0 	adrp	x0, 420000 <__libc_start_main@GLIBC_2.34>
  404bec:	91014000 	add	x0, x0, #0x50
  404bf0:	f9400800 	ldr	x0, [x0, #16]
  404bf4:	f9036be0 	str	x0, [sp, #1744]
  404bf8:	f9436be1 	ldr	x1, [sp, #1744]
  404bfc:	f9436fe0 	ldr	x0, [sp, #1752]
  404c00:	eb00003f 	cmp	x1, x0
  404c04:	540005ad 	b.le	404cb8 <main+0x46b4>
  404c08:	900000e0 	adrp	x0, 420000 <__libc_start_main@GLIBC_2.34>
  404c0c:	9100b000 	add	x0, x0, #0x2c
  404c10:	b9400000 	ldr	w0, [x0]
  404c14:	51001001 	sub	w1, w0, #0x4
  404c18:	900000e0 	adrp	x0, 420000 <__libc_start_main@GLIBC_2.34>
  404c1c:	9100b000 	add	x0, x0, #0x2c
  404c20:	b9000001 	str	w1, [x0]
  404c24:	f9436fe1 	ldr	x1, [sp, #1752]
  404c28:	f9436be0 	ldr	x0, [sp, #1744]
  404c2c:	8b000020 	add	x0, x1, x0
  404c30:	f90367e0 	str	x0, [sp, #1736]
  404c34:	900000e0 	adrp	x0, 420000 <__libc_start_main@GLIBC_2.34>
  404c38:	9101e000 	add	x0, x0, #0x78
  404c3c:	b9400001 	ldr	w1, [x0]
  404c40:	900000e0 	adrp	x0, 420000 <__libc_start_main@GLIBC_2.34>
  404c44:	91020000 	add	x0, x0, #0x80
  404c48:	93407c21 	sxtw	x1, w1
  404c4c:	f9436fe2 	ldr	x2, [sp, #1752]
  404c50:	f8217802 	str	x2, [x0, x1, lsl #3]
  404c54:	900000e0 	adrp	x0, 420000 <__libc_start_main@GLIBC_2.34>
  404c58:	9101e000 	add	x0, x0, #0x78
  404c5c:	b9400000 	ldr	w0, [x0]
  404c60:	11000401 	add	w1, w0, #0x1
  404c64:	900000e0 	adrp	x0, 420000 <__libc_start_main@GLIBC_2.34>
  404c68:	91020000 	add	x0, x0, #0x80
  404c6c:	93407c21 	sxtw	x1, w1
  404c70:	f9436be2 	ldr	x2, [sp, #1744]
  404c74:	f8217802 	str	x2, [x0, x1, lsl #3]
  404c78:	900000e0 	adrp	x0, 420000 <__libc_start_main@GLIBC_2.34>
  404c7c:	9101e000 	add	x0, x0, #0x78
  404c80:	b9400000 	ldr	w0, [x0]
  404c84:	11000801 	add	w1, w0, #0x2
  404c88:	900000e0 	adrp	x0, 420000 <__libc_start_main@GLIBC_2.34>
  404c8c:	91020000 	add	x0, x0, #0x80
  404c90:	93407c21 	sxtw	x1, w1
  404c94:	f94367e2 	ldr	x2, [sp, #1736]
  404c98:	f8217802 	str	x2, [x0, x1, lsl #3]
  404c9c:	900000e0 	adrp	x0, 420000 <__libc_start_main@GLIBC_2.34>
  404ca0:	9101e000 	add	x0, x0, #0x78
  404ca4:	b9400000 	ldr	w0, [x0]
  404ca8:	11000c01 	add	w1, w0, #0x3
  404cac:	900000e0 	adrp	x0, 420000 <__libc_start_main@GLIBC_2.34>
  404cb0:	9101e000 	add	x0, x0, #0x78
  404cb4:	b9000001 	str	w1, [x0]
  404cb8:	900000e0 	adrp	x0, 420000 <__libc_start_main@GLIBC_2.34>
  404cbc:	9100b000 	add	x0, x0, #0x2c
  404cc0:	b9400000 	ldr	w0, [x0]
  404cc4:	7100101f 	cmp	w0, #0x4
  404cc8:	54000a8d 	b.le	404e18 <main+0x4814>
  404ccc:	900000e0 	adrp	x0, 420000 <__libc_start_main@GLIBC_2.34>
  404cd0:	9101e000 	add	x0, x0, #0x78
  404cd4:	b9400000 	ldr	w0, [x0]
  404cd8:	71000c1f 	cmp	w0, #0x3
  404cdc:	540009ec 	b.gt	404e18 <main+0x4814>
  404ce0:	900000e0 	adrp	x0, 420000 <__libc_start_main@GLIBC_2.34>
  404ce4:	91014000 	add	x0, x0, #0x50
  404ce8:	f9400801 	ldr	x1, [x0, #16]
  404cec:	900000e0 	adrp	x0, 420000 <__libc_start_main@GLIBC_2.34>
  404cf0:	91014000 	add	x0, x0, #0x50
  404cf4:	f9401000 	ldr	x0, [x0, #32]
  404cf8:	eb00003f 	cmp	x1, x0
  404cfc:	540008e1 	b.ne	404e18 <main+0x4814>  // b.any
  404d00:	900000e0 	adrp	x0, 420000 <__libc_start_main@GLIBC_2.34>
  404d04:	91014000 	add	x0, x0, #0x50
  404d08:	f9400801 	ldr	x1, [x0, #16]
  404d0c:	900000e0 	adrp	x0, 420000 <__libc_start_main@GLIBC_2.34>
  404d10:	91014000 	add	x0, x0, #0x50
  404d14:	f9400000 	ldr	x0, [x0]
  404d18:	eb00003f 	cmp	x1, x0
  404d1c:	540007e1 	b.ne	404e18 <main+0x4814>  // b.any
  404d20:	900000e0 	adrp	x0, 420000 <__libc_start_main@GLIBC_2.34>
  404d24:	91014000 	add	x0, x0, #0x50
  404d28:	f9400400 	ldr	x0, [x0, #8]
  404d2c:	f90363e0 	str	x0, [sp, #1728]
  404d30:	900000e0 	adrp	x0, 420000 <__libc_start_main@GLIBC_2.34>
  404d34:	91014000 	add	x0, x0, #0x50
  404d38:	f9400800 	ldr	x0, [x0, #16]
  404d3c:	f9035fe0 	str	x0, [sp, #1720]
  404d40:	f9435fe1 	ldr	x1, [sp, #1720]
  404d44:	f94363e0 	ldr	x0, [sp, #1728]
  404d48:	eb00003f 	cmp	x1, x0
  404d4c:	5400066d 	b.le	404e18 <main+0x4814>
  404d50:	900000e0 	adrp	x0, 420000 <__libc_start_main@GLIBC_2.34>
  404d54:	91014000 	add	x0, x0, #0x50
  404d58:	f9400c01 	ldr	x1, [x0, #24]
  404d5c:	900000e0 	adrp	x0, 420000 <__libc_start_main@GLIBC_2.34>
  404d60:	91014000 	add	x0, x0, #0x50
  404d64:	f9000001 	str	x1, [x0]
  404d68:	900000e0 	adrp	x0, 420000 <__libc_start_main@GLIBC_2.34>
  404d6c:	9100b000 	add	x0, x0, #0x2c
  404d70:	b9400000 	ldr	w0, [x0]
  404d74:	51001001 	sub	w1, w0, #0x4
  404d78:	900000e0 	adrp	x0, 420000 <__libc_start_main@GLIBC_2.34>
  404d7c:	9100b000 	add	x0, x0, #0x2c
  404d80:	b9000001 	str	w1, [x0]
  404d84:	f94363e1 	ldr	x1, [sp, #1728]
  404d88:	f9435fe0 	ldr	x0, [sp, #1720]
  404d8c:	8b000020 	add	x0, x1, x0
  404d90:	f9035be0 	str	x0, [sp, #1712]
  404d94:	900000e0 	adrp	x0, 420000 <__libc_start_main@GLIBC_2.34>
  404d98:	9101e000 	add	x0, x0, #0x78
  404d9c:	b9400001 	ldr	w1, [x0]
  404da0:	900000e0 	adrp	x0, 420000 <__libc_start_main@GLIBC_2.34>
  404da4:	91020000 	add	x0, x0, #0x80
  404da8:	93407c21 	sxtw	x1, w1
  404dac:	f94363e2 	ldr	x2, [sp, #1728]
  404db0:	f8217802 	str	x2, [x0, x1, lsl #3]
  404db4:	900000e0 	adrp	x0, 420000 <__libc_start_main@GLIBC_2.34>
  404db8:	9101e000 	add	x0, x0, #0x78
  404dbc:	b9400000 	ldr	w0, [x0]
  404dc0:	11000401 	add	w1, w0, #0x1
  404dc4:	900000e0 	adrp	x0, 420000 <__libc_start_main@GLIBC_2.34>
  404dc8:	91020000 	add	x0, x0, #0x80
  404dcc:	93407c21 	sxtw	x1, w1
  404dd0:	f9435fe2 	ldr	x2, [sp, #1720]
  404dd4:	f8217802 	str	x2, [x0, x1, lsl #3]
  404dd8:	900000e0 	adrp	x0, 420000 <__libc_start_main@GLIBC_2.34>
  404ddc:	9101e000 	add	x0, x0, #0x78
  404de0:	b9400000 	ldr	w0, [x0]
  404de4:	11000801 	add	w1, w0, #0x2
  404de8:	900000e0 	adrp	x0, 420000 <__libc_start_main@GLIBC_2.34>
  404dec:	91020000 	add	x0, x0, #0x80
  404df0:	93407c21 	sxtw	x1, w1
  404df4:	f9435be2 	ldr	x2, [sp, #1712]
  404df8:	f8217802 	str	x2, [x0, x1, lsl #3]
  404dfc:	900000e0 	adrp	x0, 420000 <__libc_start_main@GLIBC_2.34>
  404e00:	9101e000 	add	x0, x0, #0x78
  404e04:	b9400000 	ldr	w0, [x0]
  404e08:	11000c01 	add	w1, w0, #0x3
  404e0c:	900000e0 	adrp	x0, 420000 <__libc_start_main@GLIBC_2.34>
  404e10:	9101e000 	add	x0, x0, #0x78
  404e14:	b9000001 	str	w1, [x0]
  404e18:	900000e0 	adrp	x0, 420000 <__libc_start_main@GLIBC_2.34>
  404e1c:	9100b000 	add	x0, x0, #0x2c
  404e20:	b9400000 	ldr	w0, [x0]
  404e24:	7100101f 	cmp	w0, #0x4
  404e28:	540009cd 	b.le	404f60 <main+0x495c>
  404e2c:	900000e0 	adrp	x0, 420000 <__libc_start_main@GLIBC_2.34>
  404e30:	9101e000 	add	x0, x0, #0x78
  404e34:	b9400000 	ldr	w0, [x0]
  404e38:	71000c1f 	cmp	w0, #0x3
  404e3c:	5400092c 	b.gt	404f60 <main+0x495c>
  404e40:	900000e0 	adrp	x0, 420000 <__libc_start_main@GLIBC_2.34>
  404e44:	91014000 	add	x0, x0, #0x50
  404e48:	f9400801 	ldr	x1, [x0, #16]
  404e4c:	900000e0 	adrp	x0, 420000 <__libc_start_main@GLIBC_2.34>
  404e50:	91014000 	add	x0, x0, #0x50
  404e54:	f9401000 	ldr	x0, [x0, #32]
  404e58:	eb00003f 	cmp	x1, x0
  404e5c:	54000821 	b.ne	404f60 <main+0x495c>  // b.any
  404e60:	900000e0 	adrp	x0, 420000 <__libc_start_main@GLIBC_2.34>
  404e64:	91014000 	add	x0, x0, #0x50
  404e68:	f9400801 	ldr	x1, [x0, #16]
  404e6c:	900000e0 	adrp	x0, 420000 <__libc_start_main@GLIBC_2.34>
  404e70:	91014000 	add	x0, x0, #0x50
  404e74:	f9400c00 	ldr	x0, [x0, #24]
  404e78:	eb00003f 	cmp	x1, x0
  404e7c:	54000721 	b.ne	404f60 <main+0x495c>  // b.any
  404e80:	900000e0 	adrp	x0, 420000 <__libc_start_main@GLIBC_2.34>
  404e84:	91014000 	add	x0, x0, #0x50
  404e88:	f9400400 	ldr	x0, [x0, #8]
  404e8c:	f90357e0 	str	x0, [sp, #1704]
  404e90:	900000e0 	adrp	x0, 420000 <__libc_start_main@GLIBC_2.34>
  404e94:	91014000 	add	x0, x0, #0x50
  404e98:	f9400800 	ldr	x0, [x0, #16]
  404e9c:	f90353e0 	str	x0, [sp, #1696]
  404ea0:	f94353e1 	ldr	x1, [sp, #1696]
  404ea4:	f94357e0 	ldr	x0, [sp, #1704]
  404ea8:	eb00003f 	cmp	x1, x0
  404eac:	540005ad 	b.le	404f60 <main+0x495c>
  404eb0:	900000e0 	adrp	x0, 420000 <__libc_start_main@GLIBC_2.34>
  404eb4:	9100b000 	add	x0, x0, #0x2c
  404eb8:	b9400000 	ldr	w0, [x0]
  404ebc:	51001001 	sub	w1, w0, #0x4
  404ec0:	900000e0 	adrp	x0, 420000 <__libc_start_main@GLIBC_2.34>
  404ec4:	9100b000 	add	x0, x0, #0x2c
  404ec8:	b9000001 	str	w1, [x0]
  404ecc:	f94357e1 	ldr	x1, [sp, #1704]
  404ed0:	f94353e0 	ldr	x0, [sp, #1696]
  404ed4:	8b000020 	add	x0, x1, x0
  404ed8:	f9034fe0 	str	x0, [sp, #1688]
  404edc:	900000e0 	adrp	x0, 420000 <__libc_start_main@GLIBC_2.34>
  404ee0:	9101e000 	add	x0, x0, #0x78
  404ee4:	b9400001 	ldr	w1, [x0]
  404ee8:	900000e0 	adrp	x0, 420000 <__libc_start_main@GLIBC_2.34>
  404eec:	91020000 	add	x0, x0, #0x80
  404ef0:	93407c21 	sxtw	x1, w1
  404ef4:	f94357e2 	ldr	x2, [sp, #1704]
  404ef8:	f8217802 	str	x2, [x0, x1, lsl #3]
  404efc:	900000e0 	adrp	x0, 420000 <__libc_start_main@GLIBC_2.34>
  404f00:	9101e000 	add	x0, x0, #0x78
  404f04:	b9400000 	ldr	w0, [x0]
  404f08:	11000401 	add	w1, w0, #0x1
  404f0c:	900000e0 	adrp	x0, 420000 <__libc_start_main@GLIBC_2.34>
  404f10:	91020000 	add	x0, x0, #0x80
  404f14:	93407c21 	sxtw	x1, w1
  404f18:	f94353e2 	ldr	x2, [sp, #1696]
  404f1c:	f8217802 	str	x2, [x0, x1, lsl #3]
  404f20:	900000e0 	adrp	x0, 420000 <__libc_start_main@GLIBC_2.34>
  404f24:	9101e000 	add	x0, x0, #0x78
  404f28:	b9400000 	ldr	w0, [x0]
  404f2c:	11000801 	add	w1, w0, #0x2
  404f30:	900000e0 	adrp	x0, 420000 <__libc_start_main@GLIBC_2.34>
  404f34:	91020000 	add	x0, x0, #0x80
  404f38:	93407c21 	sxtw	x1, w1
  404f3c:	f9434fe2 	ldr	x2, [sp, #1688]
  404f40:	f8217802 	str	x2, [x0, x1, lsl #3]
  404f44:	900000e0 	adrp	x0, 420000 <__libc_start_main@GLIBC_2.34>
  404f48:	9101e000 	add	x0, x0, #0x78
  404f4c:	b9400000 	ldr	w0, [x0]
  404f50:	11000c01 	add	w1, w0, #0x3
  404f54:	900000e0 	adrp	x0, 420000 <__libc_start_main@GLIBC_2.34>
  404f58:	9101e000 	add	x0, x0, #0x78
  404f5c:	b9000001 	str	w1, [x0]
  404f60:	900000e0 	adrp	x0, 420000 <__libc_start_main@GLIBC_2.34>
  404f64:	9100b000 	add	x0, x0, #0x2c
  404f68:	b9400000 	ldr	w0, [x0]
  404f6c:	7100101f 	cmp	w0, #0x4
  404f70:	54000a8d 	b.le	4050c0 <main+0x4abc>
  404f74:	900000e0 	adrp	x0, 420000 <__libc_start_main@GLIBC_2.34>
  404f78:	9101e000 	add	x0, x0, #0x78
  404f7c:	b9400000 	ldr	w0, [x0]
  404f80:	71000c1f 	cmp	w0, #0x3
  404f84:	540009ec 	b.gt	4050c0 <main+0x4abc>
  404f88:	900000e0 	adrp	x0, 420000 <__libc_start_main@GLIBC_2.34>
  404f8c:	91014000 	add	x0, x0, #0x50
  404f90:	f9400c01 	ldr	x1, [x0, #24]
  404f94:	900000e0 	adrp	x0, 420000 <__libc_start_main@GLIBC_2.34>
  404f98:	91014000 	add	x0, x0, #0x50
  404f9c:	f9400000 	ldr	x0, [x0]
  404fa0:	eb00003f 	cmp	x1, x0
  404fa4:	540008e1 	b.ne	4050c0 <main+0x4abc>  // b.any
  404fa8:	900000e0 	adrp	x0, 420000 <__libc_start_main@GLIBC_2.34>
  404fac:	91014000 	add	x0, x0, #0x50
  404fb0:	f9400c01 	ldr	x1, [x0, #24]
  404fb4:	900000e0 	adrp	x0, 420000 <__libc_start_main@GLIBC_2.34>
  404fb8:	91014000 	add	x0, x0, #0x50
  404fbc:	f9401000 	ldr	x0, [x0, #32]
  404fc0:	eb00003f 	cmp	x1, x0
  404fc4:	540007e1 	b.ne	4050c0 <main+0x4abc>  // b.any
  404fc8:	900000e0 	adrp	x0, 420000 <__libc_start_main@GLIBC_2.34>
  404fcc:	91014000 	add	x0, x0, #0x50
  404fd0:	f9400400 	ldr	x0, [x0, #8]
  404fd4:	f9034be0 	str	x0, [sp, #1680]
  404fd8:	900000e0 	adrp	x0, 420000 <__libc_start_main@GLIBC_2.34>
  404fdc:	91014000 	add	x0, x0, #0x50
  404fe0:	f9400c00 	ldr	x0, [x0, #24]
  404fe4:	f90347e0 	str	x0, [sp, #1672]
  404fe8:	f94347e1 	ldr	x1, [sp, #1672]
  404fec:	f9434be0 	ldr	x0, [sp, #1680]
  404ff0:	eb00003f 	cmp	x1, x0
  404ff4:	5400066d 	b.le	4050c0 <main+0x4abc>
  404ff8:	900000e0 	adrp	x0, 420000 <__libc_start_main@GLIBC_2.34>
  404ffc:	91014000 	add	x0, x0, #0x50
  405000:	f9400801 	ldr	x1, [x0, #16]
  405004:	f00000c0 	adrp	x0, 420000 <__libc_start_main@GLIBC_2.34>
  405008:	91014000 	add	x0, x0, #0x50
  40500c:	f9000001 	str	x1, [x0]
  405010:	f00000c0 	adrp	x0, 420000 <__libc_start_main@GLIBC_2.34>
  405014:	9100b000 	add	x0, x0, #0x2c
  405018:	b9400000 	ldr	w0, [x0]
  40501c:	51001001 	sub	w1, w0, #0x4
  405020:	f00000c0 	adrp	x0, 420000 <__libc_start_main@GLIBC_2.34>
  405024:	9100b000 	add	x0, x0, #0x2c
  405028:	b9000001 	str	w1, [x0]
  40502c:	f9434be1 	ldr	x1, [sp, #1680]
  405030:	f94347e0 	ldr	x0, [sp, #1672]
  405034:	8b000020 	add	x0, x1, x0
  405038:	f90343e0 	str	x0, [sp, #1664]
  40503c:	f00000c0 	adrp	x0, 420000 <__libc_start_main@GLIBC_2.34>
  405040:	9101e000 	add	x0, x0, #0x78
  405044:	b9400001 	ldr	w1, [x0]
  405048:	f00000c0 	adrp	x0, 420000 <__libc_start_main@GLIBC_2.34>
  40504c:	91020000 	add	x0, x0, #0x80
  405050:	93407c21 	sxtw	x1, w1
  405054:	f9434be2 	ldr	x2, [sp, #1680]
  405058:	f8217802 	str	x2, [x0, x1, lsl #3]
  40505c:	f00000c0 	adrp	x0, 420000 <__libc_start_main@GLIBC_2.34>
  405060:	9101e000 	add	x0, x0, #0x78
  405064:	b9400000 	ldr	w0, [x0]
  405068:	11000401 	add	w1, w0, #0x1
  40506c:	f00000c0 	adrp	x0, 420000 <__libc_start_main@GLIBC_2.34>
  405070:	91020000 	add	x0, x0, #0x80
  405074:	93407c21 	sxtw	x1, w1
  405078:	f94347e2 	ldr	x2, [sp, #1672]
  40507c:	f8217802 	str	x2, [x0, x1, lsl #3]
  405080:	f00000c0 	adrp	x0, 420000 <__libc_start_main@GLIBC_2.34>
  405084:	9101e000 	add	x0, x0, #0x78
  405088:	b9400000 	ldr	w0, [x0]
  40508c:	11000801 	add	w1, w0, #0x2
  405090:	f00000c0 	adrp	x0, 420000 <__libc_start_main@GLIBC_2.34>
  405094:	91020000 	add	x0, x0, #0x80
  405098:	93407c21 	sxtw	x1, w1
  40509c:	f94343e2 	ldr	x2, [sp, #1664]
  4050a0:	f8217802 	str	x2, [x0, x1, lsl #3]
  4050a4:	f00000c0 	adrp	x0, 420000 <__libc_start_main@GLIBC_2.34>
  4050a8:	9101e000 	add	x0, x0, #0x78
  4050ac:	b9400000 	ldr	w0, [x0]
  4050b0:	11000c01 	add	w1, w0, #0x3
  4050b4:	f00000c0 	adrp	x0, 420000 <__libc_start_main@GLIBC_2.34>
  4050b8:	9101e000 	add	x0, x0, #0x78
  4050bc:	b9000001 	str	w1, [x0]
  4050c0:	f00000c0 	adrp	x0, 420000 <__libc_start_main@GLIBC_2.34>
  4050c4:	9100b000 	add	x0, x0, #0x2c
  4050c8:	b9400000 	ldr	w0, [x0]
  4050cc:	7100101f 	cmp	w0, #0x4
  4050d0:	540009cd 	b.le	405208 <main+0x4c04>
  4050d4:	f00000c0 	adrp	x0, 420000 <__libc_start_main@GLIBC_2.34>
  4050d8:	9101e000 	add	x0, x0, #0x78
  4050dc:	b9400000 	ldr	w0, [x0]
  4050e0:	71000c1f 	cmp	w0, #0x3
  4050e4:	5400092c 	b.gt	405208 <main+0x4c04>
  4050e8:	f00000c0 	adrp	x0, 420000 <__libc_start_main@GLIBC_2.34>
  4050ec:	91014000 	add	x0, x0, #0x50
  4050f0:	f9400c01 	ldr	x1, [x0, #24]
  4050f4:	f00000c0 	adrp	x0, 420000 <__libc_start_main@GLIBC_2.34>
  4050f8:	91014000 	add	x0, x0, #0x50
  4050fc:	f9400800 	ldr	x0, [x0, #16]
  405100:	eb00003f 	cmp	x1, x0
  405104:	54000821 	b.ne	405208 <main+0x4c04>  // b.any
  405108:	f00000c0 	adrp	x0, 420000 <__libc_start_main@GLIBC_2.34>
  40510c:	91014000 	add	x0, x0, #0x50
  405110:	f9400c01 	ldr	x1, [x0, #24]
  405114:	f00000c0 	adrp	x0, 420000 <__libc_start_main@GLIBC_2.34>
  405118:	91014000 	add	x0, x0, #0x50
  40511c:	f9401000 	ldr	x0, [x0, #32]
  405120:	eb00003f 	cmp	x1, x0
  405124:	54000721 	b.ne	405208 <main+0x4c04>  // b.any
  405128:	f00000c0 	adrp	x0, 420000 <__libc_start_main@GLIBC_2.34>
  40512c:	91014000 	add	x0, x0, #0x50
  405130:	f9400400 	ldr	x0, [x0, #8]
  405134:	f9033fe0 	str	x0, [sp, #1656]
  405138:	f00000c0 	adrp	x0, 420000 <__libc_start_main@GLIBC_2.34>
  40513c:	91014000 	add	x0, x0, #0x50
  405140:	f9400c00 	ldr	x0, [x0, #24]
  405144:	f9033be0 	str	x0, [sp, #1648]
  405148:	f9433be1 	ldr	x1, [sp, #1648]
  40514c:	f9433fe0 	ldr	x0, [sp, #1656]
  405150:	eb00003f 	cmp	x1, x0
  405154:	540005ad 	b.le	405208 <main+0x4c04>
  405158:	f00000c0 	adrp	x0, 420000 <__libc_start_main@GLIBC_2.34>
  40515c:	9100b000 	add	x0, x0, #0x2c
  405160:	b9400000 	ldr	w0, [x0]
  405164:	51001001 	sub	w1, w0, #0x4
  405168:	f00000c0 	adrp	x0, 420000 <__libc_start_main@GLIBC_2.34>
  40516c:	9100b000 	add	x0, x0, #0x2c
  405170:	b9000001 	str	w1, [x0]
  405174:	f9433fe1 	ldr	x1, [sp, #1656]
  405178:	f9433be0 	ldr	x0, [sp, #1648]
  40517c:	8b000020 	add	x0, x1, x0
  405180:	f90337e0 	str	x0, [sp, #1640]
  405184:	f00000c0 	adrp	x0, 420000 <__libc_start_main@GLIBC_2.34>
  405188:	9101e000 	add	x0, x0, #0x78
  40518c:	b9400001 	ldr	w1, [x0]
  405190:	f00000c0 	adrp	x0, 420000 <__libc_start_main@GLIBC_2.34>
  405194:	91020000 	add	x0, x0, #0x80
  405198:	93407c21 	sxtw	x1, w1
  40519c:	f9433fe2 	ldr	x2, [sp, #1656]
  4051a0:	f8217802 	str	x2, [x0, x1, lsl #3]
  4051a4:	f00000c0 	adrp	x0, 420000 <__libc_start_main@GLIBC_2.34>
  4051a8:	9101e000 	add	x0, x0, #0x78
  4051ac:	b9400000 	ldr	w0, [x0]
  4051b0:	11000401 	add	w1, w0, #0x1
  4051b4:	f00000c0 	adrp	x0, 420000 <__libc_start_main@GLIBC_2.34>
  4051b8:	91020000 	add	x0, x0, #0x80
  4051bc:	93407c21 	sxtw	x1, w1
  4051c0:	f9433be2 	ldr	x2, [sp, #1648]
  4051c4:	f8217802 	str	x2, [x0, x1, lsl #3]
  4051c8:	f00000c0 	adrp	x0, 420000 <__libc_start_main@GLIBC_2.34>
  4051cc:	9101e000 	add	x0, x0, #0x78
  4051d0:	b9400000 	ldr	w0, [x0]
  4051d4:	11000801 	add	w1, w0, #0x2
  4051d8:	f00000c0 	adrp	x0, 420000 <__libc_start_main@GLIBC_2.34>
  4051dc:	91020000 	add	x0, x0, #0x80
  4051e0:	93407c21 	sxtw	x1, w1
  4051e4:	f94337e2 	ldr	x2, [sp, #1640]
  4051e8:	f8217802 	str	x2, [x0, x1, lsl #3]
  4051ec:	f00000c0 	adrp	x0, 420000 <__libc_start_main@GLIBC_2.34>
  4051f0:	9101e000 	add	x0, x0, #0x78
  4051f4:	b9400000 	ldr	w0, [x0]
  4051f8:	11000c01 	add	w1, w0, #0x3
  4051fc:	f00000c0 	adrp	x0, 420000 <__libc_start_main@GLIBC_2.34>
  405200:	9101e000 	add	x0, x0, #0x78
  405204:	b9000001 	str	w1, [x0]
  405208:	f00000c0 	adrp	x0, 420000 <__libc_start_main@GLIBC_2.34>
  40520c:	9100b000 	add	x0, x0, #0x2c
  405210:	b9400000 	ldr	w0, [x0]
  405214:	7100101f 	cmp	w0, #0x4
  405218:	54000a8d 	b.le	405368 <main+0x4d64>
  40521c:	f00000c0 	adrp	x0, 420000 <__libc_start_main@GLIBC_2.34>
  405220:	9101e000 	add	x0, x0, #0x78
  405224:	b9400000 	ldr	w0, [x0]
  405228:	71000c1f 	cmp	w0, #0x3
  40522c:	540009ec 	b.gt	405368 <main+0x4d64>
  405230:	f00000c0 	adrp	x0, 420000 <__libc_start_main@GLIBC_2.34>
  405234:	91014000 	add	x0, x0, #0x50
  405238:	f9400c01 	ldr	x1, [x0, #24]
  40523c:	f00000c0 	adrp	x0, 420000 <__libc_start_main@GLIBC_2.34>
  405240:	91014000 	add	x0, x0, #0x50
  405244:	f9401000 	ldr	x0, [x0, #32]
  405248:	eb00003f 	cmp	x1, x0
  40524c:	540008e1 	b.ne	405368 <main+0x4d64>  // b.any
  405250:	f00000c0 	adrp	x0, 420000 <__libc_start_main@GLIBC_2.34>
  405254:	91014000 	add	x0, x0, #0x50
  405258:	f9400c01 	ldr	x1, [x0, #24]
  40525c:	f00000c0 	adrp	x0, 420000 <__libc_start_main@GLIBC_2.34>
  405260:	91014000 	add	x0, x0, #0x50
  405264:	f9400000 	ldr	x0, [x0]
  405268:	eb00003f 	cmp	x1, x0
  40526c:	540007e1 	b.ne	405368 <main+0x4d64>  // b.any
  405270:	f00000c0 	adrp	x0, 420000 <__libc_start_main@GLIBC_2.34>
  405274:	91014000 	add	x0, x0, #0x50
  405278:	f9400400 	ldr	x0, [x0, #8]
  40527c:	f90333e0 	str	x0, [sp, #1632]
  405280:	f00000c0 	adrp	x0, 420000 <__libc_start_main@GLIBC_2.34>
  405284:	91014000 	add	x0, x0, #0x50
  405288:	f9400c00 	ldr	x0, [x0, #24]
  40528c:	f9032fe0 	str	x0, [sp, #1624]
  405290:	f9432fe1 	ldr	x1, [sp, #1624]
  405294:	f94333e0 	ldr	x0, [sp, #1632]
  405298:	eb00003f 	cmp	x1, x0
  40529c:	5400066d 	b.le	405368 <main+0x4d64>
  4052a0:	f00000c0 	adrp	x0, 420000 <__libc_start_main@GLIBC_2.34>
  4052a4:	91014000 	add	x0, x0, #0x50
  4052a8:	f9400801 	ldr	x1, [x0, #16]
  4052ac:	f00000c0 	adrp	x0, 420000 <__libc_start_main@GLIBC_2.34>
  4052b0:	91014000 	add	x0, x0, #0x50
  4052b4:	f9000001 	str	x1, [x0]
  4052b8:	f00000c0 	adrp	x0, 420000 <__libc_start_main@GLIBC_2.34>
  4052bc:	9100b000 	add	x0, x0, #0x2c
  4052c0:	b9400000 	ldr	w0, [x0]
  4052c4:	51001001 	sub	w1, w0, #0x4
  4052c8:	f00000c0 	adrp	x0, 420000 <__libc_start_main@GLIBC_2.34>
  4052cc:	9100b000 	add	x0, x0, #0x2c
  4052d0:	b9000001 	str	w1, [x0]
  4052d4:	f94333e1 	ldr	x1, [sp, #1632]
  4052d8:	f9432fe0 	ldr	x0, [sp, #1624]
  4052dc:	8b000020 	add	x0, x1, x0
  4052e0:	f9032be0 	str	x0, [sp, #1616]
  4052e4:	f00000c0 	adrp	x0, 420000 <__libc_start_main@GLIBC_2.34>
  4052e8:	9101e000 	add	x0, x0, #0x78
  4052ec:	b9400001 	ldr	w1, [x0]
  4052f0:	f00000c0 	adrp	x0, 420000 <__libc_start_main@GLIBC_2.34>
  4052f4:	91020000 	add	x0, x0, #0x80
  4052f8:	93407c21 	sxtw	x1, w1
  4052fc:	f94333e2 	ldr	x2, [sp, #1632]
  405300:	f8217802 	str	x2, [x0, x1, lsl #3]
  405304:	f00000c0 	adrp	x0, 420000 <__libc_start_main@GLIBC_2.34>
  405308:	9101e000 	add	x0, x0, #0x78
  40530c:	b9400000 	ldr	w0, [x0]
  405310:	11000401 	add	w1, w0, #0x1
  405314:	f00000c0 	adrp	x0, 420000 <__libc_start_main@GLIBC_2.34>
  405318:	91020000 	add	x0, x0, #0x80
  40531c:	93407c21 	sxtw	x1, w1
  405320:	f9432fe2 	ldr	x2, [sp, #1624]
  405324:	f8217802 	str	x2, [x0, x1, lsl #3]
  405328:	f00000c0 	adrp	x0, 420000 <__libc_start_main@GLIBC_2.34>
  40532c:	9101e000 	add	x0, x0, #0x78
  405330:	b9400000 	ldr	w0, [x0]
  405334:	11000801 	add	w1, w0, #0x2
  405338:	f00000c0 	adrp	x0, 420000 <__libc_start_main@GLIBC_2.34>
  40533c:	91020000 	add	x0, x0, #0x80
  405340:	93407c21 	sxtw	x1, w1
  405344:	f9432be2 	ldr	x2, [sp, #1616]
  405348:	f8217802 	str	x2, [x0, x1, lsl #3]
  40534c:	f00000c0 	adrp	x0, 420000 <__libc_start_main@GLIBC_2.34>
  405350:	9101e000 	add	x0, x0, #0x78
  405354:	b9400000 	ldr	w0, [x0]
  405358:	11000c01 	add	w1, w0, #0x3
  40535c:	f00000c0 	adrp	x0, 420000 <__libc_start_main@GLIBC_2.34>
  405360:	9101e000 	add	x0, x0, #0x78
  405364:	b9000001 	str	w1, [x0]
  405368:	f00000c0 	adrp	x0, 420000 <__libc_start_main@GLIBC_2.34>
  40536c:	9100b000 	add	x0, x0, #0x2c
  405370:	b9400000 	ldr	w0, [x0]
  405374:	7100101f 	cmp	w0, #0x4
  405378:	540009cd 	b.le	4054b0 <main+0x4eac>
  40537c:	f00000c0 	adrp	x0, 420000 <__libc_start_main@GLIBC_2.34>
  405380:	9101e000 	add	x0, x0, #0x78
  405384:	b9400000 	ldr	w0, [x0]
  405388:	71000c1f 	cmp	w0, #0x3
  40538c:	5400092c 	b.gt	4054b0 <main+0x4eac>
  405390:	f00000c0 	adrp	x0, 420000 <__libc_start_main@GLIBC_2.34>
  405394:	91014000 	add	x0, x0, #0x50
  405398:	f9400c01 	ldr	x1, [x0, #24]
  40539c:	f00000c0 	adrp	x0, 420000 <__libc_start_main@GLIBC_2.34>
  4053a0:	91014000 	add	x0, x0, #0x50
  4053a4:	f9401000 	ldr	x0, [x0, #32]
  4053a8:	eb00003f 	cmp	x1, x0
  4053ac:	54000821 	b.ne	4054b0 <main+0x4eac>  // b.any
  4053b0:	f00000c0 	adrp	x0, 420000 <__libc_start_main@GLIBC_2.34>
  4053b4:	91014000 	add	x0, x0, #0x50
  4053b8:	f9400c01 	ldr	x1, [x0, #24]
  4053bc:	f00000c0 	adrp	x0, 420000 <__libc_start_main@GLIBC_2.34>
  4053c0:	91014000 	add	x0, x0, #0x50
  4053c4:	f9400800 	ldr	x0, [x0, #16]
  4053c8:	eb00003f 	cmp	x1, x0
  4053cc:	54000721 	b.ne	4054b0 <main+0x4eac>  // b.any
  4053d0:	f00000c0 	adrp	x0, 420000 <__libc_start_main@GLIBC_2.34>
  4053d4:	91014000 	add	x0, x0, #0x50
  4053d8:	f9400400 	ldr	x0, [x0, #8]
  4053dc:	f90327e0 	str	x0, [sp, #1608]
  4053e0:	f00000c0 	adrp	x0, 420000 <__libc_start_main@GLIBC_2.34>
  4053e4:	91014000 	add	x0, x0, #0x50
  4053e8:	f9400c00 	ldr	x0, [x0, #24]
  4053ec:	f90323e0 	str	x0, [sp, #1600]
  4053f0:	f94323e1 	ldr	x1, [sp, #1600]
  4053f4:	f94327e0 	ldr	x0, [sp, #1608]
  4053f8:	eb00003f 	cmp	x1, x0
  4053fc:	540005ad 	b.le	4054b0 <main+0x4eac>
  405400:	f00000c0 	adrp	x0, 420000 <__libc_start_main@GLIBC_2.34>
  405404:	9100b000 	add	x0, x0, #0x2c
  405408:	b9400000 	ldr	w0, [x0]
  40540c:	51001001 	sub	w1, w0, #0x4
  405410:	f00000c0 	adrp	x0, 420000 <__libc_start_main@GLIBC_2.34>
  405414:	9100b000 	add	x0, x0, #0x2c
  405418:	b9000001 	str	w1, [x0]
  40541c:	f94327e1 	ldr	x1, [sp, #1608]
  405420:	f94323e0 	ldr	x0, [sp, #1600]
  405424:	8b000020 	add	x0, x1, x0
  405428:	f9031fe0 	str	x0, [sp, #1592]
  40542c:	f00000c0 	adrp	x0, 420000 <__libc_start_main@GLIBC_2.34>
  405430:	9101e000 	add	x0, x0, #0x78
  405434:	b9400001 	ldr	w1, [x0]
  405438:	f00000c0 	adrp	x0, 420000 <__libc_start_main@GLIBC_2.34>
  40543c:	91020000 	add	x0, x0, #0x80
  405440:	93407c21 	sxtw	x1, w1
  405444:	f94327e2 	ldr	x2, [sp, #1608]
  405448:	f8217802 	str	x2, [x0, x1, lsl #3]
  40544c:	f00000c0 	adrp	x0, 420000 <__libc_start_main@GLIBC_2.34>
  405450:	9101e000 	add	x0, x0, #0x78
  405454:	b9400000 	ldr	w0, [x0]
  405458:	11000401 	add	w1, w0, #0x1
  40545c:	f00000c0 	adrp	x0, 420000 <__libc_start_main@GLIBC_2.34>
  405460:	91020000 	add	x0, x0, #0x80
  405464:	93407c21 	sxtw	x1, w1
  405468:	f94323e2 	ldr	x2, [sp, #1600]
  40546c:	f8217802 	str	x2, [x0, x1, lsl #3]
  405470:	f00000c0 	adrp	x0, 420000 <__libc_start_main@GLIBC_2.34>
  405474:	9101e000 	add	x0, x0, #0x78
  405478:	b9400000 	ldr	w0, [x0]
  40547c:	11000801 	add	w1, w0, #0x2
  405480:	f00000c0 	adrp	x0, 420000 <__libc_start_main@GLIBC_2.34>
  405484:	91020000 	add	x0, x0, #0x80
  405488:	93407c21 	sxtw	x1, w1
  40548c:	f9431fe2 	ldr	x2, [sp, #1592]
  405490:	f8217802 	str	x2, [x0, x1, lsl #3]
  405494:	f00000c0 	adrp	x0, 420000 <__libc_start_main@GLIBC_2.34>
  405498:	9101e000 	add	x0, x0, #0x78
  40549c:	b9400000 	ldr	w0, [x0]
  4054a0:	11000c01 	add	w1, w0, #0x3
  4054a4:	f00000c0 	adrp	x0, 420000 <__libc_start_main@GLIBC_2.34>
  4054a8:	9101e000 	add	x0, x0, #0x78
  4054ac:	b9000001 	str	w1, [x0]
  4054b0:	f00000c0 	adrp	x0, 420000 <__libc_start_main@GLIBC_2.34>
  4054b4:	9100b000 	add	x0, x0, #0x2c
  4054b8:	b9400000 	ldr	w0, [x0]
  4054bc:	7100101f 	cmp	w0, #0x4
  4054c0:	54000a8d 	b.le	405610 <main+0x500c>
  4054c4:	f00000c0 	adrp	x0, 420000 <__libc_start_main@GLIBC_2.34>
  4054c8:	9101e000 	add	x0, x0, #0x78
  4054cc:	b9400000 	ldr	w0, [x0]
  4054d0:	71000c1f 	cmp	w0, #0x3
  4054d4:	540009ec 	b.gt	405610 <main+0x500c>
  4054d8:	f00000c0 	adrp	x0, 420000 <__libc_start_main@GLIBC_2.34>
  4054dc:	91014000 	add	x0, x0, #0x50
  4054e0:	f9401001 	ldr	x1, [x0, #32]
  4054e4:	f00000c0 	adrp	x0, 420000 <__libc_start_main@GLIBC_2.34>
  4054e8:	91014000 	add	x0, x0, #0x50
  4054ec:	f9400000 	ldr	x0, [x0]
  4054f0:	eb00003f 	cmp	x1, x0
  4054f4:	540008e1 	b.ne	405610 <main+0x500c>  // b.any
  4054f8:	f00000c0 	adrp	x0, 420000 <__libc_start_main@GLIBC_2.34>
  4054fc:	91014000 	add	x0, x0, #0x50
  405500:	f9401001 	ldr	x1, [x0, #32]
  405504:	f00000c0 	adrp	x0, 420000 <__libc_start_main@GLIBC_2.34>
  405508:	91014000 	add	x0, x0, #0x50
  40550c:	f9400800 	ldr	x0, [x0, #16]
  405510:	eb00003f 	cmp	x1, x0
  405514:	540007e1 	b.ne	405610 <main+0x500c>  // b.any
  405518:	f00000c0 	adrp	x0, 420000 <__libc_start_main@GLIBC_2.34>
  40551c:	91014000 	add	x0, x0, #0x50
  405520:	f9400400 	ldr	x0, [x0, #8]
  405524:	f9031be0 	str	x0, [sp, #1584]
  405528:	f00000c0 	adrp	x0, 420000 <__libc_start_main@GLIBC_2.34>
  40552c:	91014000 	add	x0, x0, #0x50
  405530:	f9401000 	ldr	x0, [x0, #32]
  405534:	f90317e0 	str	x0, [sp, #1576]
  405538:	f94317e1 	ldr	x1, [sp, #1576]
  40553c:	f9431be0 	ldr	x0, [sp, #1584]
  405540:	eb00003f 	cmp	x1, x0
  405544:	5400066d 	b.le	405610 <main+0x500c>
  405548:	f00000c0 	adrp	x0, 420000 <__libc_start_main@GLIBC_2.34>
  40554c:	91014000 	add	x0, x0, #0x50
  405550:	f9400c01 	ldr	x1, [x0, #24]
  405554:	f00000c0 	adrp	x0, 420000 <__libc_start_main@GLIBC_2.34>
  405558:	91014000 	add	x0, x0, #0x50
  40555c:	f9000001 	str	x1, [x0]
  405560:	f00000c0 	adrp	x0, 420000 <__libc_start_main@GLIBC_2.34>
  405564:	9100b000 	add	x0, x0, #0x2c
  405568:	b9400000 	ldr	w0, [x0]
  40556c:	51001001 	sub	w1, w0, #0x4
  405570:	f00000c0 	adrp	x0, 420000 <__libc_start_main@GLIBC_2.34>
  405574:	9100b000 	add	x0, x0, #0x2c
  405578:	b9000001 	str	w1, [x0]
  40557c:	f9431be1 	ldr	x1, [sp, #1584]
  405580:	f94317e0 	ldr	x0, [sp, #1576]
  405584:	8b000020 	add	x0, x1, x0
  405588:	f90313e0 	str	x0, [sp, #1568]
  40558c:	f00000c0 	adrp	x0, 420000 <__libc_start_main@GLIBC_2.34>
  405590:	9101e000 	add	x0, x0, #0x78
  405594:	b9400001 	ldr	w1, [x0]
  405598:	f00000c0 	adrp	x0, 420000 <__libc_start_main@GLIBC_2.34>
  40559c:	91020000 	add	x0, x0, #0x80
  4055a0:	93407c21 	sxtw	x1, w1
  4055a4:	f9431be2 	ldr	x2, [sp, #1584]
  4055a8:	f8217802 	str	x2, [x0, x1, lsl #3]
  4055ac:	f00000c0 	adrp	x0, 420000 <__libc_start_main@GLIBC_2.34>
  4055b0:	9101e000 	add	x0, x0, #0x78
  4055b4:	b9400000 	ldr	w0, [x0]
  4055b8:	11000401 	add	w1, w0, #0x1
  4055bc:	f00000c0 	adrp	x0, 420000 <__libc_start_main@GLIBC_2.34>
  4055c0:	91020000 	add	x0, x0, #0x80
  4055c4:	93407c21 	sxtw	x1, w1
  4055c8:	f94317e2 	ldr	x2, [sp, #1576]
  4055cc:	f8217802 	str	x2, [x0, x1, lsl #3]
  4055d0:	f00000c0 	adrp	x0, 420000 <__libc_start_main@GLIBC_2.34>
  4055d4:	9101e000 	add	x0, x0, #0x78
  4055d8:	b9400000 	ldr	w0, [x0]
  4055dc:	11000801 	add	w1, w0, #0x2
  4055e0:	f00000c0 	adrp	x0, 420000 <__libc_start_main@GLIBC_2.34>
  4055e4:	91020000 	add	x0, x0, #0x80
  4055e8:	93407c21 	sxtw	x1, w1
  4055ec:	f94313e2 	ldr	x2, [sp, #1568]
  4055f0:	f8217802 	str	x2, [x0, x1, lsl #3]
  4055f4:	f00000c0 	adrp	x0, 420000 <__libc_start_main@GLIBC_2.34>
  4055f8:	9101e000 	add	x0, x0, #0x78
  4055fc:	b9400000 	ldr	w0, [x0]
  405600:	11000c01 	add	w1, w0, #0x3
  405604:	f00000c0 	adrp	x0, 420000 <__libc_start_main@GLIBC_2.34>
  405608:	9101e000 	add	x0, x0, #0x78
  40560c:	b9000001 	str	w1, [x0]
  405610:	f00000c0 	adrp	x0, 420000 <__libc_start_main@GLIBC_2.34>
  405614:	9100b000 	add	x0, x0, #0x2c
  405618:	b9400000 	ldr	w0, [x0]
  40561c:	7100101f 	cmp	w0, #0x4
  405620:	54000a8d 	b.le	405770 <main+0x516c>
  405624:	f00000c0 	adrp	x0, 420000 <__libc_start_main@GLIBC_2.34>
  405628:	9101e000 	add	x0, x0, #0x78
  40562c:	b9400000 	ldr	w0, [x0]
  405630:	71000c1f 	cmp	w0, #0x3
  405634:	540009ec 	b.gt	405770 <main+0x516c>
  405638:	f00000c0 	adrp	x0, 420000 <__libc_start_main@GLIBC_2.34>
  40563c:	91014000 	add	x0, x0, #0x50
  405640:	f9401001 	ldr	x1, [x0, #32]
  405644:	f00000c0 	adrp	x0, 420000 <__libc_start_main@GLIBC_2.34>
  405648:	91014000 	add	x0, x0, #0x50
  40564c:	f9400000 	ldr	x0, [x0]
  405650:	eb00003f 	cmp	x1, x0
  405654:	540008e1 	b.ne	405770 <main+0x516c>  // b.any
  405658:	f00000c0 	adrp	x0, 420000 <__libc_start_main@GLIBC_2.34>
  40565c:	91014000 	add	x0, x0, #0x50
  405660:	f9401001 	ldr	x1, [x0, #32]
  405664:	f00000c0 	adrp	x0, 420000 <__libc_start_main@GLIBC_2.34>
  405668:	91014000 	add	x0, x0, #0x50
  40566c:	f9400c00 	ldr	x0, [x0, #24]
  405670:	eb00003f 	cmp	x1, x0
  405674:	540007e1 	b.ne	405770 <main+0x516c>  // b.any
  405678:	f00000c0 	adrp	x0, 420000 <__libc_start_main@GLIBC_2.34>
  40567c:	91014000 	add	x0, x0, #0x50
  405680:	f9400400 	ldr	x0, [x0, #8]
  405684:	f9030fe0 	str	x0, [sp, #1560]
  405688:	f00000c0 	adrp	x0, 420000 <__libc_start_main@GLIBC_2.34>
  40568c:	91014000 	add	x0, x0, #0x50
  405690:	f9401000 	ldr	x0, [x0, #32]
  405694:	f9030be0 	str	x0, [sp, #1552]
  405698:	f9430be1 	ldr	x1, [sp, #1552]
  40569c:	f9430fe0 	ldr	x0, [sp, #1560]
  4056a0:	eb00003f 	cmp	x1, x0
  4056a4:	5400066d 	b.le	405770 <main+0x516c>
  4056a8:	f00000c0 	adrp	x0, 420000 <__libc_start_main@GLIBC_2.34>
  4056ac:	91014000 	add	x0, x0, #0x50
  4056b0:	f9400801 	ldr	x1, [x0, #16]
  4056b4:	f00000c0 	adrp	x0, 420000 <__libc_start_main@GLIBC_2.34>
  4056b8:	91014000 	add	x0, x0, #0x50
  4056bc:	f9000001 	str	x1, [x0]
  4056c0:	f00000c0 	adrp	x0, 420000 <__libc_start_main@GLIBC_2.34>
  4056c4:	9100b000 	add	x0, x0, #0x2c
  4056c8:	b9400000 	ldr	w0, [x0]
  4056cc:	51001001 	sub	w1, w0, #0x4
  4056d0:	f00000c0 	adrp	x0, 420000 <__libc_start_main@GLIBC_2.34>
  4056d4:	9100b000 	add	x0, x0, #0x2c
  4056d8:	b9000001 	str	w1, [x0]
  4056dc:	f9430fe1 	ldr	x1, [sp, #1560]
  4056e0:	f9430be0 	ldr	x0, [sp, #1552]
  4056e4:	8b000020 	add	x0, x1, x0
  4056e8:	f90307e0 	str	x0, [sp, #1544]
  4056ec:	f00000c0 	adrp	x0, 420000 <__libc_start_main@GLIBC_2.34>
  4056f0:	9101e000 	add	x0, x0, #0x78
  4056f4:	b9400001 	ldr	w1, [x0]
  4056f8:	f00000c0 	adrp	x0, 420000 <__libc_start_main@GLIBC_2.34>
  4056fc:	91020000 	add	x0, x0, #0x80
  405700:	93407c21 	sxtw	x1, w1
  405704:	f9430fe2 	ldr	x2, [sp, #1560]
  405708:	f8217802 	str	x2, [x0, x1, lsl #3]
  40570c:	f00000c0 	adrp	x0, 420000 <__libc_start_main@GLIBC_2.34>
  405710:	9101e000 	add	x0, x0, #0x78
  405714:	b9400000 	ldr	w0, [x0]
  405718:	11000401 	add	w1, w0, #0x1
  40571c:	f00000c0 	adrp	x0, 420000 <__libc_start_main@GLIBC_2.34>
  405720:	91020000 	add	x0, x0, #0x80
  405724:	93407c21 	sxtw	x1, w1
  405728:	f9430be2 	ldr	x2, [sp, #1552]
  40572c:	f8217802 	str	x2, [x0, x1, lsl #3]
  405730:	f00000c0 	adrp	x0, 420000 <__libc_start_main@GLIBC_2.34>
  405734:	9101e000 	add	x0, x0, #0x78
  405738:	b9400000 	ldr	w0, [x0]
  40573c:	11000801 	add	w1, w0, #0x2
  405740:	f00000c0 	adrp	x0, 420000 <__libc_start_main@GLIBC_2.34>
  405744:	91020000 	add	x0, x0, #0x80
  405748:	93407c21 	sxtw	x1, w1
  40574c:	f94307e2 	ldr	x2, [sp, #1544]
  405750:	f8217802 	str	x2, [x0, x1, lsl #3]
  405754:	f00000c0 	adrp	x0, 420000 <__libc_start_main@GLIBC_2.34>
  405758:	9101e000 	add	x0, x0, #0x78
  40575c:	b9400000 	ldr	w0, [x0]
  405760:	11000c01 	add	w1, w0, #0x3
  405764:	f00000c0 	adrp	x0, 420000 <__libc_start_main@GLIBC_2.34>
  405768:	9101e000 	add	x0, x0, #0x78
  40576c:	b9000001 	str	w1, [x0]
  405770:	f00000c0 	adrp	x0, 420000 <__libc_start_main@GLIBC_2.34>
  405774:	9100b000 	add	x0, x0, #0x2c
  405778:	b9400000 	ldr	w0, [x0]
  40577c:	7100101f 	cmp	w0, #0x4
  405780:	54000a8d 	b.le	4058d0 <main+0x52cc>
  405784:	f00000c0 	adrp	x0, 420000 <__libc_start_main@GLIBC_2.34>
  405788:	9101e000 	add	x0, x0, #0x78
  40578c:	b9400000 	ldr	w0, [x0]
  405790:	71000c1f 	cmp	w0, #0x3
  405794:	540009ec 	b.gt	4058d0 <main+0x52cc>
  405798:	f00000c0 	adrp	x0, 420000 <__libc_start_main@GLIBC_2.34>
  40579c:	91014000 	add	x0, x0, #0x50
  4057a0:	f9401001 	ldr	x1, [x0, #32]
  4057a4:	f00000c0 	adrp	x0, 420000 <__libc_start_main@GLIBC_2.34>
  4057a8:	91014000 	add	x0, x0, #0x50
  4057ac:	f9400800 	ldr	x0, [x0, #16]
  4057b0:	eb00003f 	cmp	x1, x0
  4057b4:	540008e1 	b.ne	4058d0 <main+0x52cc>  // b.any
  4057b8:	f00000c0 	adrp	x0, 420000 <__libc_start_main@GLIBC_2.34>
  4057bc:	91014000 	add	x0, x0, #0x50
  4057c0:	f9401001 	ldr	x1, [x0, #32]
  4057c4:	f00000c0 	adrp	x0, 420000 <__libc_start_main@GLIBC_2.34>
  4057c8:	91014000 	add	x0, x0, #0x50
  4057cc:	f9400000 	ldr	x0, [x0]
  4057d0:	eb00003f 	cmp	x1, x0
  4057d4:	540007e1 	b.ne	4058d0 <main+0x52cc>  // b.any
  4057d8:	f00000c0 	adrp	x0, 420000 <__libc_start_main@GLIBC_2.34>
  4057dc:	91014000 	add	x0, x0, #0x50
  4057e0:	f9400400 	ldr	x0, [x0, #8]
  4057e4:	f90303e0 	str	x0, [sp, #1536]
  4057e8:	f00000c0 	adrp	x0, 420000 <__libc_start_main@GLIBC_2.34>
  4057ec:	91014000 	add	x0, x0, #0x50
  4057f0:	f9401000 	ldr	x0, [x0, #32]
  4057f4:	f902ffe0 	str	x0, [sp, #1528]
  4057f8:	f942ffe1 	ldr	x1, [sp, #1528]
  4057fc:	f94303e0 	ldr	x0, [sp, #1536]
  405800:	eb00003f 	cmp	x1, x0
  405804:	5400066d 	b.le	4058d0 <main+0x52cc>
  405808:	f00000c0 	adrp	x0, 420000 <__libc_start_main@GLIBC_2.34>
  40580c:	91014000 	add	x0, x0, #0x50
  405810:	f9400c01 	ldr	x1, [x0, #24]
  405814:	f00000c0 	adrp	x0, 420000 <__libc_start_main@GLIBC_2.34>
  405818:	91014000 	add	x0, x0, #0x50
  40581c:	f9000001 	str	x1, [x0]
  405820:	f00000c0 	adrp	x0, 420000 <__libc_start_main@GLIBC_2.34>
  405824:	9100b000 	add	x0, x0, #0x2c
  405828:	b9400000 	ldr	w0, [x0]
  40582c:	51001001 	sub	w1, w0, #0x4
  405830:	f00000c0 	adrp	x0, 420000 <__libc_start_main@GLIBC_2.34>
  405834:	9100b000 	add	x0, x0, #0x2c
  405838:	b9000001 	str	w1, [x0]
  40583c:	f94303e1 	ldr	x1, [sp, #1536]
  405840:	f942ffe0 	ldr	x0, [sp, #1528]
  405844:	8b000020 	add	x0, x1, x0
  405848:	f902fbe0 	str	x0, [sp, #1520]
  40584c:	f00000c0 	adrp	x0, 420000 <__libc_start_main@GLIBC_2.34>
  405850:	9101e000 	add	x0, x0, #0x78
  405854:	b9400001 	ldr	w1, [x0]
  405858:	f00000c0 	adrp	x0, 420000 <__libc_start_main@GLIBC_2.34>
  40585c:	91020000 	add	x0, x0, #0x80
  405860:	93407c21 	sxtw	x1, w1
  405864:	f94303e2 	ldr	x2, [sp, #1536]
  405868:	f8217802 	str	x2, [x0, x1, lsl #3]
  40586c:	f00000c0 	adrp	x0, 420000 <__libc_start_main@GLIBC_2.34>
  405870:	9101e000 	add	x0, x0, #0x78
  405874:	b9400000 	ldr	w0, [x0]
  405878:	11000401 	add	w1, w0, #0x1
  40587c:	f00000c0 	adrp	x0, 420000 <__libc_start_main@GLIBC_2.34>
  405880:	91020000 	add	x0, x0, #0x80
  405884:	93407c21 	sxtw	x1, w1
  405888:	f942ffe2 	ldr	x2, [sp, #1528]
  40588c:	f8217802 	str	x2, [x0, x1, lsl #3]
  405890:	f00000c0 	adrp	x0, 420000 <__libc_start_main@GLIBC_2.34>
  405894:	9101e000 	add	x0, x0, #0x78
  405898:	b9400000 	ldr	w0, [x0]
  40589c:	11000801 	add	w1, w0, #0x2
  4058a0:	f00000c0 	adrp	x0, 420000 <__libc_start_main@GLIBC_2.34>
  4058a4:	91020000 	add	x0, x0, #0x80
  4058a8:	93407c21 	sxtw	x1, w1
  4058ac:	f942fbe2 	ldr	x2, [sp, #1520]
  4058b0:	f8217802 	str	x2, [x0, x1, lsl #3]
  4058b4:	f00000c0 	adrp	x0, 420000 <__libc_start_main@GLIBC_2.34>
  4058b8:	9101e000 	add	x0, x0, #0x78
  4058bc:	b9400000 	ldr	w0, [x0]
  4058c0:	11000c01 	add	w1, w0, #0x3
  4058c4:	f00000c0 	adrp	x0, 420000 <__libc_start_main@GLIBC_2.34>
  4058c8:	9101e000 	add	x0, x0, #0x78
  4058cc:	b9000001 	str	w1, [x0]
  4058d0:	f00000c0 	adrp	x0, 420000 <__libc_start_main@GLIBC_2.34>
  4058d4:	9100b000 	add	x0, x0, #0x2c
  4058d8:	b9400000 	ldr	w0, [x0]
  4058dc:	7100101f 	cmp	w0, #0x4
  4058e0:	540009cd 	b.le	405a18 <main+0x5414>
  4058e4:	f00000c0 	adrp	x0, 420000 <__libc_start_main@GLIBC_2.34>
  4058e8:	9101e000 	add	x0, x0, #0x78
  4058ec:	b9400000 	ldr	w0, [x0]
  4058f0:	71000c1f 	cmp	w0, #0x3
  4058f4:	5400092c 	b.gt	405a18 <main+0x5414>
  4058f8:	f00000c0 	adrp	x0, 420000 <__libc_start_main@GLIBC_2.34>
  4058fc:	91014000 	add	x0, x0, #0x50
  405900:	f9401001 	ldr	x1, [x0, #32]
  405904:	f00000c0 	adrp	x0, 420000 <__libc_start_main@GLIBC_2.34>
  405908:	91014000 	add	x0, x0, #0x50
  40590c:	f9400800 	ldr	x0, [x0, #16]
  405910:	eb00003f 	cmp	x1, x0
  405914:	54000821 	b.ne	405a18 <main+0x5414>  // b.any
  405918:	f00000c0 	adrp	x0, 420000 <__libc_start_main@GLIBC_2.34>
  40591c:	91014000 	add	x0, x0, #0x50
  405920:	f9401001 	ldr	x1, [x0, #32]
  405924:	f00000c0 	adrp	x0, 420000 <__libc_start_main@GLIBC_2.34>
  405928:	91014000 	add	x0, x0, #0x50
  40592c:	f9400c00 	ldr	x0, [x0, #24]
  405930:	eb00003f 	cmp	x1, x0
  405934:	54000721 	b.ne	405a18 <main+0x5414>  // b.any
  405938:	f00000c0 	adrp	x0, 420000 <__libc_start_main@GLIBC_2.34>
  40593c:	91014000 	add	x0, x0, #0x50
  405940:	f9400400 	ldr	x0, [x0, #8]
  405944:	f902f7e0 	str	x0, [sp, #1512]
  405948:	f00000c0 	adrp	x0, 420000 <__libc_start_main@GLIBC_2.34>
  40594c:	91014000 	add	x0, x0, #0x50
  405950:	f9401000 	ldr	x0, [x0, #32]
  405954:	f902f3e0 	str	x0, [sp, #1504]
  405958:	f942f3e1 	ldr	x1, [sp, #1504]
  40595c:	f942f7e0 	ldr	x0, [sp, #1512]
  405960:	eb00003f 	cmp	x1, x0
  405964:	540005ad 	b.le	405a18 <main+0x5414>
  405968:	f00000c0 	adrp	x0, 420000 <__libc_start_main@GLIBC_2.34>
  40596c:	9100b000 	add	x0, x0, #0x2c
  405970:	b9400000 	ldr	w0, [x0]
  405974:	51001001 	sub	w1, w0, #0x4
  405978:	f00000c0 	adrp	x0, 420000 <__libc_start_main@GLIBC_2.34>
  40597c:	9100b000 	add	x0, x0, #0x2c
  405980:	b9000001 	str	w1, [x0]
  405984:	f942f7e1 	ldr	x1, [sp, #1512]
  405988:	f942f3e0 	ldr	x0, [sp, #1504]
  40598c:	8b000020 	add	x0, x1, x0
  405990:	f902efe0 	str	x0, [sp, #1496]
  405994:	f00000c0 	adrp	x0, 420000 <__libc_start_main@GLIBC_2.34>
  405998:	9101e000 	add	x0, x0, #0x78
  40599c:	b9400001 	ldr	w1, [x0]
  4059a0:	f00000c0 	adrp	x0, 420000 <__libc_start_main@GLIBC_2.34>
  4059a4:	91020000 	add	x0, x0, #0x80
  4059a8:	93407c21 	sxtw	x1, w1
  4059ac:	f942f7e2 	ldr	x2, [sp, #1512]
  4059b0:	f8217802 	str	x2, [x0, x1, lsl #3]
  4059b4:	f00000c0 	adrp	x0, 420000 <__libc_start_main@GLIBC_2.34>
  4059b8:	9101e000 	add	x0, x0, #0x78
  4059bc:	b9400000 	ldr	w0, [x0]
  4059c0:	11000401 	add	w1, w0, #0x1
  4059c4:	f00000c0 	adrp	x0, 420000 <__libc_start_main@GLIBC_2.34>
  4059c8:	91020000 	add	x0, x0, #0x80
  4059cc:	93407c21 	sxtw	x1, w1
  4059d0:	f942f3e2 	ldr	x2, [sp, #1504]
  4059d4:	f8217802 	str	x2, [x0, x1, lsl #3]
  4059d8:	f00000c0 	adrp	x0, 420000 <__libc_start_main@GLIBC_2.34>
  4059dc:	9101e000 	add	x0, x0, #0x78
  4059e0:	b9400000 	ldr	w0, [x0]
  4059e4:	11000801 	add	w1, w0, #0x2
  4059e8:	f00000c0 	adrp	x0, 420000 <__libc_start_main@GLIBC_2.34>
  4059ec:	91020000 	add	x0, x0, #0x80
  4059f0:	93407c21 	sxtw	x1, w1
  4059f4:	f942efe2 	ldr	x2, [sp, #1496]
  4059f8:	f8217802 	str	x2, [x0, x1, lsl #3]
  4059fc:	f00000c0 	adrp	x0, 420000 <__libc_start_main@GLIBC_2.34>
  405a00:	9101e000 	add	x0, x0, #0x78
  405a04:	b9400000 	ldr	w0, [x0]
  405a08:	11000c01 	add	w1, w0, #0x3
  405a0c:	f00000c0 	adrp	x0, 420000 <__libc_start_main@GLIBC_2.34>
  405a10:	9101e000 	add	x0, x0, #0x78
  405a14:	b9000001 	str	w1, [x0]
  405a18:	f00000c0 	adrp	x0, 420000 <__libc_start_main@GLIBC_2.34>
  405a1c:	9100b000 	add	x0, x0, #0x2c
  405a20:	b9400000 	ldr	w0, [x0]
  405a24:	7100101f 	cmp	w0, #0x4
  405a28:	54000a8d 	b.le	405b78 <main+0x5574>
  405a2c:	f00000c0 	adrp	x0, 420000 <__libc_start_main@GLIBC_2.34>
  405a30:	9101e000 	add	x0, x0, #0x78
  405a34:	b9400000 	ldr	w0, [x0]
  405a38:	71000c1f 	cmp	w0, #0x3
  405a3c:	540009ec 	b.gt	405b78 <main+0x5574>
  405a40:	f00000c0 	adrp	x0, 420000 <__libc_start_main@GLIBC_2.34>
  405a44:	91014000 	add	x0, x0, #0x50
  405a48:	f9401001 	ldr	x1, [x0, #32]
  405a4c:	f00000c0 	adrp	x0, 420000 <__libc_start_main@GLIBC_2.34>
  405a50:	91014000 	add	x0, x0, #0x50
  405a54:	f9400c00 	ldr	x0, [x0, #24]
  405a58:	eb00003f 	cmp	x1, x0
  405a5c:	540008e1 	b.ne	405b78 <main+0x5574>  // b.any
  405a60:	f00000c0 	adrp	x0, 420000 <__libc_start_main@GLIBC_2.34>
  405a64:	91014000 	add	x0, x0, #0x50
  405a68:	f9401001 	ldr	x1, [x0, #32]
  405a6c:	f00000c0 	adrp	x0, 420000 <__libc_start_main@GLIBC_2.34>
  405a70:	91014000 	add	x0, x0, #0x50
  405a74:	f9400000 	ldr	x0, [x0]
  405a78:	eb00003f 	cmp	x1, x0
  405a7c:	540007e1 	b.ne	405b78 <main+0x5574>  // b.any
  405a80:	f00000c0 	adrp	x0, 420000 <__libc_start_main@GLIBC_2.34>
  405a84:	91014000 	add	x0, x0, #0x50
  405a88:	f9400400 	ldr	x0, [x0, #8]
  405a8c:	f902ebe0 	str	x0, [sp, #1488]
  405a90:	f00000c0 	adrp	x0, 420000 <__libc_start_main@GLIBC_2.34>
  405a94:	91014000 	add	x0, x0, #0x50
  405a98:	f9401000 	ldr	x0, [x0, #32]
  405a9c:	f902e7e0 	str	x0, [sp, #1480]
  405aa0:	f942e7e1 	ldr	x1, [sp, #1480]
  405aa4:	f942ebe0 	ldr	x0, [sp, #1488]
  405aa8:	eb00003f 	cmp	x1, x0
  405aac:	5400066d 	b.le	405b78 <main+0x5574>
  405ab0:	f00000c0 	adrp	x0, 420000 <__libc_start_main@GLIBC_2.34>
  405ab4:	91014000 	add	x0, x0, #0x50
  405ab8:	f9400801 	ldr	x1, [x0, #16]
  405abc:	f00000c0 	adrp	x0, 420000 <__libc_start_main@GLIBC_2.34>
  405ac0:	91014000 	add	x0, x0, #0x50
  405ac4:	f9000001 	str	x1, [x0]
  405ac8:	f00000c0 	adrp	x0, 420000 <__libc_start_main@GLIBC_2.34>
  405acc:	9100b000 	add	x0, x0, #0x2c
  405ad0:	b9400000 	ldr	w0, [x0]
  405ad4:	51001001 	sub	w1, w0, #0x4
  405ad8:	f00000c0 	adrp	x0, 420000 <__libc_start_main@GLIBC_2.34>
  405adc:	9100b000 	add	x0, x0, #0x2c
  405ae0:	b9000001 	str	w1, [x0]
  405ae4:	f942ebe1 	ldr	x1, [sp, #1488]
  405ae8:	f942e7e0 	ldr	x0, [sp, #1480]
  405aec:	8b000020 	add	x0, x1, x0
  405af0:	f902e3e0 	str	x0, [sp, #1472]
  405af4:	f00000c0 	adrp	x0, 420000 <__libc_start_main@GLIBC_2.34>
  405af8:	9101e000 	add	x0, x0, #0x78
  405afc:	b9400001 	ldr	w1, [x0]
  405b00:	f00000c0 	adrp	x0, 420000 <__libc_start_main@GLIBC_2.34>
  405b04:	91020000 	add	x0, x0, #0x80
  405b08:	93407c21 	sxtw	x1, w1
  405b0c:	f942ebe2 	ldr	x2, [sp, #1488]
  405b10:	f8217802 	str	x2, [x0, x1, lsl #3]
  405b14:	f00000c0 	adrp	x0, 420000 <__libc_start_main@GLIBC_2.34>
  405b18:	9101e000 	add	x0, x0, #0x78
  405b1c:	b9400000 	ldr	w0, [x0]
  405b20:	11000401 	add	w1, w0, #0x1
  405b24:	f00000c0 	adrp	x0, 420000 <__libc_start_main@GLIBC_2.34>
  405b28:	91020000 	add	x0, x0, #0x80
  405b2c:	93407c21 	sxtw	x1, w1
  405b30:	f942e7e2 	ldr	x2, [sp, #1480]
  405b34:	f8217802 	str	x2, [x0, x1, lsl #3]
  405b38:	f00000c0 	adrp	x0, 420000 <__libc_start_main@GLIBC_2.34>
  405b3c:	9101e000 	add	x0, x0, #0x78
  405b40:	b9400000 	ldr	w0, [x0]
  405b44:	11000801 	add	w1, w0, #0x2
  405b48:	f00000c0 	adrp	x0, 420000 <__libc_start_main@GLIBC_2.34>
  405b4c:	91020000 	add	x0, x0, #0x80
  405b50:	93407c21 	sxtw	x1, w1
  405b54:	f942e3e2 	ldr	x2, [sp, #1472]
  405b58:	f8217802 	str	x2, [x0, x1, lsl #3]
  405b5c:	f00000c0 	adrp	x0, 420000 <__libc_start_main@GLIBC_2.34>
  405b60:	9101e000 	add	x0, x0, #0x78
  405b64:	b9400000 	ldr	w0, [x0]
  405b68:	11000c01 	add	w1, w0, #0x3
  405b6c:	f00000c0 	adrp	x0, 420000 <__libc_start_main@GLIBC_2.34>
  405b70:	9101e000 	add	x0, x0, #0x78
  405b74:	b9000001 	str	w1, [x0]
  405b78:	f00000c0 	adrp	x0, 420000 <__libc_start_main@GLIBC_2.34>
  405b7c:	9100b000 	add	x0, x0, #0x2c
  405b80:	b9400000 	ldr	w0, [x0]
  405b84:	7100101f 	cmp	w0, #0x4
  405b88:	540009cd 	b.le	405cc0 <main+0x56bc>
  405b8c:	f00000c0 	adrp	x0, 420000 <__libc_start_main@GLIBC_2.34>
  405b90:	9101e000 	add	x0, x0, #0x78
  405b94:	b9400000 	ldr	w0, [x0]
  405b98:	71000c1f 	cmp	w0, #0x3
  405b9c:	5400092c 	b.gt	405cc0 <main+0x56bc>
  405ba0:	f00000c0 	adrp	x0, 420000 <__libc_start_main@GLIBC_2.34>
  405ba4:	91014000 	add	x0, x0, #0x50
  405ba8:	f9401001 	ldr	x1, [x0, #32]
  405bac:	f00000c0 	adrp	x0, 420000 <__libc_start_main@GLIBC_2.34>
  405bb0:	91014000 	add	x0, x0, #0x50
  405bb4:	f9400c00 	ldr	x0, [x0, #24]
  405bb8:	eb00003f 	cmp	x1, x0
  405bbc:	54000821 	b.ne	405cc0 <main+0x56bc>  // b.any
  405bc0:	f00000c0 	adrp	x0, 420000 <__libc_start_main@GLIBC_2.34>
  405bc4:	91014000 	add	x0, x0, #0x50
  405bc8:	f9401001 	ldr	x1, [x0, #32]
  405bcc:	f00000c0 	adrp	x0, 420000 <__libc_start_main@GLIBC_2.34>
  405bd0:	91014000 	add	x0, x0, #0x50
  405bd4:	f9400800 	ldr	x0, [x0, #16]
  405bd8:	eb00003f 	cmp	x1, x0
  405bdc:	54000721 	b.ne	405cc0 <main+0x56bc>  // b.any
  405be0:	f00000c0 	adrp	x0, 420000 <__libc_start_main@GLIBC_2.34>
  405be4:	91014000 	add	x0, x0, #0x50
  405be8:	f9400400 	ldr	x0, [x0, #8]
  405bec:	f902dfe0 	str	x0, [sp, #1464]
  405bf0:	f00000c0 	adrp	x0, 420000 <__libc_start_main@GLIBC_2.34>
  405bf4:	91014000 	add	x0, x0, #0x50
  405bf8:	f9401000 	ldr	x0, [x0, #32]
  405bfc:	f902dbe0 	str	x0, [sp, #1456]
  405c00:	f942dbe1 	ldr	x1, [sp, #1456]
  405c04:	f942dfe0 	ldr	x0, [sp, #1464]
  405c08:	eb00003f 	cmp	x1, x0
  405c0c:	540005ad 	b.le	405cc0 <main+0x56bc>
  405c10:	f00000c0 	adrp	x0, 420000 <__libc_start_main@GLIBC_2.34>
  405c14:	9100b000 	add	x0, x0, #0x2c
  405c18:	b9400000 	ldr	w0, [x0]
  405c1c:	51001001 	sub	w1, w0, #0x4
  405c20:	f00000c0 	adrp	x0, 420000 <__libc_start_main@GLIBC_2.34>
  405c24:	9100b000 	add	x0, x0, #0x2c
  405c28:	b9000001 	str	w1, [x0]
  405c2c:	f942dfe1 	ldr	x1, [sp, #1464]
  405c30:	f942dbe0 	ldr	x0, [sp, #1456]
  405c34:	8b000020 	add	x0, x1, x0
  405c38:	f902d7e0 	str	x0, [sp, #1448]
  405c3c:	f00000c0 	adrp	x0, 420000 <__libc_start_main@GLIBC_2.34>
  405c40:	9101e000 	add	x0, x0, #0x78
  405c44:	b9400001 	ldr	w1, [x0]
  405c48:	f00000c0 	adrp	x0, 420000 <__libc_start_main@GLIBC_2.34>
  405c4c:	91020000 	add	x0, x0, #0x80
  405c50:	93407c21 	sxtw	x1, w1
  405c54:	f942dfe2 	ldr	x2, [sp, #1464]
  405c58:	f8217802 	str	x2, [x0, x1, lsl #3]
  405c5c:	f00000c0 	adrp	x0, 420000 <__libc_start_main@GLIBC_2.34>
  405c60:	9101e000 	add	x0, x0, #0x78
  405c64:	b9400000 	ldr	w0, [x0]
  405c68:	11000401 	add	w1, w0, #0x1
  405c6c:	f00000c0 	adrp	x0, 420000 <__libc_start_main@GLIBC_2.34>
  405c70:	91020000 	add	x0, x0, #0x80
  405c74:	93407c21 	sxtw	x1, w1
  405c78:	f942dbe2 	ldr	x2, [sp, #1456]
  405c7c:	f8217802 	str	x2, [x0, x1, lsl #3]
  405c80:	f00000c0 	adrp	x0, 420000 <__libc_start_main@GLIBC_2.34>
  405c84:	9101e000 	add	x0, x0, #0x78
  405c88:	b9400000 	ldr	w0, [x0]
